(dp1
Vrating
p2
I4
sVreference
p3
VCnRkAAAAk0qDwJFqy6icKpa-pK_I5MAEprdEsrUsIDMFd9OOlf7Qj7sO-u1ysMAZiu_csBjSObIoBu5oOsTJAjrBvM5g7Cu9AIQhm6rtjAfJK8yc4Gg7aDfWHNlQHjivlKGMBBXZ0L1AlAuxr8A-QEXSH4ZX2hIQJKInLBPpTZ9PrmMA6RaJRRoUmpemD6CwKw8sSbe2nQ6_nWB62AI
p4
sVprice_level
p5
I3
sVplace_id
p6
VChIJZbMizLuAhYARKiMObMwPGfc
p7
sVurl
p8
Vhttps://maps.google.com/?cid=17805279972446577450
p9
sVformatted_address
p10
V1300 Fillmore St, San Francisco, CA 94115, United States
p11
sVid
p12
Ve97350011a94222318a409cfe4f87df5391c2b63
p13
sVopening_hours
p14
(dp15
Vweekday_text
p16
(lp17
VMonday: Closed
p18
aVTuesday: 5:30 \u2013 10:00 PM
p19
aVWednesday: 5:30 \u2013 10:00 PM
p20
aVThursday: 5:30 \u2013 10:00 PM
p21
aVFriday: 5:30 \u2013 11:30 PM
p22
aVSaturday: 5:30 \u2013 11:30 PM
p23
aVSunday: 11:00 AM \u2013 3:00 PM, 5:30 \u2013 9:00 PM
p24
asVopen_now
p25
I00
sVperiods
p26
(lp27
(dp28
Vclose
p29
(dp30
Vday
p31
I0
sVtime
p32
V1500
p33
ssVopen
p34
(dp35
Vday
p36
I0
sVtime
p37
V1100
p38
ssa(dp39
Vclose
p40
(dp41
Vday
p42
I0
sVtime
p43
V2100
p44
ssVopen
p45
(dp46
Vday
p47
I0
sVtime
p48
V1730
p49
ssa(dp50
Vclose
p51
(dp52
Vday
p53
I2
sVtime
p54
V2200
p55
ssVopen
p56
(dp57
Vday
p58
I2
sVtime
p59
V1730
p60
ssa(dp61
Vclose
p62
(dp63
Vday
p64
I3
sVtime
p65
V2200
p66
ssVopen
p67
(dp68
Vday
p69
I3
sVtime
p70
V1730
p71
ssa(dp72
Vclose
p73
(dp74
Vday
p75
I4
sVtime
p76
V2200
p77
ssVopen
p78
(dp79
Vday
p80
I4
sVtime
p81
V1730
p82
ssa(dp83
Vclose
p84
(dp85
Vday
p86
I5
sVtime
p87
V2330
p88
ssVopen
p89
(dp90
Vday
p91
I5
sVtime
p92
V1730
p93
ssa(dp94
Vclose
p95
(dp96
Vday
p97
I6
sVtime
p98
V2330
p99
ssVopen
p100
(dp101
Vday
p102
I6
sVtime
p103
V1730
p104
ssassVvicinity
p105
V1300 Fillmore Street, San Francisco
p106
sVscope
p107
VGOOGLE
p108
sVwebsite
p109
Vhttp://www.1300fillmore.com/
p110
sVutc_offset
p111
I-420
sVuser_ratings_total
p112
I102
sVphotos
p113
(lp114
(dp115
Vphoto_reference
p116
VCoQBdwAAAP3eyrjYgDmbR7453D6vhSddpcz08_6-64TPJ-iqVRU0HlP1U7Us0o6SpO6QeEosV2JqGsqACkDzaBZc99_0FID8CLJQjKSk1Om5gSSj98YpAVe0TBaqPTHsjg7kobpenIqiHrWH8hnGuExyV2Y7GmlgO0QeHjqYfc2h2CL_xNKrEhBkZUEAU3XaTfY4RjFvBp1EGhQ8KOfjiPAOHEgtp5qp9mlid6osUg
p117
sVwidth
p118
I401
sVhtml_attributions
p119
(lp120
V<a href="https://maps.google.com/maps/contrib/112927962004015559349/photos">1300 On Fillmore</a>
p121
asVheight
p122
I400
sa(dp123
Vphoto_reference
p124
VCmRdAAAAJ8IEkZNGYicnxGXq4GHPTeEGOEd6zQ8U-i1IT1e5URTUL27l-82YRf8noFchHjSjuG7qoWKUPPXKkxNO_UDiGu5psn-FurIuaQeV_JETJfFLMyCYkfsyyeEy_kGFveALEhCsGPcQgCEX32OI3Uj88gjpGhSrl6hp6VOPllvwLX7hK0pNNE616Q
p125
sVwidth
p126
I2047
sVhtml_attributions
p127
(lp128
V<a href="https://maps.google.com/maps/contrib/108037857295668408085/photos">George Nguyen</a>
p129
asVheight
p130
I2048
sa(dp131
Vphoto_reference
p132
VCmRdAAAATncSwQ81XWQ3qR126ValLzBa5JRxKBA8ZNwRjiDqqBCi5YLj12_IJo-JtKwUcrmMqzbfKnhjg8jIEX9ZQpng3D9VD2q7WNJ0H-O3pKWSwY9opaZVoiR3fGRPDCZrNsq_EhBEg61sm5ND7wb1gXyECKN3GhQrqGKmVbuizRjqPKAMutngtrZVww
p133
sVwidth
p134
I4128
sVhtml_attributions
p135
(lp136
V<a href="https://maps.google.com/maps/contrib/105137040089263207333/photos">Alex K</a>
p137
asVheight
p138
I2322
sasVtypes
p139
(lp140
Vnight_club
p141
aVrestaurant
p142
aVfood
p143
aVbar
p144
aVpoint_of_interest
p145
aVestablishment
p146
asVicon
p147
Vhttps://maps.gstatic.com/mapfiles/place_api/icons/restaurant-71.png
p148
sVname
p149
V1300 On Fillmore
p150
sVgeometry
p151
(dp152
Vaccess_points
p153
(lp154
(dp155
Vtravel_modes
p156
(lp157
VDRIVING
p158
aVBICYCLING
p159
aVWALKING
p160
aVTRANSIT
p161
asVlocation
p162
(dp163
Vlat
p164
cdecimal
Decimal
p165
(S'37.7815442'
tRp166
sVlng
p167
g165
(S'-122.4323391'
tRp168
ssasVlocation
p169
(dp170
Vlat
p171
g165
(S'37.7816586'
tRp172
sVlng
p173
g165
(S'-122.4319167'
tRp174
sssVadr_address
p175
V<span class="street-address">1300 Fillmore St</span>, <span class="locality">San Francisco</span>, <span class="region">CA</span> <span class="postal-code">94115-4113</span>, <span class="country-name">United States</span>
p176
sVinternational_phone_number
p177
V+1 415-771-7100
p178
sVreviews
p179
(lp180
(dp181
Vrating
p182
I3
sVaspects
p183
(lp184
(dp185
Vrating
p186
I1
sVtype
p187
Voverall
p188
sasVprofile_photo_url
p189
V//lh6.googleusercontent.com/-MX5MTuwBofc/AAAAAAAAAAI/AAAAAAAAAFo/3_EP4eaqUwY/photo.jpg
p190
sVlanguage
p191
Ven
p192
sVtext
p193
VCame for brunch. The price is absurdly high for what you get, but the atmosphere is nice. Be prepared: in addition to tip you will pay $6 per person (not per table) for the music. 
p194
sVauthor_name
p195
VLeighann Breeze
p196
sVauthor_url
p197
Vhttps://plus.google.com/116073309429759671127
p198
sVtime
p199
I1461446712
sa(dp200
Vrating
p201
I4
sVaspects
p202
(lp203
(dp204
Vrating
p205
I2
sVtype
p206
Voverall
p207
sasVprofile_photo_url
p208
V//lh4.googleusercontent.com/-J-TDoH2SKTw/AAAAAAAAAAI/AAAAAAAAABI/03wsfdr3T9g/photo.jpg
p209
sVlanguage
p210
Ven
p211
sVtext
p212
VI've had a lot of fried chicken in my life but this is one of the best places to get fried chicken in SF. I got the following:BFC Two pieces of our secret recipe fried chicken with fries, cole slaw & cream biscuit CHICKEN IS SO AND ! Sprinkle with some hot sauce- NOMS.
p213
sVauthor_name
p214
VEvon Ives
p215
sVauthor_url
p216
Vhttps://plus.google.com/117017072418884948074
p217
sVtime
p218
I1444102445
sa(dp219
Vrating
p220
I5
sVaspects
p221
(lp222
(dp223
Vrating
p224
I3
sVtype
p225
Voverall
p226
sasVprofile_photo_url
p227
V//lh4.googleusercontent.com/-KiCNjvt2saA/AAAAAAAAAAI/AAAAAAAAAVA/C8gooNsJVzw/photo.jpg
p228
sVlanguage
p229
Ven
p230
sVtext
p231
VIs a great experience . The food is delicious. Plus I worked repairing the place. The chef is a great guy.
p232
sVauthor_name
p233
VF De Jesus
p234
sVauthor_url
p235
Vhttps://plus.google.com/103170850176772319660
p236
sVtime
p237
I1444743748
sa(dp238
Vrating
p239
I3
sVaspects
p240
(lp241
(dp242
Vrating
p243
I1
sVtype
p244
Voverall
p245
sasVprofile_photo_url
p246
V//lh4.googleusercontent.com/-glP1a3DHcPY/AAAAAAAAAAI/AAAAAAAAANo/nEhxHaPQ4lo/photo.jpg
p247
sVlanguage
p248
Ven
p249
sVtext
p250
VLet's face it. The three stars are for the waiter, who did a great job! Kudos to him for being attentive, prompt and friendly. The food was nothing out of the ordinary and absolutely overpriced!! The cocktails were good, but nothing special. The okra appetizer was fried way too long and dripping with grease. The steak had pretty much no flavor, the veggies had something crunchy in them, which I am not sure if I want to know what it was and the dessert beignets weren't any better than Olive Garden's Zeppole.
p251
sVauthor_name
p252
VAlex K
p253
sVauthor_url
p254
Vhttps://plus.google.com/105137040089263207333
p255
sVtime
p256
I1429222282
sa(dp257
Vrating
p258
I5
sVaspects
p259
(lp260
(dp261
Vrating
p262
I3
sVtype
p263
Voverall
p264
sasVprofile_photo_url
p265
V//lh3.googleusercontent.com/-R3jMunj0nZ8/AAAAAAAAAAI/AAAAAAAAADc/qKb-NdV1wAk/photo.jpg
p266
sVlanguage
p267
Ven
p268
sVtext
p269
VWe came here on a Sunday afternoon for the gospel brunch.  We were celebrating my friend's birthday and had reservations for a group of about 15 people.  We started off with the bottomless mimosas.  The staff does an excellent job of making sure that your glass is always full.  I cannot rave enough about the service. I found the wait staff to be so friendly and on top of it.  What made the experience even better was the live music.  The live band sang old soul and Motown music.  They did a great job of engaging the crowd and even had some people at our table sing on the microphone.  The whole experience was really fun and I can't wait to go back.
p270
sVauthor_name
p271
VMandy Irvine
p272
sVauthor_url
p273
Vhttps://plus.google.com/104622617500175604392
p274
sVtime
p275
I1412402385
sasVformatted_phone_number
p276
V(415) 771-7100
p277
sVaddress_components
p278
(lp279
(dp280
Vlong_name
p281
V1300
p282
sVtypes
p283
(lp284
Vstreet_number
p285
asVshort_name
p286
V1300
p287
sa(dp288
Vlong_name
p289
VFillmore Street
p290
sVtypes
p291
(lp292
Vroute
p293
asVshort_name
p294
VFillmore St
p295
sa(dp296
Vlong_name
p297
VSan Francisco
p298
sVtypes
p299
(lp300
Vlocality
p301
aVpolitical
p302
asVshort_name
p303
VSF
p304
sa(dp305
Vlong_name
p306
VCalifornia
p307
sVtypes
p308
(lp309
Vadministrative_area_level_1
p310
aVpolitical
p311
asVshort_name
p312
VCA
p313
sa(dp314
Vlong_name
p315
VUnited States
p316
sVtypes
p317
(lp318
Vcountry
p319
aVpolitical
p320
asVshort_name
p321
VUS
p322
sa(dp323
Vlong_name
p324
V94115
p325
sVtypes
p326
(lp327
Vpostal_code
p328
asVshort_name
p329
V94115
p330
sa(dp331
Vlong_name
p332
V4113
p333
sVtypes
p334
(lp335
Vpostal_code_suffix
p336
asVshort_name
p337
V4113
p338
sas.