(dp1
Vwebsite
p2
Vhttp://www.agacistore.com/
p3
sVutc_offset
p4
I-420
sVuser_ratings_total
p5
I1
sVname
p6
VA'Gaci
p7
sVreference
p8
VCmRZAAAALT9TfZbFWtu-W_MkS6NpgEpSICOvWF9qgWDbxs5GEo1YGI23suFw7YnQ9LODTHyxXnKPqfGMKv8_AXeYwIzv0pR1kduqSk7jQyT-tA6KS1watj91rZILp06GwBz9PaK2EhAQ48L_gasA7tKtav543QJQGhSdUyRD-3iLDVJgB0cQiyvXJvcTLg
p9
sVgeometry
p10
(dp11
Vaccess_points
p12
(lp13
(dp14
Vtravel_modes
p15
(lp16
VDRIVING
p17
aVBICYCLING
p18
aVWALKING
p19
aVTRANSIT
p20
asVlocation
p21
(dp22
Vlat
p23
cdecimal
Decimal
p24
(S'37.9672445'
tRp25
sVlng
p26
g24
(S'-122.0617372'
tRp27
ssasVlocation
p28
(dp29
Vlat
p30
g24
(S'37.96819230000001'
tRp31
sVlng
p32
g24
(S'-122.0607534'
tRp33
sssVadr_address
p34
V<span class="extended-address">Sunvalley Shopping Center</span>, <span class="street-address">250 Sunvalley Mall</span>, <span class="locality">Concord</span>, <span class="region">CA</span> <span class="postal-code">94520-5807</span>, <span class="country-name">United States</span>
p35
sVplace_id
p36
VChIJVSjv47dmhYARFJi3vYC-QTg
p37
sVinternational_phone_number
p38
V+1 925-689-7635
p39
sVvicinity
p40
VSunvalley Shopping Center, 250 Sunvalley Mall, Concord
p41
sVreviews
p42
(lp43
(dp44
Vrating
p45
I5
sVaspects
p46
(lp47
(dp48
Vrating
p49
I3
sVtype
p50
Voverall
p51
sasVprofile_photo_url
p52
V//lh6.googleusercontent.com/--cDM46No1zY/AAAAAAAAAAI/AAAAAAAAAOw/g1B-bO333IM/photo.jpg
p53
sVlanguage
p54
Ven
p55
sVtext
p56
VAffordable, cute, sparkly clothing and shoes. I love this place. 
p57
sVauthor_name
p58
VKristin Avila
p59
sVauthor_url
p60
Vhttps://plus.google.com/115921841192391997333
p61
sVtime
p62
I1394298175
sasVformatted_phone_number
p63
V(925) 689-7635
p64
sVscope
p65
VGOOGLE
p66
sVurl
p67
Vhttps://maps.google.com/?cid=4053730599758174228
p68
sVopening_hours
p69
(dp70
Vweekday_text
p71
(lp72
VMonday: Closed
p73
aVTuesday: 6:30 \u2013 9:10 PM
p74
aVWednesday: 6:30 \u2013 9:10 PM
p75
aVThursday: 6:30 \u2013 9:10 PM
p76
aVFriday: 6:30 \u2013 9:10 PM
p77
aVSaturday: 6:30 \u2013 9:10 PM
p78
aVSunday: Closed
p79
asVopen_now
p80
I01
sVperiods
p81
(lp82
(dp83
Vclose
p84
(dp85
Vday
p86
I2
sVtime
p87
V2110
p88
ssVopen
p89
(dp90
Vday
p91
I2
sVtime
p92
V1830
p93
ssa(dp94
Vclose
p95
(dp96
Vday
p97
I3
sVtime
p98
V2110
p99
ssVopen
p100
(dp101
Vday
p102
I3
sVtime
p103
V1830
p104
ssa(dp105
Vclose
p106
(dp107
Vday
p108
I4
sVtime
p109
V2110
p110
ssVopen
p111
(dp112
Vday
p113
I4
sVtime
p114
V1830
p115
ssa(dp116
Vclose
p117
(dp118
Vday
p119
I5
sVtime
p120
V2110
p121
ssVopen
p122
(dp123
Vday
p124
I5
sVtime
p125
V1830
p126
ssa(dp127
Vclose
p128
(dp129
Vday
p130
I6
sVtime
p131
V2110
p132
ssVopen
p133
(dp134
Vday
p135
I6
sVtime
p136
V1830
p137
ssassVaddress_components
p138
(lp139
(dp140
Vlong_name
p141
VSunvalley Shopping Center
p142
sVtypes
p143
(lp144
Vpremise
p145
asVshort_name
p146
VSunvalley Shopping Center
p147
sa(dp148
Vlong_name
p149
V250
p150
sVtypes
p151
(lp152
Vstreet_number
p153
asVshort_name
p154
V250
p155
sa(dp156
Vlong_name
p157
VSunvalley Mall
p158
sVtypes
p159
(lp160
Vroute
p161
asVshort_name
p162
VSunvalley Mall
p163
sa(dp164
Vlong_name
p165
VConcord
p166
sVtypes
p167
(lp168
Vlocality
p169
aVpolitical
p170
asVshort_name
p171
VConcord
p172
sa(dp173
Vlong_name
p174
VCalifornia
p175
sVtypes
p176
(lp177
Vadministrative_area_level_1
p178
aVpolitical
p179
asVshort_name
p180
VCA
p181
sa(dp182
Vlong_name
p183
VUnited States
p184
sVtypes
p185
(lp186
Vcountry
p187
aVpolitical
p188
asVshort_name
p189
VUS
p190
sa(dp191
Vlong_name
p192
V94520
p193
sVtypes
p194
(lp195
Vpostal_code
p196
asVshort_name
p197
V94520
p198
sa(dp199
Vlong_name
p200
V5807
p201
sVtypes
p202
(lp203
Vpostal_code_suffix
p204
asVshort_name
p205
V5807
p206
sasVformatted_address
p207
VSunvalley Shopping Center, 250 Sunvalley Mall, Concord, CA 94520, United States
p208
sVid
p209
Vba627bf0f163664b436d4a34eef6ca9ce9040eda
p210
sVtypes
p211
(lp212
Vshoe_store
p213
aVclothing_store
p214
aVstore
p215
aVpoint_of_interest
p216
aVestablishment
p217
asVicon
p218
Vhttps://maps.gstatic.com/mapfiles/place_api/icons/shopping-71.png
p219
s.