(dp1
Vrating
p2
cdecimal
Decimal
p3
(S'4.3'
tRp4
sVreference
p5
VCmRgAAAAOy7h56htyACaStNtrZWoDdyUbXr6b-mi7xX9QSHug7wI4tth4YpwT2T8Cpkci0WvO1GlTss3JiKLLfi35O7CpXInnYbPBPNI1Lxu9vw_ix_iSQTaRL6rHNsH-kh5mMeiEhDujMUSt8fW1t6FsMuq1XVDGhT_pDhnOvnxTbWT6HebmWJdvTnj8A
p6
sVplace_id
p7
VChIJd2ozDayjj4ARRfACIFI2LuY
p8
sVurl
p9
Vhttps://maps.google.com/?cid=16586254204004397125
p10
sVformatted_address
p11
V1020 Main St, Redwood City, CA 94063, United States
p12
sVid
p13
Vd8a488cedc1b6a8bd5640ce1191146b075f5b9bd
p14
sVopening_hours
p15
(dp16
Vweekday_text
p17
(lp18
VMonday: 7:00 AM \u2013 2:00 PM
p19
aVTuesday: 7:00 AM \u2013 2:00 PM
p20
aVWednesday: 7:00 AM \u2013 2:00 PM
p21
aVThursday: 7:00 AM \u2013 2:00 PM
p22
aVFriday: 7:00 AM \u2013 2:00 PM
p23
aVSaturday: 8:00 AM \u2013 2:00 PM
p24
aVSunday: 8:00 AM \u2013 2:00 PM
p25
asVopen_now
p26
I01
sVperiods
p27
(lp28
(dp29
Vclose
p30
(dp31
Vday
p32
I0
sVtime
p33
V1400
p34
ssVopen
p35
(dp36
Vday
p37
I0
sVtime
p38
V0800
p39
ssa(dp40
Vclose
p41
(dp42
Vday
p43
I1
sVtime
p44
V1400
p45
ssVopen
p46
(dp47
Vday
p48
I1
sVtime
p49
V0700
p50
ssa(dp51
Vclose
p52
(dp53
Vday
p54
I2
sVtime
p55
V1400
p56
ssVopen
p57
(dp58
Vday
p59
I2
sVtime
p60
V0700
p61
ssa(dp62
Vclose
p63
(dp64
Vday
p65
I3
sVtime
p66
V1400
p67
ssVopen
p68
(dp69
Vday
p70
I3
sVtime
p71
V0700
p72
ssa(dp73
Vclose
p74
(dp75
Vday
p76
I4
sVtime
p77
V1400
p78
ssVopen
p79
(dp80
Vday
p81
I4
sVtime
p82
V0700
p83
ssa(dp84
Vclose
p85
(dp86
Vday
p87
I5
sVtime
p88
V1400
p89
ssVopen
p90
(dp91
Vday
p92
I5
sVtime
p93
V0700
p94
ssa(dp95
Vclose
p96
(dp97
Vday
p98
I6
sVtime
p99
V1400
p100
ssVopen
p101
(dp102
Vday
p103
I6
sVtime
p104
V0800
p105
ssassVvicinity
p106
V1020 Main Street, Redwood City
p107
sVscope
p108
VGOOGLE
p109
sVwebsite
p110
Vhttp://www.alanascafe.com/
p111
sVutc_offset
p112
I-420
sVuser_ratings_total
p113
I80
sVphotos
p114
(lp115
(dp116
Vphoto_reference
p117
VCoQBcwAAAN8ShxYq6I2xfs2rIHw15MSPzfhrb7mjey9Nxk4hBXWpUxtaHSxF3V1LgUMewGpYu2Kqv7TyH2Piwtc58_99FMS2v2uyG-6zhPbWToZQz66TxjGfvS7rTqpaKta5QV9mYmmXpqYydOLJTQ0V7fSDwFkLKqfSWxx5OH6OhY0RbrprEhBS4GYW2zTXQEp1cb1n0DSZGhSUvP4lwS0K4ejm9cNSfm05O5BZWg
p118
sVwidth
p119
I4032
sVhtml_attributions
p120
(lp121
V<a href="https://maps.google.com/maps/contrib/101339360392023158779/photos">Raymond Durk</a>
p122
asVheight
p123
I3024
sa(dp124
Vphoto_reference
p125
VCmRdAAAArqQjs9Zfj1r5c0yzGl-04iM02KBtSeYbYc4WC4fXYD8r9JCGi8q_T4QuEjTd2BOePd2yDaODrPfHmUOc8qgKk3_ekD5LSWCZYRAceCTcaB1N46Grl6EhpbwrcGZ0gCDpEhAf3x3aImOwbBz7D3bQc7q3GhRghsHdgZWj_o4I1CjwEYYl3dKfSA
p126
sVwidth
p127
I2048
sVhtml_attributions
p128
(lp129
V<a href="https://maps.google.com/maps/contrib/101684759371052236980/photos">Don V</a>
p130
asVheight
p131
I1536
sa(dp132
Vphoto_reference
p133
VCmRdAAAAYr33FXckxaC43dj_dAgtQRFvzZlykrnXQIoekvXUmpqoHjc3LwSNGX-7b5wj8dp2Cd6aJCj28UvKAIgywD3L399I-GfjAxcXr_hlCam1ioK5XlChtbIx65A-8U9v3uxAEhCnObWBekbYc5kmYv9Yg7tgGhTCaMfxl_4cjpZ6lONBdXfJ5gexhA
p134
sVwidth
p135
I3264
sVhtml_attributions
p136
(lp137
V<a href="https://maps.google.com/maps/contrib/105191467697443103136/photos">Gabe Rodriguez</a>
p138
asVheight
p139
I2448
sa(dp140
Vphoto_reference
p141
VCoQBcwAAAFaDodeILrGICuDbOZ7srol8AcQ_RPDDtQLTBP3bZ2FYkx4H6cQq1lEyCJMKnWn5sFrU-TQv8jTcy4y-O_uCLg62ETado4Y_XFYJppRRbQiw34K-U0AxND-bq8n8ySsbxI4BsmAAvxd56JkqfMATT6bDLS2FcSA1Pk_Fx1TbsNCzEhDpKUBFj03vRlfv9lQhH0tnGhTUzPD8De_RodEsefdFdwTqWgAXGg
p142
sVwidth
p143
I4032
sVhtml_attributions
p144
(lp145
V<a href="https://maps.google.com/maps/contrib/101339360392023158779/photos">Raymond Durk</a>
p146
asVheight
p147
I3024
sa(dp148
Vphoto_reference
p149
VCoQBcwAAAMWq3fS5SGvsxBbGAOzpPW8t_UYidSnFVgWEin3JHLi0wHEppacW8iyYDG4dGM-jVxhFq4QKwm-_y5A3VP8X1YKvtE7iI46ARCv34RNreu5QqxkbT8LD5gzwH91dFoT6BALi7LBCnOcQMNbFqGGreWKDIPLRYgOA8EeRU3iBq55nEhD4cm-O4lhk3mfrCRXtgFjoGhQZRd73hOZ9GfHPMX2_f7EKICK8CA
p150
sVwidth
p151
I4160
sVhtml_attributions
p152
(lp153
V<a href="https://maps.google.com/maps/contrib/111670137256708219598/photos">Andrew Brampton</a>
p154
asVheight
p155
I3120
sa(dp156
Vphoto_reference
p157
VCmRdAAAAHe60jpWUSbcKRts9dv7NHhfkyxuW-1ex_GOW8RqLCUHTI1d_dwiNMuDJ0I8lvKlwEUYjjHQJXRYOXFImHuv5roGCiEmeT8Y8oM2ujliRVqQ_8_E7veWjg23IG0F2hIGZEhCIIAPFfRR0z5Qp-XTZC039GhSxziGYr_IzTGwWfWFIU8Oe0vLwqw
p158
sVwidth
p159
I360
sVhtml_attributions
p160
(lp161
V<a href="https://maps.google.com/maps/contrib/117628711841123046413/photos">Alana&#39;s Cafe</a>
p162
asVheight
p163
I480
sa(dp164
Vphoto_reference
p165
VCmRdAAAAlAYI7ElDzURtzwQmXlOwv911tu9M3yn9QDXSzBls2j0Ctwnuz5z-D0velNPxA1oG-ULHu9yBCANrucWnhaycBRXh7VGBNEsqBsQfejK0GZivoogZaScTbOItVeBmmdxZEhCYoCCOhCTyqIWjPjaEje3SGhSODeZxmPS7bkGn29Qjh41O02QFiA
p166
sVwidth
p167
I4000
sVhtml_attributions
p168
(lp169
V<a href="https://maps.google.com/maps/contrib/108320224573839197933/photos">Randy F.</a>
p170
asVheight
p171
I3000
sa(dp172
Vphoto_reference
p173
VCmRdAAAAAaZpqy2Jd4nJ8YV4DG3dTFfyRCom51gz2jVR_qCq0ey9WPF3hzBNwbkACUjg-OA7jDfzVt5bU8CCHOq8wLmUOGkOCLEp4DYrS8Ubbm2n0aHHfWvQhlWTIgYg_AwlIHUSEhC4VIpTcvo1eUx3EKItpg7hGhQi3FdeKNtN-KoqVc8ZXN7n8uyIHg
p174
sVwidth
p175
I300
sVhtml_attributions
p176
(lp177
V<a href="https://maps.google.com/maps/contrib/117628711841123046413/photos">Alana&#39;s Cafe</a>
p178
asVheight
p179
I448
sa(dp180
Vphoto_reference
p181
VCmRdAAAA9KdUXcE6mm3aljAhzp_O_GhREJRC5_RVlv8LUGwyk5ZBRonGopvLFM9_zIEl-zLnYetwKf3GsXcXNZu03lznY9jA-5h4A_Q0ke9_ZpzmV-JJDuY7AS9MAALkOwcqkKzdEhAeSPcXgnt_78p228xbVx6FGhTawwGUnQ-whoLQrxmmquljOM75Ew
p182
sVwidth
p183
I4000
sVhtml_attributions
p184
(lp185
V<a href="https://maps.google.com/maps/contrib/108320224573839197933/photos">Randy F.</a>
p186
asVheight
p187
I3000
sa(dp188
Vphoto_reference
p189
VCmRdAAAAUzsiH_d-Cql5egCXtLfIvoJvliiM3BFQf0_vvGS5_sCz_QjygGrYmHw9kkUIHzZUb_4b5TVVh4OLnJq0wxjAOTGvyAVl5ozTMtWyLS3w9gjLG81Becn-jLrNHkLLvk0-EhA6ro2iRKcX75ghSu4J7dUgGhSCyPy4mCvg7LeqK-Y5CGxvjp4N-Q
p190
sVwidth
p191
I1836
sVhtml_attributions
p192
(lp193
V<a href="https://maps.google.com/maps/contrib/101296277367958062540/photos">Bryan Passanisi</a>
p194
asVheight
p195
I3264
sasVtypes
p196
(lp197
Vcafe
p198
aVrestaurant
p199
aVfood
p200
aVpoint_of_interest
p201
aVestablishment
p202
asVicon
p203
Vhttps://maps.gstatic.com/mapfiles/place_api/icons/cafe-71.png
p204
sVname
p205
VAlana's Cafe
p206
sVgeometry
p207
(dp208
Vaccess_points
p209
(lp210
(dp211
Vtravel_modes
p212
(lp213
VDRIVING
p214
aVBICYCLING
p215
aVWALKING
p216
aVTRANSIT
p217
asVlocation
p218
(dp219
Vlat
p220
g3
(S'37.4835778'
tRp221
sVlng
p222
g3
(S'-122.2261267'
tRp223
ssasVlocation
p224
(dp225
Vlat
p226
g3
(S'37.483561'
tRp227
sVlng
p228
g3
(S'-122.226574'
tRp229
sssVadr_address
p230
V<span class="street-address">1020 Main St</span>, <span class="locality">Redwood City</span>, <span class="region">CA</span> <span class="postal-code">94063-1911</span>, <span class="country-name">United States</span>
p231
sVinternational_phone_number
p232
V+1 650-366-1498
p233
sVreviews
p234
(lp235
(dp236
Vrating
p237
I4
sVaspects
p238
(lp239
(dp240
Vrating
p241
I2
sVtype
p242
Voverall
p243
sasVprofile_photo_url
p244
V//lh6.googleusercontent.com/-UY5-9c8SzJs/AAAAAAAAAAI/AAAAAAAAAPI/FjgOBpagD10/photo.jpg
p245
sVlanguage
p246
Ven
p247
sVtext
p248
VVery nice place, cozy beautiful victorian house, all food seemed to be made fresh from scratch.  Value good, $$ prices with good food quality and portions.  Tables a bit close together inside and wish they had more outdoor seating in the beautiful garden area.  Cute art gallary attached for entertainment while awaiting a table.
p249
sVauthor_name
p250
VDan Gilley
p251
sVauthor_url
p252
Vhttps://plus.google.com/102926539905408117966
p253
sVtime
p254
I1459038641
sa(dp255
Vrating
p256
I5
sVaspects
p257
(lp258
(dp259
Vrating
p260
I3
sVtype
p261
Voverall
p262
sasVprofile_photo_url
p263
V//lh4.googleusercontent.com/-MCP5XdBKVoQ/AAAAAAAAAAI/AAAAAAAAACk/DLeAXWsGPKY/photo.jpg
p264
sVlanguage
p265
Ven
p266
sVtext
p267
VThe service here was what I'm all about personal polite playful and efficient cups were always full the orange juice was delicious the coffee was amazing and the heuvos rancheros where deliciously amazing!!! "Plate cleaned"  the cafe is set in an old Victorian craftsmans house so it was like a trip to grandma's I will definitely be back and I'm bringing friends with me.
p268
sVauthor_name
p269
VRion Rodriguez
p270
sVauthor_url
p271
Vhttps://plus.google.com/100628021299130588580
p272
sVtime
p273
I1457635965
sa(dp274
Vrating
p275
I2
sVaspects
p276
(lp277
(dp278
Vrating
p279
I0
sVtype
p280
Voverall
p281
sasVprofile_photo_url
p282
V//lh5.googleusercontent.com/-aRPrbkfjlKM/AAAAAAAAAAI/AAAAAAAAAEE/bkvzgN5XqDU/photo.jpg
p283
sVlanguage
p284
Ven
p285
sVtext
p286
VThe atmosphere is very homey and the building is really cute, being a Victorian-styled home and all. Unfortunately, the food and service left much to be desired. On a Saturday, I waited 45 minutes for a tablet of 3. Once we got in, I found the food itself is pretty basic. I got the Alaska Scramble. The home fries were very undercooked and hard. The pieces of toast were dry and barely toasted. The scrambled eggs barely looked scrambled\u2014it resembled more of an omelette. Also, the smoked salmon in my scrambled eggs were all essentially cooked through, as if they cooked the salmon with the eggs instead of mixing them in after.\u000a\u000aThe service was also pretty awful. Our waitress never refilled our water, never came by to check in with us. It took forever just to flag down someone to get our bill\u2014and even longer for someone to notice it, process the bill, and come back with the receipt to sign. Never again.
p287
sVauthor_name
p288
VJudy Zhao
p289
sVauthor_url
p290
Vhttps://plus.google.com/112811292017407677783
p291
sVtime
p292
I1433061872
sa(dp293
Vrating
p294
I5
sVaspects
p295
(lp296
(dp297
Vrating
p298
I3
sVtype
p299
Voverall
p300
sasVprofile_photo_url
p301
V//lh4.googleusercontent.com/-lwuE-Y2KccI/AAAAAAAAAAI/AAAAAAAFGDc/55mLSDcnTEQ/photo.jpg
p302
sVlanguage
p303
Ven
p304
sVtext
p305
V2015.08.15:  Hidden gem in RWC!  Love the outdoor patio area, where dogs can stay with the family!  And the "famous" Swedish oatmeal pancakes were delicious and perfectly chewy!  Quiche was also very good!
p306
sVauthor_name
p307
VThad Hughes
p308
sVauthor_url
p309
Vhttps://plus.google.com/116858675111526704008
p310
sVtime
p311
I1439658334
sa(dp312
Vrating
p313
I5
sVaspects
p314
(lp315
(dp316
Vrating
p317
I3
sVtype
p318
Voverall
p319
sasVprofile_photo_url
p320
V//lh6.googleusercontent.com/-EpkKnbqtVtM/AAAAAAAAAAI/AAAAAAAAEto/0DClKrBv1wM/photo.jpg
p321
sVlanguage
p322
Ven
p323
sVtext
p324
VOmelettes and scones are delicious.  I recommend asking for your scone before your meal.
p325
sVauthor_name
p326
VMichael Takahashi
p327
sVauthor_url
p328
Vhttps://plus.google.com/100939262024245851821
p329
sVtime
p330
I1460306927
sasVformatted_phone_number
p331
V(650) 366-1498
p332
sVaddress_components
p333
(lp334
(dp335
Vlong_name
p336
V1020
p337
sVtypes
p338
(lp339
Vstreet_number
p340
asVshort_name
p341
V1020
p342
sa(dp343
Vlong_name
p344
VMain Street
p345
sVtypes
p346
(lp347
Vroute
p348
asVshort_name
p349
VMain St
p350
sa(dp351
Vlong_name
p352
VRedwood City
p353
sVtypes
p354
(lp355
Vlocality
p356
aVpolitical
p357
asVshort_name
p358
VRedwood City
p359
sa(dp360
Vlong_name
p361
VCalifornia
p362
sVtypes
p363
(lp364
Vadministrative_area_level_1
p365
aVpolitical
p366
asVshort_name
p367
VCA
p368
sa(dp369
Vlong_name
p370
VUnited States
p371
sVtypes
p372
(lp373
Vcountry
p374
aVpolitical
p375
asVshort_name
p376
VUS
p377
sa(dp378
Vlong_name
p379
V94063
p380
sVtypes
p381
(lp382
Vpostal_code
p383
asVshort_name
p384
V94063
p385
sa(dp386
Vlong_name
p387
V1911
p388
sVtypes
p389
(lp390
Vpostal_code_suffix
p391
asVshort_name
p392
V1911
p393
sas.