(dp1
Vrating
p2
cdecimal
Decimal
p3
(S'3.9'
tRp4
sVreference
p5
VCnRhAAAAjB3cyF8zKpF9VDc_NE1YFS795eleSmGQ-5ypYUY1G_mWEzRR3V9eDxpXi7V_UzDyLNZwMae8VGW1jvrvLJvcTFc0webDUaTsUILZmzsQg7eMaCVtvhUZ0htq8LyzSiRQtirmmO7c7sHQfwcM5PrwFRIQAMp-tcWoM0unsDr48tMFchoUigVw0bn9n3zwQoHB1JzyP8fuoyI
p6
sVprice_level
p7
I3
sVplace_id
p8
VChIJt0Qv0tx-hYARkOFQsWTWePw
p9
sVurl
p10
Vhttps://maps.google.com/?cid=18192526422723060112
p11
sVformatted_address
p12
V750 Hearst Ave, Berkeley, CA 94710, United States
p13
sVid
p14
Vd605b88bc20a26c99191e390539884ad9e55304c
p15
sVopening_hours
p16
(dp17
Vweekday_text
p18
(lp19
VMonday: 10:00 AM \u2013 7:00 PM
p20
aVTuesday: 10:00 AM \u2013 7:00 PM
p21
aVWednesday: 10:00 AM \u2013 7:00 PM
p22
aVThursday: 10:00 AM \u2013 7:00 PM
p23
aVFriday: 10:00 AM \u2013 7:00 PM
p24
aVSaturday: 10:00 AM \u2013 7:00 PM
p25
aVSunday: 11:00 AM \u2013 7:00 PM
p26
asVopen_now
p27
I00
sVperiods
p28
(lp29
(dp30
Vclose
p31
(dp32
Vday
p33
I0
sVtime
p34
V1900
p35
ssVopen
p36
(dp37
Vday
p38
I0
sVtime
p39
V1100
p40
ssa(dp41
Vclose
p42
(dp43
Vday
p44
I1
sVtime
p45
V1900
p46
ssVopen
p47
(dp48
Vday
p49
I1
sVtime
p50
V1000
p51
ssa(dp52
Vclose
p53
(dp54
Vday
p55
I2
sVtime
p56
V1900
p57
ssVopen
p58
(dp59
Vday
p60
I2
sVtime
p61
V1000
p62
ssa(dp63
Vclose
p64
(dp65
Vday
p66
I3
sVtime
p67
V1900
p68
ssVopen
p69
(dp70
Vday
p71
I3
sVtime
p72
V1000
p73
ssa(dp74
Vclose
p75
(dp76
Vday
p77
I4
sVtime
p78
V1900
p79
ssVopen
p80
(dp81
Vday
p82
I4
sVtime
p83
V1000
p84
ssa(dp85
Vclose
p86
(dp87
Vday
p88
I5
sVtime
p89
V1900
p90
ssVopen
p91
(dp92
Vday
p93
I5
sVtime
p94
V1000
p95
ssa(dp96
Vclose
p97
(dp98
Vday
p99
I6
sVtime
p100
V1900
p101
ssVopen
p102
(dp103
Vday
p104
I6
sVtime
p105
V1000
p106
ssassVvicinity
p107
V750 Hearst Avenue, Berkeley
p108
sVscope
p109
VGOOGLE
p110
sVwebsite
p111
Vhttps://www.anthropologie.com/anthro/store-locator/store/berkeley/fourth-street/00448
p112
sVutc_offset
p113
I-420
sVuser_ratings_total
p114
I11
sVphotos
p115
(lp116
(dp117
Vphoto_reference
p118
VCmRdAAAA12d2spI9NFtXY3n5SKdR3DYYBY0aYG3Va7CwHDbRzk5obP88KrwCs26FAjBZthepxM8V6-7i8NbY7CcsKftM07unyXwzWkXhCsc1EKE9Ux4Rx-jq2hlNYENDnpw_swhCEhAw3ZVGvgKdf-CApgPPAvR_GhRKyFcH3HqsSWFtI-WQx2P1pOjulA
p119
sVwidth
p120
I2048
sVhtml_attributions
p121
(lp122
V<a href="https://maps.google.com/maps/contrib/107342019650564619227/photos">PHOTOBOOTH Royale</a>
p123
asVheight
p124
I1536
sasVtypes
p125
(lp126
Vhome_goods_store
p127
aVclothing_store
p128
aVstore
p129
aVpoint_of_interest
p130
aVestablishment
p131
asVicon
p132
Vhttps://maps.gstatic.com/mapfiles/place_api/icons/shopping-71.png
p133
sVname
p134
VAnthropologie
p135
sVgeometry
p136
(dp137
Vaccess_points
p138
(lp139
(dp140
Vtravel_modes
p141
(lp142
VDRIVING
p143
aVBICYCLING
p144
aVWALKING
p145
aVTRANSIT
p146
asVlocation
p147
(dp148
Vlat
p149
g3
(S'37.8690033'
tRp150
sVlng
p151
g3
(S'-122.2996819'
tRp152
ssasVlocation
p153
(dp154
Vlat
p155
g3
(S'37.86887499999999'
tRp156
sVlng
p157
g3
(S'-122.299665'
tRp158
sssVadr_address
p159
V<span class="street-address">750 Hearst Ave</span>, <span class="locality">Berkeley</span>, <span class="region">CA</span> <span class="postal-code">94710</span>, <span class="country-name">United States</span>
p160
sVinternational_phone_number
p161
V+1 510-486-0705
p162
sVreviews
p163
(lp164
(dp165
Vrating
p166
I5
sVaspects
p167
(lp168
(dp169
Vrating
p170
I3
sVtype
p171
Voverall
p172
sasVprofile_photo_url
p173
V//lh5.googleusercontent.com/-iBX89cz1gAQ/AAAAAAAAAAI/AAAAAAADFho/1I5CpXFSd3Y/photo.jpg
p174
sVlanguage
p175
Ven
p176
sVtext
p177
VThis was my go to Anthropologie for the decade I lived in the East Bay. It's spacious, beautifully decorated, and is easy to navigate. The bargain area is usually well organized, and the sales associates are super friendly and helpful in offering suggestions for accessories or tops. 
p178
sVauthor_name
p179
VVera DeVera
p180
sVauthor_url
p181
Vhttps://plus.google.com/111107191255143707404
p182
sVtime
p183
I1458012371
sa(dp184
Vrating
p185
I4
sVaspects
p186
(lp187
(dp188
Vrating
p189
I2
sVtype
p190
Voverall
p191
sasVprofile_photo_url
p192
V//lh4.googleusercontent.com/--Xw28LkzCXw/AAAAAAAAAAI/AAAAAAAADBY/oeNNLCRrftQ/photo.jpg
p193
sVlanguage
p194
Ven
p195
sVtext
p196
VLocated off the edge of the 4th street shopping area, can be easily missed. Always interesting decor and not too crowded compared to some other stores. 
p197
sVauthor_name
p198
VBenson Wong
p199
sVauthor_url
p200
Vhttps://plus.google.com/100480999244715552423
p201
sVtime
p202
I1451471799
sa(dp203
Vrating
p204
I4
sVaspects
p205
(lp206
(dp207
Vrating
p208
I2
sVtype
p209
Voverall
p210
sasVlanguage
p211
Ven
p212
sVtext
p213
VBig anthropologie, with great wood floors and some cool character. Clothes are always too expensive for the quality though, and sizes are inconsistent.
p214
sVauthor_name
p215
VAustin Holt
p216
sVauthor_url
p217
Vhttps://plus.google.com/100285460360507924775
p218
sVtime
p219
I1457474555
sa(dp220
Vrating
p221
I4
sVaspects
p222
(lp223
(dp224
Vrating
p225
I2
sVtype
p226
Voverall
p227
sasVprofile_photo_url
p228
V//lh5.googleusercontent.com/-eGtMgiU7L8I/AAAAAAAAAAI/AAAAAAAAC9E/Ik2YOr9g30w/photo.jpg
p229
sVlanguage
p230
Ven
p231
sVtext
p232
VYou pay for what you get. Good women clothing store. 
p233
sVauthor_name
p234
VJasdeep Joga
p235
sVauthor_url
p236
Vhttps://plus.google.com/103739184502569271744
p237
sVtime
p238
I1442941571
sa(dp239
Vrating
p240
I3
sVaspects
p241
(lp242
(dp243
Vrating
p244
I1
sVtype
p245
Voverall
p246
sasVlanguage
p247
Ven
p248
sVtext
p249
Vgood for gifts for the gf
p250
sVauthor_name
p251
VA Google User
p252
sVtime
p253
I1290808630
sasVformatted_phone_number
p254
V(510) 486-0705
p255
sVaddress_components
p256
(lp257
(dp258
Vlong_name
p259
V750
p260
sVtypes
p261
(lp262
Vstreet_number
p263
asVshort_name
p264
V750
p265
sa(dp266
Vlong_name
p267
VHearst Avenue
p268
sVtypes
p269
(lp270
Vroute
p271
asVshort_name
p272
VHearst Ave
p273
sa(dp274
Vlong_name
p275
VBerkeley
p276
sVtypes
p277
(lp278
Vlocality
p279
aVpolitical
p280
asVshort_name
p281
VBerkeley
p282
sa(dp283
Vlong_name
p284
VCalifornia
p285
sVtypes
p286
(lp287
Vadministrative_area_level_1
p288
aVpolitical
p289
asVshort_name
p290
VCA
p291
sa(dp292
Vlong_name
p293
VUnited States
p294
sVtypes
p295
(lp296
Vcountry
p297
aVpolitical
p298
asVshort_name
p299
VUS
p300
sa(dp301
Vlong_name
p302
V94710
p303
sVtypes
p304
(lp305
Vpostal_code
p306
asVshort_name
p307
V94710
p308
sas.