(dp1
Vrating
p2
cdecimal
Decimal
p3
(S'4.2'
tRp4
sVreference
p5
VCnRuAAAAMTTRGBojzUsY_xX1eEi1R5o7PNAs4jHPB6uN73v3z9ChA8W9n3ImSTOnnAMXVd5LZ7r_YEr8RA0YjZELcGtH3R2dsFgOpIvfeAGk-ok3VB0j4H8fhW3HKL7l8aMn00DkJ7G7bBeM9_2f9dUzUd3CTRIQJ8conz0QwlCs-Wpx6ikHzBoU0i2wvfGlnoZuHLv1YsKvanoXSd8
p6
sVprice_level
p7
I1
sVplace_id
p8
VChIJr7uwv5iAhYAR4OZfo28tCME
p9
sVurl
p10
Vhttps://maps.google.com/?cid=13909417406639367904
p11
sVformatted_address
p12
V384 Hayes St, San Francisco, CA 94102, United States
p13
sVid
p14
V7b274041324bf42cc71aa3fec2002ed338dccd7e
p15
sVopening_hours
p16
(dp17
Vweekday_text
p18
(lp19
VMonday: 8:00 AM \u2013 7:00 PM
p20
aVTuesday: 8:00 AM \u2013 8:00 PM
p21
aVWednesday: 8:00 AM \u2013 8:00 PM
p22
aVThursday: 8:00 AM \u2013 8:00 PM
p23
aVFriday: 8:00 AM \u2013 8:00 PM
p24
aVSaturday: 9:00 AM \u2013 8:00 PM
p25
aVSunday: 9:00 AM \u2013 7:00 PM
p26
asVopen_now
p27
I01
sVperiods
p28
(lp29
(dp30
Vclose
p31
(dp32
Vday
p33
I0
sVtime
p34
V1900
p35
ssVopen
p36
(dp37
Vday
p38
I0
sVtime
p39
V0900
p40
ssa(dp41
Vclose
p42
(dp43
Vday
p44
I1
sVtime
p45
V1900
p46
ssVopen
p47
(dp48
Vday
p49
I1
sVtime
p50
V0800
p51
ssa(dp52
Vclose
p53
(dp54
Vday
p55
I2
sVtime
p56
V2000
p57
ssVopen
p58
(dp59
Vday
p60
I2
sVtime
p61
V0800
p62
ssa(dp63
Vclose
p64
(dp65
Vday
p66
I3
sVtime
p67
V2000
p68
ssVopen
p69
(dp70
Vday
p71
I3
sVtime
p72
V0800
p73
ssa(dp74
Vclose
p75
(dp76
Vday
p77
I4
sVtime
p78
V2000
p79
ssVopen
p80
(dp81
Vday
p82
I4
sVtime
p83
V0800
p84
ssa(dp85
Vclose
p86
(dp87
Vday
p88
I5
sVtime
p89
V2000
p90
ssVopen
p91
(dp92
Vday
p93
I5
sVtime
p94
V0800
p95
ssa(dp96
Vclose
p97
(dp98
Vday
p99
I6
sVtime
p100
V2000
p101
ssVopen
p102
(dp103
Vday
p104
I6
sVtime
p105
V0900
p106
ssassVvicinity
p107
V384 Hayes Street, San Francisco
p108
sVscope
p109
VGOOGLE
p110
sVwebsite
p111
Vhttp://www.arlequincafe.com/
p112
sVutc_offset
p113
I-420
sVuser_ratings_total
p114
I93
sVphotos
p115
(lp116
(dp117
Vphoto_reference
p118
VCmRdAAAAf7GaUKtS6GpsMFCofQJVj1p6azB_HKy-ZNODpzi9sY2sweNGfWfEjYdXqOOyd6_p_iOKaRtXta8zeWwIhNSze0rfARAJnUiUsj1Rhg-yo6AJgDzHLMnZNdATj1Kk0y-dEhArQBbqN7cZ01fi4SDrjq3mGhTbQlGOliKdWqvJGFkyNr5_YcZ-CQ
p119
sVwidth
p120
I387
sVhtml_attributions
p121
(lp122
V<a href="https://maps.google.com/maps/contrib/107402671387740480485/photos">Arlequin Cafe &amp; Food-To-Go</a>
p123
asVheight
p124
I386
sa(dp125
Vphoto_reference
p126
VCmRdAAAAVk-M0GKPimWGgitztyuhsxTdccwVQYZ_bxMBH2Fe3-zV9Yz_L7CCD_y9SyjYy8UjIT5kUxuAu0FB3L_J_b55CCKJgNo8yjN0slNmkT5FLKFEInRPO3h5SFmA-ofe5tZnEhC2w9houFk1_kaSx_xKSXFQGhR56y4Lh_NCdQiuTOXKmywk-UbwjQ
p127
sVwidth
p128
I816
sVhtml_attributions
p129
(lp130
V<a href="https://maps.google.com/maps/contrib/114832380918896847951/photos">Deby Lepage</a>
p131
asVheight
p132
I612
sa(dp133
Vphoto_reference
p134
VCoQBcwAAAFHvaoGke5B84dm1Ry4A3qL8TvIqqb5roRVAGjavksIjoZ-Yh2TvuUxtbKwja_Z0ZcxKPe8LD2g_SEr2-xmkMpcAx9s-U_QitxK0lOAY7RmQr0QaCGDyrP1zdXrDPIHVrVmVwSYw5WVzdjilnQ_x0OGRldSL4gfB_nwVlhANAZriEhDiFcCK5e9Sa6f3DDA5xSMdGhS2qFhaGHgBJMP0eyNEFOdhSnly-g
p135
sVwidth
p136
I2448
sVhtml_attributions
p137
(lp138
V<a href="https://maps.google.com/maps/contrib/114813504318465238530/photos">Jason Laveglia</a>
p139
asVheight
p140
I3264
sa(dp141
Vphoto_reference
p142
VCmRdAAAAGBLUuy4kdJ6g3OdsZUMTpmv1Uc12-T142niQTb8ZG7hrD_BG8r12plQ3WnmohG-geHg8uh6zH6rfIKgIFXW1c4TxoMPdkqN_tF9ktTieUmajQi7iZiqWsoVVgLKGa1j8EhA9tJ08Jpwm5Zdquusn929BGhReWMhcZfShjtN4Tpi2Cs0JMrMPLA
p143
sVwidth
p144
I1024
sVhtml_attributions
p145
(lp146
V<a href="https://maps.google.com/maps/contrib/107402671387740480485/photos">Arlequin Cafe &amp; Food-To-Go</a>
p147
asVheight
p148
I681
sa(dp149
Vphoto_reference
p150
VCmRdAAAAFQ97qkbIlKZVZAQ31pNE5toPvyeZ7S1JyNVKsdkwLvSeAG9RykTMPlxV-a9A402rPYQslUA4CxGZs1UUMU-bB6HxNRv54ejjfod9UtQ4J-4Pyg_8t8lQz-SITjZ_HQLuEhCJBOuGD38sK5kOPDo79x77GhSLPXTa1O35YewB6ooQx8bBDGG1Fg
p151
sVwidth
p152
I1024
sVhtml_attributions
p153
(lp154
V<a href="https://maps.google.com/maps/contrib/107402671387740480485/photos">Arlequin Cafe &amp; Food-To-Go</a>
p155
asVheight
p156
I681
sa(dp157
Vphoto_reference
p158
VCmRdAAAAU1jYnYHS5Pm828PCs_cARLuBicBa_N6Yga0NNjnwfOn61wcAptUP8Op_s4FAQRts-Kn3tB5EI3B6Rw1K3fb8knKwLw15yKcq87QhOzYJhUQR9FRyL9I1hEc2OfBzvET_EhDjK_Xu68GYooQQDhJ8j3k-GhRIRIOhAOd83Ua0TGzIlBk5RHpEVg
p159
sVwidth
p160
I1600
sVhtml_attributions
p161
(lp162
V<a href="https://maps.google.com/maps/contrib/107402671387740480485/photos">Arlequin Cafe &amp; Food-To-Go</a>
p163
asVheight
p164
I1067
sa(dp165
Vphoto_reference
p166
VCoQBcwAAAN6VHKlOE7jVFXTYM-3L9d5cqNNEFcUZOC8NY_i8vTAPN5RsKyIf7S0_wQIq0avZjNt1td0YWQziSSFbVM_V-xSTdHOZ7z--XHPMqdFrIB0NREuxRjy969yLoUF724_a1fjf3-tG7WhRjtvDbr1dBBvPL5NYH4xkgTAvck7dvQEgEhD7BQLpIcEf4H1sFr61Aa1rGhSmq5efepWd7jki7_AhmPjAyD317Q
p167
sVwidth
p168
I2448
sVhtml_attributions
p169
(lp170
V<a href="https://maps.google.com/maps/contrib/114813504318465238530/photos">Jason Laveglia</a>
p171
asVheight
p172
I3264
sa(dp173
Vphoto_reference
p174
VCmRdAAAAj0bg7VZG3awtEMnCsuc9NfHiHcOQsgxxjsUwQkqLiD6YZKOH2ubXQ17Cdv5UN55ZoObFWLkT_pFJUpTj3PdSS1bZG71xUDzspaM7mogJW2uk2YVpl07ONwgolsS97KPeEhBsgcg7yg44z2UlqtEqvT7VGhRIYXQS-CAmxmcc6xs5CMIc0w81MQ
p175
sVwidth
p176
I1024
sVhtml_attributions
p177
(lp178
V<a href="https://maps.google.com/maps/contrib/114832380918896847951/photos">Deby Lepage</a>
p179
asVheight
p180
I768
sa(dp181
Vphoto_reference
p182
VCmRdAAAA_bBSi6P705kYTEyA_3fFxamO01nHNY6y4kouPCnVlnS7RI4ckUAlPjZ_dZWlo3paRkpc0nCmTlix8wgCXjkDtyhCDm48MTrpZhqbVSINYsxZljhQj2jYG6IlKtrYceknEhAWxHMOVhRf_nAjB5SNYHi6GhSjVCEAovX6GGiaS2tQjqnzhzGfIA
p183
sVwidth
p184
I612
sVhtml_attributions
p185
(lp186
V<a href="https://maps.google.com/maps/contrib/114832380918896847951/photos">Deby Lepage</a>
p187
asVheight
p188
I816
sa(dp189
Vphoto_reference
p190
VCmRdAAAAq-Jwe5pndIlmuyjqitA4KN5hM5BnRdtp6QV7eFcAizlB2HDLsiLKyFeygpXlRUZxeVKOAz9AZ7q8EzNdnSaEzuUUz3A5bDI02SW3TfvXoEaiqnxoOTwTVgWwRkRXk3m_EhDHv0FowD4XyY_664Zz-dzoGhRu_InxG3mnRN0XD-etXR26oDy2Lw
p191
sVwidth
p192
I1024
sVhtml_attributions
p193
(lp194
V<a href="https://maps.google.com/maps/contrib/114832380918896847951/photos">Deby Lepage</a>
p195
asVheight
p196
I768
sasVtypes
p197
(lp198
Vcafe
p199
aVbar
p200
aVrestaurant
p201
aVfood
p202
aVpoint_of_interest
p203
aVestablishment
p204
asVicon
p205
Vhttps://maps.gstatic.com/mapfiles/place_api/icons/cafe-71.png
p206
sVname
p207
VArlequin Cafe & Food-To-Go
p208
sVgeometry
p209
(dp210
Vaccess_points
p211
(lp212
(dp213
Vtravel_modes
p214
(lp215
VDRIVING
p216
aVBICYCLING
p217
aVWALKING
p218
aVTRANSIT
p219
asVlocation
p220
(dp221
Vlat
p222
g3
(S'37.7769252'
tRp223
sVlng
p224
g3
(S'-122.4227353'
tRp225
ssasVlocation
p226
(dp227
Vlat
p228
g3
(S'37.777121'
tRp229
sVlng
p230
g3
(S'-122.422774'
tRp231
sssVadr_address
p232
V<span class="street-address">384 Hayes St</span>, <span class="locality">San Francisco</span>, <span class="region">CA</span> <span class="postal-code">94102</span>, <span class="country-name">United States</span>
p233
sVinternational_phone_number
p234
V+1 415-626-1211
p235
sVreviews
p236
(lp237
(dp238
Vrating
p239
I4
sVaspects
p240
(lp241
(dp242
Vrating
p243
I2
sVtype
p244
Voverall
p245
sasVprofile_photo_url
p246
V//lh3.googleusercontent.com/-XuULcNq52pY/AAAAAAAAAAI/AAAAAAAAJjM/m9eOtIq-fxc/photo.jpg
p247
sVlanguage
p248
Ven
p249
sVtext
p250
Va solid coffee shop and sandwich shop in hayes valley the real draw of the place is the amazing garden in the back an amazing tranquil place to sit sip coffee and surf the net
p251
sVauthor_name
p252
VJason Laveglia
p253
sVauthor_url
p254
Vhttps://plus.google.com/114813504318465238530
p255
sVtime
p256
I1459708918
sa(dp257
Vrating
p258
I4
sVaspects
p259
(lp260
(dp261
Vrating
p262
I2
sVtype
p263
Voverall
p264
sasVprofile_photo_url
p265
V//lh4.googleusercontent.com/-vc3F3n50oVc/AAAAAAAAAAI/AAAAAAAAHAg/QGt0tAFHV5E/photo.jpg
p266
sVlanguage
p267
Ven
p268
sVtext
p269
VSmall counter-service restaurant in Hayes Valley, conveniently located in case one needs a quick bite before a show. The Indian-spiced Lamb Burger is particularly delicious. Back patio seating is lovely when the weather allows.
p270
sVauthor_name
p271
VAaron D'Souza
p272
sVauthor_url
p273
Vhttps://plus.google.com/108671711900632443325
p274
sVtime
p275
I1453700945
sa(dp276
Vrating
p277
I3
sVaspects
p278
(lp279
(dp280
Vrating
p281
I1
sVtype
p282
Voverall
p283
sasVprofile_photo_url
p284
V//lh6.googleusercontent.com/-Iklvumd0osE/AAAAAAAAAAI/AAAAAAAAAP8/D8naFOQYdyo/photo.jpg
p285
sVlanguage
p286
Ven
p287
sVtext
p288
VThis place was fine, nothing to write home about. A decent arugula salad and mac and cheese, plus wine. The mac and cheese was large but not gooey enough for me. The salad was fresh and citrusy and the cashiers were very nice.
p289
sVauthor_name
p290
VSamantha Berg
p291
sVauthor_url
p292
Vhttps://plus.google.com/107767768560438055175
p293
sVtime
p294
I1447353226
sa(dp295
Vrating
p296
I4
sVaspects
p297
(lp298
(dp299
Vrating
p300
I2
sVtype
p301
Voverall
p302
sasVprofile_photo_url
p303
V//lh4.googleusercontent.com/-RkX6jZgokGs/AAAAAAAAAAI/AAAAAAAAApg/sE-GcYvFfww/photo.jpg
p304
sVlanguage
p305
Ven
p306
sVtext
p307
Vthe people who work here are really nice the place is not to big so...\u000ayou have to find a spot for your self lol,\u000athe food is good, some how fair price \u000aan no place to park it took me 30 min to find a parking space...!!!
p308
sVauthor_name
p309
Vabraham camacho
p310
sVauthor_url
p311
Vhttps://plus.google.com/117771338345238005159
p312
sVtime
p313
I1450948692
sa(dp314
Vrating
p315
I5
sVaspects
p316
(lp317
(dp318
Vrating
p319
I3
sVtype
p320
Voverall
p321
sasVlanguage
p322
Ven
p323
sVtext
p324
VMaybe the best chocolate croissant (pain au chocolat!) I have had in the Bay Area :). Huge thumbs up
p325
sVauthor_name
p326
VBenoit Vialle
p327
sVauthor_url
p328
Vhttps://plus.google.com/106825324901149309744
p329
sVtime
p330
I1447785855
sasVformatted_phone_number
p331
V(415) 626-1211
p332
sVaddress_components
p333
(lp334
(dp335
Vlong_name
p336
V384
p337
sVtypes
p338
(lp339
Vstreet_number
p340
asVshort_name
p341
V384
p342
sa(dp343
Vlong_name
p344
VHayes Street
p345
sVtypes
p346
(lp347
Vroute
p348
asVshort_name
p349
VHayes St
p350
sa(dp351
Vlong_name
p352
VSan Francisco
p353
sVtypes
p354
(lp355
Vlocality
p356
aVpolitical
p357
asVshort_name
p358
VSF
p359
sa(dp360
Vlong_name
p361
VCalifornia
p362
sVtypes
p363
(lp364
Vadministrative_area_level_1
p365
aVpolitical
p366
asVshort_name
p367
VCA
p368
sa(dp369
Vlong_name
p370
VUnited States
p371
sVtypes
p372
(lp373
Vcountry
p374
aVpolitical
p375
asVshort_name
p376
VUS
p377
sa(dp378
Vlong_name
p379
V94102
p380
sVtypes
p381
(lp382
Vpostal_code
p383
asVshort_name
p384
V94102
p385
sas.