(dp1
Vrating
p2
cdecimal
Decimal
p3
(S'3.7'
tRp4
sVreference
p5
VCmReAAAAAXfHrpWqXLF4o-56y7qM-uJYacKP_xZtwNJdGzbr9wgcl3huBLsdklxyT0XRSX6eFFFMJXThU7d4rgfkHZcbm45M9cNK9P7NWxA6MkyHfXLc1wLNTVMOcVmI2V1b_A63EhC-SZ6kBl57ZnWVxnSoCXBvGhQ13zrDwykE3DmDXhbOepGAlRJHWA
p6
sVprice_level
p7
I1
sVplace_id
p8
VChIJU4rlzp5-hYARhtqduurlWiE
p9
sVurl
p10
Vhttps://maps.google.com/?cid=2403486147471596166
p11
sVformatted_address
p12
V2000 University Ave, Berkeley, CA 94704, United States
p13
sVid
p14
Vea4ac03c7ee75793ebbbc04825ad38f78f1a8286
p15
sVopening_hours
p16
(dp17
Vweekday_text
p18
(lp19
VMonday: 7:00 AM \u2013 1:30 AM
p20
aVTuesday: 7:00 AM \u2013 1:30 AM
p21
aVWednesday: 7:00 AM \u2013 1:30 AM
p22
aVThursday: 7:00 AM \u2013 1:30 AM
p23
aVFriday: 7:00 AM \u2013 2:00 AM
p24
aVSaturday: 7:00 AM \u2013 2:00 AM
p25
aVSunday: 7:00 AM \u2013 1:30 AM
p26
asVopen_now
p27
I01
sVperiods
p28
(lp29
(dp30
Vclose
p31
(dp32
Vday
p33
I1
sVtime
p34
V0130
p35
ssVopen
p36
(dp37
Vday
p38
I0
sVtime
p39
V0700
p40
ssa(dp41
Vclose
p42
(dp43
Vday
p44
I2
sVtime
p45
V0130
p46
ssVopen
p47
(dp48
Vday
p49
I1
sVtime
p50
V0700
p51
ssa(dp52
Vclose
p53
(dp54
Vday
p55
I3
sVtime
p56
V0130
p57
ssVopen
p58
(dp59
Vday
p60
I2
sVtime
p61
V0700
p62
ssa(dp63
Vclose
p64
(dp65
Vday
p66
I4
sVtime
p67
V0130
p68
ssVopen
p69
(dp70
Vday
p71
I3
sVtime
p72
V0700
p73
ssa(dp74
Vclose
p75
(dp76
Vday
p77
I5
sVtime
p78
V0130
p79
ssVopen
p80
(dp81
Vday
p82
I4
sVtime
p83
V0700
p84
ssa(dp85
Vclose
p86
(dp87
Vday
p88
I6
sVtime
p89
V0200
p90
ssVopen
p91
(dp92
Vday
p93
I5
sVtime
p94
V0700
p95
ssa(dp96
Vclose
p97
(dp98
Vday
p99
I0
sVtime
p100
V0200
p101
ssVopen
p102
(dp103
Vday
p104
I6
sVtime
p105
V0700
p106
ssassVvicinity
p107
V2000 University Avenue, Berkeley
p108
sVscope
p109
VGOOGLE
p110
sVwebsite
p111
Vhttp://www.aucoquelet.com/
p112
sVutc_offset
p113
I-420
sVuser_ratings_total
p114
I59
sVphotos
p115
(lp116
(dp117
Vphoto_reference
p118
VCmRdAAAAv_gxlR1mqbNJsAV_ex27TinMDLF7Ad_FCIMMm2opqTncuVhdhJMay-iRDw3HlgL0hAFOAVPxMJruiCyQBjlveSVRmQHqWXI6-Z2ccb2UKjkGouMnEP3zZEd2JgUGcsm6EhANqtqUBAkPy9lcD9CGGjUoGhRYOfqJq26z_VIGgGAUp8bmdOOtBw
p119
sVwidth
p120
I640
sVhtml_attributions
p121
(lp122
V<a href="https://maps.google.com/maps/contrib/112237900646984612602/photos">Jason Miller</a>
p123
asVheight
p124
I480
sa(dp125
Vphoto_reference
p126
VCmRdAAAAkarrebaaveERFqQ3TsWkICoPlNXKOmP9venVPkePa5qCF5W79zdTz6Oe3A92ngMAF1MF6HBM_sPDeGgWdMfY_ot2EMMX_vgS07ffeXLCWvPVRVWm4u41xGvy-IYlDp6PEhB-zvsf6vxQ8IoFAkdYRk7xGhRdIO2yWlrAgD-_sxmEJNVBJsrHxQ
p127
sVwidth
p128
I1280
sVhtml_attributions
p129
(lp130
V<a href="https://maps.google.com/maps/contrib/101154846976613106691/photos">Raphael Tran</a>
p131
asVheight
p132
I720
sa(dp133
Vphoto_reference
p134
VCmRdAAAAQdK5SSh-SAfsAiogjx_kJBsT51qDvNwIv4Nqz8vZYzolIaMm7zeoLP21w6xkOMr1oXYUK3N-rQ2c0_GBoG0w3DQWf2RGSLucBbFVKH-vBYnrDDlv1h-iTj1kMfoJMXloEhBY1rrKYTIcCUKger1A_h_MGhSdF7jCJAlKzJt0mU3qTwqOxvmjPg
p135
sVwidth
p136
I947
sVhtml_attributions
p137
(lp138
V<a href="https://maps.google.com/maps/contrib/104020598745170462985/photos">Nicholas Littlejohn</a>
p139
asVheight
p140
I1268
sasVtypes
p141
(lp142
Vcafe
p143
aVbar
p144
aVrestaurant
p145
aVfood
p146
aVstore
p147
aVpoint_of_interest
p148
aVestablishment
p149
asVicon
p150
Vhttps://maps.gstatic.com/mapfiles/place_api/icons/cafe-71.png
p151
sVname
p152
VAu Coquelet
p153
sVgeometry
p154
(dp155
Vaccess_points
p156
(lp157
(dp158
Vtravel_modes
p159
(lp160
VDRIVING
p161
aVBICYCLING
p162
aVWALKING
p163
aVTRANSIT
p164
asVlocation
p165
(dp166
Vlat
p167
g3
(S'37.8718276'
tRp168
sVlng
p169
g3
(S'-122.2705784'
tRp170
ssasVlocation
p171
(dp172
Vlat
p173
g3
(S'37.87163049999999'
tRp174
sVlng
p175
g3
(S'-122.270539'
tRp176
sssVadr_address
p177
V<span class="street-address">2000 University Ave</span>, <span class="locality">Berkeley</span>, <span class="region">CA</span> <span class="postal-code">94704-1006</span>, <span class="country-name">United States</span>
p178
sVinternational_phone_number
p179
V+1 510-845-0433
p180
sVreviews
p181
(lp182
(dp183
Vrating
p184
I1
sVaspects
p185
(lp186
(dp187
Vrating
p188
I0
sVtype
p189
Voverall
p190
sasVprofile_photo_url
p191
V//lh5.googleusercontent.com/-OWeDchtJqKM/AAAAAAAAAAI/AAAAAAAAC0k/G06elAUHVDo/photo.jpg
p192
sVlanguage
p193
Ven
p194
sVtext
p195
VWATCHOUT! GOT SICK WHEN I ATE THIER FOOD.\u000a\u000aI went to this place because it is open late night. I ordered a latte. I expected a good one but instead I got a mediocre one. I didn't enjoy it at all. I wish I got my latte from peet's that day. I got a good sit and started working in my laptop. After sometime I was a bit hungry and wanted something to eat. I ordered a chicken breast pesto sandwich. The chicken breast was not cooked well but ate it anyways. After an hour or so I felt weak and dizzy and left the place. When I got home, I got fever and my stomach was bloated and stiff alnight. I haven't slept all night. Im still dizzy. This is I believe a typical food poisoning senario.  I was healthy before I came to this place but got sick after I ate thier sandwich. No plans to go back in there. I don't recommend anyone to go there.
p196
sVauthor_name
p197
VYosief Tedros
p198
sVauthor_url
p199
Vhttps://plus.google.com/109821993467590607762
p200
sVtime
p201
I1456603270
sa(dp202
Vrating
p203
I5
sVaspects
p204
(lp205
(dp206
Vrating
p207
I3
sVtype
p208
Voverall
p209
sasVlanguage
p210
Ven
p211
sVtext
p212
VGreat place to study and do group work. Also they are open late (1:30am I believe) and breakfast is served all day. Lots of food and drink options as well. I recommend the Reuben and the French Toast Special. 
p213
sVauthor_name
p214
VBoris Fedorov
p215
sVauthor_url
p216
Vhttps://plus.google.com/100688957019038970383
p217
sVtime
p218
I1456449295
sa(dp219
Vrating
p220
I5
sVaspects
p221
(lp222
(dp223
Vrating
p224
I3
sVtype
p225
Voverall
p226
sasVlanguage
p227
Ven
p228
sVtext
p229
VTo me this is a special place. Why? For there is nothing like it anywhere near this area, that has a consistently high quality menu, in particular the evening specials, and a polite, hard working and attentive staff. Combine these qualities with their early morning to late night hours of service and you may come to appreciate it as much as I do.
p230
sVauthor_name
p231
VLarry Michael
p232
sVauthor_url
p233
Vhttps://plus.google.com/115441671469619429787
p234
sVtime
p235
I1448598581
sa(dp236
Vrating
p237
I1
sVaspects
p238
(lp239
(dp240
Vrating
p241
I0
sVtype
p242
Voverall
p243
sasVprofile_photo_url
p244
V//lh3.googleusercontent.com/-12PT5nBAbrc/AAAAAAAAAAI/AAAAAAAAA5Y/b_AbOW4-CSU/photo.jpg
p245
sVlanguage
p246
Ven
p247
sVtext
p248
VOutdated menu, no staff monitor the patrons who come in so sometimes it feels very uncomfortable  or  uneasy staying in a environment  that is aromatically deadly to be near.\u000a\u000aThe interior has not been changed since at least 1980s earliest. And the food never changes. Same bulk menu every week minus the specials. Only come here if you have no other choice. \u000a\u000aFor those who need outlets  for class. If you cant fnd space  in the front seating,  go to the library instead.
p249
sVauthor_name
p250
VEric Chung
p251
sVauthor_url
p252
Vhttps://plus.google.com/100722760248080050316
p253
sVtime
p254
I1451293486
sa(dp255
Vrating
p256
I4
sVaspects
p257
(lp258
(dp259
Vrating
p260
I2
sVtype
p261
Voverall
p262
sasVprofile_photo_url
p263
V//lh5.googleusercontent.com/-VbyXwaj7zKo/AAAAAAAAAAI/AAAAAAAAbYY/XzQwCZNfBck/photo.jpg
p264
sVlanguage
p265
Ven
p266
sVtext
p267
Vwide, wide variety of items at this cafe. Worth going in either for a quick cup of coffee or tea, or sitting down to a yummy lunch.  So far all the experiences have been great.
p268
sVauthor_name
p269
VAdrian Scharfetter
p270
sVauthor_url
p271
Vhttps://plus.google.com/113848236184477316575
p272
sVtime
p273
I1448138182
sasVformatted_phone_number
p274
V(510) 845-0433
p275
sVaddress_components
p276
(lp277
(dp278
Vlong_name
p279
V2000
p280
sVtypes
p281
(lp282
Vstreet_number
p283
asVshort_name
p284
V2000
p285
sa(dp286
Vlong_name
p287
VUniversity Avenue
p288
sVtypes
p289
(lp290
Vroute
p291
asVshort_name
p292
VUniversity Ave
p293
sa(dp294
Vlong_name
p295
VBerkeley
p296
sVtypes
p297
(lp298
Vlocality
p299
aVpolitical
p300
asVshort_name
p301
VBerkeley
p302
sa(dp303
Vlong_name
p304
VCalifornia
p305
sVtypes
p306
(lp307
Vadministrative_area_level_1
p308
aVpolitical
p309
asVshort_name
p310
VCA
p311
sa(dp312
Vlong_name
p313
VUnited States
p314
sVtypes
p315
(lp316
Vcountry
p317
aVpolitical
p318
asVshort_name
p319
VUS
p320
sa(dp321
Vlong_name
p322
V94704
p323
sVtypes
p324
(lp325
Vpostal_code
p326
asVshort_name
p327
V94704
p328
sa(dp329
Vlong_name
p330
V1006
p331
sVtypes
p332
(lp333
Vpostal_code_suffix
p334
asVshort_name
p335
V1006
p336
sas.