(dp1
Vrating
p2
cdecimal
Decimal
p3
(S'4.4'
tRp4
sVreference
p5
VCmRYAAAA7PQAKPBs-uZsnAPCHetmGfslvAG3gWAXwtzlJpf_aUcCAiuVySldAfeLMsoQwsgf8nQlsGrYexiCbjhukQUe066EOBH9V52OvY2b77X5jcqMYlc1D80lJBCcB8zNkr2sEhC89Gddw2_JZQ48xn8Sf5nOGhSovGDEcA42w8XK3P1GaS_TunWCag
p6
sVplace_id
p7
VChIJb-KW6Q-HhYAR4NlucuMP_HE
p8
sVurl
p9
Vhttps://maps.google.com/?cid=8213457289968802272
p10
sVformatted_address
p11
V5800 Geary Blvd, San Francisco, CA 94121, United States
p12
sVid
p13
V0ea43efc75fbc1126c7673337ace266b77c7f936
p14
sVopening_hours
p15
(dp16
Vweekday_text
p17
(lp18
VMonday: Closed
p19
aVTuesday: Closed
p20
aVWednesday: 5:30 \u2013 10:00 PM
p21
aVThursday: 5:30 \u2013 10:00 PM
p22
aVFriday: 5:30 \u2013 10:00 PM
p23
aVSaturday: 5:30 \u2013 10:00 PM
p24
aVSunday: 5:30 \u2013 10:00 PM
p25
asVopen_now
p26
I00
sVperiods
p27
(lp28
(dp29
Vclose
p30
(dp31
Vday
p32
I0
sVtime
p33
V2200
p34
ssVopen
p35
(dp36
Vday
p37
I0
sVtime
p38
V1730
p39
ssa(dp40
Vclose
p41
(dp42
Vday
p43
I3
sVtime
p44
V2200
p45
ssVopen
p46
(dp47
Vday
p48
I3
sVtime
p49
V1730
p50
ssa(dp51
Vclose
p52
(dp53
Vday
p54
I4
sVtime
p55
V2200
p56
ssVopen
p57
(dp58
Vday
p59
I4
sVtime
p60
V1730
p61
ssa(dp62
Vclose
p63
(dp64
Vday
p65
I5
sVtime
p66
V2200
p67
ssVopen
p68
(dp69
Vday
p70
I5
sVtime
p71
V1730
p72
ssa(dp73
Vclose
p74
(dp75
Vday
p76
I6
sVtime
p77
V2200
p78
ssVopen
p79
(dp80
Vday
p81
I6
sVtime
p82
V1730
p83
ssassVvicinity
p84
V5800 Geary Boulevard, San Francisco
p85
sVscope
p86
VGOOGLE
p87
sVwebsite
p88
Vhttp://www.aziza-sf.com/
p89
sVutc_offset
p90
I-420
sVuser_ratings_total
p91
I183
sVphotos
p92
(lp93
(dp94
Vphoto_reference
p95
VCmRdAAAAk7eWcN1hSX5Usm5snfk3jKjYPwpfchlaXtmTpWyjH2VGQv31Wt0hozVZiDj25oczMWpAK83KL44l1DpKomTha6W3E-80HCD1q2zUzKNzWEl0E1b-m7YdNJbNBzhvILlOEhCPlR_4SeaRuqBSCibehllTGhQHBjE-W3cGXVRCTNWBQkiZv62rLA
p96
sVwidth
p97
I2738
sVhtml_attributions
p98
(lp99
V<a href="https://maps.google.com/maps/contrib/116981742854468225439/photos">engly Chang</a>
p100
asVheight
p101
I3651
sa(dp102
Vphoto_reference
p103
VCmRdAAAAOesjWSeGb1v47NxANIgJLZWpYd1U_VqIhE6OW4IriVS64tybCLRHIAK1xYo6OyJR00M21vzN4Z_gz3bw9BmZL9foY4ZdQr7P-d6AEmEUZY37FwAEdwlA34e3vSVd3jRVEhDC7WbAFcwcowieejLYSsvHGhTQUx0c0ALzXmh2IwBN4UntcA5CcA
p104
sVwidth
p105
I3651
sVhtml_attributions
p106
(lp107
V<a href="https://maps.google.com/maps/contrib/116981742854468225439/photos">engly Chang</a>
p108
asVheight
p109
I2738
sa(dp110
Vphoto_reference
p111
VCmRdAAAAual4qHzt3cTCocsUF9e9uTr8jW0HNDZ1B_vGJChd5c_Lpi8NlF5eUwLoF_1g6ZPf3tzmH0bMdgJOhiuFKor2wDFUyJqUZM1YpxqFvSFLFSNKUuNkBAvth14TO6964KpaEhBgRrdj-JduFNd-7Vl4ia9-GhQYm9FzGcqW7vB97vfCC0e2b02iiw
p112
sVwidth
p113
I5312
sVhtml_attributions
p114
(lp115
V<a href="https://maps.google.com/maps/contrib/103301574475584074789/photos">Adam Robinson</a>
p116
asVheight
p117
I2988
sa(dp118
Vphoto_reference
p119
VCmRdAAAAtz-P1xVim9wEY9n3ZztC3GRdbSdsksZpQAiWqZzb9tFPgGB8pZETKVd_aHdXlu4fE6lO5N-eqYFCjc1bOixp6qwYKgTcSJ-m3AYSwE0_FlGbJw8YJwhwJPMfbqO-ezoUEhCdjwxhYUOvhsWwv1j3n2fvGhRIaL2rHOfY-sWIUNqF7Gr5-5YrBg
p120
sVwidth
p121
I4489
sVhtml_attributions
p122
(lp123
V<a href="https://maps.google.com/maps/contrib/115899114891717391205/photos">Chelsea Gregory</a>
p124
asVheight
p125
I3367
sa(dp126
Vphoto_reference
p127
VCoQBcwAAABc4j7vKHmDCT4UXMS1zP9qbiPlktGxrtvdjzzYSd5YLQVy1qAIieAG7zJSa6ZLwPh5S4r5Uk9IPLbci3lYNvyXVSegoopP2prV2xkk5M-RWZLoZ7tBe61Hq9Ud2gpxgCPK_nFrr6RmPRhlNcjLb_-xT6LBR1PC1OmMMP_y75AkuEhCdaHDGBgMU8dg95WE5TvfKGhQX0iAzpLs4tCZ0N_e352Ba_NITGA
p128
sVwidth
p129
I3456
sVhtml_attributions
p130
(lp131
V<a href="https://maps.google.com/maps/contrib/115899114891717391205/photos">Chelsea Gregory</a>
p132
asVheight
p133
I3456
sa(dp134
Vphoto_reference
p135
VCmRdAAAAvRVWffsttGqgfGyZB_6XUKaRXKWoLowtrbgmHYo9ix6_-mhDoV7QlIQaNCHnAaZOBCXDTvEAC8qOgfmBGuDMDdnKyJ0xxG7bLKuV869xR0rhgggoWdFd4LvVaqfMrRF_EhAA9QOd7EwTnmCaBRs6UJhrGhSB6uYpjov40dNe1oOjsr_BUW044A
p136
sVwidth
p137
I5312
sVhtml_attributions
p138
(lp139
V<a href="https://maps.google.com/maps/contrib/103301574475584074789/photos">Adam Robinson</a>
p140
asVheight
p141
I2988
sa(dp142
Vphoto_reference
p143
VCmRdAAAAshueqwjs-iknXbhBW4iwKIn1ksZEPp9SY9WY-HmDrbIOY2jTEFjZDPoZbbQZDvYErbm6gpftbjj0NPzGxSvRJ-yjgX981mfezI5BDwaohMMWFEXRKd0KYDoWOp3XMuPtEhDhZI4zjMPxai2rDWMCn_YRGhRl8XbJDqqFMtwmEyaSzvFDMJ6qgQ
p144
sVwidth
p145
I2358
sVhtml_attributions
p146
(lp147
V<a href="https://maps.google.com/maps/contrib/116981742854468225439/photos">engly Chang</a>
p148
asVheight
p149
I3144
sa(dp150
Vphoto_reference
p151
VCmRdAAAA6y4BHcwbjT6qJB3rdlF6nuIW9mS9VfiYa2xUWCSRq1YmWIYHXQDoR3ZidnSnEAWFyHCppV6BFmS-HFuF-xPvAWHlYnwZ7zwyb5lHI1ccAh8R3U5O0TQS0vpj__21ly2ZEhA7U0xJE5yG4P4Vd30_k79ZGhQ0sv-WGHQrqalECsLnp8pNXXPyhA
p152
sVwidth
p153
I1280
sVhtml_attributions
p154
(lp155
V<a href="https://maps.google.com/maps/contrib/102272337686480191000/photos">Julius Heilman</a>
p156
asVheight
p157
I960
sa(dp158
Vphoto_reference
p159
VCmRdAAAAAO81zBRmtMCRbJahMb51a5ZmFczMs_czD93y-c7nKsBYYYGnkPxzngmv6tVpDJPpL_99Kjh4lTJ49eZb7hMQfeEm_YTKoET-NDA7IG9_h9tOZ77vBvk_tU4cSwlcsitNEhB9EkYnj-ImYQM1PjZka2olGhSI6EB9Ox7Eb_0IrSmksRDB4yC52A
p160
sVwidth
p161
I1280
sVhtml_attributions
p162
(lp163
V<a href="https://maps.google.com/maps/contrib/102272337686480191000/photos">Julius Heilman</a>
p164
asVheight
p165
I960
sa(dp166
Vphoto_reference
p167
VCmRdAAAAzQTZ86MkZx_v9zF7yuG6xwI-Z-zKfadln0q-G1PkV8VILYWIILXieBARtk3kCflsnh6K3mWWVlGHHWCoxb6dQEIRkAa-HzSQX3i0dnoWuIojt3-mhDItBAEQ6ZyWlWRwEhDRdDiK8JMBhieNMgOwuOQaGhT213IV3vOeitqn28MecJ7Tn1zloQ
p168
sVwidth
p169
I3651
sVhtml_attributions
p170
(lp171
V<a href="https://maps.google.com/maps/contrib/116981742854468225439/photos">engly Chang</a>
p172
asVheight
p173
I2738
sasVtypes
p174
(lp175
Vbar
p176
aVrestaurant
p177
aVfood
p178
aVpoint_of_interest
p179
aVestablishment
p180
asVicon
p181
Vhttps://maps.gstatic.com/mapfiles/place_api/icons/restaurant-71.png
p182
sVname
p183
VAziza
p184
sVgeometry
p185
(dp186
Vaccess_points
p187
(lp188
(dp189
Vtravel_modes
p190
(lp191
VDRIVING
p192
aVBICYCLING
p193
aVWALKING
p194
aVTRANSIT
p195
asVlocation
p196
(dp197
Vlat
p198
g3
(S'37.7802918'
tRp199
sVlng
p200
g3
(S'-122.4817228'
tRp201
ssasVlocation
p202
(dp203
Vlat
p204
g3
(S'37.7804422'
tRp205
sVlng
p206
g3
(S'-122.4817328'
tRp207
sssVadr_address
p208
V<span class="street-address">5800 Geary Blvd</span>, <span class="locality">San Francisco</span>, <span class="region">CA</span> <span class="postal-code">94121-2005</span>, <span class="country-name">United States</span>
p209
sVinternational_phone_number
p210
V+1 415-752-2222
p211
sVreviews
p212
(lp213
(dp214
Vrating
p215
I5
sVaspects
p216
(lp217
(dp218
Vrating
p219
I3
sVtype
p220
Voverall
p221
sasVprofile_photo_url
p222
V//lh6.googleusercontent.com/-MX5MTuwBofc/AAAAAAAAAAI/AAAAAAAAAFo/3_EP4eaqUwY/photo.jpg
p223
sVlanguage
p224
Ven
p225
sVtext
p226
VFor a restaurant that is Michelin star-rated, with an iron chef winner chef, and rotating tasting menu Aziza is impressively affordable. We came at a time when the restaurant was between tasting menus so but we still asked for that option and they were accommodating: giving us a sampling from the regular menu. And when we asked for a substitution on one of the main courses: no problem! The cocktails were well-matched to the food (and creatively named)! Everything was enjoyable but our favorites were the lamb & basteeya.
p227
sVauthor_name
p228
VLeighann Breeze
p229
sVauthor_url
p230
Vhttps://plus.google.com/116073309429759671127
p231
sVtime
p232
I1456948947
sa(dp233
Vrating
p234
I4
sVaspects
p235
(lp236
(dp237
Vrating
p238
I2
sVtype
p239
Voverall
p240
sasVprofile_photo_url
p241
V//lh3.googleusercontent.com/-rdtLrr14xzg/AAAAAAAAAAI/AAAAAAAAABA/PtcYHx01p3I/photo.jpg
p242
sVlanguage
p243
Ven
p244
sVtext
p245
VBest meal I have had, by far. Can't come up with bad thing to say about this place. This may sound silly but don't ignore the olives. They were out of this world.
p246
sVauthor_name
p247
VBeau Jones
p248
sVauthor_url
p249
Vhttps://plus.google.com/110351769436784666037
p250
sVtime
p251
I1459242416
sa(dp252
Vrating
p253
I3
sVaspects
p254
(lp255
(dp256
Vrating
p257
I1
sVtype
p258
Voverall
p259
sasVprofile_photo_url
p260
V//lh5.googleusercontent.com/-HPhn16zm4ts/AAAAAAAAAAI/AAAAAAAAvpE/dzpcwmNh9N0/photo.jpg
p261
sVlanguage
p262
Ven
p263
sVtext
p264
VThis place appears to be better than it is, but it's very expensive and the food isn't worth it.  The decor is great and the staff were nice, but the food was nothing special.  I had chicken which they say is cooked sous-vide, and it came out raw - had to get another one which was barely just cooked and didn't even have much flavor to it at all.
p265
sVauthor_name
p266
VMike W
p267
sVauthor_url
p268
Vhttps://plus.google.com/114027858096616322497
p269
sVtime
p270
I1458682761
sa(dp271
Vrating
p272
I4
sVaspects
p273
(lp274
(dp275
Vrating
p276
I2
sVtype
p277
Voverall
p278
sasVprofile_photo_url
p279
V//lh5.googleusercontent.com/-AIfxTUDXQ3E/AAAAAAAAAAI/AAAAAAAAABU/10D4hV0v75s/photo.jpg
p280
sVlanguage
p281
Ven
p282
sVtext
p283
VAmazing. Really just a great experience. The somewhat strange space out in the Richmond only adds to the meal. The food is so good. And also interesting. The prices are quite reasonable as well. Definitely worth trying.
p284
sVauthor_name
p285
VRichard Eyler
p286
sVauthor_url
p287
Vhttps://plus.google.com/110214188613833776298
p288
sVtime
p289
I1459331717
sa(dp290
Vrating
p291
I5
sVaspects
p292
(lp293
(dp294
Vrating
p295
I3
sVtype
p296
Voverall
p297
sasVprofile_photo_url
p298
V//lh5.googleusercontent.com/-eVOEO4kJo1Y/AAAAAAAAAAI/AAAAAAAEYnI/HdkJJBmcIig/photo.jpg
p299
sVlanguage
p300
Ven
p301
sVtext
p302
VOutstanding, high quality Moroccan-Californian fare. The aesthetics, flavor, and attention to detail are all incredible. Things not to miss: lentil soup, duck basteeya, dips and spreads, short ribs, and COUSCOUS (which is to die for). Also a lovely cocktail program, with absolutely unique, herb-driven delights. 
p303
sVauthor_name
p304
VEli Anders
p305
sVauthor_url
p306
Vhttps://plus.google.com/102025846828621673534
p307
sVtime
p308
I1447995187
sasVformatted_phone_number
p309
V(415) 752-2222
p310
sVaddress_components
p311
(lp312
(dp313
Vlong_name
p314
V5800
p315
sVtypes
p316
(lp317
Vstreet_number
p318
asVshort_name
p319
V5800
p320
sa(dp321
Vlong_name
p322
VGeary Boulevard
p323
sVtypes
p324
(lp325
Vroute
p326
asVshort_name
p327
VGeary Blvd
p328
sa(dp329
Vlong_name
p330
VSan Francisco
p331
sVtypes
p332
(lp333
Vlocality
p334
aVpolitical
p335
asVshort_name
p336
VSF
p337
sa(dp338
Vlong_name
p339
VCalifornia
p340
sVtypes
p341
(lp342
Vadministrative_area_level_1
p343
aVpolitical
p344
asVshort_name
p345
VCA
p346
sa(dp347
Vlong_name
p348
VUnited States
p349
sVtypes
p350
(lp351
Vcountry
p352
aVpolitical
p353
asVshort_name
p354
VUS
p355
sa(dp356
Vlong_name
p357
V94121
p358
sVtypes
p359
(lp360
Vpostal_code
p361
asVshort_name
p362
V94121
p363
sa(dp364
Vlong_name
p365
V2005
p366
sVtypes
p367
(lp368
Vpostal_code_suffix
p369
asVshort_name
p370
V2005
p371
sas.