(dp1
Vwebsite
p2
Vhttp://www.gap.com/
p3
sVutc_offset
p4
I-420
sVname
p5
VBaby Gap
p6
sVreference
p7
VCmRbAAAAjEFF0sS1ShbcOR1AnkaCj_StrSJUV9AgYnspB8sB7E5g5PkD_ab0TQtxXhJkmPUoUccK3mm-neps-E0O_HF-Xco4UkWfeCQl5eIW2jV4mPoKOlFJ9XweDqzKVM2izLCNEhBxeF3MBBi5y0NxUHPkjSRJGhTPFpMGub6H1ZxwUseYsOnOEjT1OQ
p8
sVprice_level
p9
I2
sVgeometry
p10
(dp11
Vaccess_points
p12
(lp13
(dp14
Vtravel_modes
p15
(lp16
VDRIVING
p17
aVBICYCLING
p18
aVWALKING
p19
aVTRANSIT
p20
asVlocation
p21
(dp22
Vlat
p23
cdecimal
Decimal
p24
(S'37.8102588'
tRp25
sVlng
p26
g24
(S'-122.2455048'
tRp27
ssasVlocation
p28
(dp29
Vlat
p30
g24
(S'37.8104576'
tRp31
sVlng
p32
g24
(S'-122.2456153'
tRp33
sssVadr_address
p34
V<span class="street-address">3227 Lakeshore Ave</span>, <span class="locality">Oakland</span>, <span class="region">CA</span> <span class="postal-code">94610-2719</span>, <span class="country-name">United States</span>
p35
sVplace_id
p36
VChIJrcbDd0GHj4AROcWbRC1JjkY
p37
sVinternational_phone_number
p38
V+1 510-763-2995
p39
sVvicinity
p40
V3227 Lakeshore Avenue, Oakland
p41
sVformatted_phone_number
p42
V(510) 763-2995
p43
sVurl
p44
Vhttps://maps.google.com/?cid=5084081488121283897
p45
sVscope
p46
VGOOGLE
p47
sVaddress_components
p48
(lp49
(dp50
Vlong_name
p51
V3227
p52
sVtypes
p53
(lp54
Vstreet_number
p55
asVshort_name
p56
V3227
p57
sa(dp58
Vlong_name
p59
VLakeshore Avenue
p60
sVtypes
p61
(lp62
Vroute
p63
asVshort_name
p64
VLakeshore Ave
p65
sa(dp66
Vlong_name
p67
VOakland
p68
sVtypes
p69
(lp70
Vlocality
p71
aVpolitical
p72
asVshort_name
p73
VOakland
p74
sa(dp75
Vlong_name
p76
VCalifornia
p77
sVtypes
p78
(lp79
Vadministrative_area_level_1
p80
aVpolitical
p81
asVshort_name
p82
VCA
p83
sa(dp84
Vlong_name
p85
VUnited States
p86
sVtypes
p87
(lp88
Vcountry
p89
aVpolitical
p90
asVshort_name
p91
VUS
p92
sa(dp93
Vlong_name
p94
V94610
p95
sVtypes
p96
(lp97
Vpostal_code
p98
asVshort_name
p99
V94610
p100
sa(dp101
Vlong_name
p102
V2719
p103
sVtypes
p104
(lp105
Vpostal_code_suffix
p106
asVshort_name
p107
V2719
p108
sasVformatted_address
p109
V3227 Lakeshore Ave, Oakland, CA 94610, United States
p110
sVid
p111
Vf65ab8d04676dd77c3eb9bf923cd01a39977c03e
p112
sVtypes
p113
(lp114
Vclothing_store
p115
aVstore
p116
aVpoint_of_interest
p117
aVestablishment
p118
asVicon
p119
Vhttps://maps.gstatic.com/mapfiles/place_api/icons/shopping-71.png
p120
s.