(dp1
Vrating
p2
I4
sVreference
p3
VCmRYAAAArYXP3zb3KYtug6E08ITUsKu_svPrY3N58DCk_w551RbD9UqfNW1wzWx0L5gUNv2Pj338XSelzmPi2kiijMdQHlLDpo9WJhx0vDdooJ4g0hJ7nN8m5xuPDZ_Zq0H6FNPFEhB2sns2IYrOv7YtYv8WLVNpGhQKKKQvwhoUeBwWpoaBofsGsDipDg
p4
sVprice_level
p5
I4
sVplace_id
p6
VChIJMVeA3o6AhYARmEbQ6kLfKtM
p7
sVurl
p8
Vhttps://maps.google.com/?cid=15216219769524995736
p9
sVformatted_address
p10
V331 Powell St, San Francisco, CA 94102, United States
p11
sVid
p12
V4ef748248c4974e72f339861e7aeea5ba3861d26
p13
sVopening_hours
p14
(dp15
Vweekday_text
p16
(lp17
VMonday: 10:00 AM \u2013 8:00 PM
p18
aVTuesday: 10:00 AM \u2013 8:00 PM
p19
aVWednesday: 10:00 AM \u2013 8:00 PM
p20
aVThursday: 10:00 AM \u2013 8:00 PM
p21
aVFriday: 10:00 AM \u2013 8:00 PM
p22
aVSaturday: 10:00 AM \u2013 8:00 PM
p23
aVSunday: 11:00 AM \u2013 6:00 PM
p24
asVopen_now
p25
I01
sVperiods
p26
(lp27
(dp28
Vclose
p29
(dp30
Vday
p31
I0
sVtime
p32
V1800
p33
ssVopen
p34
(dp35
Vday
p36
I0
sVtime
p37
V1100
p38
ssa(dp39
Vclose
p40
(dp41
Vday
p42
I1
sVtime
p43
V2000
p44
ssVopen
p45
(dp46
Vday
p47
I1
sVtime
p48
V1000
p49
ssa(dp50
Vclose
p51
(dp52
Vday
p53
I2
sVtime
p54
V2000
p55
ssVopen
p56
(dp57
Vday
p58
I2
sVtime
p59
V1000
p60
ssa(dp61
Vclose
p62
(dp63
Vday
p64
I3
sVtime
p65
V2000
p66
ssVopen
p67
(dp68
Vday
p69
I3
sVtime
p70
V1000
p71
ssa(dp72
Vclose
p73
(dp74
Vday
p75
I4
sVtime
p76
V2000
p77
ssVopen
p78
(dp79
Vday
p80
I4
sVtime
p81
V1000
p82
ssa(dp83
Vclose
p84
(dp85
Vday
p86
I5
sVtime
p87
V2000
p88
ssVopen
p89
(dp90
Vday
p91
I5
sVtime
p92
V1000
p93
ssa(dp94
Vclose
p95
(dp96
Vday
p97
I6
sVtime
p98
V2000
p99
ssVopen
p100
(dp101
Vday
p102
I6
sVtime
p103
V1000
p104
ssassVvicinity
p105
V331 Powell Street, San Francisco
p106
sVscope
p107
VGOOGLE
p108
sVwebsite
p109
Vhttp://www.bcbg.com/
p110
sVutc_offset
p111
I-420
sVuser_ratings_total
p112
I5
sVtypes
p113
(lp114
Vclothing_store
p115
aVstore
p116
aVpoint_of_interest
p117
aVestablishment
p118
asVicon
p119
Vhttps://maps.gstatic.com/mapfiles/place_api/icons/shopping-71.png
p120
sVname
p121
VBCBG
p122
sVgeometry
p123
(dp124
Vaccess_points
p125
(lp126
(dp127
Vtravel_modes
p128
(lp129
VDRIVING
p130
aVBICYCLING
p131
aVWALKING
p132
aVTRANSIT
p133
asVlocation
p134
(dp135
Vlat
p136
cdecimal
Decimal
p137
(S'37.7875284'
tRp138
sVlng
p139
g137
(S'-122.4082918'
tRp140
ssasVlocation
p141
(dp142
Vlat
p143
g137
(S'37.78748820000001'
tRp144
sVlng
p145
g137
(S'-122.408603'
tRp146
sssVadr_address
p147
V<span class="street-address">331 Powell St</span>, <span class="locality">San Francisco</span>, <span class="region">CA</span> <span class="postal-code">94102</span>, <span class="country-name">United States</span>
p148
sVinternational_phone_number
p149
V+1 415-362-7360
p150
sVreviews
p151
(lp152
(dp153
Vrating
p154
I3
sVaspects
p155
(lp156
(dp157
Vrating
p158
I1
sVtype
p159
Voverall
p160
sasVprofile_photo_url
p161
V//lh6.googleusercontent.com/-OIFnbCZhSZ8/AAAAAAAAAAI/AAAAAAABgzU/l0ShGyMJY00/photo.jpg
p162
sVlanguage
p163
Ven
p164
sVtext
p165
VDespite the staggeringly high price tag, I usually find a good piece or two at BCBG and the staff is always very friendly and helpful. So I was surprised by the lack of service at this beautiful location. While one of the best laid out and visually appealing BCBGs that I have seen, no one greeted me nor spoke to me at all - aside from when I was brushed out of the way by an employee pulling a shirt off the rack I was looking at to show another customer. If you are at Union Square for high-end shopping at the many luxury brand stores, you'll most likely make a stop here, but I left empty-handed.
p166
sVauthor_name
p167
VCorrie Davidson
p168
sVauthor_url
p169
Vhttps://plus.google.com/106170335079428053302
p170
sVtime
p171
I1374620341
sa(dp172
Vrating
p173
I4
sVaspects
p174
(lp175
(dp176
Vrating
p177
I2
sVtype
p178
Voverall
p179
sasVlanguage
p180
Ven
p181
sVtext
p182
Vthis is a place where I can find something for myself & my two daughters, 20something & 30 something and let's just say I'm the mother.  Always a good window display.
p183
sVauthor_name
p184
VElinor Williams
p185
sVauthor_url
p186
Vhttps://plus.google.com/102832390590837248554
p187
sVtime
p188
I1370117829
sa(dp189
Vrating
p190
I5
sVaspects
p191
(lp192
(dp193
Vrating
p194
I3
sVtype
p195
Voverall
p196
sasVlanguage
p197
Vzh
p198
sVtext
p199
Vfriendly staff
p200
sVauthor_name
p201
VHelen Ren
p202
sVauthor_url
p203
Vhttps://plus.google.com/115392823236629757988
p204
sVtime
p205
I1362099316
sa(dp206
Vrating
p207
I4
sVaspects
p208
(lp209
(dp210
Vrating
p211
I2
sVtype
p212
Voverall
p213
sasVlanguage
p214
Ven
p215
sVtext
p216
V
sVauthor_name
p217
VA Google User
p218
sVtime
p219
I1291883722
sa(dp220
Vrating
p221
I4
sVtime
p222
I1289949283
sVaspects
p223
(lp224
(dp225
Vrating
p226
I2
sVtype
p227
Voverall
p228
sasVauthor_name
p229
VA Google User
p230
sVtext
p231
V
sasVformatted_phone_number
p232
V(415) 362-7360
p233
sVaddress_components
p234
(lp235
(dp236
Vlong_name
p237
V331
p238
sVtypes
p239
(lp240
Vstreet_number
p241
asVshort_name
p242
V331
p243
sa(dp244
Vlong_name
p245
VPowell Street
p246
sVtypes
p247
(lp248
Vroute
p249
asVshort_name
p250
VPowell St
p251
sa(dp252
Vlong_name
p253
VSan Francisco
p254
sVtypes
p255
(lp256
Vlocality
p257
aVpolitical
p258
asVshort_name
p259
VSF
p260
sa(dp261
Vlong_name
p262
VCalifornia
p263
sVtypes
p264
(lp265
Vadministrative_area_level_1
p266
aVpolitical
p267
asVshort_name
p268
VCA
p269
sa(dp270
Vlong_name
p271
VUnited States
p272
sVtypes
p273
(lp274
Vcountry
p275
aVpolitical
p276
asVshort_name
p277
VUS
p278
sa(dp279
Vlong_name
p280
V94102
p281
sVtypes
p282
(lp283
Vpostal_code
p284
asVshort_name
p285
V94102
p286
sas.