(dp1
Vwebsite
p2
Vhttp://store.lds.org/webapp/wcs/stores/servlet/Category3_715839595_10557_3074457345616706230_-1_Y_image_0
p3
sVutc_offset
p4
I-420
sVuser_ratings_total
p5
I1
sVname
p6
VBeehive Clothing
p7
sVreference
p8
VCnRkAAAAWxRiynVll-ogmrZgBqSBvGtv_tPtDpgeG6H69GWaCwitRjVJB-9xggw69Bn0fjn3GWi8HSIMuVDAyH-n5btR6z1qOwqUjmQX3LEMFb7i9FVU6L81HRVVzafRLiHKrYwQ2oSwYk-5Hf4DMKBx_BRTNxIQZnne9qrJZ6M49TAxlEOiVhoUQ87TIMLwbegacQzl2ZL9S0Xh_Dg
p9
sVgeometry
p10
(dp11
Vaccess_points
p12
(lp13
(dp14
Vtravel_modes
p15
(lp16
VDRIVING
p17
aVBICYCLING
p18
aVWALKING
p19
aVTRANSIT
p20
asVlocation
p21
(dp22
Vlat
p23
cdecimal
Decimal
p24
(S'37.8114907'
tRp25
sVlng
p26
g24
(S'-122.1996582'
tRp27
ssasVlocation
p28
(dp29
Vlat
p30
g24
(S'37.8121035'
tRp31
sVlng
p32
g24
(S'-122.2007004'
tRp33
sssVadr_address
p34
V<span class="street-address">4915 Lincoln Way</span>, <span class="locality">Oakland</span>, <span class="region">CA</span> <span class="postal-code">94602-2536</span>, <span class="country-name">United States</span>
p35
sVplace_id
p36
VChIJF4kIsLmHj4ARts2huZUErJ0
p37
sVinternational_phone_number
p38
V+1 510-531-9767
p39
sVvicinity
p40
V4915 Lincoln Way, Oakland
p41
sVreviews
p42
(lp43
(dp44
Vrating
p45
I5
sVaspects
p46
(lp47
(dp48
Vrating
p49
I3
sVtype
p50
Voverall
p51
sasVprofile_photo_url
p52
V//lh6.googleusercontent.com/-GtysxlGRbEo/AAAAAAAAAAI/AAAAAAAAMZo/4VERGI_iBL0/photo.jpg
p53
sVlanguage
p54
Ven
p55
sVtext
p56
VVery nice people
p57
sVauthor_name
p58
VSean Brant
p59
sVauthor_url
p60
Vhttps://plus.google.com/112255108594943142972
p61
sVtime
p62
I1436224334
sasVformatted_phone_number
p63
V(510) 531-9767
p64
sVscope
p65
VGOOGLE
p66
sVurl
p67
Vhttps://maps.google.com/?cid=11361461001059945910
p68
sVopening_hours
p69
(dp70
Vweekday_text
p71
(lp72
VMonday: Closed
p73
aVTuesday: 9:00 AM \u2013 6:00 PM
p74
aVWednesday: 9:00 AM \u2013 6:00 PM
p75
aVThursday: 9:00 AM \u2013 6:00 PM
p76
aVFriday: 9:00 AM \u2013 6:00 PM
p77
aVSaturday: 8:00 AM \u2013 5:00 PM
p78
aVSunday: Closed
p79
asVopen_now
p80
I00
sVperiods
p81
(lp82
(dp83
Vclose
p84
(dp85
Vday
p86
I2
sVtime
p87
V1800
p88
ssVopen
p89
(dp90
Vday
p91
I2
sVtime
p92
V0900
p93
ssa(dp94
Vclose
p95
(dp96
Vday
p97
I3
sVtime
p98
V1800
p99
ssVopen
p100
(dp101
Vday
p102
I3
sVtime
p103
V0900
p104
ssa(dp105
Vclose
p106
(dp107
Vday
p108
I4
sVtime
p109
V1800
p110
ssVopen
p111
(dp112
Vday
p113
I4
sVtime
p114
V0900
p115
ssa(dp116
Vclose
p117
(dp118
Vday
p119
I5
sVtime
p120
V1800
p121
ssVopen
p122
(dp123
Vday
p124
I5
sVtime
p125
V0900
p126
ssa(dp127
Vclose
p128
(dp129
Vday
p130
I6
sVtime
p131
V1700
p132
ssVopen
p133
(dp134
Vday
p135
I6
sVtime
p136
V0800
p137
ssassVaddress_components
p138
(lp139
(dp140
Vlong_name
p141
V4915
p142
sVtypes
p143
(lp144
Vstreet_number
p145
asVshort_name
p146
V4915
p147
sa(dp148
Vlong_name
p149
VLincoln Way
p150
sVtypes
p151
(lp152
Vroute
p153
asVshort_name
p154
VLincoln Way
p155
sa(dp156
Vlong_name
p157
VOakland
p158
sVtypes
p159
(lp160
Vlocality
p161
aVpolitical
p162
asVshort_name
p163
VOakland
p164
sa(dp165
Vlong_name
p166
VCalifornia
p167
sVtypes
p168
(lp169
Vadministrative_area_level_1
p170
aVpolitical
p171
asVshort_name
p172
VCA
p173
sa(dp174
Vlong_name
p175
VUnited States
p176
sVtypes
p177
(lp178
Vcountry
p179
aVpolitical
p180
asVshort_name
p181
VUS
p182
sa(dp183
Vlong_name
p184
V94602
p185
sVtypes
p186
(lp187
Vpostal_code
p188
asVshort_name
p189
V94602
p190
sa(dp191
Vlong_name
p192
V2536
p193
sVtypes
p194
(lp195
Vpostal_code_suffix
p196
asVshort_name
p197
V2536
p198
sasVformatted_address
p199
V4915 Lincoln Way, Oakland, CA 94602, United States
p200
sVid
p201
Ve8b5619fe269621f8469750d88cfc7bf72e80da0
p202
sVtypes
p203
(lp204
Vclothing_store
p205
aVstore
p206
aVpoint_of_interest
p207
aVestablishment
p208
asVicon
p209
Vhttps://maps.gstatic.com/mapfiles/place_api/icons/shopping-71.png
p210
s.