(dp1
Vrating
p2
cdecimal
Decimal
p3
(S'4.4'
tRp4
sVreference
p5
VCnRjAAAA4rQWzBpv6QbYvUBjgb9OCwm2hEkuznjYLE1-EemtuSWf97NxDGWHoanmNk58RYF4N89hIxsBc7XYUQqZDYWrJUgyJN-xRtrtvXP2sxn0FPIbwxPskcRQB6ao7zeiTFEXkfxJFBK89dcCi5nbsZjp_BIQBUGIV9Bo2Zq3BPH6-bSXPxoUc8esH549ug4KWmuHYqiZ2_5kArw
p6
sVprice_level
p7
I1
sVplace_id
p8
VChIJpyuHNRt-j4ARi-WLHR3Fsto
p9
sVurl
p10
Vhttps://maps.google.com/?cid=15758874774963217803
p11
sVformatted_address
p12
V476 Castro St, San Francisco, CA 94114, United States
p13
sVid
p14
Vb4bec6002b9c92481ea3f1f83a9f5989d088cc48
p15
sVopening_hours
p16
(dp17
Vweekday_text
p18
(lp19
VMonday: 4:00 PM \u2013 12:00 AM
p20
aVTuesday: 4:00 PM \u2013 12:00 AM
p21
aVWednesday: 4:00 PM \u2013 12:30 AM
p22
aVThursday: 4:00 PM \u2013 12:30 AM
p23
aVFriday: 4:00 PM \u2013 1:30 AM
p24
aVSaturday: 3:00 PM \u2013 1:30 AM
p25
aVSunday: 3:00 PM \u2013 12:00 AM
p26
asVopen_now
p27
I00
sVperiods
p28
(lp29
(dp30
Vclose
p31
(dp32
Vday
p33
I1
sVtime
p34
V0000
p35
ssVopen
p36
(dp37
Vday
p38
I0
sVtime
p39
V1500
p40
ssa(dp41
Vclose
p42
(dp43
Vday
p44
I2
sVtime
p45
V0000
p46
ssVopen
p47
(dp48
Vday
p49
I1
sVtime
p50
V1600
p51
ssa(dp52
Vclose
p53
(dp54
Vday
p55
I3
sVtime
p56
V0000
p57
ssVopen
p58
(dp59
Vday
p60
I2
sVtime
p61
V1600
p62
ssa(dp63
Vclose
p64
(dp65
Vday
p66
I4
sVtime
p67
V0030
p68
ssVopen
p69
(dp70
Vday
p71
I3
sVtime
p72
V1600
p73
ssa(dp74
Vclose
p75
(dp76
Vday
p77
I5
sVtime
p78
V0030
p79
ssVopen
p80
(dp81
Vday
p82
I4
sVtime
p83
V1600
p84
ssa(dp85
Vclose
p86
(dp87
Vday
p88
I6
sVtime
p89
V0130
p90
ssVopen
p91
(dp92
Vday
p93
I5
sVtime
p94
V1600
p95
ssa(dp96
Vclose
p97
(dp98
Vday
p99
I0
sVtime
p100
V0130
p101
ssVopen
p102
(dp103
Vday
p104
I6
sVtime
p105
V1500
p106
ssassVvicinity
p107
V476 Castro Street, San Francisco
p108
sVscope
p109
VGOOGLE
p110
sVwebsite
p111
Vhttp://www.blushwinebar.com/
p112
sVutc_offset
p113
I-420
sVuser_ratings_total
p114
I37
sVphotos
p115
(lp116
(dp117
Vphoto_reference
p118
VCmRdAAAAV0_PPESQ0JV705BM-gsSRMnpgX8Dx7dCzod7GK-ng7U1PYhlmGDex9Sgi2s57ItdT6XPJbE2TliMvlzgofBGNRcSo5y6n5jH6mg2fn7BlW15F-WGZVrDvMp9QAU5z1JTEhCAyxfhQxQl8wYPP0SQgfD9GhT9WdsszZK5Y_iZHnuF_6ugbvHJwA
p119
sVwidth
p120
I1000
sVhtml_attributions
p121
(lp122
V<a href="https://maps.google.com/maps/contrib/105931908220398723881/photos">Blush! Wine Bar</a>
p123
asVheight
p124
I533
sa(dp125
Vphoto_reference
p126
VCmRdAAAArqlXCsvgoVAG2WNl1hx1rDnoMP1jqnFrwiZkK9s5-I7u4uEhFl1P9k78re3mbzU5Veg4ShgMrkTio1XocAcT_WwWAFRJ_ZZMqWsxrhrpV9-cELHz02F5xguaVMp9_17yEhA6Oq6jLBi04cQZaFqqzFvvGhTDGirHmsoKfMDVKql9hH8YvOHzHw
p127
sVwidth
p128
I480
sVhtml_attributions
p129
(lp130
V<a href="https://maps.google.com/maps/contrib/106398099533058924488/photos">kid jef</a>
p131
asVheight
p132
I640
sa(dp133
Vphoto_reference
p134
VCmRdAAAAzHsZjOXlXbczp32PZWQYr4uZ0Y_1G7kpp56saulSeew1B0-johyR7YwlNP3wVGpHRs8C_aDhnLdcnWBbmWo975qbS5rXBLUhtQvv4fbDMjGIcUmNPyn7buhpuphmQNTXEhBZreaemqjtlOvV6Cl5Fb3uGhQBw7aM5PGI8nrwQjKiTQiEXVgXZg
p135
sVwidth
p136
I397
sVhtml_attributions
p137
(lp138
V<a href="https://maps.google.com/maps/contrib/105931908220398723881/photos">Blush! Wine Bar</a>
p139
asVheight
p140
I397
sasVtypes
p141
(lp142
Vrestaurant
p143
aVfood
p144
aVbar
p145
aVpoint_of_interest
p146
aVestablishment
p147
asVicon
p148
Vhttps://maps.gstatic.com/mapfiles/place_api/icons/bar-71.png
p149
sVname
p150
VBlush! Wine Bar
p151
sVgeometry
p152
(dp153
Vaccess_points
p154
(lp155
(dp156
Vtravel_modes
p157
(lp158
VDRIVING
p159
aVBICYCLING
p160
aVWALKING
p161
aVTRANSIT
p162
asVlocation
p163
(dp164
Vlat
p165
g3
(S'37.7613036'
tRp166
sVlng
p167
g3
(S'-122.4350256'
tRp168
ssasVlocation
p169
(dp170
Vlat
p171
g3
(S'37.7612941'
tRp172
sVlng
p173
g3
(S'-122.435208'
tRp174
sssVadr_address
p175
V<span class="street-address">476 Castro St</span>, <span class="locality">San Francisco</span>, <span class="region">CA</span> <span class="postal-code">94114</span>, <span class="country-name">United States</span>
p176
sVinternational_phone_number
p177
V+1 415-558-0893
p178
sVreviews
p179
(lp180
(dp181
Vrating
p182
I3
sVaspects
p183
(lp184
(dp185
Vrating
p186
I1
sVtype
p187
Voverall
p188
sasVprofile_photo_url
p189
V//lh5.googleusercontent.com/-vrjLCrIGDMI/AAAAAAAAAAI/AAAAAAAAABk/3iuIQnS16x8/photo.jpg
p190
sVlanguage
p191
Ven
p192
sVtext
p193
VThe prosciutto w/ butter and brie sandwich was yummy! The server was helpful in recommending wines. Super cute place, recommend for a date night!
p194
sVauthor_name
p195
VRichard Pires
p196
sVauthor_url
p197
Vhttps://plus.google.com/114360429562511488644
p198
sVtime
p199
I1451286114
sa(dp200
Vrating
p201
I4
sVaspects
p202
(lp203
(dp204
Vrating
p205
I2
sVtype
p206
Voverall
p207
sasVprofile_photo_url
p208
V//lh3.googleusercontent.com/-sKW5u8Ukfpo/AAAAAAAAAAI/AAAAAAAAABE/i4Pd5iQRKcM/photo.jpg
p209
sVlanguage
p210
Ven
p211
sVtext
p212
VLove this place! How can you not love a place where they make you taste the wines before you purchase?  You can't go wrong.
p213
sVauthor_name
p214
VCarlos Otten
p215
sVauthor_url
p216
Vhttps://plus.google.com/115114949737202145232
p217
sVtime
p218
I1448614043
sa(dp219
Vrating
p220
I4
sVaspects
p221
(lp222
(dp223
Vrating
p224
I2
sVtype
p225
Voverall
p226
sasVprofile_photo_url
p227
V//lh5.googleusercontent.com/-JMKNns9XOYM/AAAAAAAAAAI/AAAAAAAAABQ/MHQl2wMJHXI/photo.jpg
p228
sVlanguage
p229
Ven
p230
sVtext
p231
VI love this place, the staff is really cool, great small plates and awesome prices if you come for happy hour up to 8pm.
p232
sVauthor_name
p233
VMark Roberge
p234
sVauthor_url
p235
Vhttps://plus.google.com/115860128696503028000
p236
sVtime
p237
I1451032904
sa(dp238
Vrating
p239
I4
sVaspects
p240
(lp241
(dp242
Vrating
p243
I2
sVtype
p244
Voverall
p245
sasVprofile_photo_url
p246
V//lh4.googleusercontent.com/-WCjQqPtd0Ss/AAAAAAAAAAI/AAAAAAAAB2o/c8p-j-81CPA/photo.jpg
p247
sVlanguage
p248
Ven
p249
sVtext
p250
VI watched the Americano social club at Fillmore Jazz Festival and have been meaning to go see them at Blush on Thursdays and I finally got a chance to do that. \u000a\u000aThe bar was packed, but there was still enough space to stand, enjoy some music and grab a wine.\u000a\u000aThey have a big wine menu. Slightly on the pricey side. I had a glass of Riesling for $11. But worth it for the music !
p251
sVauthor_name
p252
VPriyanka Phatak
p253
sVauthor_url
p254
Vhttps://plus.google.com/102504710339010469480
p255
sVtime
p256
I1441084002
sa(dp257
Vrating
p258
I3
sVaspects
p259
(lp260
(dp261
Vrating
p262
I1
sVtype
p263
Voverall
p264
sasVprofile_photo_url
p265
V//lh6.googleusercontent.com/-7c1vNviiSU0/AAAAAAAAAAI/AAAAAAAACOs/GmOhBEgTqUc/photo.jpg
p266
sVlanguage
p267
Ven
p268
sVtext
p269
VCute little wine bar on Castro, right next to all the nightlife bars/clubs. We ordered a charcuterie plate that went perfectly with the selection of wines and beers we were having. The cheeses were actually better than the meets, and they served it with a nice sweet and sour jam that really topped off the flavors. I'd say this place is a great hang out spot, somewhere nice to sit and catch up with friends, especially if youre want something light and easy before heading out the bars around the corner.
p270
sVauthor_name
p271
VDeanna Shen
p272
sVauthor_url
p273
Vhttps://plus.google.com/108419521157126758634
p274
sVtime
p275
I1421634662
sasVformatted_phone_number
p276
V(415) 558-0893
p277
sVaddress_components
p278
(lp279
(dp280
Vlong_name
p281
V476
p282
sVtypes
p283
(lp284
Vstreet_number
p285
asVshort_name
p286
V476
p287
sa(dp288
Vlong_name
p289
VCastro Street
p290
sVtypes
p291
(lp292
Vroute
p293
asVshort_name
p294
VCastro St
p295
sa(dp296
Vlong_name
p297
VSan Francisco
p298
sVtypes
p299
(lp300
Vlocality
p301
aVpolitical
p302
asVshort_name
p303
VSF
p304
sa(dp305
Vlong_name
p306
VCalifornia
p307
sVtypes
p308
(lp309
Vadministrative_area_level_1
p310
aVpolitical
p311
asVshort_name
p312
VCA
p313
sa(dp314
Vlong_name
p315
VUnited States
p316
sVtypes
p317
(lp318
Vcountry
p319
aVpolitical
p320
asVshort_name
p321
VUS
p322
sa(dp323
Vlong_name
p324
V94114
p325
sVtypes
p326
(lp327
Vpostal_code
p328
asVshort_name
p329
V94114
p330
sas.