(dp1
Vrating
p2
cdecimal
Decimal
p3
(S'4.2'
tRp4
sVreference
p5
VCmReAAAAA-18M8RFYpuWqmqKrwgKzSvOsuuB9SoM0iNRIKwSGkakmuQ7tx32LaFTts0oYx6xcPHu5nIQgIjXs9i3nfSviWRjn9mVPsAwr7kSTxa_pp6dd32Qtuz6yl33C1vqFW3REhCk6vSg2Ix3VaI777azb_hOGhTYd9N7ySsbe0WFrNU9rjRvqDfbkA
p6
sVprice_level
p7
I1
sVplace_id
p8
VChIJMcOsP55-hYARHTQro0WwlGY
p9
sVurl
p10
Vhttps://maps.google.com/?cid=7391726701558576157
p11
sVformatted_address
p12
V2161 University Ave, Berkeley, CA 94704, United States
p13
sVid
p14
Vba7bece54efada87ca9772c84390a9d98df9eb64
p15
sVopening_hours
p16
(dp17
Vweekday_text
p18
(lp19
VMonday: 11:00 AM \u2013 8:30 PM
p20
aVTuesday: 11:00 AM \u2013 8:30 PM
p21
aVWednesday: 11:00 AM \u2013 8:30 PM
p22
aVThursday: 11:00 AM \u2013 8:30 PM
p23
aVFriday: 11:00 AM \u2013 8:30 PM
p24
aVSaturday: 11:00 AM \u2013 8:30 PM
p25
aVSunday: 11:00 AM \u2013 8:30 PM
p26
asVopen_now
p27
I01
sVperiods
p28
(lp29
(dp30
Vclose
p31
(dp32
Vday
p33
I0
sVtime
p34
V2030
p35
ssVopen
p36
(dp37
Vday
p38
I0
sVtime
p39
V1100
p40
ssa(dp41
Vclose
p42
(dp43
Vday
p44
I1
sVtime
p45
V2030
p46
ssVopen
p47
(dp48
Vday
p49
I1
sVtime
p50
V1100
p51
ssa(dp52
Vclose
p53
(dp54
Vday
p55
I2
sVtime
p56
V2030
p57
ssVopen
p58
(dp59
Vday
p60
I2
sVtime
p61
V1100
p62
ssa(dp63
Vclose
p64
(dp65
Vday
p66
I3
sVtime
p67
V2030
p68
ssVopen
p69
(dp70
Vday
p71
I3
sVtime
p72
V1100
p73
ssa(dp74
Vclose
p75
(dp76
Vday
p77
I4
sVtime
p78
V2030
p79
ssVopen
p80
(dp81
Vday
p82
I4
sVtime
p83
V1100
p84
ssa(dp85
Vclose
p86
(dp87
Vday
p88
I5
sVtime
p89
V2030
p90
ssVopen
p91
(dp92
Vday
p93
I5
sVtime
p94
V1100
p95
ssa(dp96
Vclose
p97
(dp98
Vday
p99
I6
sVtime
p100
V2030
p101
ssVopen
p102
(dp103
Vday
p104
I6
sVtime
p105
V1100
p106
ssassVvicinity
p107
V2161 University Avenue, Berkeley
p108
sVscope
p109
VGOOGLE
p110
sVutc_offset
p111
I-420
sVuser_ratings_total
p112
I74
sVphotos
p113
(lp114
(dp115
Vphoto_reference
p116
VCmRdAAAAZtPRN2SJBNFKWQpf8z8edtTnTPG4yGMKrirQUhmW7FJdoJu_Vb2tSawMuyPPQ93H4ZqStmBQSOJOnDzhBALfGfS5hxnjnETbrd_SDaME7lyCS9aGpaXOH59HHQ8N7qJlEhCinsmSL41Rj-WtLWnh1ngDGhRUOIGIMvyxxJdWQC7hbQcI06fPbg
p117
sVwidth
p118
I4000
sVhtml_attributions
p119
(lp120
V<a href="https://maps.google.com/maps/contrib/108320224573839197933/photos">Randy F.</a>
p121
asVheight
p122
I3000
sa(dp123
Vphoto_reference
p124
VCmRdAAAA_Sgf1NW2O9fQYK7ABH1T5AbA0RJbNyH2upE1hfeR-PDBw4cznedNTPeFvsVeN_RrPQkmseFTAxlRFNCR62HxoeHsm5kAlRl4z3z1J892zLxeXb5I-XNAuGaqSVeNi3fbEhCxLYJh3ZNnfGL6_fSE-7hPGhSXlTvQVBlCYID769ajPQOexbE0pw
p125
sVwidth
p126
I4000
sVhtml_attributions
p127
(lp128
V<a href="https://maps.google.com/maps/contrib/108320224573839197933/photos">Randy F.</a>
p129
asVheight
p130
I3000
sa(dp131
Vphoto_reference
p132
VCmRdAAAA7WdQA2mn5lXLx3uIVkoqnw3Gb2TroCMcC61FPs_ercRjQkbaxsEm_jjh0AxN2j4aNAN6cthGFcPMx5oO0oBO1CJMsjnzamWui-1TB1EtzVM105ZAeN4npANleS3hqrcKEhBEQXr7euKISbhU2BqimEP5GhSBZVq5QDYkaF7U-nbdVR802SxXSg
p133
sVwidth
p134
I3264
sVhtml_attributions
p135
(lp136
V<a href="https://maps.google.com/maps/contrib/109072964366872272615/photos">Kim K</a>
p137
asVheight
p138
I2448
sa(dp139
Vphoto_reference
p140
VCmRdAAAAxBZVR2p08n1zMP7ISR_3ol4wKnpP0c1r6qXIbMp6lZbvJlQY-djRlhjgOAW14oN6BgWSJSyI4Z6-cNL4kCpbnRR_WqjhEHCMFOrlx8p551W_1nBiP7DP_WHUYWSLV4PpEhANTY0xc9WnMTUvHuE1zwkjGhQzljBWAZCT2fz8izxyBGo7FDpfMQ
p141
sVwidth
p142
I2448
sVhtml_attributions
p143
(lp144
V<a href="https://maps.google.com/maps/contrib/109072964366872272615/photos">Kim K</a>
p145
asVheight
p146
I3264
sasVtypes
p147
(lp148
Vmeal_takeaway
p149
aVrestaurant
p150
aVfood
p151
aVpoint_of_interest
p152
aVestablishment
p153
asVicon
p154
Vhttps://maps.gstatic.com/mapfiles/place_api/icons/restaurant-71.png
p155
sVname
p156
VBrazil Cafe
p157
sVgeometry
p158
(dp159
Vaccess_points
p160
(lp161
(dp162
Vtravel_modes
p163
(lp164
VDRIVING
p165
aVBICYCLING
p166
aVWALKING
p167
aVTRANSIT
p168
asVlocation
p169
(dp170
Vlat
p171
g3
(S'37.8723995'
tRp172
sVlng
p173
g3
(S'-122.2667647'
tRp174
ssasVlocation
p175
(dp176
Vlat
p177
g3
(S'37.8724932'
tRp178
sVlng
p179
g3
(S'-122.2667843'
tRp180
sssVadr_address
p181
V<span class="street-address">2161 University Ave</span>, <span class="locality">Berkeley</span>, <span class="region">CA</span> <span class="postal-code">94704-1030</span>, <span class="country-name">United States</span>
p182
sVinternational_phone_number
p183
V+1 510-845-8011
p184
sVreviews
p185
(lp186
(dp187
Vrating
p188
I5
sVaspects
p189
(lp190
(dp191
Vrating
p192
I3
sVtype
p193
Voverall
p194
sasVlanguage
p195
Ven
p196
sVtext
p197
VDont let anybody tell you otherwise food is the best food iv had in a long while. Perfectly balanced dish with a number of textures and perfectly balanced flavors. I live in antioch whenever i come back next  im stopping by. when im not working as my day job as a cook myself
p198
sVauthor_name
p199
VLuke Deneen
p200
sVauthor_url
p201
Vhttps://plus.google.com/106573118923295073889
p202
sVtime
p203
I1452586559
sa(dp204
Vrating
p205
I3
sVaspects
p206
(lp207
(dp208
Vrating
p209
I1
sVtype
p210
Voverall
p211
sasVprofile_photo_url
p212
V//lh3.googleusercontent.com/-6m_3IGfhqvA/AAAAAAAAAAI/AAAAAAAAABA/NW49PF-E-BE/photo.jpg
p213
sVlanguage
p214
Ven
p215
sVtext
p216
VThis place has amazing reviews. I tried it expecting amazing food, me and my girlfriend were very disappointed.\u000a\u000aI'm not sure if it's because the hype made us think it'd be better than it was or if it is genuinely just very average. \u000a\u000aI got the tri tip plate, my girlfriend got the prato feito both were average at best.
p217
sVauthor_name
p218
VJason Bellinger
p219
sVauthor_url
p220
Vhttps://plus.google.com/101807487662532016992
p221
sVtime
p222
I1451884644
sa(dp223
Vrating
p224
I5
sVaspects
p225
(lp226
(dp227
Vrating
p228
I3
sVtype
p229
Voverall
p230
sasVprofile_photo_url
p231
V//lh3.googleusercontent.com/-r2v8uxgTtr4/AAAAAAAAAAI/AAAAAAAABM4/QxHRTqlArl8/photo.jpg
p232
sVlanguage
p233
Ven
p234
sVtext
p235
VThe standard steak sandwich could possibly be the best sandwich in the the Bay Area.  The avocado spread is so delicious and the steak, perfectly cooked! 
p236
sVauthor_name
p237
VTim K
p238
sVauthor_url
p239
Vhttps://plus.google.com/104805852448964926311
p240
sVtime
p241
I1460329464
sa(dp242
Vrating
p243
I5
sVaspects
p244
(lp245
(dp246
Vrating
p247
I3
sVtype
p248
Voverall
p249
sasVprofile_photo_url
p250
V//lh5.googleusercontent.com/-rYewo0wgg_4/AAAAAAAAAAI/AAAAAAAABpw/mmmjpxl5VgU/photo.jpg
p251
sVlanguage
p252
Ven
p253
sVtext
p254
VThe tri tip is amazing, but the cilantro sauce that comes with everything steals the show
p255
sVauthor_name
p256
VJoey Durkin
p257
sVauthor_url
p258
Vhttps://plus.google.com/115449390576104407415
p259
sVtime
p260
I1457200297
sa(dp261
Vrating
p262
I3
sVaspects
p263
(lp264
(dp265
Vrating
p266
I1
sVtype
p267
Voverall
p268
sasVprofile_photo_url
p269
V//lh3.googleusercontent.com/-E3kpMyl-3DE/AAAAAAAAAAI/AAAAAAAAABU/38Z96c8kICA/photo.jpg
p270
sVlanguage
p271
Ven
p272
sVtext
p273
VThe tritip was delicious. It's was well seasoned and tender.\u000aThe green sauce was goooood.\u000aThe white sauce was also tasty.\u000aMix everything together and it makes you want to cry a little because it's so good.\u000a\u000aBut you know why you're really crying? Because you ate all the meat after your fourth bite.\u000a\u000aThe quality was great. The price was fair. But for that price I'm also expecting a little more protein.
p274
sVauthor_name
p275
VCarmen Pope
p276
sVauthor_url
p277
Vhttps://plus.google.com/116548090353375645455
p278
sVtime
p279
I1435393283
sasVformatted_phone_number
p280
V(510) 845-8011
p281
sVaddress_components
p282
(lp283
(dp284
Vlong_name
p285
V2161
p286
sVtypes
p287
(lp288
Vstreet_number
p289
asVshort_name
p290
V2161
p291
sa(dp292
Vlong_name
p293
VUniversity Avenue
p294
sVtypes
p295
(lp296
Vroute
p297
asVshort_name
p298
VUniversity Ave
p299
sa(dp300
Vlong_name
p301
VBerkeley
p302
sVtypes
p303
(lp304
Vlocality
p305
aVpolitical
p306
asVshort_name
p307
VBerkeley
p308
sa(dp309
Vlong_name
p310
VCalifornia
p311
sVtypes
p312
(lp313
Vadministrative_area_level_1
p314
aVpolitical
p315
asVshort_name
p316
VCA
p317
sa(dp318
Vlong_name
p319
VUnited States
p320
sVtypes
p321
(lp322
Vcountry
p323
aVpolitical
p324
asVshort_name
p325
VUS
p326
sa(dp327
Vlong_name
p328
V94704
p329
sVtypes
p330
(lp331
Vpostal_code
p332
asVshort_name
p333
V94704
p334
sa(dp335
Vlong_name
p336
V1030
p337
sVtypes
p338
(lp339
Vpostal_code_suffix
p340
asVshort_name
p341
V1030
p342
sas.