(dp1
Vwebsite
p2
Vhttp://www.cavallopoint.com/
p3
sVrating
p4
cdecimal
Decimal
p5
(S'4.4'
tRp6
sVutc_offset
p7
I-420
sVuser_ratings_total
p8
I74
sVname
p9
VCavallo Point Lodge
p10
sVreference
p11
VCnRnAAAA3VqAj6P1SlxZ2mUyAgLLx8GNT4TcSoSLttdh7Nx6mcha5JuKWvzcSgbiwVQxheTXllF1yM2bEyuPd42lQTAisK67nmM6FPzlQ7XYAk6nZE1eITSpTMbxmVuQ6EMWQ8dbu2ia-b_Twgeucm1QLSaNVxIQR_FddAd7XaHL2SeDL2CqPhoUh_sQ1fCPmK0BfN-53XhaohhdH8Y
p12
sVphotos
p13
(lp14
(dp15
Vphoto_reference
p16
VCmRdAAAA79JHn59qG1UkAPGwlLSJ3nSEjMewBd2p5yiSzSeaHKu1HCCmzCM8YGS0VLwMybZRIBE6NA-2LRnwOb6QcUo8iBYhOnjKWY8_v86QsMSCqj2V98fv9Pu4qBiJVvNGgwWlEhDC2jZX4mr1W8uIHXeLfyWQGhQncX1s6pCUVtFdLn56NqpKSosoOw
p17
sVwidth
p18
I533
sVhtml_attributions
p19
(lp20
V<a href="https://maps.google.com/maps/contrib/111329275169759560844/photos">Cavallo Point Lodge</a>
p21
asVheight
p22
I534
sa(dp23
Vphoto_reference
p24
VCmRdAAAASbucEiEr9bU93KpvFKbTzKwTiimfFwPMDOI30PDeGDQnTpvUeX6rt8nmRDFOCvi_iGpdxwPctoKUy_uNVSS_UoDVI4P-4X6nYbw32XLgFB2bIpxzQ2D_ajdGiWch7GC0EhBJ9yRyBByCSsX74Amu4corGhQtfKvp8Rv3BSI2bVthWePobMzdgg
p25
sVwidth
p26
I533
sVhtml_attributions
p27
(lp28
V<a href="https://maps.google.com/maps/contrib/111329275169759560844/photos">Cavallo Point Lodge</a>
p29
asVheight
p30
I800
sa(dp31
Vphoto_reference
p32
VCmRdAAAAqGw70ODzvpyfZuqKnpj8QLNkX-t8Y5nhk_Xd6uxDWiJ4kkACxOrXPyOVcIlDl-8Hvu-5E2A2hVYlhmwd-1LQYaxWdj6nIFRwAlh8B0R4XK_-VsLNmx4emtzkzsP7M1tGEhCDU-7MslXm0uaIe_aZzP_IGhQDi8hr18UBxG3ZdM7Qod50YKuLdA
p33
sVwidth
p34
I800
sVhtml_attributions
p35
(lp36
V<a href="https://maps.google.com/maps/contrib/111329275169759560844/photos">Cavallo Point Lodge</a>
p37
asVheight
p38
I533
sa(dp39
Vphoto_reference
p40
VCmRdAAAAKiwP3tF6cXvh67wohxjEAJIWi7B2fXa2_ceOepfii1QTswXGKdtlE1ybKReQOkc8CVtsKIgBZg1EB-jCmCcytxEBSInTUamH4NIEEQfIuThwRsvm03dlYuxjuvZfAPL0EhBx3XVenBSlZIfjlJ9-4Ld1GhT9d1Rgu-xlBNbwQNMU0FhT040ymw
p41
sVwidth
p42
I901
sVhtml_attributions
p43
(lp44
V<a href="https://maps.google.com/maps/contrib/109728240551061008549/photos">David Thomas</a>
p45
asVheight
p46
I624
sa(dp47
Vphoto_reference
p48
VCmRdAAAA5OYAiFgi8ja1G_FyvvGAJ9uxNPwlnXTeGn4bxGnDq2mfQohGNpXMgE335t2RhgTxSif686MBy4hk9MQKtAJ4DN2muzGR_mT7GnuW4TlpAFMyMHDE9hpDgnXIIfCHvbNfEhCD1exVdSxyGWRfsm7PdYiZGhTkzM3JOOmUm7gogkVHrZLTXL2EXA
p49
sVwidth
p50
I2048
sVhtml_attributions
p51
(lp52
V<a href="https://maps.google.com/maps/contrib/111085852685867296039/photos">Andrea Longinotti</a>
p53
asVheight
p54
I1290
sa(dp55
Vphoto_reference
p56
VCmRdAAAANwy0XYVSc3gzlqIGP656NEfr1g4FWDH9egCkf0J8cKzKzVFc_W4bo7W1LsApKbq1N6k0tB8RuCbPmkJuHZlwKp_cWm2E02A3TxH8jQc0OHDNpcgtUiDKeDpPZsCPNpAiEhBmXFlXCPgHAZJ_BAHE0Pm9GhTn79pX4Sp77-Owpv4JERhQUhYTsw
p57
sVwidth
p58
I4160
sVhtml_attributions
p59
(lp60
V<a href="https://maps.google.com/maps/contrib/109951755395007388779/photos">Andrew Chen</a>
p61
asVheight
p62
I2340
sa(dp63
Vphoto_reference
p64
VCmRdAAAAAXvfesh4ohABvej7iPfJdh6COiN9a5Bx1lEm-bDIeLKwpX2ThU0Bt7ztgk6D9FaK7plHvE7-9lHAYxgIOfmCP4qdDxOUwZbdW1vOFAk39svCqric0DTiJz9SxAKOCg0iEhCFUppXlX1RTR3G-N7_vm6TGhQvVDfeH2pRmt38RnXhEu1TTaHEsg
p65
sVwidth
p66
I800
sVhtml_attributions
p67
(lp68
V<a href="https://maps.google.com/maps/contrib/111329275169759560844/photos">Cavallo Point Lodge</a>
p69
asVheight
p70
I533
sa(dp71
Vphoto_reference
p72
VCmRdAAAATh-FPk7t9q3T9dF3rSK-Np21SciinPAwBtt7GxtsgASxjJ5YlbW9TZ_g9UF19OkcCrvVKt4_tk66wEblb223Nu1-aMP-DSRYGzhCFEc-GFfYWNzbKF1hrsMFWOqLN6FVEhDSnCWf1mQaOj-O8nU5kepyGhQZr8-XDPvTwcV8-YOuB-t1hRuN7A
p73
sVwidth
p74
I800
sVhtml_attributions
p75
(lp76
V<a href="https://maps.google.com/maps/contrib/111329275169759560844/photos">Cavallo Point Lodge</a>
p77
asVheight
p78
I533
sa(dp79
Vphoto_reference
p80
VCmRdAAAA793fr9Au84CWgPJFZVngSg-vZ8ZPODQ_3i8Au481mAfQIjXEl-cGQaqKluESmRtJ8XPpuAPt6W1DZssL26lBw6FfsHPKEsl4V6EPGa0N38gGMbmIMNb_OMflt_-DzkvREhANVYJZfTh7vLKc0En7_NurGhRF-HLF9ldoSjHmYk-1_VS0WjKJiQ
p81
sVwidth
p82
I640
sVhtml_attributions
p83
(lp84
V<a href="https://maps.google.com/maps/contrib/111329275169759560844/photos">Cavallo Point Lodge</a>
p85
asVheight
p86
I800
sa(dp87
Vphoto_reference
p88
VCmRdAAAAUrXq9OqrGGuIWe5lh7Pi_53KuawxPKEEudovesGM22DN7MtoPNGL5nk3W8vyNPyUEcnHTqcLNASwz0HVbs7zHI6gHMl6H0-oe49egXFSl8aR0csGpn757id0Cb3k4xfiEhAqWuTnrUcMMiSLNWSTBb-SGhTcmjaxJGmSGFP4zciZ61X2KBA4Ew
p89
sVwidth
p90
I1268
sVhtml_attributions
p91
(lp92
V<a href="https://maps.google.com/maps/contrib/108906564305720577107/photos">Jesus Padilla</a>
p93
asVheight
p94
I947
sasVgeometry
p95
(dp96
Vaccess_points
p97
(lp98
(dp99
Vtravel_modes
p100
(lp101
VDRIVING
p102
aVTRANSIT
p103
asVlocation
p104
(dp105
Vlat
p106
g5
(S'37.8374669'
tRp107
sVlng
p108
g5
(S'-122.4794197'
tRp109
ssasVlocation
p110
(dp111
Vlat
p112
g5
(S'37.8376611'
tRp113
sVlng
p114
g5
(S'-122.4793772'
tRp115
sssVadr_address
p116
V<span class="street-address">601 Murray Cir</span>, <span class="locality">Sausalito</span>, <span class="region">CA</span> <span class="postal-code">94965</span>, <span class="country-name">United States</span>
p117
sVplace_id
p118
VChIJi3J-pCWEhYARxYRB_BqquOA
p119
sVinternational_phone_number
p120
V+1 415-339-4700
p121
sVvicinity
p122
V601 Murray Circle, Sausalito
p123
sVreviews
p124
(lp125
(dp126
Vrating
p127
I5
sVaspects
p128
(lp129
(dp130
Vrating
p131
I3
sVtype
p132
Voverall
p133
sasVprofile_photo_url
p134
V//lh5.googleusercontent.com/-ySgI6zKwexk/AAAAAAAAAAI/AAAAAAAAEBU/w4zHGaZb-UY/photo.jpg
p135
sVlanguage
p136
Ven
p137
sVtext
p138
VThe service was prompt and the food was very good. The views of the parade ground and bay are gorgeous. The pastries were fresh and the oatmeal was delicious.
p139
sVauthor_name
p140
VBrian Calbeck
p141
sVauthor_url
p142
Vhttps://plus.google.com/115450773200930173539
p143
sVtime
p144
I1461040928
sa(dp145
Vrating
p146
I5
sVaspects
p147
(lp148
(dp149
Vrating
p150
I3
sVtype
p151
Voverall
p152
sasVprofile_photo_url
p153
V//lh3.googleusercontent.com/-xsFTZsSgDiI/AAAAAAAAAAI/AAAAAAAAVto/q7V4DeqDS2M/photo.jpg
p154
sVlanguage
p155
Ven
p156
sVtext
p157
VIncredible location, generous service. We had a fine stay in the new rooms, with a stunning views of the Golden Gate Bridge. The spa was a great surprise. 
p158
sVauthor_name
p159
VJim Brock
p160
sVauthor_url
p161
Vhttps://plus.google.com/103004375724784716549
p162
sVtime
p163
I1454570579
sa(dp164
Vrating
p165
I5
sVaspects
p166
(lp167
(dp168
Vrating
p169
I3
sVtype
p170
Voverall
p171
sasVlanguage
p172
Ven
p173
sVtext
p174
VRelaxing, Beautiful, exceptional service.  Located at the base of the Golden Gate Bridge.  Shhh, don't tell too many people..this is a gem
p175
sVauthor_name
p176
VMonica Wisnieski
p177
sVauthor_url
p178
Vhttps://plus.google.com/117859959535432238781
p179
sVtime
p180
I1461330347
sa(dp181
Vrating
p182
I5
sVaspects
p183
(lp184
(dp185
Vrating
p186
I3
sVtype
p187
Voverall
p188
sasVlanguage
p189
Ven
p190
sVtext
p191
VI just spent a lovely morning at the Cavallo Point spa. The massage was incredible and the outdoor pool fantastic. The staff was wonderful. I highly recommend a visit!!
p192
sVauthor_name
p193
VHeidi Larson
p194
sVauthor_url
p195
Vhttps://plus.google.com/101950367532836081025
p196
sVtime
p197
I1455514869
sa(dp198
Vrating
p199
I5
sVaspects
p200
(lp201
(dp202
Vrating
p203
I3
sVtype
p204
Voverall
p205
sasVprofile_photo_url
p206
V//lh4.googleusercontent.com/-Km0yfEHpGwU/AAAAAAAAAAI/AAAAAAABXMU/5-Crt1uO0Bk/photo.jpg
p207
sVlanguage
p208
Ven
p209
sVtext
p210
VGreat Valentine's weekend at Cavallo Point.  I've been here many times for work but never for a personal trip.  My girlfriend and I loved the hotel, food and atmosphere.
p211
sVauthor_name
p212
VMichael Crum
p213
sVauthor_url
p214
Vhttps://plus.google.com/101577417779504659641
p215
sVtime
p216
I1455516138
sasVformatted_phone_number
p217
V(415) 339-4700
p218
sVurl
p219
Vhttps://maps.google.com/?cid=16192879493088642245
p220
sVscope
p221
VGOOGLE
p222
sVaddress_components
p223
(lp224
(dp225
Vlong_name
p226
V601
p227
sVtypes
p228
(lp229
Vstreet_number
p230
asVshort_name
p231
V601
p232
sa(dp233
Vlong_name
p234
VMurray Circle
p235
sVtypes
p236
(lp237
Vroute
p238
asVshort_name
p239
VMurray Cir
p240
sa(dp241
Vlong_name
p242
VSausalito
p243
sVtypes
p244
(lp245
Vlocality
p246
aVpolitical
p247
asVshort_name
p248
VSausalito
p249
sa(dp250
Vlong_name
p251
VCalifornia
p252
sVtypes
p253
(lp254
Vadministrative_area_level_1
p255
aVpolitical
p256
asVshort_name
p257
VCA
p258
sa(dp259
Vlong_name
p260
VUnited States
p261
sVtypes
p262
(lp263
Vcountry
p264
aVpolitical
p265
asVshort_name
p266
VUS
p267
sa(dp268
Vlong_name
p269
V94965
p270
sVtypes
p271
(lp272
Vpostal_code
p273
asVshort_name
p274
V94965
p275
sasVformatted_address
p276
V601 Murray Cir, Sausalito, CA 94965, United States
p277
sVid
p278
V0f4a6880802ea08cac239fa6bc6115d335bb4943
p279
sVtypes
p280
(lp281
Vspa
p282
aVhealth
p283
aVlodging
p284
aVpoint_of_interest
p285
aVestablishment
p286
asVicon
p287
Vhttps://maps.gstatic.com/mapfiles/place_api/icons/lodging-71.png
p288
s.