(dp1
Vreference
p2
VCnRjAAAAnLBNmAnKi3vLOJDBgXrZOJUFTb1EzkBayRIJsVWUyKa5vQ7g1xuFc5jl9R-hqrHatkx3WGs2AqDxgvM0hEkomZfduWWO9J_bOBkepXvgh5dZwQCw0GqGAOatdCHwryZK7x78jEgE_MUUBDTFom_NvRIQdEMnxVUV_Ur0IWGiLAAsnBoUq2FKYmjQExMXb8N_rIAR1aZsW1I
p3
sVprice_level
p4
I2
sVplace_id
p5
VChIJ0aBPHbhmhYAR7gpNiGXs34Q
p6
sVurl
p7
Vhttps://maps.google.com/?cid=9574631253635566318
p8
sVformatted_address
p9
V450 Sun Valley Mall, Ste A, Concord, CA 94520, United States
p10
sVid
p11
Vc40b4e237004c9dbab63ac76a2f1f63d81838e10
p12
sVopening_hours
p13
(dp14
Vweekday_text
p15
(lp16
VMonday: 10:00 AM \u2013 9:00 PM
p17
aVTuesday: 10:00 AM \u2013 9:00 PM
p18
aVWednesday: 10:00 AM \u2013 9:00 PM
p19
aVThursday: 10:00 AM \u2013 9:00 PM
p20
aVFriday: 10:00 AM \u2013 9:00 PM
p21
aVSaturday: 10:00 AM \u2013 9:00 PM
p22
aVSunday: 11:00 AM \u2013 7:00 PM
p23
asVopen_now
p24
I01
sVperiods
p25
(lp26
(dp27
Vclose
p28
(dp29
Vday
p30
I0
sVtime
p31
V1900
p32
ssVopen
p33
(dp34
Vday
p35
I0
sVtime
p36
V1100
p37
ssa(dp38
Vclose
p39
(dp40
Vday
p41
I1
sVtime
p42
V2100
p43
ssVopen
p44
(dp45
Vday
p46
I1
sVtime
p47
V1000
p48
ssa(dp49
Vclose
p50
(dp51
Vday
p52
I2
sVtime
p53
V2100
p54
ssVopen
p55
(dp56
Vday
p57
I2
sVtime
p58
V1000
p59
ssa(dp60
Vclose
p61
(dp62
Vday
p63
I3
sVtime
p64
V2100
p65
ssVopen
p66
(dp67
Vday
p68
I3
sVtime
p69
V1000
p70
ssa(dp71
Vclose
p72
(dp73
Vday
p74
I4
sVtime
p75
V2100
p76
ssVopen
p77
(dp78
Vday
p79
I4
sVtime
p80
V1000
p81
ssa(dp82
Vclose
p83
(dp84
Vday
p85
I5
sVtime
p86
V2100
p87
ssVopen
p88
(dp89
Vday
p90
I5
sVtime
p91
V1000
p92
ssa(dp93
Vclose
p94
(dp95
Vday
p96
I6
sVtime
p97
V2100
p98
ssVopen
p99
(dp100
Vday
p101
I6
sVtime
p102
V1000
p103
ssassVvicinity
p104
V450 Sun Valley Mall, Ste A, Concord
p105
sVscope
p106
VGOOGLE
p107
sVwebsite
p108
Vhttp://www.charlotterusse.com/custserv/store_details.jsp?storeNo=109
p109
sVutc_offset
p110
I-420
sVuser_ratings_total
p111
I1
sVphotos
p112
(lp113
(dp114
Vphoto_reference
p115
VCmRdAAAAQdazOrgZdmcGU3za1nXjoF1eQ9Ph-AF4pZBpn6N2WpaabeeGaVP_uGOV-TtCGoqo8P8FOIJ4dvChDewFAXzLteVrRpmHmmYU6mn4HxCKR0Upo_GueJvREsNxJcGUJFP1EhC3pXl5vPNqbulPoqA97MN8GhSsTDma3NUU7OSXWg7bZnAt0nk3ww
p116
sVwidth
p117
I992
sVhtml_attributions
p118
(lp119
V<a href="https://maps.google.com/maps/contrib/112872302017514658266/photos">Charlotte Russe</a>
p120
asVheight
p121
I502
sa(dp122
Vphoto_reference
p123
VCmRdAAAA1sv2qB5Ek5OynagUDNtNtDw-qWorwG_Nv020q1iu5sAwIXnTG6LfqD4W25X9E5bsFA33QdxBCUKU8fYH0ktMNqSUVGU7b18-SCE4urKhC3yD4Ay3NtHE-w36b7XBRaInEhCEeLsLpKfEn4iN_1ARlB7AGhSY4IgP1BXACfJzKKW0-o-rHZC4EQ
p124
sVwidth
p125
I992
sVhtml_attributions
p126
(lp127
V<a href="https://maps.google.com/maps/contrib/112872302017514658266/photos">Charlotte Russe</a>
p128
asVheight
p129
I502
sa(dp130
Vphoto_reference
p131
VCoQBcwAAABplfAzb5fxja0muRhFSmHWXDwqObkdm_8M-u-qXqlJigQ-TQpFvcM-qvXXGIEUBaJtBdsg1WDsfn6tgvUnzGrG88ryD_rM_57fiI4K-i9DTGnKsJ3AQYYYGjD8jyY0cmE7M6yzOQMIm7zOFhW-1M-A-FXE4tWDAvtz0Uf18vjjGEhArtexpjGyLIHJQSZxMKaiBGhQzVXKWF1PMxCWZkVpIpyUvMftJ3w
p132
sVwidth
p133
I756
sVhtml_attributions
p134
(lp135
V<a href="https://maps.google.com/maps/contrib/112872302017514658266/photos">Charlotte Russe</a>
p136
asVheight
p137
I756
sa(dp138
Vphoto_reference
p139
VCmRdAAAA9vSoGgh30J3_lYU4XmozO2pJPwYhK8GtaKW-PsPBxbFgX21pkaisxoI0u3FiYEGRCUvh-nbz0G4SKOTK-1pxxE_mxQ9N-TkN9avcJZt46ZokbGsiTiLJJ7R7XJilAOi1EhDoDJ-6_FF9M8qvF0BQeCFoGhTdFKA879aY3CTuX-QAtbmpJ_lHEg
p140
sVwidth
p141
I497
sVhtml_attributions
p142
(lp143
V<a href="https://maps.google.com/maps/contrib/112872302017514658266/photos">Charlotte Russe</a>
p144
asVheight
p145
I993
sa(dp146
Vphoto_reference
p147
VCmRdAAAAkIUQFEmw8H3an806fyqhdPfMqxLoPzqTYOSJLwC8Df3_BL3u5hhjYOFyZrPfsytPCDqlhl4SKDaya7u5q-Ous1n_HAWDMeI8Dg9HM75PF5ImCbUc19vvo6Wgust-34k1EhCRSoAQYkyPAfL_5tWvc2YmGhQ0QuN8NtC7__DefOyqND4wcGN80g
p148
sVwidth
p149
I497
sVhtml_attributions
p150
(lp151
V<a href="https://maps.google.com/maps/contrib/112872302017514658266/photos">Charlotte Russe</a>
p152
asVheight
p153
I993
sa(dp154
Vphoto_reference
p155
VCmRdAAAA61kD9Qqvzzu9KfSXErMxHIlnkUz5JTHccox72CyDYew-F3UuUoRLAeq4F8ATkpDKd_82dMnsa4AdZ29KlZIE3juYrirPbTX4oQOdG4VXi3Jd4vfB8USJjf1aJlpB6moZEhCN7qxoMiMUwDbHA285IzNLGhQ8A8tV1BJKe__kvkl5uw6u7_kGWQ
p156
sVwidth
p157
I992
sVhtml_attributions
p158
(lp159
V<a href="https://maps.google.com/maps/contrib/112872302017514658266/photos">Charlotte Russe</a>
p160
asVheight
p161
I502
sa(dp162
Vphoto_reference
p163
VCmRdAAAAeWci02bM0CYiMi7ZOOUc9stu9IpEGXIXQ7yOBQyO6PWdPSju5JYEi33p-e8k4itPhFCm1505SspAgpIanrUAcga45jN2Vso7y9rvLH_O5IAYods_hmMiTz0yztwuPrcZEhBIwLWcnVa31bl6uPYryWy2GhQ75GuKsF_73sPT6tVmGxY8KrQr3Q
p164
sVwidth
p165
I497
sVhtml_attributions
p166
(lp167
V<a href="https://maps.google.com/maps/contrib/112872302017514658266/photos">Charlotte Russe</a>
p168
asVheight
p169
I993
sasVtypes
p170
(lp171
Vshoe_store
p172
aVclothing_store
p173
aVjewelry_store
p174
aVstore
p175
aVpoint_of_interest
p176
aVestablishment
p177
asVicon
p178
Vhttps://maps.gstatic.com/mapfiles/place_api/icons/shopping-71.png
p179
sVname
p180
VCharlotte Russe
p181
sVgeometry
p182
(dp183
Vlocation
p184
(dp185
Vlat
p186
cdecimal
Decimal
p187
(S'37.968159'
tRp188
sVlng
p189
g187
(S'-122.060617'
tRp190
sssVadr_address
p191
V450 Sun Valley Mall, <span class="street-address">Ste A</span>, <span class="locality">Concord</span>, <span class="region">CA</span> <span class="postal-code">94520</span>, <span class="country-name">United States</span>
p192
sVinternational_phone_number
p193
V+1 925-405-0032
p194
sVreviews
p195
(lp196
(dp197
Vrating
p198
I3
sVaspects
p199
(lp200
(dp201
Vrating
p202
I1
sVtype
p203
Voverall
p204
sasVlanguage
p205
Ven
p206
sVtext
p207
VI love Charlotte Russe. I wish we had it in Solano Mall but I have to go elsewhere. I went to Charlotte Russe twice in the past year. I love their collection and their low price. BUT their employees are not the nicest people in the world. They seem to be rude or don't care about their clients. I'm not implying that that's how ALL their employees are but the ladies who have rung me up are very rude.
p208
sVauthor_name
p209
VA Google User
p210
sVtime
p211
I1221717938
sasVformatted_phone_number
p212
V(925) 405-0032
p213
sVaddress_components
p214
(lp215
(dp216
Vlong_name
p217
VConcord
p218
sVtypes
p219
(lp220
Vlocality
p221
aVpolitical
p222
asVshort_name
p223
VConcord
p224
sa(dp225
Vlong_name
p226
VCalifornia
p227
sVtypes
p228
(lp229
Vadministrative_area_level_1
p230
aVpolitical
p231
asVshort_name
p232
VCA
p233
sa(dp234
Vlong_name
p235
VUnited States
p236
sVtypes
p237
(lp238
Vcountry
p239
aVpolitical
p240
asVshort_name
p241
VUS
p242
sa(dp243
Vlong_name
p244
V94520
p245
sVtypes
p246
(lp247
Vpostal_code
p248
asVshort_name
p249
V94520
p250
sas.