(dp1
Vrating
p2
cdecimal
Decimal
p3
(S'4.1'
tRp4
sVreference
p5
VCnRkAAAAVCh7Tz32sXj7znnA6Il1vQhmroDsXuGtM0hXqoWghDavfC8E3k2V_OL7PeFpTbcWhlSobwp1nhIeIWkTzqaFncEMXtfLcqWFkXX1O2On9aLow0XW7EtCnYebtPG6MTYv0qUZ2SvZvoD20KdLMmLWqxIQIdKF46rcCfeN1-7MDrEM_BoUwLUAPMI3SJ0lIQjHeAk17KexYbU
p6
sVprice_level
p7
I2
sVplace_id
p8
VChIJWdokI_WAhYARtk-RF_um-ks
p9
sVurl
p10
Vhttps://maps.google.com/?cid=5474871894384660406
p11
sVformatted_address
p12
V850 Montgomery St, San Francisco, CA 94133, United States
p13
sVid
p14
Vbddb83de2a5327349320cdaaf19f456d50c6fabd
p15
sVopening_hours
p16
(dp17
Vweekday_text
p18
(lp19
VMonday: 4:00 PM \u2013 2:00 AM
p20
aVTuesday: 4:00 PM \u2013 2:00 AM
p21
aVWednesday: 4:00 PM \u2013 2:00 AM
p22
aVThursday: 4:00 PM \u2013 2:00 AM
p23
aVFriday: 4:00 PM \u2013 2:00 AM
p24
aVSaturday: 6:00 PM \u2013 2:00 AM
p25
aVSunday: Closed
p26
asVopen_now
p27
I00
sVperiods
p28
(lp29
(dp30
Vclose
p31
(dp32
Vday
p33
I2
sVtime
p34
V0200
p35
ssVopen
p36
(dp37
Vday
p38
I1
sVtime
p39
V1600
p40
ssa(dp41
Vclose
p42
(dp43
Vday
p44
I3
sVtime
p45
V0200
p46
ssVopen
p47
(dp48
Vday
p49
I2
sVtime
p50
V1600
p51
ssa(dp52
Vclose
p53
(dp54
Vday
p55
I4
sVtime
p56
V0200
p57
ssVopen
p58
(dp59
Vday
p60
I3
sVtime
p61
V1600
p62
ssa(dp63
Vclose
p64
(dp65
Vday
p66
I5
sVtime
p67
V0200
p68
ssVopen
p69
(dp70
Vday
p71
I4
sVtime
p72
V1600
p73
ssa(dp74
Vclose
p75
(dp76
Vday
p77
I6
sVtime
p78
V0200
p79
ssVopen
p80
(dp81
Vday
p82
I5
sVtime
p83
V1600
p84
ssa(dp85
Vclose
p86
(dp87
Vday
p88
I0
sVtime
p89
V0200
p90
ssVopen
p91
(dp92
Vday
p93
I6
sVtime
p94
V1800
p95
ssassVvicinity
p96
V850 Montgomery Street, San Francisco
p97
sVscope
p98
VGOOGLE
p99
sVwebsite
p100
Vhttp://www.cigarbarandgrill.com/
p101
sVutc_offset
p102
I-420
sVuser_ratings_total
p103
I98
sVphotos
p104
(lp105
(dp106
Vphoto_reference
p107
VCmRdAAAAkvI0Q8viXV3IlhzQDh4vL6sM0rlpiPPEdbX6d8GwupdaxELk5lIhHA220XujMuiZXSgjHIxm_U6LpFQthnzd1p0dSlNTNiv8e-pMpe2s5nHmjgRcD4BYa1RBqmltQHm_EhDUY_l4yy3ujZxGhuLii5SdGhQsb3G0s19stypWYLX-h1btHgvexw
p108
sVwidth
p109
I1223
sVhtml_attributions
p110
(lp111
V<a href="https://maps.google.com/maps/contrib/100882882616774826231/photos">Sean Phelan</a>
p112
asVheight
p113
I806
sa(dp114
Vphoto_reference
p115
VCmRdAAAAW-nWhoNeiIH1rQs6wXL56DE6lrMxFiADHn8sgrFcS_mmh91hA0tTGoy0sPn7h5GlXhm0FjYsPHY8x1mensCjILWkbsbRyltPMwVxM3dceyW_mMJYif6ZNsQLqGaeYxYCEhCz4jt_Un5sSFZdw1Po9o69GhQ6b17Ur0KvPwn95GiLubQFnpvhjg
p116
sVwidth
p117
I648
sVhtml_attributions
p118
(lp119
V<a href="https://maps.google.com/maps/contrib/116412356456395527543/photos">anthony D</a>
p120
asVheight
p121
I486
sa(dp122
Vphoto_reference
p123
VCmRdAAAAIQYxaCxVU9RHMek_zdlYY5B5zGllKAEodM6X2yeEqMV3sJG-8miRMSxXcF4hx8BQjOQyqtaDNU51UmLhbFAy8Az9_GCBtHIaIrIECdt4ZO00MtSQl6R5Rlc8qGhmDlpjEhAGaSU5HFTpsgcE1gYu4-LsGhRvlG04saPMJPBNMxBMuEHZMGfmYQ
p124
sVwidth
p125
I2048
sVhtml_attributions
p126
(lp127
V<a href="https://maps.google.com/maps/contrib/117211711134427721008/photos">Mary Smith</a>
p128
asVheight
p129
I1536
sa(dp130
Vphoto_reference
p131
VCmRdAAAAJjAybAKtiIXrvA_H2_7Hty5qSI_Yz-ZCPxjoq9X1qUBcUz1tCRp4xGBBSt5h2xtro2KCb80MiQwRjdcS0c8WBjxX5mwzj9palzLhXzzKzBRvX6g5Lbe3H6L0vdhYembnEhD1ISt5e1WMDzXt7-sR8QsKGhRKVx-cQCVSuPAFd7PbwR4EzpSzhw
p132
sVwidth
p133
I2988
sVhtml_attributions
p134
(lp135
V<a href="https://maps.google.com/maps/contrib/111176427003335574517/photos">marcus proietti</a>
p136
asVheight
p137
I5312
sasVtypes
p138
(lp139
Vbar
p140
aVrestaurant
p141
aVfood
p142
aVpoint_of_interest
p143
aVestablishment
p144
asVicon
p145
Vhttps://maps.gstatic.com/mapfiles/place_api/icons/restaurant-71.png
p146
sVname
p147
VCigar Bar & Grill
p148
sVgeometry
p149
(dp150
Vaccess_points
p151
(lp152
(dp153
Vtravel_modes
p154
(lp155
VDRIVING
p156
aVBICYCLING
p157
aVWALKING
p158
aVTRANSIT
p159
asVlocation
p160
(dp161
Vlat
p162
g3
(S'37.7970426'
tRp163
sVlng
p164
g3
(S'-122.403653'
tRp165
ssasVlocation
p166
(dp167
Vlat
p168
g3
(S'37.7970705'
tRp169
sVlng
p170
g3
(S'-122.4033862'
tRp171
sssVadr_address
p172
V<span class="street-address">850 Montgomery St</span>, <span class="locality">San Francisco</span>, <span class="region">CA</span> <span class="postal-code">94133</span>, <span class="country-name">United States</span>
p173
sVinternational_phone_number
p174
V+1 415-398-0850
p175
sVreviews
p176
(lp177
(dp178
Vrating
p179
I3
sVaspects
p180
(lp181
(dp182
Vrating
p183
I1
sVtype
p184
Voverall
p185
sasVlanguage
p186
Ven
p187
sVtext
p188
VStill sitting here and felt compelled to rate. Get here early, before 6 if you want a table outside. Tables come up but send they reserved them? No problem there. Menu prices were good, nothing to expensive and decent food. I didn't like the salsa but that's my preference, not a knock on the salsa itself. Happy hour beer prices are good. Cigars outside of awesome. Great atmosphere. My only knock is the service. Can I get a beer around here! The busboy gave me faster service. Literally! Don't let that deter you. It was solely my server. The rest were great. 
p189
sVauthor_name
p190
VPatrick Murphy
p191
sVauthor_url
p192
Vhttps://plus.google.com/118047827104495690276
p193
sVtime
p194
I1455246695
sa(dp195
Vrating
p196
I4
sVaspects
p197
(lp198
(dp199
Vrating
p200
I2
sVtype
p201
Voverall
p202
sasVprofile_photo_url
p203
V//lh3.googleusercontent.com/-f7qCmVHrRGI/AAAAAAAAAAI/AAAAAAAAAC4/gZDYJP4XGVA/photo.jpg
p204
sVlanguage
p205
Ven
p206
sVtext
p207
VGreat ambience and fun crowd. The spacious outdoor patio makes this a great place to hang out on a good-weather night even if you're not a smoker.
p208
sVauthor_name
p209
VStanley Pang
p210
sVauthor_url
p211
Vhttps://plus.google.com/107849343600091153640
p212
sVtime
p213
I1458951292
sa(dp214
Vrating
p215
I4
sVaspects
p216
(lp217
(dp218
Vrating
p219
I2
sVtype
p220
Voverall
p221
sasVprofile_photo_url
p222
V//lh5.googleusercontent.com/-wVqm7tUFnFs/AAAAAAAAAAI/AAAAAAAAABM/bbzNKJar24Y/photo.jpg
p223
sVlanguage
p224
Ven
p225
sVtext
p226
VGreat service, amazing freshness and quality of food. I would recommenced this to anyone who is a fan of seafood. The clam chowder is one of a kind, the shellfish is extremely fresh, and the entree's were perfect.\u000a\u000a
p227
sVauthor_name
p228
VFrieda Himes
p229
sVauthor_url
p230
Vhttps://plus.google.com/117973779978920148903
p231
sVtime
p232
I1455766595
sa(dp233
Vrating
p234
I5
sVaspects
p235
(lp236
(dp237
Vrating
p238
I3
sVtype
p239
Voverall
p240
sasVprofile_photo_url
p241
V//lh5.googleusercontent.com/-pYUpJ82kEQs/AAAAAAAAAAI/AAAAAAAAc2A/k0HlpmASRuQ/photo.jpg
p242
sVlanguage
p243
Ven
p244
sVtext
p245
VOne of the good places around financial district. I don't smoke but the ambiance is good, the outdoor space is needed, the food and the drinks  are amazing.
p246
sVauthor_name
p247
VKaran Goel
p248
sVauthor_url
p249
Vhttps://plus.google.com/102240996167520070348
p250
sVtime
p251
I1457069875
sa(dp252
Vrating
p253
I4
sVaspects
p254
(lp255
(dp256
Vrating
p257
I2
sVtype
p258
Voverall
p259
sasVlanguage
p260
Ven
p261
sVtext
p262
VI had a nice time with my friends at the cigar bar, good atmosphere. My only hope is that they expand their selection of cigars.
p263
sVauthor_name
p264
VRobert White
p265
sVauthor_url
p266
Vhttps://plus.google.com/117260708501713223882
p267
sVtime
p268
I1458327764
sasVformatted_phone_number
p269
V(415) 398-0850
p270
sVaddress_components
p271
(lp272
(dp273
Vlong_name
p274
V850
p275
sVtypes
p276
(lp277
Vstreet_number
p278
asVshort_name
p279
V850
p280
sa(dp281
Vlong_name
p282
VMontgomery Street
p283
sVtypes
p284
(lp285
Vroute
p286
asVshort_name
p287
VMontgomery St
p288
sa(dp289
Vlong_name
p290
VSan Francisco
p291
sVtypes
p292
(lp293
Vlocality
p294
aVpolitical
p295
asVshort_name
p296
VSF
p297
sa(dp298
Vlong_name
p299
VCalifornia
p300
sVtypes
p301
(lp302
Vadministrative_area_level_1
p303
aVpolitical
p304
asVshort_name
p305
VCA
p306
sa(dp307
Vlong_name
p308
VUnited States
p309
sVtypes
p310
(lp311
Vcountry
p312
aVpolitical
p313
asVshort_name
p314
VUS
p315
sa(dp316
Vlong_name
p317
V94133
p318
sVtypes
p319
(lp320
Vpostal_code
p321
asVshort_name
p322
V94133
p323
sas.