(dp1
Vrating
p2
cdecimal
Decimal
p3
(S'4.8'
tRp4
sVreference
p5
VCnRmAAAAMaHqBmBEwQXfSSgS0z22u49SVJBBBBMH7BeNPWWj6F1TX4c0ERaeZQmNrZpX23G1wG0plEL1qMsapXS0vJGaGCcsSoN8djPWrkJfx9IZ07-NizV8B3x0z1MHxejuVxZeK1_kfUbymLPHjGxtVQk1RxIQy2TdOBwGsMoxBdFqJ8VYtRoUnGezPMXUC4-0VgRZF3AEFWCMf10
p6
sVplace_id
p7
VChIJX3DWQgJ-j4ARxWqSTDOy_CU
p8
sVurl
p9
Vhttps://maps.google.com/?cid=2737258606932159173
p10
sVformatted_address
p11
VRoosevelt Way & Museum Way, San Francisco, 94114, United States
p12
sVid
p13
V3af852d3fb71ce0a460be7e5842bc9bc4e3b9efb
p14
sVopening_hours
p15
(dp16
Vweekday_text
p17
(lp18
VMonday: 5:00 AM \u2013 12:00 AM
p19
aVTuesday: 5:00 AM \u2013 12:00 AM
p20
aVWednesday: 5:00 AM \u2013 12:00 AM
p21
aVThursday: 5:00 AM \u2013 12:00 AM
p22
aVFriday: 5:00 AM \u2013 12:00 AM
p23
aVSaturday: 5:00 AM \u2013 12:00 AM
p24
aVSunday: 5:00 AM \u2013 12:00 AM
p25
asVopen_now
p26
I01
sVperiods
p27
(lp28
(dp29
Vclose
p30
(dp31
Vday
p32
I1
sVtime
p33
V0000
p34
ssVopen
p35
(dp36
Vday
p37
I0
sVtime
p38
V0500
p39
ssa(dp40
Vclose
p41
(dp42
Vday
p43
I2
sVtime
p44
V0000
p45
ssVopen
p46
(dp47
Vday
p48
I1
sVtime
p49
V0500
p50
ssa(dp51
Vclose
p52
(dp53
Vday
p54
I3
sVtime
p55
V0000
p56
ssVopen
p57
(dp58
Vday
p59
I2
sVtime
p60
V0500
p61
ssa(dp62
Vclose
p63
(dp64
Vday
p65
I4
sVtime
p66
V0000
p67
ssVopen
p68
(dp69
Vday
p70
I3
sVtime
p71
V0500
p72
ssa(dp73
Vclose
p74
(dp75
Vday
p76
I5
sVtime
p77
V0000
p78
ssVopen
p79
(dp80
Vday
p81
I4
sVtime
p82
V0500
p83
ssa(dp84
Vclose
p85
(dp86
Vday
p87
I6
sVtime
p88
V0000
p89
ssVopen
p90
(dp91
Vday
p92
I5
sVtime
p93
V0500
p94
ssa(dp95
Vclose
p96
(dp97
Vday
p98
I0
sVtime
p99
V0000
p100
ssVopen
p101
(dp102
Vday
p103
I6
sVtime
p104
V0500
p105
ssassVvicinity
p106
VRoosevelt Way & Museum Way, San Francisco
p107
sVscope
p108
VGOOGLE
p109
sVwebsite
p110
Vhttp://sfrecpark.org/
p111
sVutc_offset
p112
I-420
sVuser_ratings_total
p113
I58
sVphotos
p114
(lp115
(dp116
Vphoto_reference
p117
VCmRdAAAAvASjR1XPUxzwmilVfeurbch3fDVH46Qo8UlgFwrCLWXsikMRRvBKGOHBLGw18df1ZK_m9g0xqGHESgNNnoh46yBs0CxVKBXwOtSrjUgcZ3kmdlYcb6eRoMEL97EwqYU2EhB9JPyGAbt7t2_qVDSd4qLvGhSb1Phx91BKEjFppYwp2YAjYHa7dw
p118
sVwidth
p119
I2048
sVhtml_attributions
p120
(lp121
V<a href="https://maps.google.com/maps/contrib/102837592139129677983/photos">Richard Navarro</a>
p122
asVheight
p123
I1536
sa(dp124
Vphoto_reference
p125
VCmRdAAAA5TD_GXIinNHBC-uRQLW8xhUk09HKSKAt1Eh2pRMBNaV1anAzDvVKn3IlFvBJQSd0HuRatpcAe-g0Ekg5ITKVl_irkznaitJPsZKVnbd3d8fBR7PLUtlbq0GPz4RQTVGTEhChBvkhj1W_YP1t1mlwm7OtGhSmivGNdUPPbwIJCaCVxbULhxw24Q
p126
sVwidth
p127
I648
sVhtml_attributions
p128
(lp129
V<a href="https://maps.google.com/maps/contrib/107730655923213512159/photos">Eric Mayers</a>
p130
asVheight
p131
I486
sa(dp132
Vphoto_reference
p133
VCmRdAAAANnDm0W5Z4nU72Ss18hmQ_gvFCqsWWpZdFvXbg5WeW_t9iKWq6Ow9r1sUhkUGVUDF5ZO0ax6LqC15GqDPG5T107L8gCCcIGDARq5Zk3I41uk2ii-PHQqgYK4kdq_FCUtXEhBJ4PF0ev62dYS8eKkQcuS4GhS4BYWl2EjS0kRYL5g6_96yBJLxVg
p134
sVwidth
p135
I4905
sVhtml_attributions
p136
(lp137
V<a href="https://maps.google.com/maps/contrib/116676836449714411431/photos">Debojyoti Ghosh</a>
p138
asVheight
p139
I3261
sa(dp140
Vphoto_reference
p141
VCmRdAAAAqcqjsvY-iLy7AvM1OciJIiVk1g75VQ-0n-MRgqGfDyDcUq7CcuEOtUf022KegN6w2kIj3AVcm0Y6cnV3EY_7AfnWwgaHakqn6cnOkjb4xz-PJDmwFWS936WUofuZvcgIEhBTPai7Nr2AwN9Qt008jF49GhT6stP3SsVyLx_kjB3El-wOkhezyQ
p142
sVwidth
p143
I9422
sVhtml_attributions
p144
(lp145
V<a href="https://maps.google.com/maps/contrib/105830550555467582184/photos">Myer W</a>
p146
asVheight
p147
I3110
sa(dp148
Vphoto_reference
p149
VCmRdAAAAfG8mnxu8ba9HHZ3ObMQxbINRC6JorCDpgRg2AekPPp4J7c0YSm8A3ekknO-1NUlyUaMZO7T6wWV3DQLaQ1noAnl48MLq37Xg0ZhkiltgNBUXGtYmBbBp5vVVp8znzKjgEhAbXrhvJoS-xhFCi98iwX9MGhTNGjEMIhkJaI0pVBTClRtD86aYsg
p150
sVwidth
p151
I1632
sVhtml_attributions
p152
(lp153
V<a href="https://maps.google.com/maps/contrib/105015398013463006891/photos">Stephen Leader</a>
p154
asVheight
p155
I1224
sa(dp156
Vphoto_reference
p157
VCmRdAAAAyeD72QUeBxnwKVOzuGwMaCxGm0dpGrojQbOYvCGgcWOWlkzWFM7mUEpcVCjbxWsDmeJmhBh_SmBYCEolnFYSKUHt_-_2rDmJ8pfSchDy8pIxq6QlSGmtV4vGmzF18QmjEhA9XHr7lRRFdnTq6iu8jPRdGhTYZQ91wYILjHUc99BKGV69OMcbhA
p158
sVwidth
p159
I9685
sVhtml_attributions
p160
(lp161
V<a href="https://maps.google.com/maps/contrib/104377897657544754837/photos">Florian Pennavaire</a>
p162
asVheight
p163
I3917
sa(dp164
Vphoto_reference
p165
VCmRdAAAAYVOOW0rwvSfjpkNM4lH0uVF0xYGUGA--P3oT-2uFOX4s7gMQqMXWlJGNvGwomp5nWyxKQm04VmQbgelLor_HO-p7q2jY2niboWki3zQGwV8b7-6UWyV87OOE67Xdg7IeEhBVj2bAP2bTRfzhw1cp6D7MGhT1_03Ukr0B4pWR7TAvktm9USW8Sg
p166
sVwidth
p167
I4829
sVhtml_attributions
p168
(lp169
V<a href="https://maps.google.com/maps/contrib/116676836449714411431/photos">Debojyoti Ghosh</a>
p170
asVheight
p171
I3210
sa(dp172
Vphoto_reference
p173
VCmRdAAAACSyhlt-cbACZiUtTKpZLnDRMkE4P3ylsp9xWcaEm134CH1-6iiwI34LSYcsOeyGewK4bcBtu_KegLecv_yPmHVNuawrqRGvG58LYJUr7fyQLz7v_cYy6zh0qbengAHpJEhA83mFzZagrdlxrcefz5RkWGhTDco9CPPPdbzIRcgebaUkqwPazvA
p174
sVwidth
p175
I1536
sVhtml_attributions
p176
(lp177
V<a href="https://maps.google.com/maps/contrib/102837592139129677983/photos">Richard Navarro</a>
p178
asVheight
p179
I2048
sa(dp180
Vphoto_reference
p181
VCoQBcwAAAI6Lcd6KW9Unw7Ihwq_o3R905v9l-ilGZlX1XU6ZEoktDaJ7s6UDiHnD1O4hesyOd26_x7AI0vAhsPC09suI-VV1J9nZfW4AH-CoDjVxeb273Gz6yhoT827D2pwq9HB9QnXiQRVC9HWDbLEzH_m7p0mroPoJT_upVb5o--Qe51FbEhC2tUxFfZapee43r2Vk1R4YGhQQdZgET2C_KHg71Ou7jziaeIeOEg
p182
sVwidth
p183
I5563
sVhtml_attributions
p184
(lp185
V<a href="https://maps.google.com/maps/contrib/109620309031717855085/photos">Jean-Richard Lai</a>
p186
asVheight
p187
I3129
sa(dp188
Vphoto_reference
p189
VCmRdAAAAHob8iYNRc3XEg2Z_CupLKjjKyFIPZibhwnR6eQwlWm88vZz_cg25ob7mD46cNCX0R5pWCMyKu0pmuDL6JpieJ2bDVnQEerPQxd_RYvPCiltZoiTQ3LK2ETWtKug8GDzGEhBh4OvxhVIN7_TtibfvCx2YGhRge3ZdxQVPLfmRbBOhmpbByrE3Ug
p190
sVwidth
p191
I648
sVhtml_attributions
p192
(lp193
V<a href="https://maps.google.com/maps/contrib/107730655923213512159/photos">Eric Mayers</a>
p194
asVheight
p195
I486
sasVtypes
p196
(lp197
Vpark
p198
aVpoint_of_interest
p199
aVestablishment
p200
asVicon
p201
Vhttps://maps.gstatic.com/mapfiles/place_api/icons/generic_recreational-71.png
p202
sVname
p203
VCorona Heights Park
p204
sVgeometry
p205
(dp206
Vaccess_points
p207
(lp208
(dp209
Vtravel_modes
p210
(lp211
VDRIVING
p212
aVTRANSIT
p213
asVlocation
p214
(dp215
Vlat
p216
g3
(S'37.7662048'
tRp217
sVlng
p218
g3
(S'-122.4382171'
tRp219
ssasVlocation
p220
(dp221
Vlat
p222
g3
(S'37.7653122'
tRp223
sVlng
p224
g3
(S'-122.4385846'
tRp225
sssVadr_address
p226
V<span class="street-address">Roosevelt Way &amp; Museum Way</span>, <span class="locality">San Francisco</span>, <span class="postal-code">94114</span>, <span class="country-name">United States</span>
p227
sVinternational_phone_number
p228
V+1 415-831-2700
p229
sVreviews
p230
(lp231
(dp232
Vrating
p233
I5
sVaspects
p234
(lp235
(dp236
Vrating
p237
I3
sVtype
p238
Voverall
p239
sasVprofile_photo_url
p240
V//lh6.googleusercontent.com/-rOqZZjDjSaw/AAAAAAAAAAI/AAAAAAAAIcE/FcS98pJj6co/photo.jpg
p241
sVlanguage
p242
Ven
p243
sVtext
p244
VA completely underrated and overlooked park that has amazing views! While it isn't quite as popular as Twin Peaks or Grand View, it definitely has one of the best views of San Francisco. I love the fact that it is more of a hike to get up to the top, and areas where you have to climb the rocks to see more beautiful views. Lovely sights! Well worth the walk.
p245
sVauthor_name
p246
VSuzie Oh
p247
sVauthor_url
p248
Vhttps://plus.google.com/105572966193022398872
p249
sVtime
p250
I1448420548
sa(dp251
Vrating
p252
I5
sVaspects
p253
(lp254
(dp255
Vrating
p256
I3
sVtype
p257
Voverall
p258
sasVprofile_photo_url
p259
V//lh5.googleusercontent.com/-9g_I7cdb6U0/AAAAAAAAAAI/AAAAAAAAE5c/cXSE_u8EUCE/photo.jpg
p260
sVlanguage
p261
Ven
p262
sVtext
p263
VCool place to chill out with friends or by yourself for a few hours with a good book! \U0001f60e
p264
sVauthor_name
p265
VEllis Ericsson
p266
sVauthor_url
p267
Vhttps://plus.google.com/108682179842278199970
p268
sVtime
p269
I1456842175
sa(dp270
Vrating
p271
I5
sVaspects
p272
(lp273
(dp274
Vrating
p275
I3
sVtype
p276
Voverall
p277
sasVprofile_photo_url
p278
V//lh3.googleusercontent.com/-CwC90BjMTGg/AAAAAAAAAAI/AAAAAAAAeXQ/koby2N_TE5c/photo.jpg
p279
sVlanguage
p280
Ven
p281
sVtext
p282
VSuper cool spot with a view in SF! Small walk up to get some amazing views of the city! I absolutely love taking visitors from out of town here to get some epic pictures of the great city of SF
p283
sVauthor_name
p284
VRichard Navarro
p285
sVauthor_url
p286
Vhttps://plus.google.com/102837592139129677983
p287
sVtime
p288
I1441582823
sa(dp289
Vrating
p290
I5
sVaspects
p291
(lp292
(dp293
Vrating
p294
I3
sVtype
p295
Voverall
p296
sasVprofile_photo_url
p297
V//lh5.googleusercontent.com/-7aMvoXDsPMc/AAAAAAAAAAI/AAAAAAAAALQ/XH2el72KJAg/photo.jpg
p298
sVlanguage
p299
Ven
p300
sVtext
p301
VGorgeous bit of park dominated by a grassy hill with great views.  Easy path to the top. Friendly neighbors!
p302
sVauthor_name
p303
VKurt Stammberger
p304
sVauthor_url
p305
Vhttps://plus.google.com/116686372809299563212
p306
sVtime
p307
I1448732163
sa(dp308
Vrating
p309
I5
sVaspects
p310
(lp311
(dp312
Vrating
p313
I3
sVtype
p314
Voverall
p315
sasVlanguage
p316
Ven
p317
sVtext
p318
VIt was absolutely beautiful and had plenty of scenic spots to have a private conversation in nature.
p319
sVauthor_name
p320
VAubrey Ash
p321
sVauthor_url
p322
Vhttps://plus.google.com/100161968453375183455
p323
sVtime
p324
I1455576126
sasVformatted_phone_number
p325
V(415) 831-2700
p326
sVaddress_components
p327
(lp328
(dp329
Vlong_name
p330
VRoosevelt Way
p331
sVtypes
p332
(lp333
Vroute
p334
asVshort_name
p335
VRoosevelt Way
p336
sa(dp337
Vlong_name
p338
VSan Francisco
p339
sVtypes
p340
(lp341
Vlocality
p342
aVpolitical
p343
asVshort_name
p344
VSF
p345
sa(dp346
Vlong_name
p347
VUnited States
p348
sVtypes
p349
(lp350
Vcountry
p351
aVpolitical
p352
asVshort_name
p353
VUS
p354
sa(dp355
Vlong_name
p356
V94114
p357
sVtypes
p358
(lp359
Vpostal_code
p360
asVshort_name
p361
V94114
p362
sas.