(dp1
Vrating
p2
cdecimal
Decimal
p3
(S'4.6'
tRp4
sVreference
p5
VCnRtAAAAeyagwCGoh59CUKneC-Mh1yGYgGclR09r2TVzPg--B8cc2xmng2fV6e3xO6VuhbeOezaRuUlcaCxkff7lELVa5DVCD2TyiD-GK0CFlzhXQ5EFRvdD1P8_7bZZwv1QQU5En83Ua4O2wJbFb2XjLYDhWxIQTPV3guvJxdZQIXK6whak9hoUe3oh3iIb7CbWXJbgXp9Fw4TNatU
p6
sVplace_id
p7
VChIJRT7ghwq-j4ARQ68X9Fox0kE
p8
sVurl
p9
Vhttps://maps.google.com/?cid=4742907624286564163
p10
sVformatted_address
p11
V8000 Patterson Ranch Rd, Fremont, CA 94555, United States
p12
sVid
p13
V87d14f0e0d0561102b9ebd00883cdf19c99e0565
p14
sVopening_hours
p15
(dp16
Vweekday_text
p17
(lp18
VMonday: 8:00 AM \u2013 8:00 PM
p19
aVTuesday: 8:00 AM \u2013 8:00 PM
p20
aVWednesday: 8:00 AM \u2013 8:00 PM
p21
aVThursday: 8:00 AM \u2013 8:00 PM
p22
aVFriday: 8:00 AM \u2013 8:00 PM
p23
aVSaturday: 8:00 AM \u2013 8:00 PM
p24
aVSunday: 8:00 AM \u2013 8:00 PM
p25
asVopen_now
p26
I01
sVperiods
p27
(lp28
(dp29
Vclose
p30
(dp31
Vday
p32
I0
sVtime
p33
V2000
p34
ssVopen
p35
(dp36
Vday
p37
I0
sVtime
p38
V0800
p39
ssa(dp40
Vclose
p41
(dp42
Vday
p43
I1
sVtime
p44
V2000
p45
ssVopen
p46
(dp47
Vday
p48
I1
sVtime
p49
V0800
p50
ssa(dp51
Vclose
p52
(dp53
Vday
p54
I2
sVtime
p55
V2000
p56
ssVopen
p57
(dp58
Vday
p59
I2
sVtime
p60
V0800
p61
ssa(dp62
Vclose
p63
(dp64
Vday
p65
I3
sVtime
p66
V2000
p67
ssVopen
p68
(dp69
Vday
p70
I3
sVtime
p71
V0800
p72
ssa(dp73
Vclose
p74
(dp75
Vday
p76
I4
sVtime
p77
V2000
p78
ssVopen
p79
(dp80
Vday
p81
I4
sVtime
p82
V0800
p83
ssa(dp84
Vclose
p85
(dp86
Vday
p87
I5
sVtime
p88
V2000
p89
ssVopen
p90
(dp91
Vday
p92
I5
sVtime
p93
V0800
p94
ssa(dp95
Vclose
p96
(dp97
Vday
p98
I6
sVtime
p99
V2000
p100
ssVopen
p101
(dp102
Vday
p103
I6
sVtime
p104
V0800
p105
ssassVvicinity
p106
V8000 Patterson Ranch Road, Fremont
p107
sVscope
p108
VGOOGLE
p109
sVwebsite
p110
Vhttp://www.ebparks.org/parks/coyote_hills
p111
sVutc_offset
p112
I-420
sVuser_ratings_total
p113
I97
sVphotos
p114
(lp115
(dp116
Vphoto_reference
p117
VCmRdAAAAw1VJQD_zMWnfVIGupz_qeSB-hKZRyaNZ3gUwPT6mQPj0-y6zy75HYsX-kUbbMgrvbtJ2OOH_31gp5Sgv0IJiSHcw5zPvWU3Nx70Ol8e7rqEMaHY9et_621V50Qsg1ACjEhCberTfsI6NMBlprns_xHr8GhRPnSBvmHixX1czYM-BwTVRb2bHDQ
p118
sVwidth
p119
I2992
sVhtml_attributions
p120
(lp121
V<a href="https://maps.google.com/maps/contrib/107378516931987490280/photos">Michael Permana</a>
p122
asVheight
p123
I2000
sa(dp124
Vphoto_reference
p125
VCoQBdwAAAHVob3f1c9j6s1PgJELfrNKaMOQxf1i3QGO2aDwpbFNoHWrozK6SS9GMBtrJbh5zF1lhiTuypicQf-sgarpMotL1g9hkgAnkCZ0gttEC3HoD26Pl3qaYM2_LXcAxHFLlrFOKaHSHCWQ53irvLLheGtCGGN6my_6vEgqKmKmzsqXaEhCLoxrg8ktDclk1F7E3nrfTGhRKuryGS6fc4LvSHEiYIXCAkNXjiA
p126
sVwidth
p127
I4160
sVhtml_attributions
p128
(lp129
V<a href="https://maps.google.com/maps/contrib/118049250068381441805/photos">Sushrut Tatwawadi</a>
p130
asVheight
p131
I3120
sa(dp132
Vphoto_reference
p133
VCmRdAAAAlIvvrp1SCEgGdrlFVnfcWu70S6ecq7ySKl3sZeqjbKAQqziV-xw7oNcYj01kXJm2SY9EG7tiUpAO7cVlE-d4Uxz7P0s9zpj3-qS272Act-rfM5YWbjNgnXoyR6Q6jjh0EhCVB5EwL4ECR6XHQhvVlXSsGhRjNUPhDAuJkKEeBDDehn8vSchvZA
p134
sVwidth
p135
I800
sVhtml_attributions
p136
(lp137
V<a href="https://maps.google.com/maps/contrib/106655823948698010001/photos">lu lu</a>
p138
asVheight
p139
I533
sa(dp140
Vphoto_reference
p141
VCmRdAAAAnR3V6QD77KNS-8SMd5KaH1JMuGYwGZp4iOLQV66RqP0LYxv0htTtlI0LcSILQgZgARFr6O0dlHvF2_QKV06kXgxw3ub0tHq9VYRKhR_pP8PnQhRaY_RTyCHTngB8L4WPEhAy-hlOCPoSE94mlsz2CLwxGhRT7cX_TDUY0_psILxn2oqb6t6jGw
p142
sVwidth
p143
I800
sVhtml_attributions
p144
(lp145
V<a href="https://maps.google.com/maps/contrib/106655823948698010001/photos">lu lu</a>
p146
asVheight
p147
I533
sa(dp148
Vphoto_reference
p149
VCmRdAAAA3PWG1eU-dfmk9wNasxzhibKCPVtKduCjayLF3bJ2bA7GpzDZL-2YMT0huhqlrCcWPgegx9t69SfJWOcAWdaNy6TtIUITP31KD3NcsF_FHUAqMplpTsSqfwg35gM_xZPmEhBPa9RWsW1Ikkw1d1a2mrB_GhQcm8ysKCudYIwEj5-kiV9o-V7BMQ
p150
sVwidth
p151
I2048
sVhtml_attributions
p152
(lp153
V<a href="https://maps.google.com/maps/contrib/100964646024178129388/photos">Hubert Salvador</a>
p154
asVheight
p155
I1360
sa(dp156
Vphoto_reference
p157
VCmRdAAAAojz4UAr_6G_O-fC7AFmZPyqsY4IKdd2jyI5eqbTPSC_1OiFgLwK4RhnLRI-mps5ZlJBRf513zYE2Nicx5IAdeKj3UuZCdBfgdCOn4jEoa15iEh1wCYGaZEqZ__EKWMIQEhAmCsVxE-TlGmNi8LY3tcm4GhR5laiw-GwrX_-4MSoZLe_P0HA3fQ
p158
sVwidth
p159
I720
sVhtml_attributions
p160
(lp161
V<a href="https://maps.google.com/maps/contrib/103562842157749958358/photos">Francis zhang</a>
p162
asVheight
p163
I480
sa(dp164
Vphoto_reference
p165
VCmRdAAAAPQ4Ijl6lZFZ3kHLylM4Bdna3SiSPSIgBuYj1Z2C3HJVg5nS1LvEtnVA-Pz9OruyCVTBZrfSbxGXycmEr4ntcfIuXkFoZYa0mqa3sAIh43vvezuFvfCMYm5_eoPYlqOTnEhBp1ybOrLmw8wD4P8_DJhXmGhSH6vkZe9PlWdm-nPL3jN2s1q1NIw
p166
sVwidth
p167
I4928
sVhtml_attributions
p168
(lp169
V<a href="https://maps.google.com/maps/contrib/102272260007399239631/photos">Rhodora De Leon</a>
p170
asVheight
p171
I3264
sa(dp172
Vphoto_reference
p173
VCmRdAAAAgmMHJIdj--TEpE5pERA9fFki8x8pPxhfNHj5xrbjMl1kk2pY5xU4TYizuyq7E3qe_x0gLGjJQhdwNATnmw4LKXAvv1JzSAghQBXU_LQQJfnpivNpfu4-0_kECugIQT1BEhACkJGrYd8arElXO8F11dwlGhSHuR4kMQavAfgttln8HyYSA7MV1g
p174
sVwidth
p175
I800
sVhtml_attributions
p176
(lp177
V<a href="https://maps.google.com/maps/contrib/106655823948698010001/photos">lu lu</a>
p178
asVheight
p179
I533
sa(dp180
Vphoto_reference
p181
VCmRdAAAAWOdHAOo6wyPqorck_atgeNSDkfCmhjGqas8Awv_K-I4fOrg5jQrVOXfI9GXlTS24BLVmwUuyd7B696abpKnUr-wIhSDtp4G66O5MeltBW5zXXW_EfYcvYD10aMUDmxrdEhD73dW9H_bmLtigdV-Htu6fGhSs1jOrX6OYrIOpetarlVINNV26_w
p182
sVwidth
p183
I800
sVhtml_attributions
p184
(lp185
V<a href="https://maps.google.com/maps/contrib/106655823948698010001/photos">lu lu</a>
p186
asVheight
p187
I533
sa(dp188
Vphoto_reference
p189
VCmRdAAAAMj3HWaxcDx6wWRSY3YCRPW_VAiyPxU_aiuaFkCriv_EX-9R30XZ5zfVj0Uhq63IKnMxYqTU4QRi1tChGsF3sFd39ZSIBs_aVVj85Q5U3Jl_aX8bd4KC4Z7HHbng6L6nBEhBXuzNjHvsIkXZguNp_sFZBGhSX_yFbB2rG1WdguRNUcMloqCg7iw
p190
sVwidth
p191
I2992
sVhtml_attributions
p192
(lp193
V<a href="https://maps.google.com/maps/contrib/107378516931987490280/photos">Michael Permana</a>
p194
asVheight
p195
I2000
sasVtypes
p196
(lp197
Vpark
p198
aVpoint_of_interest
p199
aVestablishment
p200
asVicon
p201
Vhttps://maps.gstatic.com/mapfiles/place_api/icons/generic_recreational-71.png
p202
sVname
p203
VCoyote Hills Regional Park
p204
sVgeometry
p205
(dp206
Vlocation
p207
(dp208
Vlat
p209
g3
(S'37.5532826'
tRp210
sVlng
p211
g3
(S'-122.0854353'
tRp212
sssVadr_address
p213
V<span class="street-address">8000 Patterson Ranch Rd</span>, <span class="locality">Fremont</span>, <span class="region">CA</span> <span class="postal-code">94555</span>, <span class="country-name">United States</span>
p214
sVinternational_phone_number
p215
V+1 510-544-3220
p216
sVreviews
p217
(lp218
(dp219
Vrating
p220
I5
sVaspects
p221
(lp222
(dp223
Vrating
p224
I3
sVtype
p225
Voverall
p226
sasVprofile_photo_url
p227
V//lh4.googleusercontent.com/-kM0qvBcOQp0/AAAAAAAAAAI/AAAAAAACtPw/zRt41eXsqW8/photo.jpg
p228
sVlanguage
p229
Ven
p230
sVtext
p231
VSuper gem tucked in the north-west corner of Fremont.\u000aHard to believe you can drive 10 minutes out of Fremont and be in Coyote Hills.\u000aLoads of trails ( from flat, to some elevation change to lots of elevation change) - hiking and biking.\u000aWildlife = deer, wild turkey, rabbits, bobcat,  foxes,  a plenitude of birds.\u000aThere is free parking on the outskirts of the park, or $5 to park within the park-proper.  ( I would recommend purchasing an east-bay regional parks pass which gives you a full year access to all EBRP's ).
p232
sVauthor_name
p233
VMichael Coustier
p234
sVauthor_url
p235
Vhttps://plus.google.com/100473588647610827164
p236
sVtime
p237
I1459404001
sa(dp238
Vrating
p239
I4
sVaspects
p240
(lp241
(dp242
Vrating
p243
I2
sVtype
p244
Voverall
p245
sasVprofile_photo_url
p246
V//lh3.googleusercontent.com/-Wnw0cR_SCzM/AAAAAAAAAAI/AAAAAAADTSo/WKURwazZNIo/photo.jpg
p247
sVlanguage
p248
Ven
p249
sVtext
p250
VI really like this place. Many trails. Easy to moderate. Beautiful views, but do avoid mid afternoon as there aren't much shades. There are few picnic tables on top of the hills, only by hiking. Ducks/birds ponds. You can easily spend a whole day there exploring different trails. There are also BBQ grill and tables. You can parking out of the entrance and walking in, then no fee. Personally, I would drive all the way in with the $5 fee. 
p251
sVauthor_name
p252
VThomas Pham
p253
sVauthor_url
p254
Vhttps://plus.google.com/105960229159626104784
p255
sVtime
p256
I1455608401
sa(dp257
Vrating
p258
I5
sVaspects
p259
(lp260
(dp261
Vrating
p262
I3
sVtype
p263
Voverall
p264
sasVlanguage
p265
Ven
p266
sVtext
p267
VExpansive hilly trails, nice short marsh trail, informative small museum. Great for biking or long walks. Can be windy and use sun screen.
p268
sVauthor_name
p269
VTina Wan
p270
sVauthor_url
p271
Vhttps://plus.google.com/108544551153062972773
p272
sVtime
p273
I1459188259
sa(dp274
Vrating
p275
I5
sVaspects
p276
(lp277
(dp278
Vrating
p279
I3
sVtype
p280
Voverall
p281
sasVprofile_photo_url
p282
V//lh3.googleusercontent.com/-SpRLgfwCqxE/AAAAAAAAAAI/AAAAAAAAEIM/UgJAscWiXcY/photo.jpg
p283
sVlanguage
p284
Ven
p285
sVtext
p286
VLove the wild flowers in the spring. A nice place to spend a weekend afternoon with family. It also has a lot of trails that pass through different terrain with beautiful scenes.
p287
sVauthor_name
p288
VJames Xu
p289
sVauthor_url
p290
Vhttps://plus.google.com/100716171675749405447
p291
sVtime
p292
I1460655905
sa(dp293
Vrating
p294
I5
sVaspects
p295
(lp296
(dp297
Vrating
p298
I3
sVtype
p299
Voverall
p300
sasVprofile_photo_url
p301
V//lh5.googleusercontent.com/-w1S0stH4wHU/AAAAAAAAAAI/AAAAAAAAPZQ/AgphVMvZF5M/photo.jpg
p302
sVlanguage
p303
Ven
p304
sVtext
p305
VI hope this place never closes. What a great place for walks and hikes. Free parking along Paseo Padre. About a mile walk in. $5 paid parking takes you into park with two places to park. The loop around Coyote Hills is about 3.5 miles walk. Gentle inclines if you stay on the paved path.
p306
sVauthor_name
p307
VEugene C
p308
sVauthor_url
p309
Vhttps://plus.google.com/103322116725763248280
p310
sVtime
p311
I1448233093
sasVformatted_phone_number
p312
V(510) 544-3220
p313
sVaddress_components
p314
(lp315
(dp316
Vlong_name
p317
V8000
p318
sVtypes
p319
(lp320
Vstreet_number
p321
asVshort_name
p322
V8000
p323
sa(dp324
Vlong_name
p325
VPatterson Ranch Road
p326
sVtypes
p327
(lp328
Vroute
p329
asVshort_name
p330
VPatterson Ranch Rd
p331
sa(dp332
Vlong_name
p333
VFremont
p334
sVtypes
p335
(lp336
Vlocality
p337
aVpolitical
p338
asVshort_name
p339
VFremont
p340
sa(dp341
Vlong_name
p342
VCalifornia
p343
sVtypes
p344
(lp345
Vadministrative_area_level_1
p346
aVpolitical
p347
asVshort_name
p348
VCA
p349
sa(dp350
Vlong_name
p351
VUnited States
p352
sVtypes
p353
(lp354
Vcountry
p355
aVpolitical
p356
asVshort_name
p357
VUS
p358
sa(dp359
Vlong_name
p360
V94555
p361
sVtypes
p362
(lp363
Vpostal_code
p364
asVshort_name
p365
V94555
p366
sas.