(dp1
Vwebsite
p2
Vhttp://www.crazy8.com/
p3
sVutc_offset
p4
I-420
sVname
p5
VCrazy 8
p6
sVreference
p7
VCmRaAAAAkj5zRIhhBiAQioZDrouUqV65MYZQHS_dPZV625hSApWlxdH9pcdufBG-L80LkYuHP7kjKsw_zdroYvXf7YQKk_1BQc2aggL4nqsaVAK7xtrNJNq5WzWba7aDi94R-nJYEhC-UGoEDUI-nqjiZ05lMzI-GhQhT08DS0E_WBefwJf4cGsvYsIZ5w
p8
sVprice_level
p9
I1
sVgeometry
p10
(dp11
Vlocation
p12
(dp13
Vlat
p14
cdecimal
Decimal
p15
(S'37.6722355'
tRp16
sVlng
p17
g15
(S'-122.4707428'
tRp18
sssVadr_address
p19
V<span class="street-address">31 Serramonte Center</span>, <span class="locality">Daly City</span>, <span class="region">CA</span> <span class="postal-code">94015</span>, <span class="country-name">United States</span>
p20
sVplace_id
p21
VChIJRdEDiYx7j4ARg3wj4mp3NQs
p22
sVinternational_phone_number
p23
V+1 650-755-8617
p24
sVvicinity
p25
V31 Serramonte Center, Daly City
p26
sVformatted_phone_number
p27
V(650) 755-8617
p28
sVscope
p29
VGOOGLE
p30
sVurl
p31
Vhttps://maps.google.com/?cid=807683009127087235
p32
sVopening_hours
p33
(dp34
Vweekday_text
p35
(lp36
VMonday: 10:00 AM \u2013 9:00 PM
p37
aVTuesday: 10:00 AM \u2013 9:00 PM
p38
aVWednesday: 10:00 AM \u2013 9:00 PM
p39
aVThursday: 10:00 AM \u2013 9:00 PM
p40
aVFriday: 10:00 AM \u2013 9:00 PM
p41
aVSaturday: 10:00 AM \u2013 9:00 PM
p42
aVSunday: 11:00 AM \u2013 7:00 PM
p43
asVopen_now
p44
I01
sVperiods
p45
(lp46
(dp47
Vclose
p48
(dp49
Vday
p50
I0
sVtime
p51
V1900
p52
ssVopen
p53
(dp54
Vday
p55
I0
sVtime
p56
V1100
p57
ssa(dp58
Vclose
p59
(dp60
Vday
p61
I1
sVtime
p62
V2100
p63
ssVopen
p64
(dp65
Vday
p66
I1
sVtime
p67
V1000
p68
ssa(dp69
Vclose
p70
(dp71
Vday
p72
I2
sVtime
p73
V2100
p74
ssVopen
p75
(dp76
Vday
p77
I2
sVtime
p78
V1000
p79
ssa(dp80
Vclose
p81
(dp82
Vday
p83
I3
sVtime
p84
V2100
p85
ssVopen
p86
(dp87
Vday
p88
I3
sVtime
p89
V1000
p90
ssa(dp91
Vclose
p92
(dp93
Vday
p94
I4
sVtime
p95
V2100
p96
ssVopen
p97
(dp98
Vday
p99
I4
sVtime
p100
V1000
p101
ssa(dp102
Vclose
p103
(dp104
Vday
p105
I5
sVtime
p106
V2100
p107
ssVopen
p108
(dp109
Vday
p110
I5
sVtime
p111
V1000
p112
ssa(dp113
Vclose
p114
(dp115
Vday
p116
I6
sVtime
p117
V2100
p118
ssVopen
p119
(dp120
Vday
p121
I6
sVtime
p122
V1000
p123
ssassVaddress_components
p124
(lp125
(dp126
Vlong_name
p127
V31
p128
sVtypes
p129
(lp130
Vstreet_number
p131
asVshort_name
p132
V31
p133
sa(dp134
Vlong_name
p135
VSerramonte Center
p136
sVtypes
p137
(lp138
Vroute
p139
asVshort_name
p140
VSerramonte Center
p141
sa(dp142
Vlong_name
p143
VDaly City
p144
sVtypes
p145
(lp146
Vlocality
p147
aVpolitical
p148
asVshort_name
p149
VDaly City
p150
sa(dp151
Vlong_name
p152
VCalifornia
p153
sVtypes
p154
(lp155
Vadministrative_area_level_1
p156
aVpolitical
p157
asVshort_name
p158
VCA
p159
sa(dp160
Vlong_name
p161
VUnited States
p162
sVtypes
p163
(lp164
Vcountry
p165
aVpolitical
p166
asVshort_name
p167
VUS
p168
sa(dp169
Vlong_name
p170
V94015
p171
sVtypes
p172
(lp173
Vpostal_code
p174
asVshort_name
p175
V94015
p176
sasVformatted_address
p177
V31 Serramonte Center, Daly City, CA 94015, United States
p178
sVid
p179
V7a863d00f18d270e6de2610e0b687e941f552e66
p180
sVtypes
p181
(lp182
Vclothing_store
p183
aVstore
p184
aVpoint_of_interest
p185
aVestablishment
p186
asVicon
p187
Vhttps://maps.gstatic.com/mapfiles/place_api/icons/shopping-71.png
p188
s.