(dp1
Vrating
p2
cdecimal
Decimal
p3
(S'4.3'
tRp4
sVreference
p5
VCnRjAAAA7dQrxLaLBrSKs2RB9QdsqtNzLIuIO7wkJkiFCRQ1i0DEisT8qPkzhG2HDLGJl6OYNBFXweVhJCLk9WmUBL-xggpEHzo6PTjGMV6C6RX-c0Bo4AdSNsnF6xHO2zoXs5zS3T4aKHMEd1LnSGu_RhfGuxIQOXfSjI8mcuE8miIIEHNWpRoUhOcN5XriUSWOjraogwBbEfsf6oc
p6
sVprice_level
p7
I1
sVplace_id
p8
VChIJD6D7lXeAhYARpItz2DTPkaU
p9
sVurl
p10
Vhttps://maps.google.com/?cid=11930544713757854628
p11
sVformatted_address
p12
V699 Delancey St, San Francisco, CA 94107, United States
p13
sVid
p14
V93b3495b2e40274dba0c00e0e63e6916dd6dd2ba
p15
sVopening_hours
p16
(dp17
Vweekday_text
p18
(lp19
VMonday: 7:00 AM \u2013 10:00 PM
p20
aVTuesday: 7:00 AM \u2013 10:00 PM
p21
aVWednesday: 7:00 AM \u2013 10:00 PM
p22
aVThursday: 7:00 AM \u2013 10:00 PM
p23
aVFriday: 7:00 AM \u2013 10:00 PM
p24
aVSaturday: 8:00 AM \u2013 10:00 PM
p25
aVSunday: 8:00 AM \u2013 5:00 PM
p26
asVopen_now
p27
I01
sVperiods
p28
(lp29
(dp30
Vclose
p31
(dp32
Vday
p33
I0
sVtime
p34
V1700
p35
ssVopen
p36
(dp37
Vday
p38
I0
sVtime
p39
V0800
p40
ssa(dp41
Vclose
p42
(dp43
Vday
p44
I1
sVtime
p45
V2200
p46
ssVopen
p47
(dp48
Vday
p49
I1
sVtime
p50
V0700
p51
ssa(dp52
Vclose
p53
(dp54
Vday
p55
I2
sVtime
p56
V2200
p57
ssVopen
p58
(dp59
Vday
p60
I2
sVtime
p61
V0700
p62
ssa(dp63
Vclose
p64
(dp65
Vday
p66
I3
sVtime
p67
V2200
p68
ssVopen
p69
(dp70
Vday
p71
I3
sVtime
p72
V0700
p73
ssa(dp74
Vclose
p75
(dp76
Vday
p77
I4
sVtime
p78
V2200
p79
ssVopen
p80
(dp81
Vday
p82
I4
sVtime
p83
V0700
p84
ssa(dp85
Vclose
p86
(dp87
Vday
p88
I5
sVtime
p89
V2200
p90
ssVopen
p91
(dp92
Vday
p93
I5
sVtime
p94
V0700
p95
ssa(dp96
Vclose
p97
(dp98
Vday
p99
I6
sVtime
p100
V2200
p101
ssVopen
p102
(dp103
Vday
p104
I6
sVtime
p105
V0800
p106
ssassVvicinity
p107
V699 Delancey Street, San Francisco
p108
sVscope
p109
VGOOGLE
p110
sVwebsite
p111
Vhttp://www.delanceystreetfoundation.org/entercafe.php
p112
sVutc_offset
p113
I-420
sVuser_ratings_total
p114
I111
sVphotos
p115
(lp116
(dp117
Vphoto_reference
p118
VCmRdAAAAa-eRBva8HjdMviMhvXuPzURzJiZBckyWf1BszKV_s7Vg6DijnYGCqv_F4CT0NswgFYbOWlHJ1AY3xJDfSN-gI6D8g4HarNlpng9Cy1tgOQNtTXTO9vZ9xKOpSrvwxEDfEhBYQVHUgzp4BQ8sYLvIN8NSGhQ0EWH7F32LPs5eJvCLaerbvosONA
p119
sVwidth
p120
I3264
sVhtml_attributions
p121
(lp122
V<a href="https://maps.google.com/maps/contrib/105312604812911295977/photos">Denise DC</a>
p123
asVheight
p124
I1836
sa(dp125
Vphoto_reference
p126
VCmRdAAAAH_7ChMn_NDU_BKj249ZNB6DlnUeBjqi2LxwkYQiXPigGQVkp8t90MuwAY5_zrzP5KzXElzLWsao8WtHFaHvoOZqGG5D3CR40hedJ6vWUVPt2eYMjqVmnTMWKHzqHcr99EhBNXhfAIY17X9VQwO3vS-1FGhRgDOaVRHVMYfOuNlSHQxetmXOn5w
p127
sVwidth
p128
I949
sVhtml_attributions
p129
(lp130
V<a href="https://maps.google.com/maps/contrib/115938495699579665899/photos">Jon Sanchez</a>
p131
asVheight
p132
I1265
sa(dp133
Vphoto_reference
p134
VCmRdAAAA0qzVezEGajMa1821dCrW4m-tsQPhN6A7o2EXwyLR_vFKBXK6YSPi0au-RitPMtiAg3-MZ5w3o8rT6qHIqNvsnw4jrC2fdU_ans0HxdS_J6U019pVgGBoGNV8XAH4DHzHEhDFCMDqiMVW0AGEHxN01BhXGhSmF0uEtRvlmsHw68ON78ERR-VReg
p135
sVwidth
p136
I816
sVhtml_attributions
p137
(lp138
V<a href="https://maps.google.com/maps/contrib/104744871076396904202/photos">Igor Minar</a>
p139
asVheight
p140
I612
sa(dp141
Vphoto_reference
p142
VCmRdAAAA06287ws1vGNx8DSk00Uwd8uxyKeeCq1HzUnkuGSjtQNVGIIkG0MA18NugsXXFiW-x7L-OC2fnfQ6uzEt2CWubZuKgPHnm3iH1J2oaWAsApThv1s-o_0vWHVRWDExpTkLEhByY_aJsTq6I2luPkxlSeUxGhTWDIIdqBNa9XlNMHhbO_CUYskyMA
p143
sVwidth
p144
I648
sVhtml_attributions
p145
(lp146
V<a href="https://maps.google.com/maps/contrib/109951755395007388779/photos">Andrew Chen</a>
p147
asVheight
p148
I486
sa(dp149
Vphoto_reference
p150
VCmRdAAAA9JNm7gkLsMbz-IFdEP0-KBqNDzZymdV5zQTJMQiVjMMjHjSHh708dmg-C57i3fF_MT-ALArg5F6uUB5AK8TuwMoG0QdSX6TPlywfC2mDCo5ELQDLaPXB7PgYd6gl6LH7EhCogXtJW7C5LlVkbof_hfZkGhTZA0Deh9Q2W2pXepEWd16Nn4aedA
p151
sVwidth
p152
I1096
sVhtml_attributions
p153
(lp154
V<a href="https://maps.google.com/maps/contrib/117679265541359014520/photos">Radu R</a>
p155
asVheight
p156
I1096
sa(dp157
Vphoto_reference
p158
VCoQBcwAAAIbhQ5jhXxqiBVjHikE2MyQzTM8bGGc_CvAJQHV8937-QJ1Ia3Hy5oH_iUolp1adiQd5v-mXQ_rYOee4pImSnPYfQ4vG5ugvrPoqmhNVo__VSb_bDpU7zI-EdQQH4_JfNidtN6Ph0ZDvZcT2kQwS9jTAPMw6qS7DtTPnOgC0ObV7EhBwjqP2x-FpoLmDtCVXllgQGhTf3Q-k8juteHARnH3zq1cVRe3w2w
p159
sVwidth
p160
I4032
sVhtml_attributions
p161
(lp162
V<a href="https://maps.google.com/maps/contrib/115578945652418425198/photos">Kaz\u0131m Bu\u011fra Tombul</a>
p163
asVheight
p164
I3024
sa(dp165
Vphoto_reference
p166
VCmRdAAAAt_x5TPMPIqOc562MMmLFRF5WchFBegx2HrJhh5iPk0H_ShwdVcThM6sQUjVv2w5WxSZt3W3hGeVH231EG0Rm-KxbcMnRnmpCzTDnnvoTuPuAAsGul-5APsAEh0zTqcabEhAseTcoHPX-Qv9WGgE-CenJGhSZ2DuxXuHOpjEZ00TT7ZQZ7zZ2qQ
p167
sVwidth
p168
I648
sVhtml_attributions
p169
(lp170
V<a href="https://maps.google.com/maps/contrib/109951755395007388779/photos">Andrew Chen</a>
p171
asVheight
p172
I486
sa(dp173
Vphoto_reference
p174
VCmRdAAAAh9DWX8ytngw7OlZ-NE3EkFsra7G_Ao2FhR15mUHaYqxdV0mwJ_wx6izas_0eANWe2QMKPZJB4logPtIbfZEtx49y0B9B9YZt7SMU83aiLEDIGxKVI61a1SGoiNKzRY29EhDe240m4UqybjzlCibiMfyCGhTuWqhN07cg1nOcRW-fHk6IZCT1VA
p175
sVwidth
p176
I648
sVhtml_attributions
p177
(lp178
V<a href="https://maps.google.com/maps/contrib/109951755395007388779/photos">Andrew Chen</a>
p179
asVheight
p180
I486
sa(dp181
Vphoto_reference
p182
VCoQBcwAAAAzrg30_yR_cEXopJdV5hXiZfXf6vgZthM1G5ijJO3EKg35-ONQijyAmpNppqMagolCUriNblpCjQSMHKYxuXFTbG460C8dlyAVVAoa0jjIv0HqQk33sodK86ajL3vWudR9-FuP3RFT9Bxr77dXhNhvl72oRKXWJP8y9nOC277kGEhCdCdqZnyrG2T2bv-jndwTBGhTzvwLd-ZmJ-yk-GG4g6Zl715xD-w
p183
sVwidth
p184
I750
sVhtml_attributions
p185
(lp186
V<a href="https://maps.google.com/maps/contrib/110687517402091278367/photos">Lexis Hanson</a>
p187
asVheight
p188
I1334
sa(dp189
Vphoto_reference
p190
VCmRdAAAABjAnSsFdY1M1DZq6BqPMm7-SCn4SuDG_M4Pf6dp51OJhKXswY2nPwRIGP_Hpub4LXfAT2yzH4Xi4VPX-apqmtYbHFaKJUmdxUFAB5q01I7k3XnoQqQdd7xC-W4R_q8ylEhBM2fHmst-js1IkWAeekCrsGhSLrY6-_9z4HYAWU1QVD4bTjMForg
p191
sVwidth
p192
I1265
sVhtml_attributions
p193
(lp194
V<a href="https://maps.google.com/maps/contrib/102690091571148307715/photos">Amy Meyer</a>
p195
asVheight
p196
I949
sasVtypes
p197
(lp198
Vcafe
p199
aVfood
p200
aVstore
p201
aVpoint_of_interest
p202
aVestablishment
p203
asVicon
p204
Vhttps://maps.gstatic.com/mapfiles/place_api/icons/cafe-71.png
p205
sVname
p206
VCrossroads Cafe
p207
sVgeometry
p208
(dp209
Vaccess_points
p210
(lp211
(dp212
Vtravel_modes
p213
(lp214
VDRIVING
p215
aVBICYCLING
p216
aVWALKING
p217
aVTRANSIT
p218
asVlocation
p219
(dp220
Vlat
p221
g3
(S'37.7831342'
tRp222
sVlng
p223
g3
(S'-122.3892322'
tRp224
ssasVlocation
p225
(dp226
Vlat
p227
g3
(S'37.78315500000001'
tRp228
sVlng
p229
g3
(S'-122.3890425'
tRp230
sssVadr_address
p231
V<span class="street-address">699 Delancey St</span>, <span class="locality">San Francisco</span>, <span class="region">CA</span> <span class="postal-code">94107</span>, <span class="country-name">United States</span>
p232
sVinternational_phone_number
p233
V+1 415-836-5624
p234
sVreviews
p235
(lp236
(dp237
Vrating
p238
I5
sVaspects
p239
(lp240
(dp241
Vrating
p242
I3
sVtype
p243
Voverall
p244
sasVprofile_photo_url
p245
V//lh6.googleusercontent.com/-lyYA5HKrKJY/AAAAAAAAAAI/AAAAAAAAAU8/wMDivDT_yC4/photo.jpg
p246
sVlanguage
p247
Ven
p248
sVtext
p249
VBeautiful and relaxing atmosphere with great food at unbeatable value especially considering where it is in the city. Extensive and delicious menu, very friendly staff. Recommend it to everyone that I know in the area! High tea is also great, and the bookstore has a good selection. 
p250
sVauthor_name
p251
VCarylyne Chan
p252
sVauthor_url
p253
Vhttps://plus.google.com/117585130290699386966
p254
sVtime
p255
I1459877030
sa(dp256
Vrating
p257
I5
sVaspects
p258
(lp259
(dp260
Vrating
p261
I3
sVtype
p262
Voverall
p263
sasVprofile_photo_url
p264
V//lh6.googleusercontent.com/-8bXtesBedIQ/AAAAAAAAAAI/AAAAAAAAGJo/Bm7AkANkono/photo.jpg
p265
sVlanguage
p266
Ven
p267
sVtext
p268
VGreat Location, Incredibly cheap, Nice people and definitely a good cause.\u000a\u000athe service is quick and welcoming; the seating is situated in amongst an adorable mini gift/book shop and I always find myself browsing the section. it's also a really nice place if you want to chill in the corner for a relaxing afternoon.\u000a\u000aThey also seem to be accepting of pets and children.
p269
sVauthor_name
p270
VEvelyn Wai
p271
sVauthor_url
p272
Vhttps://plus.google.com/109769320033022689556
p273
sVtime
p274
I1455933614
sa(dp275
Vrating
p276
I4
sVaspects
p277
(lp278
(dp279
Vrating
p280
I2
sVtype
p281
Voverall
p282
sasVprofile_photo_url
p283
V//lh5.googleusercontent.com/-YH45gyHDPk8/AAAAAAAAAAI/AAAAAAAAACE/wuLHbAvl7oc/photo.jpg
p284
sVlanguage
p285
Ven
p286
sVtext
p287
VI love the people here, the food is healthy and presentation is amazing!!! The decor is so cool I could sit there with my salted caramel iced coffee all day !!!Go visit ASAP
p288
sVauthor_name
p289
VDick Ash
p290
sVauthor_url
p291
Vhttps://plus.google.com/107551888147291875704
p292
sVtime
p293
I1446543329
sa(dp294
Vrating
p295
I4
sVaspects
p296
(lp297
(dp298
Vrating
p299
I2
sVtype
p300
Voverall
p301
sasVprofile_photo_url
p302
V//lh3.googleusercontent.com/-_qMgoA6bil8/AAAAAAAAAAI/AAAAAAAAM58/68k8CCXnmfQ/photo.jpg
p303
sVlanguage
p304
Ven
p305
sVtext
p306
VNice place good selection of huge crepes. Decent coffee but bigger mugs would be awesome. Or at least that option vs refills to me. The bird situation outside is a bit out of control. But still. Pretty cool. 
p307
sVauthor_name
p308
VMatt Kochanek
p309
sVauthor_url
p310
Vhttps://plus.google.com/113102976835223960664
p311
sVtime
p312
I1448410151
sa(dp313
Vrating
p314
I5
sVaspects
p315
(lp316
(dp317
Vrating
p318
I3
sVtype
p319
Voverall
p320
sasVprofile_photo_url
p321
V//lh5.googleusercontent.com/-YaGrNE5fHm0/AAAAAAAAAAI/AAAAAAAAADI/M_KMrT-h4fU/photo.jpg
p322
sVlanguage
p323
Ven
p324
sVtext
p325
VCheap, amazing food, great atmosphere. Run as a non-profit, most of the staff are ex-cons
p326
sVauthor_name
p327
VMaggie White
p328
sVauthor_url
p329
Vhttps://plus.google.com/109386546697790051944
p330
sVtime
p331
I1457307373
sasVformatted_phone_number
p332
V(415) 836-5624
p333
sVaddress_components
p334
(lp335
(dp336
Vlong_name
p337
V699
p338
sVtypes
p339
(lp340
Vstreet_number
p341
asVshort_name
p342
V699
p343
sa(dp344
Vlong_name
p345
VDelancey Street
p346
sVtypes
p347
(lp348
Vroute
p349
asVshort_name
p350
VDelancey St
p351
sa(dp352
Vlong_name
p353
VSan Francisco
p354
sVtypes
p355
(lp356
Vlocality
p357
aVpolitical
p358
asVshort_name
p359
VSF
p360
sa(dp361
Vlong_name
p362
VCalifornia
p363
sVtypes
p364
(lp365
Vadministrative_area_level_1
p366
aVpolitical
p367
asVshort_name
p368
VCA
p369
sa(dp370
Vlong_name
p371
VUnited States
p372
sVtypes
p373
(lp374
Vcountry
p375
aVpolitical
p376
asVshort_name
p377
VUS
p378
sa(dp379
Vlong_name
p380
V94107
p381
sVtypes
p382
(lp383
Vpostal_code
p384
asVshort_name
p385
V94107
p386
sas.