(dp1
Vrating
p2
cdecimal
Decimal
p3
(S'4.5'
tRp4
sVreference
p5
VCmReAAAA6cCIbFTBdhpj38IuSCSuSvcMUNKzMccqN56gHTzxm5rS57inpnlgwUsDyLDaLZqmoniopAROKS4vfWOI8YABvdQj5Tl_GI0Hki5LeZRnBI8pgjtIEdZkHl03O5BD8x-nEhCpMSydZNvvhr_TEsVh0NiaGhT_NNtHatUmJjwql-NLt3B8iXevjQ
p6
sVplace_id
p7
VChIJ8QmpntO2j4ARX1iGIbLixxY
p8
sVurl
p9
Vhttps://maps.google.com/?cid=1641529843894343775
p10
sVformatted_address
p11
V615 Cuesta Dr, Mountain View, CA 94040, United States
p12
sVid
p13
V9cb163a7e5261941dab9e63d0b827c923eb6f446
p14
sVopening_hours
p15
(dp16
Vweekday_text
p17
(lp18
VMonday: 6:00 AM \u2013 1:00 AM
p19
aVTuesday: 6:00 AM \u2013 1:00 AM
p20
aVWednesday: 6:00 AM \u2013 1:00 AM
p21
aVThursday: 6:00 AM \u2013 1:00 AM
p22
aVFriday: 6:00 AM \u2013 1:00 AM
p23
aVSaturday: 6:00 AM \u2013 1:00 AM
p24
aVSunday: 6:00 AM \u2013 1:00 AM
p25
asVopen_now
p26
I01
sVperiods
p27
(lp28
(dp29
Vclose
p30
(dp31
Vday
p32
I1
sVtime
p33
V0100
p34
ssVopen
p35
(dp36
Vday
p37
I0
sVtime
p38
V0600
p39
ssa(dp40
Vclose
p41
(dp42
Vday
p43
I2
sVtime
p44
V0100
p45
ssVopen
p46
(dp47
Vday
p48
I1
sVtime
p49
V0600
p50
ssa(dp51
Vclose
p52
(dp53
Vday
p54
I3
sVtime
p55
V0100
p56
ssVopen
p57
(dp58
Vday
p59
I2
sVtime
p60
V0600
p61
ssa(dp62
Vclose
p63
(dp64
Vday
p65
I4
sVtime
p66
V0100
p67
ssVopen
p68
(dp69
Vday
p70
I3
sVtime
p71
V0600
p72
ssa(dp73
Vclose
p74
(dp75
Vday
p76
I5
sVtime
p77
V0100
p78
ssVopen
p79
(dp80
Vday
p81
I4
sVtime
p82
V0600
p83
ssa(dp84
Vclose
p85
(dp86
Vday
p87
I6
sVtime
p88
V0100
p89
ssVopen
p90
(dp91
Vday
p92
I5
sVtime
p93
V0600
p94
ssa(dp95
Vclose
p96
(dp97
Vday
p98
I0
sVtime
p99
V0100
p100
ssVopen
p101
(dp102
Vday
p103
I6
sVtime
p104
V0600
p105
ssassVvicinity
p106
V615 Cuesta Drive, Mountain View
p107
sVscope
p108
VGOOGLE
p109
sVwebsite
p110
Vhttp://www.mountainview.gov/depts/cs/parks/parks/default.asp
p111
sVutc_offset
p112
I-420
sVuser_ratings_total
p113
I62
sVphotos
p114
(lp115
(dp116
Vphoto_reference
p117
VCmRdAAAAR5xER47cpTLL0MKZaOgv73NKQC1ShKcc1G-zwi6WoHpNDWVfXQzF8ZuZlJQa16l63dWhqZhGUIDPSwgTzYdr1tz3-hvIwFx574SJ9XtHZvISrEbOYL5laN-8bDklXzikEhCfIFrF8Hmq-eH-6DndZRg4GhT5c8p-uf1sPQtUUQxnDFnZh6dSkw
p118
sVwidth
p119
I5312
sVhtml_attributions
p120
(lp121
V<a href="https://maps.google.com/maps/contrib/107546221640716212138/photos">Jason Lahaderne</a>
p122
asVheight
p123
I2988
sa(dp124
Vphoto_reference
p125
VCmRdAAAAD6c70d54Q-iNkoW4p2x3ZWyMLlQ0eLuyQod0xMuBZG2cVS7mrXP2JPfkA4TLwwxrI0fNwIgs8Gaxb9KyVp7X_T9MiZGHCBZP9oHq-o-uJaQ0OoLlvbeFUgBr6d0WJCwREhATrV4nZMVvyCTjG3v6yO9nGhTb-EPZSrZBI_YEVAg-Ln5tgV_AAQ
p126
sVwidth
p127
I2000
sVhtml_attributions
p128
(lp129
V<a href="https://maps.google.com/maps/contrib/117971837164857644538/photos">Evan Rapoport</a>
p130
asVheight
p131
I1000
sa(dp132
Vphoto_reference
p133
VCmRdAAAASpBcFbOpxF4uroJn3ApZxvGWH4SJkeQL-ugMywE9C8-vAgODIOnbV7WS1Gn4k6S9TAcmxG1FV97M53xk8sokxV0o05xB_qlzgXsDbS-FQnXwdA7pbLv_wPrh5h37C0EdEhD3n5-QB9hsPGwlUR01u7qJGhSj523_95TXoCwNsm9tYG_KHXacqQ
p134
sVwidth
p135
I2048
sVhtml_attributions
p136
(lp137
V<a href="https://maps.google.com/maps/contrib/107958667107270024286/photos">Polychronis Ypodimatopoulos</a>
p138
asVheight
p139
I1536
sa(dp140
Vphoto_reference
p141
VCmRdAAAA1dBghG8HlGIZKCdx_xkBQT3dX2qABi0qM89iXEWYT66tR2FaYgVaMuStJTgZz22Eo_2BUtUJa8dFRnXaHRwcrx4RppX3VNUwg20Z0aaSB1ghPY9gBmEo7RKbuw4CudRvEhAkMYjmadazbPpNB-0yN4ReGhThRiOe07qd5_ObCq-FKsW15RU4DQ
p142
sVwidth
p143
I1632
sVhtml_attributions
p144
(lp145
V<a href="https://maps.google.com/maps/contrib/100814127205402231634/photos">Shumin Zhai</a>
p146
asVheight
p147
I1224
sasVtypes
p148
(lp149
Vpark
p150
aVpoint_of_interest
p151
aVestablishment
p152
asVicon
p153
Vhttps://maps.gstatic.com/mapfiles/place_api/icons/generic_recreational-71.png
p154
sVname
p155
VCuesta Park
p156
sVgeometry
p157
(dp158
Vaccess_points
p159
(lp160
(dp161
Vtravel_modes
p162
(lp163
VDRIVING
p164
aVBICYCLING
p165
aVWALKING
p166
aVTRANSIT
p167
asVlocation
p168
(dp169
Vlat
p170
g3
(S'37.3732482'
tRp171
sVlng
p172
g3
(S'-122.0794964'
tRp173
ssasVlocation
p174
(dp175
Vlat
p176
g3
(S'37.37193070000001'
tRp177
sVlng
p178
g3
(S'-122.0795631'
tRp179
sssVadr_address
p180
V<span class="street-address">615 Cuesta Dr</span>, <span class="locality">Mountain View</span>, <span class="region">CA</span> <span class="postal-code">94040</span>, <span class="country-name">United States</span>
p181
sVinternational_phone_number
p182
V+1 650-903-6326
p183
sVreviews
p184
(lp185
(dp186
Vrating
p187
I5
sVaspects
p188
(lp189
(dp190
Vrating
p191
I3
sVtype
p192
Voverall
p193
sasVprofile_photo_url
p194
V//lh6.googleusercontent.com/-HKqzDyur2dA/AAAAAAAAAAI/AAAAAAAAXs4/eqrYbZy4N0E/photo.jpg
p195
sVlanguage
p196
Ven
p197
sVtext
p198
VAmazing park. We go hear for office picnic every year. Nice lawns, bbq place, volleyball court, kids play area, parking spots, accessibility, lot of shade and safe. 
p199
sVauthor_name
p200
VAtul Chaudhari
p201
sVauthor_url
p202
Vhttps://plus.google.com/112282726155694300427
p203
sVtime
p204
I1456858810
sa(dp205
Vrating
p206
I5
sVaspects
p207
(lp208
(dp209
Vrating
p210
I3
sVtype
p211
Voverall
p212
sasVprofile_photo_url
p213
V//lh5.googleusercontent.com/-BEO0aCC0qvU/AAAAAAAAAAI/AAAAAAAAEC0/XLrXTkP1GnY/photo.jpg
p214
sVlanguage
p215
Ven
p216
sVtext
p217
VThe tennis courts are awesome and well maintained. Lighted courts and they have their lights on till 11:00 in the night. \u000a\u000aAlso the park has a good trail suitable enough for evening runs. This park is also pet friendly.
p218
sVauthor_name
p219
VAbilash M
p220
sVauthor_url
p221
Vhttps://plus.google.com/105308543089221753587
p222
sVtime
p223
I1455834250
sa(dp224
Vrating
p225
I4
sVaspects
p226
(lp227
(dp228
Vrating
p229
I2
sVtype
p230
Voverall
p231
sasVprofile_photo_url
p232
V//lh6.googleusercontent.com/-2t9tAEJB3RI/AAAAAAAAAAI/AAAAAAAANJw/bX-JfUgw1_E/photo.jpg
p233
sVlanguage
p234
Ven
p235
sVtext
p236
VNice park for casual walk. Most of walking trail gets covered with tree shadows. Has kids play area, BBQ place, volleyball & tennis court.
p237
sVauthor_name
p238
VHarshal Raut
p239
sVauthor_url
p240
Vhttps://plus.google.com/102366886147200373668
p241
sVtime
p242
I1460865600
sa(dp243
Vrating
p244
I5
sVaspects
p245
(lp246
(dp247
Vrating
p248
I3
sVtype
p249
Voverall
p250
sasVprofile_photo_url
p251
V//lh3.googleusercontent.com/-CwC90BjMTGg/AAAAAAAAAAI/AAAAAAAAeXQ/koby2N_TE5c/photo.jpg
p252
sVlanguage
p253
Ven
p254
sVtext
p255
VOne of the better parks in Mountain View! It is huge and has lots of recreational areas!\u000a\u000aI see it being used quite frequently for family gatherings. Great grass field where you can lay a blanket and enjoy a nice picnic. Lots of trees to keep you cool during the warm summers. \u000a\u000aGreat park, I definitely recommend when you need a break from technology
p256
sVauthor_name
p257
VRichard Navarro
p258
sVauthor_url
p259
Vhttps://plus.google.com/102837592139129677983
p260
sVtime
p261
I1440794976
sa(dp262
Vrating
p263
I5
sVaspects
p264
(lp265
(dp266
Vrating
p267
I3
sVtype
p268
Voverall
p269
sasVprofile_photo_url
p270
V//lh4.googleusercontent.com/--yrcUIyYMXM/AAAAAAAAAAI/AAAAAAAAHaw/9em1akj3uLQ/photo.jpg
p271
sVlanguage
p272
Ven
p273
sVtext
p274
VGreat park for kids, took daughter here for years! Nice play structures, two sets of swings, good place for a jog.
p275
sVauthor_name
p276
VRahul Bammi
p277
sVauthor_url
p278
Vhttps://plus.google.com/103380238984466890729
p279
sVtime
p280
I1451547093
sasVformatted_phone_number
p281
V(650) 903-6326
p282
sVaddress_components
p283
(lp284
(dp285
Vlong_name
p286
V615
p287
sVtypes
p288
(lp289
Vstreet_number
p290
asVshort_name
p291
V615
p292
sa(dp293
Vlong_name
p294
VCuesta Drive
p295
sVtypes
p296
(lp297
Vroute
p298
asVshort_name
p299
VCuesta Dr
p300
sa(dp301
Vlong_name
p302
VMountain View
p303
sVtypes
p304
(lp305
Vlocality
p306
aVpolitical
p307
asVshort_name
p308
VMountain View
p309
sa(dp310
Vlong_name
p311
VCalifornia
p312
sVtypes
p313
(lp314
Vadministrative_area_level_1
p315
aVpolitical
p316
asVshort_name
p317
VCA
p318
sa(dp319
Vlong_name
p320
VUnited States
p321
sVtypes
p322
(lp323
Vcountry
p324
aVpolitical
p325
asVshort_name
p326
VUS
p327
sa(dp328
Vlong_name
p329
V94040
p330
sVtypes
p331
(lp332
Vpostal_code
p333
asVshort_name
p334
V94040
p335
sas.