(dp1
Vrating
p2
cdecimal
Decimal
p3
(S'3.9'
tRp4
sVreference
p5
VCmRdAAAA8J7LCM0egUvTl2AFpYbPkNBWX4Jh_GkDRbeq5pCKMMjDgh2X3YI4y8Y6QRbYAx9C9F6OpPaGweyLTp5KyGw5lnAWZF05rLS1WAaK0pGS9ZaVDpesBXZDK0i2EivE36qmEhA8QqSM1peKNO6PKQokxJ55GhSl2WaKwq8S3g_XA-bNVytRzrqX9w
p6
sVprice_level
p7
I2
sVplace_id
p8
VChIJHSGzi_yAhYARy4aO4ROvmmk
p9
sVurl
p10
Vhttps://maps.google.com/?cid=7609587020319327947
p11
sVformatted_address
p12
V39 Pier 39 Concourse #103, San Francisco, CA 94133, United States
p13
sVid
p14
V65347d06a4560870c5fcccfee974ac823f1d2080
p15
sVopening_hours
p16
(dp17
Vweekday_text
p18
(lp19
VMonday: 7:30 AM \u2013 9:00 PM
p20
aVTuesday: 7:30 AM \u2013 9:00 PM
p21
aVWednesday: 7:30 AM \u2013 9:00 PM
p22
aVThursday: 7:30 AM \u2013 9:00 PM
p23
aVFriday: 7:30 AM \u2013 10:00 PM
p24
aVSaturday: 7:30 AM \u2013 10:00 PM
p25
aVSunday: 7:30 AM \u2013 9:00 PM
p26
asVopen_now
p27
I01
sVperiods
p28
(lp29
(dp30
Vclose
p31
(dp32
Vday
p33
I0
sVtime
p34
V2100
p35
ssVopen
p36
(dp37
Vday
p38
I0
sVtime
p39
V0730
p40
ssa(dp41
Vclose
p42
(dp43
Vday
p44
I1
sVtime
p45
V2100
p46
ssVopen
p47
(dp48
Vday
p49
I1
sVtime
p50
V0730
p51
ssa(dp52
Vclose
p53
(dp54
Vday
p55
I2
sVtime
p56
V2100
p57
ssVopen
p58
(dp59
Vday
p60
I2
sVtime
p61
V0730
p62
ssa(dp63
Vclose
p64
(dp65
Vday
p66
I3
sVtime
p67
V2100
p68
ssVopen
p69
(dp70
Vday
p71
I3
sVtime
p72
V0730
p73
ssa(dp74
Vclose
p75
(dp76
Vday
p77
I4
sVtime
p78
V2100
p79
ssVopen
p80
(dp81
Vday
p82
I4
sVtime
p83
V0730
p84
ssa(dp85
Vclose
p86
(dp87
Vday
p88
I5
sVtime
p89
V2200
p90
ssVopen
p91
(dp92
Vday
p93
I5
sVtime
p94
V0730
p95
ssa(dp96
Vclose
p97
(dp98
Vday
p99
I6
sVtime
p100
V2200
p101
ssVopen
p102
(dp103
Vday
p104
I6
sVtime
p105
V0730
p106
ssassVvicinity
p107
V39 Pier 39 Concourse #103, San Francisco
p108
sVscope
p109
VGOOGLE
p110
sVwebsite
p111
Vhttp://www.eaglecafe.com/
p112
sVutc_offset
p113
I-420
sVuser_ratings_total
p114
I52
sVphotos
p115
(lp116
(dp117
Vphoto_reference
p118
VCmRdAAAAUx9QjYJ5o5ZGJ_m7du_tgLVH1FSX6UreDPoBKCcVC9O_lx6vAEZuzX7s9rbIAyrvRGBeKEMgGgrUN0UO9nHdsMTIVvDIhW2f2856D2-d7zIYzaPbpv10llkXQdwOGji5EhDILL3nYMRYuxAnFEBe8lZKGhTMBzA8QYeoKBPr_XsPyY80pPK7rw
p119
sVwidth
p120
I2048
sVhtml_attributions
p121
(lp122
V<a href="https://maps.google.com/maps/contrib/106440158739584231841/photos">Yuri Carlenzoli</a>
p123
asVheight
p124
I1536
sa(dp125
Vphoto_reference
p126
VCmRdAAAAWECkqxa5UAOc6IjlN6X-djbhlPjvxIOos6vWiv_eV6iHUJaPoNO_7vXbNxSnRPhD7vzMQYSQ8kGYcq6Tf2Ehjli0zMi3YSYfyraQUO8SsVmREiC7wbWFDn9gKvV5X-PHEhAsofdS6GF99s0GK6_jUB7VGhR8vBCIlbUOXck7fAmjrGwpvOklyw
p127
sVwidth
p128
I1920
sVhtml_attributions
p129
(lp130
V<a href="https://maps.google.com/maps/contrib/112556894913407560793/photos">Tommy Chheng</a>
p131
asVheight
p132
I1280
sa(dp133
Vphoto_reference
p134
VCmRdAAAA1AkuBvFPnOAfafi_DVx4FrH1yFUXXsZSTVJAxkkAdWY7PTxJAP72-QyAjI_-BC48RygrOITiz6shuBCkStuUb7gX9Z09UPocnG932HFKMtfeOOvzRTlJ4FvQFODVb_svEhC0g3mYMHUXpYBiTCx20-MQGhRMTCVEMuFFfUI8-X-cat-TcZw8tA
p135
sVwidth
p136
I800
sVhtml_attributions
p137
(lp138
V<a href="https://maps.google.com/maps/contrib/112556894913407560793/photos">Tommy Chheng</a>
p139
asVheight
p140
I933
sa(dp141
Vphoto_reference
p142
VCoQBcwAAAHh340uGhx8s_yY5Aj6e9C3_DLAKxMTSNOxgyqNDDMKRwLZMCSrXjcYxLdTiUmCt7nTYel2e7g3qyDNb90VQ-Sf0dNu4rqiCgLxn7QNe9CLSuescE9Y4DZka3baQajlCwR-86SIlRa_Ddw7_oCOeYcilgMGNgWzKRHZ6xvMDGLPJEhBvb7pPM3RjWm61-n2vN83hGhSKX4LpaJIzxcFtTAaxCcwaevqxnQ
p143
sVwidth
p144
I4032
sVhtml_attributions
p145
(lp146
V<a href="https://maps.google.com/maps/contrib/115117803283609691312/photos">Michael Graham</a>
p147
asVheight
p148
I3024
sa(dp149
Vphoto_reference
p150
VCmRdAAAAfEkfSSYhWUXVQdr2dc9I-rDqS9jmU9iQH2AqQvN3kxFThPy2fXFLtNGxJuaeYEZLhoqIAm80f42lgihqL6E2FrRwPfjLOXTbVYbFQQan7abJ7CxgipY13U2Ev9_qXY61EhB54TbP-cJ1nhMYA-u2Q4N5GhQF89-rwE_ofycJIfLwBTeB4khC3Q
p151
sVwidth
p152
I800
sVhtml_attributions
p153
(lp154
V<a href="https://maps.google.com/maps/contrib/112556894913407560793/photos">Tommy Chheng</a>
p155
asVheight
p156
I933
sa(dp157
Vphoto_reference
p158
VCmRdAAAAPxT3137BPLPLgVbjDy_UH3NAqdqc2Zo53wYJAzB7NloDhun9sGSxCw0jRkf199wYJ-_y2aTbmHCBQYLiU1VKileJAoBQbQ3JrL1PgNi7m9HgYa0EehE6mHJKfiCNsMkbEhDZOoNtTwyRcnlh22KcPKCQGhR3MMGqdqUBdNNkxCWIMlDEJlTeUQ
p159
sVwidth
p160
I4608
sVhtml_attributions
p161
(lp162
V<a href="https://maps.google.com/maps/contrib/112403078206013975802/photos">MARIANA ANGUIANO</a>
p163
asVheight
p164
I3072
sa(dp165
Vphoto_reference
p166
VCmRdAAAASrJ-D3Ils43KANldXNOiJXBApGWO694OvsLVPXJdsU1ke3_P6QEVgI_Sgf0VOr3SCe9wwiNN79JOKPfNjR1XL0aQ1ukVnLGxyFR0nccS87GS-77OTmmmT3963ppi4cCDEhCrx9mb4m_7cDk3wbzqdT9VGhSCkuxy5WeluD18qqNHL0gSNzvW3A
p167
sVwidth
p168
I720
sVhtml_attributions
p169
(lp170
V<a href="https://maps.google.com/maps/contrib/114671593813519720474/photos">Bob Burke</a>
p171
asVheight
p172
I537
sa(dp173
Vphoto_reference
p174
VCmRdAAAA4-X845_CxAwbbxzEHdDmdoh07L8kQ8gzGudH1K7qphgKQZ7dHa-4NAIqFJezlkc9LA7pJUOSEYd4yz_K_csXw8nvClh9kbSi_laKCkyz1rlcQYZbfMUBN4crYvpMDTwLEhCUs5Q1I72SDCZ6KsBTE8XTGhRPpgOOyfwlIZnKWStt30aAILltHA
p175
sVwidth
p176
I800
sVhtml_attributions
p177
(lp178
V<a href="https://maps.google.com/maps/contrib/112556894913407560793/photos">Tommy Chheng</a>
p179
asVheight
p180
I933
sa(dp181
Vphoto_reference
p182
VCmRdAAAA7wtBIpDVTCQ75pZZ_CSA34mCkCYayCb8yxQT8hFzLtpjFa5d0FiXlqD__qY5fC8BE-zDxeOdwxPeuQzvW8pCHhFZDWsF9_8Fx_O8qcCx-butJBypKSCnnlJ_6byFXWqOEhAp6H2o4GHiPCiOJpyg1H-SGhRwoQo8hWiG2lxUYdZS6fExfVY7hQ
p183
sVwidth
p184
I3072
sVhtml_attributions
p185
(lp186
V<a href="https://maps.google.com/maps/contrib/112403078206013975802/photos">MARIANA ANGUIANO</a>
p187
asVheight
p188
I4608
sa(dp189
Vphoto_reference
p190
VCoQBcwAAAG90sm544rKPA2G5aZf8QIIop4r3LSND7NLkZ5vVqUE-8Zzn5FSYS1cYYR8JDOznzlPT0EoDuwLlUURuofIMygcBcavKCAjlzClojMLxskFZWSGc5YoyGrTBCxGoUlZZUMENtcLE4VUFmgPNUUdgHcR93YGmjTnDGOHzdAy0I0mLEhCiuUEW2dRdLQpsQo-qqVyAGhR2JH00lyPwCoKQM0ew-o1ocfXK5g
p191
sVwidth
p192
I2448
sVhtml_attributions
p193
(lp194
V<a href="https://maps.google.com/maps/contrib/115975762583269038672/photos">Itsuki Asanuma</a>
p195
asVheight
p196
I3264
sasVtypes
p197
(lp198
Vcafe
p199
aVrestaurant
p200
aVfood
p201
aVpoint_of_interest
p202
aVestablishment
p203
asVicon
p204
Vhttps://maps.gstatic.com/mapfiles/place_api/icons/cafe-71.png
p205
sVname
p206
VEagle Cafe
p207
sVgeometry
p208
(dp209
Vlocation
p210
(dp211
Vlat
p212
g3
(S'37.8087767'
tRp213
sVlng
p214
g3
(S'-122.4103166'
tRp215
sssVadr_address
p216
V<span class="street-address">39 Pier 39 Concourse #103</span>, <span class="locality">San Francisco</span>, <span class="region">CA</span> <span class="postal-code">94133</span>, <span class="country-name">United States</span>
p217
sVinternational_phone_number
p218
V+1 415-433-3689
p219
sVreviews
p220
(lp221
(dp222
Vrating
p223
I4
sVaspects
p224
(lp225
(dp226
Vrating
p227
I2
sVtype
p228
Voverall
p229
sasVprofile_photo_url
p230
V//lh5.googleusercontent.com/-J1G5cnuu3eY/AAAAAAAAAAI/AAAAAAAASRA/CfZDm3iZ1CA/photo.jpg
p231
sVlanguage
p232
Ven
p233
sVtext
p234
VHad lunch here during the weekday. Arrived before the lunch rush and were seating quickly. Cute San Franciscan decor and great view of the pier and bay. My mother and I both enjoyed our Cadillac Margaritas. She ordered the Seafood Salad and I had the Waldorf Salad with chicken added. All was good, but nothing outstanding or special. Would recommend if you're in the area looking for something light to eat. 
p235
sVauthor_name
p236
VJen Smith
p237
sVauthor_url
p238
Vhttps://plus.google.com/111787701660699318770
p239
sVtime
p240
I1437112191
sa(dp241
Vrating
p242
I5
sVaspects
p243
(lp244
(dp245
Vrating
p246
I3
sVtype
p247
Voverall
p248
sasVlanguage
p249
Ven
p250
sVtext
p251
VTasty old-fashioned hearty breakfast - omelettes & buttermilk pancakes - gorgeous water views - you can see Alcatraz!
p252
sVauthor_name
p253
VOlliver Gant
p254
sVauthor_url
p255
Vhttps://plus.google.com/109916635321455443963
p256
sVtime
p257
I1458675268
sa(dp258
Vrating
p259
I1
sVaspects
p260
(lp261
(dp262
Vrating
p263
I0
sVtype
p264
Voverall
p265
sasVlanguage
p266
Ven
p267
sVtext
p268
VHorrible. Waiter asked if we were ready. I said yes and he walked away after not asking my woman what she wanted first. After helping 2 groups with their orders we were done. 15 minute wait to that point on a weekday not busy at all. Iced tea tasted horrible . Pier Market was classier.
p269
sVauthor_name
p270
VChad Carter
p271
sVauthor_url
p272
Vhttps://plus.google.com/111362689292041606781
p273
sVtime
p274
I1456968927
sa(dp275
Vrating
p276
I4
sVaspects
p277
(lp278
(dp279
Vrating
p280
I2
sVtype
p281
Voverall
p282
sasVlanguage
p283
Ven
p284
sVtext
p285
VBacon Blue cheeseburger was tasty. Views, if you were sitting on the West side of the room were an added bonus.
p286
sVauthor_name
p287
VTyler Murphy
p288
sVauthor_url
p289
Vhttps://plus.google.com/101986004193289191171
p290
sVtime
p291
I1458753184
sa(dp292
Vrating
p293
I5
sVaspects
p294
(lp295
(dp296
Vrating
p297
I3
sVtype
p298
Voverall
p299
sasVlanguage
p300
Ven
p301
sVtext
p302
VGreat food, great service and not too pricey!  Went there as there was a long queue for the Fog Harbour Fish house and was very pleasantly surprised
p303
sVauthor_name
p304
VViktor M
p305
sVauthor_url
p306
Vhttps://plus.google.com/111979447164481157041
p307
sVtime
p308
I1444615345
sasVformatted_phone_number
p309
V(415) 433-3689
p310
sVaddress_components
p311
(lp312
(dp313
Vlong_name
p314
V103
p315
sVtypes
p316
(lp317
Vsubpremise
p318
asVshort_name
p319
V103
p320
sa(dp321
Vlong_name
p322
V39
p323
sVtypes
p324
(lp325
Vstreet_number
p326
asVshort_name
p327
V39
p328
sa(dp329
Vlong_name
p330
VPier 39 Concourse
p331
sVtypes
p332
(lp333
Vroute
p334
asVshort_name
p335
VPier 39 Concourse
p336
sa(dp337
Vlong_name
p338
VSan Francisco
p339
sVtypes
p340
(lp341
Vlocality
p342
aVpolitical
p343
asVshort_name
p344
VSF
p345
sa(dp346
Vlong_name
p347
VCalifornia
p348
sVtypes
p349
(lp350
Vadministrative_area_level_1
p351
aVpolitical
p352
asVshort_name
p353
VCA
p354
sa(dp355
Vlong_name
p356
VUnited States
p357
sVtypes
p358
(lp359
Vcountry
p360
aVpolitical
p361
asVshort_name
p362
VUS
p363
sa(dp364
Vlong_name
p365
V94133
p366
sVtypes
p367
(lp368
Vpostal_code
p369
asVshort_name
p370
V94133
p371
sas.