(dp1
Vreference
p2
VCnRmAAAAqMXt732IId1KEucXROzWV_jHIfTQjdGUB9SVddGuslAvereNqw2ZxRhj0-fwP2aqRdYkHkP-TWzyMxLblirHkVyUQlBYMI2R46jSrpQaTWhe7sKHftRUq9DFfdoH6X4rTZqPX41J4DHdBnbggRV9BBIQjC7k20b779XRemKLip3GYBoUIRgtBVWw6pZMVreSMK-d8j0wEpw
p3
sVprice_level
p4
I2
sVplace_id
p5
VChIJdYut3AKfj4ARNudMIICsMFc
p6
sVurl
p7
Vhttps://maps.google.com/?cid=6282711146479544118
p8
sVformatted_address
p9
V115 Hillsdale Mall, San Mateo, CA 94403, United States
p10
sVid
p11
V2e0e13a755bf14a2d54656bfa304723291fdff2a
p12
sVopening_hours
p13
(dp14
Vweekday_text
p15
(lp16
VMonday: 10:00 AM \u2013 9:00 PM
p17
aVTuesday: 10:00 AM \u2013 9:00 PM
p18
aVWednesday: 10:00 AM \u2013 9:00 PM
p19
aVThursday: 10:00 AM \u2013 9:00 PM
p20
aVFriday: 10:00 AM \u2013 9:00 PM
p21
aVSaturday: 10:00 AM \u2013 9:00 PM
p22
aVSunday: 11:00 AM \u2013 7:00 PM
p23
asVopen_now
p24
I01
sVperiods
p25
(lp26
(dp27
Vclose
p28
(dp29
Vday
p30
I0
sVtime
p31
V1900
p32
ssVopen
p33
(dp34
Vday
p35
I0
sVtime
p36
V1100
p37
ssa(dp38
Vclose
p39
(dp40
Vday
p41
I1
sVtime
p42
V2100
p43
ssVopen
p44
(dp45
Vday
p46
I1
sVtime
p47
V1000
p48
ssa(dp49
Vclose
p50
(dp51
Vday
p52
I2
sVtime
p53
V2100
p54
ssVopen
p55
(dp56
Vday
p57
I2
sVtime
p58
V1000
p59
ssa(dp60
Vclose
p61
(dp62
Vday
p63
I3
sVtime
p64
V2100
p65
ssVopen
p66
(dp67
Vday
p68
I3
sVtime
p69
V1000
p70
ssa(dp71
Vclose
p72
(dp73
Vday
p74
I4
sVtime
p75
V2100
p76
ssVopen
p77
(dp78
Vday
p79
I4
sVtime
p80
V1000
p81
ssa(dp82
Vclose
p83
(dp84
Vday
p85
I5
sVtime
p86
V2100
p87
ssVopen
p88
(dp89
Vday
p90
I5
sVtime
p91
V1000
p92
ssa(dp93
Vclose
p94
(dp95
Vday
p96
I6
sVtime
p97
V2100
p98
ssVopen
p99
(dp100
Vday
p101
I6
sVtime
p102
V1000
p103
ssassVvicinity
p104
V115 Hillsdale Mall, San Mateo
p105
sVscope
p106
VGOOGLE
p107
sVwebsite
p108
Vhttp://www.express.com/
p109
sVutc_offset
p110
I-420
sVuser_ratings_total
p111
I4
sVphotos
p112
(lp113
(dp114
Vphoto_reference
p115
VCmRdAAAAIxTnAWOPvNtOL5O1RGj2CW1G0YYBzqUs5_jisH5EoEZibeBOpLWSGtSCm0BHNsJK2_4SXNs-qggkzN9fDdqLiadrKjsWE00QrmeFTm_Uh7fRXVYCynGhkVqQS5Ee96eiEhDeP3VKHlC5A8ayAmYm9JSvGhSR5uySkB3z7sQwtRcPw_nHc1YqMQ
p116
sVwidth
p117
I280
sVhtml_attributions
p118
(lp119
V<a href="https://maps.google.com/maps/contrib/118432158297997459137/photos">Express - Hillsdale</a>
p120
asVheight
p121
I280
sasVtypes
p122
(lp123
Vclothing_store
p124
aVstore
p125
aVpoint_of_interest
p126
aVestablishment
p127
asVicon
p128
Vhttps://maps.gstatic.com/mapfiles/place_api/icons/shopping-71.png
p129
sVname
p130
VExpress - Hillsdale
p131
sVgeometry
p132
(dp133
Vaccess_points
p134
(lp135
(dp136
Vtravel_modes
p137
(lp138
VDRIVING
p139
aVBICYCLING
p140
aVWALKING
p141
aVTRANSIT
p142
asVlocation
p143
(dp144
Vlat
p145
cdecimal
Decimal
p146
(S'37.5370504'
tRp147
sVlng
p148
g146
(S'-122.2993478'
tRp149
ssasVlocation
p150
(dp151
Vlat
p152
g146
(S'37.5370996'
tRp153
sVlng
p154
g146
(S'-122.3002221'
tRp155
sssVadr_address
p156
V<span class="street-address">115 Hillsdale Mall</span>, <span class="locality">San Mateo</span>, <span class="region">CA</span> <span class="postal-code">94403</span>, <span class="country-name">United States</span>
p157
sVinternational_phone_number
p158
V+1 650-349-7003
p159
sVreviews
p160
(lp161
(dp162
Vrating
p163
I5
sVaspects
p164
(lp165
(dp166
Vrating
p167
I3
sVtype
p168
Voverall
p169
sasVprofile_photo_url
p170
V//lh3.googleusercontent.com/-9KndTvIBOFQ/AAAAAAAAAAI/AAAAAAAAh_Y/0IdIZxFKLHE/photo.jpg
p171
sVlanguage
p172
Ven
p173
sVtext
p174
VAwesome service by the sales reps. Great prices on their clothes. I would recommend this store to anyone. Lots of city styles and trendy clothes for your wardrobe. 
p175
sVauthor_name
p176
VEmily Rivas
p177
sVauthor_url
p178
Vhttps://plus.google.com/105792167060337884177
p179
sVtime
p180
I1448487562
sa(dp181
Vrating
p182
I3
sVaspects
p183
(lp184
(dp185
Vrating
p186
I1
sVtype
p187
Voverall
p188
sasVprofile_photo_url
p189
V//lh6.googleusercontent.com/-96QJZA_yiIw/AAAAAAAAAAI/AAAAAAAAF1s/UKw0TOzbG6k/photo.jpg
p190
sVlanguage
p191
Ven
p192
sVtext
p193
VI'm a long-time customer of Express, but this location's management is just awful. The last time I shopped there, I wasted a half-hour trying on clothes only to find that my $40 off $120 coupon wouldn't scan correctly. The manager refused to apply the discount manually and insisted that I call customer service instead. Not good for business. I'm not shopping here again.
p194
sVauthor_name
p195
VSeju Bidiwala
p196
sVauthor_url
p197
Vhttps://plus.google.com/114582732563752062652
p198
sVtime
p199
I1366030384
sa(dp200
Vrating
p201
I3
sVaspects
p202
(lp203
(dp204
Vrating
p205
I1
sVtype
p206
Voverall
p207
sasVprofile_photo_url
p208
V//lh3.googleusercontent.com/-ddMWiLJFwB8/AAAAAAAAAAI/AAAAAAAAdLk/yDdlZGRXBys/photo.jpg
p209
sVlanguage
p210
Ven
p211
sVtext
p212
VWhile I was not impressed by their products, the staff was very helpful.
p213
sVauthor_name
p214
VTyler Harding
p215
sVauthor_url
p216
Vhttps://plus.google.com/110357160824479158301
p217
sVtime
p218
I1412735937
sa(dp219
Vrating
p220
I1
sVaspects
p221
(lp222
(dp223
Vrating
p224
I0
sVtype
p225
Voverall
p226
sasVlanguage
p227
Ven
p228
sVtext
p229
VI was in the store the other day the service was horrible. There customer service is very bad. I did not have a pleasant experience. I don't know if I would go back to that specific Express store again. The people that work there are not very friendly.
p230
sVauthor_name
p231
VA Google User
p232
sVtime
p233
I1271297657
sasVformatted_phone_number
p234
V(650) 349-7003
p235
sVaddress_components
p236
(lp237
(dp238
Vlong_name
p239
V115
p240
sVtypes
p241
(lp242
Vstreet_number
p243
asVshort_name
p244
V115
p245
sa(dp246
Vlong_name
p247
VHillsdale Mall
p248
sVtypes
p249
(lp250
Vroute
p251
asVshort_name
p252
VHillsdale Mall
p253
sa(dp254
Vlong_name
p255
VSan Mateo
p256
sVtypes
p257
(lp258
Vlocality
p259
aVpolitical
p260
asVshort_name
p261
VSan Mateo
p262
sa(dp263
Vlong_name
p264
VCalifornia
p265
sVtypes
p266
(lp267
Vadministrative_area_level_1
p268
aVpolitical
p269
asVshort_name
p270
VCA
p271
sa(dp272
Vlong_name
p273
VUnited States
p274
sVtypes
p275
(lp276
Vcountry
p277
aVpolitical
p278
asVshort_name
p279
VUS
p280
sa(dp281
Vlong_name
p282
V94403
p283
sVtypes
p284
(lp285
Vpostal_code
p286
asVshort_name
p287
V94403
p288
sas.