(dp1
Vutc_offset
p2
I-420
sVuser_ratings_total
p3
I1
sVname
p4
VFamous Food Restaurant
p5
sVreference
p6
VCnRqAAAAE1QpU0yABN320LRYJZwlerIOqrJc6WxustQIO6CuDs-FFUvP6LO7hbPf7NCEczsQ4nNAaB_sLi-_E-PSxFvIyfZX-biRCnGmw608Ftmkdkab0yr0TXyXaPaNt1YiUQHr8CWOLeSKbJppWpdADlujrRIQLuR9TFul8OapYT_rm4OpuhoUFZE_JTu-p0ieAvuMsgDic0sgNx8
p7
sVphotos
p8
(lp9
(dp10
Vphoto_reference
p11
VCoQBdwAAAAAlKFMika7ym0Cl2f3XJHGAUb3Qy4GyCdda5tqsuUWItBS_mOLjMIBmA3nXCc27nmsgl3J51tyAbNxhSeszn5g9wZJC2OC_vpMjFCBHOL1muFVqYdlFblq5PFZcHdZQMCO8AjQYiTVI4Z61RtN4KCqAKbBU_TB5NtEWSZFX9kKrEhCCriop-pfLvk8qHfGI5Qu-GhSvM3nDYo1ezeXQOz7SlcdDyP4bRQ
p12
sVwidth
p13
I3264
sVhtml_attributions
p14
(lp15
V<a href="https://maps.google.com/maps/contrib/104860303189890698107/photos">Wai Hon Law</a>
p16
asVheight
p17
I2448
sa(dp18
Vphoto_reference
p19
VCoQBdwAAADQUBf946GFJ-4hXEdmVGaF0zhCEPDAUIxK_RFb8WdM6zlhEGkeqX1U4Sv1kT53sQi3EIvuNEOtroBY-u329bxfik5VZDgdzgz51QK9XUWd7TrVR4ifUE3NiXBGvnRPoceyJJ8CDQKPMNMRp51p00oHj-e0aKAq7SU9xaASLhhq-EhCYBQdo2rYFkOk3oWiJalK0GhSCfpvml8bYyf0bmcG1WPrdvF797w
p20
sVwidth
p21
I3264
sVhtml_attributions
p22
(lp23
V<a href="https://maps.google.com/maps/contrib/104860303189890698107/photos">Wai Hon Law</a>
p24
asVheight
p25
I2448
sasVgeometry
p26
(dp27
Vaccess_points
p28
(lp29
(dp30
Vtravel_modes
p31
(lp32
VDRIVING
p33
aVBICYCLING
p34
aVWALKING
p35
aVTRANSIT
p36
asVlocation
p37
(dp38
Vlat
p39
cdecimal
Decimal
p40
(S'37.3665775'
tRp41
sVlng
p42
g40
(S'-122.0162108'
tRp43
ssasVlocation
p44
(dp45
Vlat
p46
g40
(S'37.36620440000001'
tRp47
sVlng
p48
g40
(S'-122.0162011'
tRp49
sssVadr_address
p50
V<span class="street-address">872 Old San Francisco Rd</span>, <span class="locality">Sunnyvale</span>, <span class="region">CA</span> <span class="postal-code">94086-8101</span>, <span class="country-name">United States</span>
p51
sVplace_id
p52
VChIJCxug4Ay2j4AROJr_grvgSN4
p53
sVinternational_phone_number
p54
V+1 408-738-3388
p55
sVvicinity
p56
V872 Old San Francisco Road, Sunnyvale
p57
sVreviews
p58
(lp59
(dp60
Vrating
p61
I4
sVaspects
p62
(lp63
(dp64
Vrating
p65
I2
sVtype
p66
Voverall
p67
sasVprofile_photo_url
p68
V//lh6.googleusercontent.com/-GRPbvh3sQfY/AAAAAAAAAAI/AAAAAAAAAPI/nG8uVKLdbNI/photo.jpg
p69
sVlanguage
p70
Ven
p71
sVtext
p72
V
sVauthor_name
p73
VWai Hon Law
p74
sVauthor_url
p75
Vhttps://plus.google.com/104860303189890698107
p76
sVtime
p77
I1460958933
sasVformatted_phone_number
p78
V(408) 738-3388
p79
sVscope
p80
VGOOGLE
p81
sVurl
p82
Vhttps://maps.google.com/?cid=16017299170704464440
p83
sVopening_hours
p84
(dp85
Vweekday_text
p86
(lp87
VMonday: 11:30 AM \u2013 2:00 PM, 5:00 \u2013 10:00 PM
p88
aVTuesday: 11:30 AM \u2013 2:00 PM
p89
aVWednesday: 11:30 AM \u2013 2:00 PM, 5:00 \u2013 10:00 PM
p90
aVThursday: 11:30 AM \u2013 2:00 PM, 5:00 \u2013 10:00 PM
p91
aVFriday: 11:30 AM \u2013 2:00 PM, 5:00 \u2013 10:00 PM
p92
aVSaturday: 11:30 AM \u2013 2:00 PM, 5:00 \u2013 10:00 PM
p93
aVSunday: 11:30 AM \u2013 2:00 PM, 5:00 \u2013 10:00 PM
p94
asVopen_now
p95
I01
sVperiods
p96
(lp97
(dp98
Vclose
p99
(dp100
Vday
p101
I0
sVtime
p102
V1400
p103
ssVopen
p104
(dp105
Vday
p106
I0
sVtime
p107
V1130
p108
ssa(dp109
Vclose
p110
(dp111
Vday
p112
I0
sVtime
p113
V2200
p114
ssVopen
p115
(dp116
Vday
p117
I0
sVtime
p118
V1700
p119
ssa(dp120
Vclose
p121
(dp122
Vday
p123
I1
sVtime
p124
V1400
p125
ssVopen
p126
(dp127
Vday
p128
I1
sVtime
p129
V1130
p130
ssa(dp131
Vclose
p132
(dp133
Vday
p134
I1
sVtime
p135
V2200
p136
ssVopen
p137
(dp138
Vday
p139
I1
sVtime
p140
V1700
p141
ssa(dp142
Vclose
p143
(dp144
Vday
p145
I2
sVtime
p146
V1400
p147
ssVopen
p148
(dp149
Vday
p150
I2
sVtime
p151
V1130
p152
ssa(dp153
Vclose
p154
(dp155
Vday
p156
I3
sVtime
p157
V1400
p158
ssVopen
p159
(dp160
Vday
p161
I3
sVtime
p162
V1130
p163
ssa(dp164
Vclose
p165
(dp166
Vday
p167
I3
sVtime
p168
V2200
p169
ssVopen
p170
(dp171
Vday
p172
I3
sVtime
p173
V1700
p174
ssa(dp175
Vclose
p176
(dp177
Vday
p178
I4
sVtime
p179
V1400
p180
ssVopen
p181
(dp182
Vday
p183
I4
sVtime
p184
V1130
p185
ssa(dp186
Vclose
p187
(dp188
Vday
p189
I4
sVtime
p190
V2200
p191
ssVopen
p192
(dp193
Vday
p194
I4
sVtime
p195
V1700
p196
ssa(dp197
Vclose
p198
(dp199
Vday
p200
I5
sVtime
p201
V1400
p202
ssVopen
p203
(dp204
Vday
p205
I5
sVtime
p206
V1130
p207
ssa(dp208
Vclose
p209
(dp210
Vday
p211
I5
sVtime
p212
V2200
p213
ssVopen
p214
(dp215
Vday
p216
I5
sVtime
p217
V1700
p218
ssa(dp219
Vclose
p220
(dp221
Vday
p222
I6
sVtime
p223
V1400
p224
ssVopen
p225
(dp226
Vday
p227
I6
sVtime
p228
V1130
p229
ssa(dp230
Vclose
p231
(dp232
Vday
p233
I6
sVtime
p234
V2200
p235
ssVopen
p236
(dp237
Vday
p238
I6
sVtime
p239
V1700
p240
ssassVaddress_components
p241
(lp242
(dp243
Vlong_name
p244
V872
p245
sVtypes
p246
(lp247
Vstreet_number
p248
asVshort_name
p249
V872
p250
sa(dp251
Vlong_name
p252
VOld San Francisco Road
p253
sVtypes
p254
(lp255
Vroute
p256
asVshort_name
p257
VOld San Francisco Rd
p258
sa(dp259
Vlong_name
p260
VSunnyvale
p261
sVtypes
p262
(lp263
Vlocality
p264
aVpolitical
p265
asVshort_name
p266
VSunnyvale
p267
sa(dp268
Vlong_name
p269
VCalifornia
p270
sVtypes
p271
(lp272
Vadministrative_area_level_1
p273
aVpolitical
p274
asVshort_name
p275
VCA
p276
sa(dp277
Vlong_name
p278
VUnited States
p279
sVtypes
p280
(lp281
Vcountry
p282
aVpolitical
p283
asVshort_name
p284
VUS
p285
sa(dp286
Vlong_name
p287
V94086
p288
sVtypes
p289
(lp290
Vpostal_code
p291
asVshort_name
p292
V94086
p293
sa(dp294
Vlong_name
p295
V8101
p296
sVtypes
p297
(lp298
Vpostal_code_suffix
p299
asVshort_name
p300
V8101
p301
sasVformatted_address
p302
V872 Old San Francisco Rd, Sunnyvale, CA 94086, United States
p303
sVid
p304
V4cf7798ec5eca13c003c980ebbff3cbc927e5514
p305
sVtypes
p306
(lp307
Vcafe
p308
aVrestaurant
p309
aVfood
p310
aVpoint_of_interest
p311
aVestablishment
p312
asVicon
p313
Vhttps://maps.gstatic.com/mapfiles/place_api/icons/restaurant-71.png
p314
s.