(dp1
Vrating
p2
cdecimal
Decimal
p3
(S'4.4'
tRp4
sVreference
p5
VCmRfAAAAuOgC0pNQ-2On54393Gdkz6wiqOIwIuOJAlsea7OxeGNZi9v5D7w88_jMc48rffJAtu4KGoOYJ8w0M_gy_bxhAmE7rcEJDUPabtKCA780KOG73BHSVb55CF5rucAb_DODEhDNPFPFCt_9f-TYPnvj5iqPGhRcldiwNkhfu5m19EP-9CzqpIKBCg
p6
sVplace_id
p7
VChIJCZfXbumkj4AR1p2me3o8urg
p8
sVurl
p9
Vhttps://maps.google.com/?cid=13311018145405115862
p10
sVformatted_address
p11
V3607 Alameda de las Pulgas, Menlo Park, CA 94025, United States
p12
sVid
p13
Vae2445907402775334cdafa453b5331a8976d892
p14
sVopening_hours
p15
(dp16
Vweekday_text
p17
(lp18
VMonday: Closed
p19
aVTuesday: 5:30 \u2013 9:30 PM
p20
aVWednesday: 5:30 \u2013 9:30 PM
p21
aVThursday: 5:30 \u2013 9:30 PM
p22
aVFriday: 5:30 \u2013 9:30 PM
p23
aVSaturday: 5:30 \u2013 9:30 PM
p24
aVSunday: 5:30 \u2013 9:30 PM
p25
asVopen_now
p26
I01
sVperiods
p27
(lp28
(dp29
Vclose
p30
(dp31
Vday
p32
I0
sVtime
p33
V2130
p34
ssVopen
p35
(dp36
Vday
p37
I0
sVtime
p38
V1730
p39
ssa(dp40
Vclose
p41
(dp42
Vday
p43
I2
sVtime
p44
V2130
p45
ssVopen
p46
(dp47
Vday
p48
I2
sVtime
p49
V1730
p50
ssa(dp51
Vclose
p52
(dp53
Vday
p54
I3
sVtime
p55
V2130
p56
ssVopen
p57
(dp58
Vday
p59
I3
sVtime
p60
V1730
p61
ssa(dp62
Vclose
p63
(dp64
Vday
p65
I4
sVtime
p66
V2130
p67
ssVopen
p68
(dp69
Vday
p70
I4
sVtime
p71
V1730
p72
ssa(dp73
Vclose
p74
(dp75
Vday
p76
I5
sVtime
p77
V2130
p78
ssVopen
p79
(dp80
Vday
p81
I5
sVtime
p82
V1730
p83
ssa(dp84
Vclose
p85
(dp86
Vday
p87
I6
sVtime
p88
V2130
p89
ssVopen
p90
(dp91
Vday
p92
I6
sVtime
p93
V1730
p94
ssassVvicinity
p95
V3607 Alameda de las Pulgas, Menlo Park
p96
sVscope
p97
VGOOGLE
p98
sVwebsite
p99
Vhttp://www.cooleatz.com/flea-st-cafe/index.html
p100
sVutc_offset
p101
I-420
sVuser_ratings_total
p102
I80
sVphotos
p103
(lp104
(dp105
Vphoto_reference
p106
VCmRdAAAAyUkZCdFqqfIpzYrBz8WxbyuI2iulMg-nLBrZ5OuJDNXy-_VahNMssCn_V3GNel026BgCqpBtS6dB-kxvLn-sDvuEppp2_AEzTKDFRGEqXYn5GImXopXSku6DRfLaB5PmEhA4qpZwcr23TukH9suhuvE0GhQSLwzaRdjn7UsqSjeIiB19AhPe4g
p107
sVwidth
p108
I3264
sVhtml_attributions
p109
(lp110
V<a href="https://maps.google.com/maps/contrib/117459156716716497177/photos">Jeff Lawi</a>
p111
asVheight
p112
I2448
sa(dp113
Vphoto_reference
p114
VCmRdAAAAQVAG8U_KT7eeZu8iX3_sm4FLrLabwokO9E7LvXk_1ql2JDsT5AfDSXX73zYjLq7LJ6dO0xgOdBTANkisXjANLZv0K7bhggF36LeVtaA0DIPTt6IjFFL7zgY3UGQNMWAeEhAth7Q-IhJoPsFR3XfYKyMtGhThCyUSYKjdxyYLaM90SJvOu0UzmA
p115
sVwidth
p116
I4000
sVhtml_attributions
p117
(lp118
V<a href="https://maps.google.com/maps/contrib/108320224573839197933/photos">Randy F.</a>
p119
asVheight
p120
I3000
sa(dp121
Vphoto_reference
p122
VCmRdAAAATiAUAHt6mxmDwSWMWp-2i69Wp_YFtgZWDtHnpJjMugoGo1JoR0PQHd0CmCDv_qSLEkWu2spRqthhSsmmVAYKTEuB0S1UyVdexDXFKvNPcKaHt3_2RSdbRLEbFUkOSPHAEhD_GaHEP6FHNegH5e8Q6NyqGhQJuEudULuzPoCkjG0kO47jDhy2-Q
p123
sVwidth
p124
I4000
sVhtml_attributions
p125
(lp126
V<a href="https://maps.google.com/maps/contrib/108320224573839197933/photos">Randy F.</a>
p127
asVheight
p128
I3000
sa(dp129
Vphoto_reference
p130
VCmRdAAAAT17q94EopXRNVJRrm0JoyM091FGOVbnd0MuwcghPVLkqApxQXF-ueTz_kEh3KZ_5tx4426hDl-LnaEWn9JqvSgBPnXFL-spKNtiEXHmXuCCKvX__MZhB4-V9GMaTHK09EhAOUWogjiaTME9L3RP9Va7LGhRUHvlmbYkIS8Otd5DimbdYC4ecQg
p131
sVwidth
p132
I2048
sVhtml_attributions
p133
(lp134
V<a href="https://maps.google.com/maps/contrib/107106509482391103083/photos">Kristin C.</a>
p135
asVheight
p136
I1536
sa(dp137
Vphoto_reference
p138
VCmRdAAAACd79qXEAWP0YWqzc2BcttuLX67X3Q1Wd2gbS46wXPZ1pGQVYNI2I3jAcjdB_xP7pMH6flNB8kDVlmWIhZmTQdT3FzeV80dkDJ35GgArhTuFLdxbT0Klh9RSEhwj152DvEhCdVQeNx9tmtiBOU2aV0EO4GhTpWBa0UgLlXnx1Wdx-sUX-PZs3Lg
p139
sVwidth
p140
I2448
sVhtml_attributions
p141
(lp142
V<a href="https://maps.google.com/maps/contrib/116124441731421603250/photos">Jeff Lawi</a>
p143
asVheight
p144
I2448
sa(dp145
Vphoto_reference
p146
VCmRdAAAA4Y14BeOR0oAPEjJKY4XGik4Q4J0tVsslpo4dUKylsU90uIjKxuiTY4SbTw0XLfiqS7dE6stRGRUdQhjbxEmhiItnE5W97OpkhNISyzorQ506kUq8dDWoGI7EmfiedYSwEhDHNKmuY5F82i9jFFQExxsMGhRQn9j_WwfH22f9oSQkw_YwyQ0sng
p147
sVwidth
p148
I1536
sVhtml_attributions
p149
(lp150
V<a href="https://maps.google.com/maps/contrib/107106509482391103083/photos">Kristin C.</a>
p151
asVheight
p152
I2048
sa(dp153
Vphoto_reference
p154
VCmRdAAAARfZEWOJx6TW6Onf0zOD6VSvVv0YcOmK6NDggfaxw4E37cAN-qbJlLj4xztPAQ8Ex45Enm52tIvB-sl3H8EJJYgJveT0mMFeW4ZA7a3e_nINacJxyAB16hd6lw9o_vhB4EhBcZ2KU0ikh5hHi6ix2B7uhGhTzXHUanqcCDw9-k8yETw0PXhE2Gg
p155
sVwidth
p156
I3264
sVhtml_attributions
p157
(lp158
V<a href="https://maps.google.com/maps/contrib/117459156716716497177/photos">Jeff Lawi</a>
p159
asVheight
p160
I2448
sa(dp161
Vphoto_reference
p162
VCmRdAAAAkebyo7Y794d8JKYnn6VscHAUlKSSDN7lomYPrxmCFiYCNrtjyoNY211dT3xRAEsE1qTdM4FZu2n_1rsMbVZtKSyn5ZplBTeSirbXT69T6uXfbP03n-KFQsxuxRyP_hDWEhC3DBuH_yVlvPWPYixB8jMsGhS8XBHe55vpwfo-1ocd68fD4cgxSQ
p163
sVwidth
p164
I2048
sVhtml_attributions
p165
(lp166
V<a href="https://maps.google.com/maps/contrib/116124441731421603250/photos">Jeff Lawi</a>
p167
asVheight
p168
I1536
sa(dp169
Vphoto_reference
p170
VCmRdAAAArHJqE21n7C1xf35ZrsV7i7-AbJRvUUzDO6k5Yf6-Ot2bX15C2IOqCigh8mzDk0tEAuefhui1qil87JlLQX7qBognnYeg-6rmK9EO0qy4vjXaTbr5vQ0mg_EeZICj5vkpEhBDwvmY3HJmEaBSoKGMm0WqGhSmFC6YKoZ-cE_vQq-8jZA5GUnVRg
p171
sVwidth
p172
I1296
sVhtml_attributions
p173
(lp174
V<a href="https://maps.google.com/maps/contrib/115584845914183643191/photos">Jade Wang</a>
p175
asVheight
p176
I972
sa(dp177
Vphoto_reference
p178
VCmRdAAAAy1XbvS9cDff4WuCZ8vjLWC_9UZgjxm4JuffSywB-ZAxCDmhRyGvuyn4abtkt541T8-cMrUqKZYE0JeP1ZImoI1YJht7vK_bXnHuQWVVAUR0kmdSJJQHyUqTx_zgCbPbpEhDjAUIdusLLV6Ow8Kpo6cfPGhTA-XI9x8D2ooFssqAYase1KfCiOw
p179
sVwidth
p180
I1296
sVhtml_attributions
p181
(lp182
V<a href="https://maps.google.com/maps/contrib/115584845914183643191/photos">Jade Wang</a>
p183
asVheight
p184
I972
sasVtypes
p185
(lp186
Vrestaurant
p187
aVfood
p188
aVpoint_of_interest
p189
aVestablishment
p190
asVicon
p191
Vhttps://maps.gstatic.com/mapfiles/place_api/icons/restaurant-71.png
p192
sVname
p193
VFlea Street
p194
sVgeometry
p195
(dp196
Vaccess_points
p197
(lp198
(dp199
Vtravel_modes
p200
(lp201
VDRIVING
p202
aVBICYCLING
p203
aVWALKING
p204
aVTRANSIT
p205
asVlocation
p206
(dp207
Vlat
p208
g3
(S'37.4316354'
tRp209
sVlng
p210
g3
(S'-122.2012837'
tRp211
ssasVlocation
p212
(dp213
Vlat
p214
g3
(S'37.431814'
tRp215
sVlng
p216
g3
(S'-122.2011261'
tRp217
sssVadr_address
p218
V<span class="street-address">3607 Alameda de las Pulgas</span>, <span class="locality">Menlo Park</span>, <span class="region">CA</span> <span class="postal-code">94025</span>, <span class="country-name">United States</span>
p219
sVinternational_phone_number
p220
V+1 650-854-1226
p221
sVreviews
p222
(lp223
(dp224
Vrating
p225
I4
sVaspects
p226
(lp227
(dp228
Vrating
p229
I2
sVtype
p230
Voverall
p231
sasVprofile_photo_url
p232
V//lh4.googleusercontent.com/-nkbsZMS96oM/AAAAAAAAAAI/AAAAAAAAAAA/QXbPdacoI6k/photo.jpg
p233
sVlanguage
p234
Ven
p235
sVtext
p236
VGreat food and service. I loved the smoked trout, which is a bit like DIY nachos. My only complaint is that they won't seat you until your entire party is there, and the bar (where they ask you to wait) is very small, with about a dozen seats. 
p237
sVauthor_name
p238
VAnne Mason
p239
sVauthor_url
p240
Vhttps://plus.google.com/100000106576186066497
p241
sVtime
p242
I1457824216
sa(dp243
Vrating
p244
I5
sVaspects
p245
(lp246
(dp247
Vrating
p248
I3
sVtype
p249
Voverall
p250
sasVprofile_photo_url
p251
V//lh4.googleusercontent.com/-Gx-XDTk7rsQ/AAAAAAAAAAI/AAAAAAAAABk/pCpOGiw3qYU/photo.jpg
p252
sVlanguage
p253
Ven
p254
sVtext
p255
VThey've done it again. I'm in town once per month for business. I reserve far in advance and am thrilled and delighted each time by the food, service, and ambiance. Many kind and wonderful thanks are due to Jessie for her leadership in the food systems movement 
p256
sVauthor_name
p257
VKeecha Harris
p258
sVauthor_url
p259
Vhttps://plus.google.com/114211736386127655311
p260
sVtime
p261
I1461122575
sa(dp262
Vrating
p263
I5
sVaspects
p264
(lp265
(dp266
Vrating
p267
I3
sVtype
p268
Voverall
p269
sasVprofile_photo_url
p270
V//lh4.googleusercontent.com/-AiRU80mCTx8/AAAAAAAAAAI/AAAAAAAAOMM/-TqSkGufZn0/photo.jpg
p271
sVlanguage
p272
Ven
p273
sVtext
p274
VRemiss to say, but the Buffalo Soldier cocktail was fantastic. As was the gnocchi. Great presentation and deep flavors throughout the menu. Really a sort of dress up or professional casual sort of quiet place with a quite friendly staff. 
p275
sVauthor_name
p276
VPhil Dalencour
p277
sVauthor_url
p278
Vhttps://plus.google.com/115302446200029347618
p279
sVtime
p280
I1455351057
sa(dp281
Vrating
p282
I5
sVaspects
p283
(lp284
(dp285
Vrating
p286
I3
sVtype
p287
Voverall
p288
sasVprofile_photo_url
p289
V//lh6.googleusercontent.com/-VMZRBV8Csko/AAAAAAAAAAI/AAAAAAAAvw8/jTKM4nIMHuw/photo.jpg
p290
sVlanguage
p291
Ven
p292
sVtext
p293
VOne of the best restaurants in the south bay.  Their bread is outstanding, as is their lavendar cocktail.  Of course, the food is also standout - and is updated quite often with whatever is in season
p294
sVauthor_name
p295
VJeff Lawi
p296
sVauthor_url
p297
Vhttps://plus.google.com/116124441731421603250
p298
sVtime
p299
I1450933240
sa(dp300
Vrating
p301
I2
sVaspects
p302
(lp303
(dp304
Vrating
p305
I0
sVtype
p306
Voverall
p307
sasVprofile_photo_url
p308
V//lh4.googleusercontent.com/-unp71jCDFSM/AAAAAAAAAAI/AAAAAAAABGc/7BNWUMPgLvk/photo.jpg
p309
sVlanguage
p310
Ven
p311
sVtext
p312
VJust had my birthday dinner with my husband and 15 year old daughter. The $400 tab wouldn't be so crazy if our meal was good, but each of us were not thrilled for various reasons ranging from sauce-smothered fish dish to totally flavorless braised ribs (how is that even possible?). I've been coming for years but this was my last time. 
p313
sVauthor_name
p314
VOlenka Steciw Villarreal
p315
sVauthor_url
p316
Vhttps://plus.google.com/109014691142965937357
p317
sVtime
p318
I1446873718
sasVformatted_phone_number
p319
V(650) 854-1226
p320
sVaddress_components
p321
(lp322
(dp323
Vlong_name
p324
V3607
p325
sVtypes
p326
(lp327
Vstreet_number
p328
asVshort_name
p329
V3607
p330
sa(dp331
Vlong_name
p332
VAlameda de las Pulgas
p333
sVtypes
p334
(lp335
Vroute
p336
asVshort_name
p337
VAlameda de las Pulgas
p338
sa(dp339
Vlong_name
p340
VMenlo Park
p341
sVtypes
p342
(lp343
Vlocality
p344
aVpolitical
p345
asVshort_name
p346
VMenlo Park
p347
sa(dp348
Vlong_name
p349
VCalifornia
p350
sVtypes
p351
(lp352
Vadministrative_area_level_1
p353
aVpolitical
p354
asVshort_name
p355
VCA
p356
sa(dp357
Vlong_name
p358
VUnited States
p359
sVtypes
p360
(lp361
Vcountry
p362
aVpolitical
p363
asVshort_name
p364
VUS
p365
sa(dp366
Vlong_name
p367
V94025
p368
sVtypes
p369
(lp370
Vpostal_code
p371
asVshort_name
p372
V94025
p373
sas.