(dp1
Vwebsite
p2
Vhttp://www.freepeople.com/store-locations/stores-walnut-creek
p3
sVutc_offset
p4
I-420
sVuser_ratings_total
p5
I3
sVname
p6
VFree People
p7
sVreference
p8
VCmRfAAAAjijSBk7yQ0QUdaYjlnU5xwiAih4BUwOJ2MdERaLgIIcqiMEi2NwS0UdGO2t67ADR3V5dLZFwQcdXqjoFALDNhex_t5drTcvnI48ir5weuSfxj0HfGdREtg4ffBf0NWwmEhDJ08CIEskt2dk2cea_41H6GhSDmki5BkMTdLgnMvG5WYE8aVuHig
p9
sVphotos
p10
(lp11
(dp12
Vphoto_reference
p13
VCmRdAAAAVAj2JnpdSS2TlcY8c7VqokFtvIt4gAoyY7QBPASEuaRLIM4p9VfJ73k4zOP9tv9VrSiGeCY02owZ95-CqUWs-Tn186MUn6OnKl8X0jh4RXS6IYApB40Mo9kCX_sX5CxFEhDPs8yBIUARSjDt34UWG3EpGhSNY049-cVMXPVVElAjf9B0Txe2YA
p14
sVwidth
p15
I788
sVhtml_attributions
p16
(lp17
V<a href="https://maps.google.com/maps/contrib/113128194413168959173/photos">Free People</a>
p18
asVheight
p19
I580
sa(dp20
Vphoto_reference
p21
VCmRdAAAA-xZ140Vy3OOy6w9WSbyo8Rw7DLGpZzHP6ZWfSnbZzbeIT5-akbrK-I3X-G4BHBd1uN4n8RPty91E9R3USLnxK2vblXkK-Z2kpnN_a8dyGRQF3CrkWN07q7IeetvoyMEqEhAtZcMepCChpytgY0h_K1T8GhQC4e4CgsvxlyHYmA-VqY267Felnw
p22
sVwidth
p23
I250
sVhtml_attributions
p24
(lp25
V<a href="https://maps.google.com/maps/contrib/113128194413168959173/photos">Free People</a>
p26
asVheight
p27
I250
sasVgeometry
p28
(dp29
Vaccess_points
p30
(lp31
(dp32
Vtravel_modes
p33
(lp34
VDRIVING
p35
aVBICYCLING
p36
aVWALKING
p37
aVTRANSIT
p38
asVlocation
p39
(dp40
Vlat
p41
cdecimal
Decimal
p42
(S'37.8962025'
tRp43
sVlng
p44
g42
(S'-122.0608639'
tRp45
ssasVlocation
p46
(dp47
Vlat
p48
g42
(S'37.896337'
tRp49
sVlng
p50
g42
(S'-122.0608903'
tRp51
sssVadr_address
p52
V<span class="street-address">1540 Olympic Blvd</span>, <span class="locality">Walnut Creek</span>, <span class="region">CA</span> <span class="postal-code">94596</span>, <span class="country-name">United States</span>
p53
sVplace_id
p54
VChIJFV0G_sFhhYARc_HnIHuNBLA
p55
sVinternational_phone_number
p56
V+1 925-952-8426
p57
sVvicinity
p58
V1540 Olympic Boulevard, Walnut Creek
p59
sVreviews
p60
(lp61
(dp62
Vrating
p63
I5
sVaspects
p64
(lp65
(dp66
Vrating
p67
I3
sVtype
p68
Voverall
p69
sasVprofile_photo_url
p70
V//lh3.googleusercontent.com/-ZG4ttOYXnxE/AAAAAAAAAAI/AAAAAAAAACI/rBPyb-R-0xo/photo.jpg
p71
sVlanguage
p72
Ven
p73
sVtext
p74
VLove the positive messages on your products. Great experience as always.
p75
sVauthor_name
p76
VJennie Racine
p77
sVauthor_url
p78
Vhttps://plus.google.com/105219469644946844895
p79
sVtime
p80
I1450625617
sa(dp81
Vrating
p82
I5
sVaspects
p83
(lp84
(dp85
Vrating
p86
I3
sVtype
p87
Voverall
p88
sasVprofile_photo_url
p89
V//lh4.googleusercontent.com/-ecpY773OwY0/AAAAAAAAAAI/AAAAAAAAEV4/R7hPz6KWqbc/photo.jpg
p90
sVlanguage
p91
Ven
p92
sVtext
p93
VIt was awesome I love everything that I got from their I'm excited to wear my new clothing\U0001f601\U0001f604\U0001f609\U0001f49c\U0001f499\U0001f49a\U0001f49b\U0001f497\U0001f44c
p94
sVauthor_name
p95
VNatalia Sauceda
p96
sVauthor_url
p97
Vhttps://plus.google.com/102510303648414040537
p98
sVtime
p99
I1400569260
sa(dp100
Vrating
p101
I3
sVaspects
p102
(lp103
(dp104
Vrating
p105
I1
sVtype
p106
Voverall
p107
sasVprofile_photo_url
p108
V//lh3.googleusercontent.com/-2HqKBZmIEFs/AAAAAAAAAAI/AAAAAAAAbZs/uFV4vium2kE/photo.jpg
p109
sVlanguage
p110
Ven
p111
sVtext
p112
VMostly garb for young women, skimpy, tiny sizes.  Cute designs if you are under a size 8. Otherwise go somewhere else!
p113
sVauthor_name
p114
VYoni Mayeri
p115
sVauthor_url
p116
Vhttps://plus.google.com/105820450885180571966
p117
sVtime
p118
I1407174288
sasVformatted_phone_number
p119
V(925) 952-8426
p120
sVscope
p121
VGOOGLE
p122
sVurl
p123
Vhttps://maps.google.com/?cid=12683418010554724723
p124
sVopening_hours
p125
(dp126
Vweekday_text
p127
(lp128
VMonday: 10:00 AM \u2013 8:00 PM
p129
aVTuesday: 10:00 AM \u2013 8:00 PM
p130
aVWednesday: 10:00 AM \u2013 8:00 PM
p131
aVThursday: 10:00 AM \u2013 8:00 PM
p132
aVFriday: 10:00 AM \u2013 8:00 PM
p133
aVSaturday: 10:00 AM \u2013 8:00 PM
p134
aVSunday: 11:00 AM \u2013 6:00 PM
p135
asVopen_now
p136
I01
sVperiods
p137
(lp138
(dp139
Vclose
p140
(dp141
Vday
p142
I0
sVtime
p143
V1800
p144
ssVopen
p145
(dp146
Vday
p147
I0
sVtime
p148
V1100
p149
ssa(dp150
Vclose
p151
(dp152
Vday
p153
I1
sVtime
p154
V2000
p155
ssVopen
p156
(dp157
Vday
p158
I1
sVtime
p159
V1000
p160
ssa(dp161
Vclose
p162
(dp163
Vday
p164
I2
sVtime
p165
V2000
p166
ssVopen
p167
(dp168
Vday
p169
I2
sVtime
p170
V1000
p171
ssa(dp172
Vclose
p173
(dp174
Vday
p175
I3
sVtime
p176
V2000
p177
ssVopen
p178
(dp179
Vday
p180
I3
sVtime
p181
V1000
p182
ssa(dp183
Vclose
p184
(dp185
Vday
p186
I4
sVtime
p187
V2000
p188
ssVopen
p189
(dp190
Vday
p191
I4
sVtime
p192
V1000
p193
ssa(dp194
Vclose
p195
(dp196
Vday
p197
I5
sVtime
p198
V2000
p199
ssVopen
p200
(dp201
Vday
p202
I5
sVtime
p203
V1000
p204
ssa(dp205
Vclose
p206
(dp207
Vday
p208
I6
sVtime
p209
V2000
p210
ssVopen
p211
(dp212
Vday
p213
I6
sVtime
p214
V1000
p215
ssassVaddress_components
p216
(lp217
(dp218
Vlong_name
p219
V1540
p220
sVtypes
p221
(lp222
Vstreet_number
p223
asVshort_name
p224
V1540
p225
sa(dp226
Vlong_name
p227
VOlympic Boulevard
p228
sVtypes
p229
(lp230
Vroute
p231
asVshort_name
p232
VOlympic Blvd
p233
sa(dp234
Vlong_name
p235
VWalnut Creek
p236
sVtypes
p237
(lp238
Vlocality
p239
aVpolitical
p240
asVshort_name
p241
VWalnut Creek
p242
sa(dp243
Vlong_name
p244
VCalifornia
p245
sVtypes
p246
(lp247
Vadministrative_area_level_1
p248
aVpolitical
p249
asVshort_name
p250
VCA
p251
sa(dp252
Vlong_name
p253
VUnited States
p254
sVtypes
p255
(lp256
Vcountry
p257
aVpolitical
p258
asVshort_name
p259
VUS
p260
sa(dp261
Vlong_name
p262
V94596
p263
sVtypes
p264
(lp265
Vpostal_code
p266
asVshort_name
p267
V94596
p268
sasVformatted_address
p269
V1540 Olympic Blvd, Walnut Creek, CA 94596, United States
p270
sVid
p271
V2cfbde4e19557e9f1e8843fa1212a414b108cb21
p272
sVtypes
p273
(lp274
Vclothing_store
p275
aVstore
p276
aVpoint_of_interest
p277
aVestablishment
p278
asVicon
p279
Vhttps://maps.gstatic.com/mapfiles/place_api/icons/shopping-71.png
p280
s.