(dp1
Vrating
p2
cdecimal
Decimal
p3
(S'4.3'
tRp4
sVreference
p5
VCnRkAAAAQaNzL8LjVw_lNWyn5oWQGoF0B4BmkR-kkOMP4l9eRl8YjxqOFvNb455gIfdTZSU0o3sD7G3SQIAlEma1bDIhcQduFSBP9O4Ce74WWT74VqoHSBLLaS3TlZyUUYY6f-OHofkYcMC-raUKduRwitfhgxIQfaVsc9pQdqn9eVGPm8wnTxoUJ4kPEMemjsNbAqUl31_72k7_IDM
p6
sVplace_id
p7
VChIJ9SlCdnZ-j4AR86EzE6c9NY8
p8
sVurl
p9
Vhttps://maps.google.com/?cid=10319221908980343283
p10
sVformatted_address
p11
VElk St, San Francisco, CA 94127, United States
p12
sVid
p13
Ve2848d45811610341dda8a99fb48a1a6317e09ae
p14
sVopening_hours
p15
(dp16
Vweekday_text
p17
(lp18
VMonday: Closed
p19
aVTuesday: 9:00 AM \u2013 9:00 PM
p20
aVWednesday: 9:00 AM \u2013 9:00 PM
p21
aVThursday: 9:00 AM \u2013 9:00 PM
p22
aVFriday: 9:00 AM \u2013 9:00 PM
p23
aVSaturday: 9:00 AM \u2013 5:00 PM
p24
aVSunday: Closed
p25
asVopen_now
p26
I00
sVperiods
p27
(lp28
(dp29
Vclose
p30
(dp31
Vday
p32
I2
sVtime
p33
V2100
p34
ssVopen
p35
(dp36
Vday
p37
I2
sVtime
p38
V0900
p39
ssa(dp40
Vclose
p41
(dp42
Vday
p43
I3
sVtime
p44
V2100
p45
ssVopen
p46
(dp47
Vday
p48
I3
sVtime
p49
V0900
p50
ssa(dp51
Vclose
p52
(dp53
Vday
p54
I4
sVtime
p55
V2100
p56
ssVopen
p57
(dp58
Vday
p59
I4
sVtime
p60
V0900
p61
ssa(dp62
Vclose
p63
(dp64
Vday
p65
I5
sVtime
p66
V2100
p67
ssVopen
p68
(dp69
Vday
p70
I5
sVtime
p71
V0900
p72
ssa(dp73
Vclose
p74
(dp75
Vday
p76
I6
sVtime
p77
V1700
p78
ssVopen
p79
(dp80
Vday
p81
I6
sVtime
p82
V0900
p83
ssassVvicinity
p84
VElk Street, San Francisco
p85
sVscope
p86
VGOOGLE
p87
sVwebsite
p88
Vhttp://sfrecpark.org/venue/glen-canyon-park/
p89
sVutc_offset
p90
I-420
sVuser_ratings_total
p91
I35
sVphotos
p92
(lp93
(dp94
Vphoto_reference
p95
VCmRdAAAA8yssSSm0iU5BQcTjBU7V4n-pnm_OK8owtvwkKFwvGs_5jUO4z2DLwfcRqaT8tBerdEa556H9Ia_VYka-8Y0D-r3Qx5ydRFwTEqIAR9_k8BYhilT4OnCbPb0y-YM5l29KEhCyWcpAmu2Wqoi8mm4OaC6UGhRwRFiz8_89ld19PrbalACQOQjXgw
p96
sVwidth
p97
I2048
sVhtml_attributions
p98
(lp99
V<a href="https://maps.google.com/maps/contrib/109620309031717855085/photos">Jean-Richard Lai</a>
p100
asVheight
p101
I1365
sa(dp102
Vphoto_reference
p103
VCmRdAAAAvfocNY971r0kMMM2C1OYYvXxmcExH7KyfUaBgFLVQq8Ey9p3FD5xFiWF0lNjj9zJ9A9LRxkytGwsusAZKLidDHRZVMOR8EF8y6ThQRqY4Tgcr8SBG5N6vOImS2uCVsviEhDZ_CSLC59QtUZOOKpM3iYfGhS_FPQFRoS0sJEo7M8aEaCpFaqDaA
p104
sVwidth
p105
I2048
sVhtml_attributions
p106
(lp107
V<a href="https://maps.google.com/maps/contrib/109620309031717855085/photos">Jean-Richard Lai</a>
p108
asVheight
p109
I1365
sa(dp110
Vphoto_reference
p111
VCmRdAAAA4Oq6nPDjhGn1nDIf9ep93CZqyc8BU6MlR0A99KL9vgZwCAiNwxmAETW4yrKwiEkghufMk2peQppEJHLlh9iQVwG-HMz04PT-j7ne2-bRfEwb9gyL4y4G39LSn45qIyC3EhCIVpH1C_zHhJ_WD4nq5Sj1GhTUkucdX_7GOQLeqbBxvawVRV-Lug
p112
sVwidth
p113
I720
sVhtml_attributions
p114
(lp115
V<a href="https://maps.google.com/maps/contrib/102879575609742130766/photos">Shay House</a>
p116
asVheight
p117
I720
sa(dp118
Vphoto_reference
p119
VCoQBdwAAACdG304aemGRcLaFZcjDmQ7pKZR6-v3aJq-roWAnbHR6y6cftINQSxTWyQ8IV7NDZJjpTIyE-ihIgRo3wk4vYXM34aHqks5wUt7iaVErZ1xhpVAQhHpzXlD-GcdJO5h4R3Qs8ine_8OKnBeAu51iJW_cXvf3sQStX24JQkDy9OyfEhDBZr2EoAFEpRbTJh8pl5bFGhQH4AihiRFUFbHRAMFY4CcApu4-wA
p120
sVwidth
p121
I3264
sVhtml_attributions
p122
(lp123
V<a href="https://maps.google.com/maps/contrib/100468698028213155517/photos">Ben Falter</a>
p124
asVheight
p125
I2448
sa(dp126
Vphoto_reference
p127
VCoQBcwAAAJcILiHGErnFlKzkk1eYB5DCZjESq3L_qc1GSacfSG_ICNqg_zMSN5zmAYBET1OXJNeOhHSZtyoy9ZJmYGFVA77HWwwFGvAPcBTcljyARcSGp28jzBERSz9k68HaDQ5T8p0ZRLoGWCgFPxTFQj-mIOsfOsqPu9mHXBl3UAB-GTBoEhAT_rRuY6Nm8l6X9Eb1MrE7GhSCqLBJtECKFKUSveyfe9GZ4t0ssA
p128
sVwidth
p129
I6992
sVhtml_attributions
p130
(lp131
V<a href="https://maps.google.com/maps/contrib/109541157876604526275/photos">Kaya Baber</a>
p132
asVheight
p133
I1976
sa(dp134
Vphoto_reference
p135
VCoQBdwAAACDvAXD298M8S6JN8h_5dbQiLSBggsM5UZBw0lB3zdguSNQlfSeU077vYmW3KS3oGXB2nQyzMU90iLLQqsHyfdbo-mYJ9Do9rAQ67tXAa7qtF-pnMzvr2MzCmcW304BCAzXyUCqixhXwSxpcy_aTKk625l5g4X_FXS30mv6qLb4cEhBNN8NJjhaANUg6STTnHq5fGhT7_c6QQTSuTV0k3d1w96xOHCtosw
p136
sVwidth
p137
I3264
sVhtml_attributions
p138
(lp139
V<a href="https://maps.google.com/maps/contrib/100468698028213155517/photos">Ben Falter</a>
p140
asVheight
p141
I2448
sa(dp142
Vphoto_reference
p143
VCoQBdwAAAMjtH5HaIzIhnAiZSlgv9VlSAv-GLGZzN-Nw58qmlKM75QsLxbD02XKoRxVB8inbHCxD5oX79sJGboQVSu2u5OdMhm2tzzbHyLO-fRTE_GLzarPi5eepYNya3YrsaY2RqlAo0FR3ZwwHXN_mIgBvSOk51UNLhXjJHm0QaclinGHBEhBPGVtr3tG_uT6zF8Ti5KWUGhTtuUh40S2q9av0Vk7IiMbQWFjcSw
p144
sVwidth
p145
I3264
sVhtml_attributions
p146
(lp147
V<a href="https://maps.google.com/maps/contrib/100468698028213155517/photos">Ben Falter</a>
p148
asVheight
p149
I2448
sa(dp150
Vphoto_reference
p151
VCoQBdwAAAJEPcfHvP8PMLswM3oiQLCGaWjl5Opk8z9_dyYNE1GgqWCJxBEkUZKxvGoKDYL-dXK09aw8BoMuBnnTNNQvSurTMxbfXgLvlRE6QIAOmApo79Sg4yvlCasOkfty0k4iiSkG_y6XBoLVGJ5qh1-_ubfQHqA5mhxhtDRTaj3NcqL3yEhA9YDLT1c69cPdEFr2yiUFcGhScg9Jrbt61iMwD7u54aO-LoYc9pg
p152
sVwidth
p153
I3264
sVhtml_attributions
p154
(lp155
V<a href="https://maps.google.com/maps/contrib/100468698028213155517/photos">Ben Falter</a>
p156
asVheight
p157
I2448
sa(dp158
Vphoto_reference
p159
VCoQBdwAAAC6Hdbho4aKQ1yb0_wDDSx4V7EQUWJBLErRa_LBO5zxXcKGkuWi48RYlKaYyi7F8CwTGqqKUPQx785vPzTxvRiyam9bUyn6Lpbim4VaYjBKDXpg7eGheSKx8jWLqYiF7yaemJVzlxAl0NSpoPa3TJ3f0fta7-cDtOz7tqtDNCGV-EhB5o15frN2hbKA2KqH9Ib7vGhT3_Gs1RvfpQsYESLnuj7CAnaEUnA
p160
sVwidth
p161
I3264
sVhtml_attributions
p162
(lp163
V<a href="https://maps.google.com/maps/contrib/100468698028213155517/photos">Ben Falter</a>
p164
asVheight
p165
I2448
sasVtypes
p166
(lp167
Vpark
p168
aVpoint_of_interest
p169
aVestablishment
p170
asVicon
p171
Vhttps://maps.gstatic.com/mapfiles/place_api/icons/generic_recreational-71.png
p172
sVname
p173
VGlen Canyon Park
p174
sVgeometry
p175
(dp176
Vlocation
p177
(dp178
Vlat
p179
g3
(S'37.74155880000001'
tRp180
sVlng
p181
g3
(S'-122.4431851'
tRp182
sssVadr_address
p183
V<span class="street-address">Elk St</span>, <span class="locality">San Francisco</span>, <span class="region">CA</span> <span class="postal-code">94127</span>, <span class="country-name">United States</span>
p184
sVinternational_phone_number
p185
V+1 415-831-2700
p186
sVreviews
p187
(lp188
(dp189
Vrating
p190
I5
sVaspects
p191
(lp192
(dp193
Vrating
p194
I3
sVtype
p195
Voverall
p196
sasVprofile_photo_url
p197
V//lh3.googleusercontent.com/-95WYxmgd3S8/AAAAAAAAAAI/AAAAAAAAOho/4DFRYI9Zn4E/photo.jpg
p198
sVlanguage
p199
Ven
p200
sVtext
p201
VBeautiful canyon, sweet trails. Great place to jog. Amazing place to meditate
p202
sVauthor_name
p203
VFranque Michele
p204
sVauthor_url
p205
Vhttps://plus.google.com/103529619167790535203
p206
sVtime
p207
I1460276968
sa(dp208
Vrating
p209
I5
sVaspects
p210
(lp211
(dp212
Vrating
p213
I3
sVtype
p214
Voverall
p215
sasVprofile_photo_url
p216
V//lh3.googleusercontent.com/-x2rXncfWXj0/AAAAAAAAAAI/AAAAAAAD2Ak/xFsIYeujmjo/photo.jpg
p217
sVlanguage
p218
Ven
p219
sVtext
p220
VWalking paths below tall trees, quickly out of sight of the road. Not bad for an in-city park.
p221
sVauthor_name
p222
VMax Davis
p223
sVauthor_url
p224
Vhttps://plus.google.com/113020808653361527612
p225
sVtime
p226
I1459021785
sa(dp227
Vrating
p228
I5
sVaspects
p229
(lp230
(dp231
Vrating
p232
I3
sVtype
p233
Voverall
p234
sasVprofile_photo_url
p235
V//lh4.googleusercontent.com/-x4X3nFZLxFE/AAAAAAAAAAI/AAAAAAAAAMg/c9am6kDNJwE/photo.jpg
p236
sVlanguage
p237
Ven
p238
sVtext
p239
VVery spacious, a lot of natural preservation areas, and great place to take a small hike.
p240
sVauthor_name
p241
VIrlanda Campoy
p242
sVauthor_url
p243
Vhttps://plus.google.com/103670783066674671142
p244
sVtime
p245
I1457632962
sa(dp246
Vrating
p247
I5
sVaspects
p248
(lp249
(dp250
Vrating
p251
I3
sVtype
p252
Voverall
p253
sasVprofile_photo_url
p254
V//lh4.googleusercontent.com/-phuJ7AavMoU/AAAAAAAAAAI/AAAAAAABYJU/oE1CXBUw_vI/photo.jpg
p255
sVlanguage
p256
Ven
p257
sVtext
p258
VEven though it's right in the middle of SF, it feels very wild and secluded. We saw several groups bouldering on giant rocks (awesome) and ran across some wildlife, including a snake and a family of groundhogs. Perfect and easy to get to if you're looking for a break from the city in nature. 
p259
sVauthor_name
p260
VLaura Knight
p261
sVauthor_url
p262
Vhttps://plus.google.com/118209965552309194650
p263
sVtime
p264
I1428695398
sa(dp265
Vrating
p266
I5
sVaspects
p267
(lp268
(dp269
Vrating
p270
I3
sVtype
p271
Voverall
p272
sasVprofile_photo_url
p273
V//lh3.googleusercontent.com/-K20LD29Ou2o/AAAAAAAAAAI/AAAAAAAAGT8/MI589hK4kEQ/photo.jpg
p274
sVlanguage
p275
Ven
p276
sVtext
p277
VGlen Park helps you escape the commotion of the city without ever actually leaving the city. It's by far one of my favorite "hikes" to go on when I can't leave SF\u000a
p278
sVauthor_name
p279
VAmreen Panjwani
p280
sVauthor_url
p281
Vhttps://plus.google.com/106520181866124500634
p282
sVtime
p283
I1442575780
sasVformatted_phone_number
p284
V(415) 831-2700
p285
sVaddress_components
p286
(lp287
(dp288
Vlong_name
p289
VElk Street
p290
sVtypes
p291
(lp292
Vroute
p293
asVshort_name
p294
VElk St
p295
sa(dp296
Vlong_name
p297
VSan Francisco
p298
sVtypes
p299
(lp300
Vlocality
p301
aVpolitical
p302
asVshort_name
p303
VSF
p304
sa(dp305
Vlong_name
p306
VCalifornia
p307
sVtypes
p308
(lp309
Vadministrative_area_level_1
p310
aVpolitical
p311
asVshort_name
p312
VCA
p313
sa(dp314
Vlong_name
p315
VUnited States
p316
sVtypes
p317
(lp318
Vcountry
p319
aVpolitical
p320
asVshort_name
p321
VUS
p322
sa(dp323
Vlong_name
p324
V94127
p325
sVtypes
p326
(lp327
Vpostal_code
p328
asVshort_name
p329
V94127
p330
sas.