(dp1
Vrating
p2
cdecimal
Decimal
p3
(S'4.4'
tRp4
sVreference
p5
VCnRkAAAAqq9oimrZYsksjj91mY_CEiKZwQobn-KdvS4HqiSZbPMTeZ8GB-Ws5qL7-z__7ac0z9HW-mE7KKM6TU1BQYppm-MDa0s3Ts3fdw8xCVNI26_971S6rAO9fktpl3wZMR96IJEFZDOTis--vvC4uTvTSBIQgO6VV9fOSobjhrXO4IMHyxoUL_gThQdthk9aPbRC2bOjJ0MoKfQ
p6
sVprice_level
p7
I1
sVplace_id
p8
VChIJmx3iW_GAhYARrlV9H2vyE-E
p9
sVurl
p10
Vhttps://maps.google.com/?cid=16218573224995018158
p11
sVformatted_address
p12
V542 Green St, San Francisco, CA 94133, United States
p13
sVid
p14
V85680baf36964be6b6e7b221c0817c457dd11042
p15
sVopening_hours
p16
(dp17
Vweekday_text
p18
(lp19
VMonday: 11:30 AM \u2013 11:30 PM
p20
aVTuesday: 11:30 AM \u2013 11:30 PM
p21
aVWednesday: 11:30 AM \u2013 11:30 PM
p22
aVThursday: 11:30 AM \u2013 11:30 PM
p23
aVFriday: 11:30 AM \u2013 2:30 AM
p24
aVSaturday: 11:30 AM \u2013 2:30 AM
p25
aVSunday: 11:30 AM \u2013 11:30 PM
p26
asVopen_now
p27
I01
sVperiods
p28
(lp29
(dp30
Vclose
p31
(dp32
Vday
p33
I0
sVtime
p34
V2330
p35
ssVopen
p36
(dp37
Vday
p38
I0
sVtime
p39
V1130
p40
ssa(dp41
Vclose
p42
(dp43
Vday
p44
I1
sVtime
p45
V2330
p46
ssVopen
p47
(dp48
Vday
p49
I1
sVtime
p50
V1130
p51
ssa(dp52
Vclose
p53
(dp54
Vday
p55
I2
sVtime
p56
V2330
p57
ssVopen
p58
(dp59
Vday
p60
I2
sVtime
p61
V1130
p62
ssa(dp63
Vclose
p64
(dp65
Vday
p66
I3
sVtime
p67
V2330
p68
ssVopen
p69
(dp70
Vday
p71
I3
sVtime
p72
V1130
p73
ssa(dp74
Vclose
p75
(dp76
Vday
p77
I4
sVtime
p78
V2330
p79
ssVopen
p80
(dp81
Vday
p82
I4
sVtime
p83
V1130
p84
ssa(dp85
Vclose
p86
(dp87
Vday
p88
I6
sVtime
p89
V0230
p90
ssVopen
p91
(dp92
Vday
p93
I5
sVtime
p94
V1130
p95
ssa(dp96
Vclose
p97
(dp98
Vday
p99
I0
sVtime
p100
V0230
p101
ssVopen
p102
(dp103
Vday
p104
I6
sVtime
p105
V1130
p106
ssassVvicinity
p107
V542 Green Street, San Francisco
p108
sVscope
p109
VGOOGLE
p110
sVwebsite
p111
Vhttp://www.goldenboypizza.com/
p112
sVutc_offset
p113
I-420
sVuser_ratings_total
p114
I276
sVphotos
p115
(lp116
(dp117
Vphoto_reference
p118
VCmRdAAAASn6YVSnqcbh0_cMWm3bEkMCFYz3JDFpgZ1M4J8b8OCzGwJWBb8icUaUSsW_wkhh5rcZnG_o9TTbRFIGBiM4UFPP9J0KvCtr9plKb0SYnp6bCDewlBlznxYeJziGulAsyEhDzQbFV3MGh1kXtx_xGcESDGhQ9eflYekYRE9uHsKHRj87N9-JHOQ
p119
sVwidth
p120
I374
sVhtml_attributions
p121
(lp122
V<a href="https://maps.google.com/maps/contrib/102295992554384331170/photos">Golden Boy Pizza</a>
p123
asVheight
p124
I375
sa(dp125
Vphoto_reference
p126
VCmRdAAAAdEvJV-fv3xowJWraXiNEcdYQK3c_fsebst0gUW9MPK9iILA5jfkOdYFHqUVxL6LHxk1EP6gBC5VEN34wIdc_7x5RR5yfKARMJOw45A8Faw8zLu_GD7Px_1hEJTq3cVv7EhBaJ2XnHwbi9jOL9QbYXqKEGhSUds7TrkGqMyyfPa7YBAtndR4fJg
p127
sVwidth
p128
I2048
sVhtml_attributions
p129
(lp130
V<a href="https://maps.google.com/maps/contrib/104111246635874032234/photos">ZAGAT</a>
p131
asVheight
p132
I1365
sa(dp133
Vphoto_reference
p134
VCmRdAAAAujSMAHxs8vwsMxkKmKMZ5_ffN-5kX38zu7rQbP-ieflOTeY2y-bf-DmOtUlMSTs4Dee47wZ6DTU76X5ficWp5jwgJd0gS8QgPu85wKtDEgksjYbHsMPQ6hCB-PouS3uIEhA4yXGR3u_de1kNJhv3iw5RGhTe7OCPhrc__L_4iXdn39x8XyeJUA
p135
sVwidth
p136
I3024
sVhtml_attributions
p137
(lp138
V<a href="https://maps.google.com/maps/contrib/109383364523945736298/photos">Kathleen S</a>
p139
asVheight
p140
I4032
sa(dp141
Vphoto_reference
p142
VCmRdAAAAQVdbRY9YVoGBHXqiiC-faG941qpqI_GPGiXhCZP1AJCJapQ5EczOSpuuvHZVad7p8ATG2O8QPJANQ_XV99CrshtlGNz0rAfhdE1_nr2kOeML20dHlt4URi1JiTKCAmxlEhCz7DOjkZxDAsbd9ofPvbnbGhQHrNwv5MMOK0vnvU5mulBxGZ1UMQ
p143
sVwidth
p144
I2048
sVhtml_attributions
p145
(lp146
V<a href="https://maps.google.com/maps/contrib/104111246635874032234/photos">ZAGAT</a>
p147
asVheight
p148
I1365
sa(dp149
Vphoto_reference
p150
VCmRdAAAAynzJiUkcdRbOukAaocSsScLjnEvIoereroprtoWf3rE3xXkc5-kPrHZ9flbtGn2dNGHp9iXCRI8cRvhVDjmCFUtWneebr5FQRlSi1zROJj94PT8Eff7j4KHv9y6IeoL5EhAiYawEPTroiAKBSh-LezBDGhTLpcP5hz2LqrvhD1eI_EoFGjwiQg
p151
sVwidth
p152
I1836
sVhtml_attributions
p153
(lp154
V<a href="https://maps.google.com/maps/contrib/100703224157788940156/photos">Bryan Yoshinaga</a>
p155
asVheight
p156
I3264
sa(dp157
Vphoto_reference
p158
VCmRdAAAAc1MBEO4Btexa1TAKTylCPsb00whfINNhQ-Beo1udXD68YZGHmD0tjngiIqKedd5PBKOXkYPYRofP9NWaa41hP58-q_nL_Qad3l0U5MjAuexkBf0jdi8lBL5JA1fVo8VsEhBaLFI8T3aa-vNCoq9lVOlIGhSwir1A0zOufRJoxo8XYvuy-cXoVw
p159
sVwidth
p160
I1280
sVhtml_attributions
p161
(lp162
V<a href="https://maps.google.com/maps/contrib/102295992554384331170/photos">Golden Boy Pizza</a>
p163
asVheight
p164
I1024
sa(dp165
Vphoto_reference
p166
VCmRdAAAAnxDfnhcBycXl-tVwn47g6duwCdsaZc8Dl8Uq_kmf3JQ7FbV3aY2qvV2VFsI4HTw-wMd3QUjtC0cb3ai7gji8R30Cd3daVjylGrnAiYKSpz3S1z_jmOVmni1YFGfVRo8-EhAIO_uey-jJxaEV5mvXWlE-GhRL5rGfbEGWNtvziSyDbGwSn_omQQ
p167
sVwidth
p168
I4128
sVhtml_attributions
p169
(lp170
V<a href="https://maps.google.com/maps/contrib/107721404123505875377/photos">albert lee</a>
p171
asVheight
p172
I3096
sa(dp173
Vphoto_reference
p174
VCmRdAAAA1bwmgw2sO0mQ2wqPYgUABn3ezvV1Ppgq2e2Vzrpkv6vMsgCfmEMg0xCoZJx8L_vOu0-flee0iwlbHEzGSjD38A5N34zepp4EHLWPfJk68ZcCjpkP7jQ3odQAXonwRPAVEhCwBWHNKyCO2dq9FhOV_KVXGhRZVs-XjGaYkXziY47BsBqZPpxvUA
p175
sVwidth
p176
I1530
sVhtml_attributions
p177
(lp178
V<a href="https://maps.google.com/maps/contrib/118268451358807750636/photos">Shyam Bansal</a>
p179
asVheight
p180
I2048
sa(dp181
Vphoto_reference
p182
VCoQBcwAAAAYiy0OXba85iP1x5msWpzWCGks00OUS-n1RejuJXz0RIQ4FAuxIy4zs9vjpDTnQ20XShR4EFaJpRNzjQI0pieIOSnWKadtmL2z_kRNSPTj5L3w_s0GS5L-p65j34vInMCb55AHSZFGbWXh2yUZzl77K4A-irTn1s91xbbyRjXlnEhBTsK3FGLqAI8BlzI5zOY-YGhQvnqDRjTmtMhSUhE76pS74rjT7fQ
p183
sVwidth
p184
I2448
sVhtml_attributions
p185
(lp186
V<a href="https://maps.google.com/maps/contrib/114813504318465238530/photos">Jason Laveglia</a>
p187
asVheight
p188
I2448
sa(dp189
Vphoto_reference
p190
VCmRdAAAApkAQUHXlrU5-Z1UWnm5KUxLDtRHuZUyYOzQalKvwXmtqgYWhfJy7LsNi7U904N4xnl8BlqTFKyunuMyab8oWwUZx9dEj1RuMzGy9jOW24NEihSVZvsHftFGwmv8RbCmPEhA8DVDRX1Sc9sA6pWvGI6NqGhRNXs4cL_WaxNoi87PtdjHxxaVr4w
p191
sVwidth
p192
I2448
sVhtml_attributions
p193
(lp194
V<a href="https://maps.google.com/maps/contrib/116953727280874939936/photos">mukunda modell</a>
p195
asVheight
p196
I3264
sasVtypes
p197
(lp198
Vmeal_takeaway
p199
aVrestaurant
p200
aVfood
p201
aVpoint_of_interest
p202
aVestablishment
p203
asVicon
p204
Vhttps://maps.gstatic.com/mapfiles/place_api/icons/restaurant-71.png
p205
sVname
p206
VGolden Boy Pizza
p207
sVgeometry
p208
(dp209
Vaccess_points
p210
(lp211
(dp212
Vtravel_modes
p213
(lp214
VDRIVING
p215
aVBICYCLING
p216
aVWALKING
p217
aVTRANSIT
p218
asVlocation
p219
(dp220
Vlat
p221
g3
(S'37.7996402'
tRp222
sVlng
p223
g3
(S'-122.4080743'
tRp224
ssasVlocation
p225
(dp226
Vlat
p227
g3
(S'37.79976689999999'
tRp228
sVlng
p229
g3
(S'-122.4080992'
tRp230
sssVadr_address
p231
V<span class="street-address">542 Green St</span>, <span class="locality">San Francisco</span>, <span class="region">CA</span> <span class="postal-code">94133-3921</span>, <span class="country-name">United States</span>
p232
sVinternational_phone_number
p233
V+1 415-982-9738
p234
sVreviews
p235
(lp236
(dp237
Vrating
p238
I3
sVaspects
p239
(lp240
(dp241
Vrating
p242
I1
sVtype
p243
Voverall
p244
sasVprofile_photo_url
p245
V//lh4.googleusercontent.com/-XZoEV5Cm2fI/AAAAAAAAAAI/AAAAAAAAAA0/eD9SzgS0ZjI/photo.jpg
p246
sVlanguage
p247
Ven
p248
sVtext
p249
VThe pizza is great, the line is slow. It seems that they need to reheat each individual slice one at a time. Even on a slow week night, its going to be slow to get your slice. Cash Only for the pizza bar, but most everyone knows that already.\u000a\u000aI got the clam pesto pizza. It was good, but not worth a 30 minute wait good. However, GBP is a fan favorite for the bar hours, so it will always be busy. They would get 4-5 stars from me if they could ever get the line to be more efficient. I like how they wrap the one slice in the pizza paper. The pizza always smells delicious, and there is always demand, but couldn't you find a way to serve your customers a little faster? My review is 3.5 stars.
p250
sVauthor_name
p251
VRobert Havens
p252
sVauthor_url
p253
Vhttps://plus.google.com/110710029528900514402
p254
sVtime
p255
I1460780202
sa(dp256
Vrating
p257
I2
sVaspects
p258
(lp259
(dp260
Vrating
p261
I0
sVtype
p262
Voverall
p263
sasVprofile_photo_url
p264
V//lh4.googleusercontent.com/-N7gbH4VGaHk/AAAAAAAAAAI/AAAAAAAAABE/5cqzCL0-j_I/photo.jpg
p265
sVlanguage
p266
Ven
p267
sVtext
p268
VPizza snob! Hate it or hate it. It will be forever a challenge to satisfy east coasters when it comes to pizza in California. I don't get why Golden Boy has the reputation it does. We ordered a plain square for each of us and thought it was really boring. There was barely any sauce, the cheese had little flavor, and it was way too bread-y. Yes, it's a square, but dry tasteless bread doesn't make it acceptable. If want to change your life, try the Sicilian at DiFara's in Brooklyn!!
p269
sVauthor_name
p270
VJulius Williams
p271
sVauthor_url
p272
Vhttps://plus.google.com/117841580075533937295
p273
sVtime
p274
I1461060157
sa(dp275
Vrating
p276
I3
sVaspects
p277
(lp278
(dp279
Vrating
p280
I1
sVtype
p281
Voverall
p282
sasVprofile_photo_url
p283
V//lh4.googleusercontent.com/-pQju9drOcRY/AAAAAAAAAAI/AAAAAAAAIOM/sXKWpoPPpUM/photo.jpg
p284
sVlanguage
p285
Ven
p286
sVtext
p287
VI actually came here just because of good reviews. However, pizza here was just ok. It's not round like you expect. It's deep dish pizza. Honestly it was tasteless. Very tiny place to get your quick slice and drink/beer. 
p288
sVauthor_name
p289
VLilu Sda
p290
sVauthor_url
p291
Vhttps://plus.google.com/117058046903318241770
p292
sVtime
p293
I1460511588
sa(dp294
Vrating
p295
I4
sVaspects
p296
(lp297
(dp298
Vrating
p299
I2
sVtype
p300
Voverall
p301
sasVprofile_photo_url
p302
V//lh6.googleusercontent.com/-5A58XuHCgsw/AAAAAAAAAAI/AAAAAAAAABA/h3NFI1Xrjhw/photo.jpg
p303
sVlanguage
p304
Ven
p305
sVtext
p306
VCheap, tasty and satisfies the pizza cravings but certainly not the best pizza experience by a long shot. Hot, cheesy, square focaccia slices - Sicilian style is not something you can get just anywhere in SF. Visually it reminded me of pizzas from elementary school lunches back when I was a kid but with much more flavor. There was a decent sized line formed outside upon arrival but thankfully the line kept moving. We each ordered two and sat at the bar watching the Warriors lose to the Lakers. At least the pizza offered some solace in this sad loss, and to the Lakers of all teams! Cash only but there are plenty of banks and ATMs nearby.
p307
sVauthor_name
p308
VKenneth Steele
p309
sVauthor_url
p310
Vhttps://plus.google.com/105197618010810996079
p311
sVtime
p312
I1459235380
sa(dp313
Vrating
p314
I5
sVaspects
p315
(lp316
(dp317
Vrating
p318
I3
sVtype
p319
Voverall
p320
sasVprofile_photo_url
p321
V//lh4.googleusercontent.com/-dkpHmXbCMlc/AAAAAAAAAAI/AAAAAAAACYM/ki09zkEyJKM/photo.jpg
p322
sVlanguage
p323
Ven
p324
sVtext
p325
VA stop here turns a good night in to a great one, but don't be too late, or you'll be back of the line praying those last few slices aren't gone when it's your turn. When trying to decide on a slice, just go w/ the freshest. They all rock, but w/ the thicker sicilian slices you really want the hottest & freshest.
p326
sVauthor_name
p327
VJason Guzman
p328
sVauthor_url
p329
Vhttps://plus.google.com/100096138321976960963
p330
sVtime
p331
I1457507251
sasVformatted_phone_number
p332
V(415) 982-9738
p333
sVaddress_components
p334
(lp335
(dp336
Vlong_name
p337
V542
p338
sVtypes
p339
(lp340
Vstreet_number
p341
asVshort_name
p342
V542
p343
sa(dp344
Vlong_name
p345
VGreen Street
p346
sVtypes
p347
(lp348
Vroute
p349
asVshort_name
p350
VGreen St
p351
sa(dp352
Vlong_name
p353
VSan Francisco
p354
sVtypes
p355
(lp356
Vlocality
p357
aVpolitical
p358
asVshort_name
p359
VSF
p360
sa(dp361
Vlong_name
p362
VCalifornia
p363
sVtypes
p364
(lp365
Vadministrative_area_level_1
p366
aVpolitical
p367
asVshort_name
p368
VCA
p369
sa(dp370
Vlong_name
p371
VUnited States
p372
sVtypes
p373
(lp374
Vcountry
p375
aVpolitical
p376
asVshort_name
p377
VUS
p378
sa(dp379
Vlong_name
p380
V94133
p381
sVtypes
p382
(lp383
Vpostal_code
p384
asVshort_name
p385
V94133
p386
sa(dp387
Vlong_name
p388
V3921
p389
sVtypes
p390
(lp391
Vpostal_code_suffix
p392
asVshort_name
p393
V3921
p394
sas.