(dp1
Vrating
p2
cdecimal
Decimal
p3
(S'4.7'
tRp4
sVutc_offset
p5
I-420
sVuser_ratings_total
p6
I64
sVname
p7
VGrand View Park
p8
sVreference
p9
VCnRiAAAAN0UwcHqJdiA5y0JpJLUSqsiFxH9L8MY-eZwgMvCwpjqKIhpH2sBFtKTJqTxC3bWwAhJ83NxcXwz6Ly83TwIpRZegcm-LxGDOxoE7c-JS5r2qM8M0ugIq2IASGRQa-W2UnAhz8T_XeN2u_VpnFwkughIQ5kGLduPXTZB-AZjZbZYk7hoU8YhLQU2egbxyeCEc6UhsE1E3Ck4
p10
sVgeometry
p11
(dp12
Vlocation
p13
(dp14
Vlat
p15
g3
(S'37.7562628'
tRp16
sVlng
p17
g3
(S'-122.4718452'
tRp18
sssVadr_address
p19
V<span class="locality">San Francisco</span>, <span class="region">CA</span> <span class="postal-code">94122</span>, <span class="country-name">United States</span>
p20
sVplace_id
p21
VChIJFS16LmCHhYAR9-5CGavbV2k
p22
sVvicinity
p23
VSan Francisco
p24
sVreviews
p25
(lp26
(dp27
Vrating
p28
I5
sVaspects
p29
(lp30
(dp31
Vrating
p32
I3
sVtype
p33
Voverall
p34
sasVprofile_photo_url
p35
V//lh5.googleusercontent.com/-LG3uXP0AAEI/AAAAAAAAAAI/AAAAAAAA09Y/eQigH_5kZl0/photo.jpg
p36
sVlanguage
p37
Ven
p38
sVtext
p39
VAbsolutely beautiful 360 panoramic views of San Francisco. Today was clear and you can see twin peaks tower, downtown SF, all of golden gate to ocean beach. Take the hidden garden steps on 16th street. A must visit.
p40
sVauthor_name
p41
VJoy Loo
p42
sVauthor_url
p43
Vhttps://plus.google.com/113864065458009379418
p44
sVtime
p45
I1459043979
sa(dp46
Vrating
p47
I5
sVaspects
p48
(lp49
(dp50
Vrating
p51
I3
sVtype
p52
Voverall
p53
sasVprofile_photo_url
p54
V//lh6.googleusercontent.com/-rOqZZjDjSaw/AAAAAAAAAAI/AAAAAAAAIcE/FcS98pJj6co/photo.jpg
p55
sVlanguage
p56
Ven
p57
sVtext
p58
VI love visiting the city, and this park is always on my itinerary. This park in combination to the Tiled Steps always complete my day. The heights from here are simply the best, because it is beautiful from every angle, 360 degrees. Panoramic photos are a must here. It's a great place to take anyone from out of town. It's a lovely spot that will help introduce the beautiful views of San Francisco. 
p59
sVauthor_name
p60
VSuzie Oh
p61
sVauthor_url
p62
Vhttps://plus.google.com/105572966193022398872
p63
sVtime
p64
I1448420553
sa(dp65
Vrating
p66
I5
sVaspects
p67
(lp68
(dp69
Vrating
p70
I3
sVtype
p71
Voverall
p72
sasVprofile_photo_url
p73
V//lh4.googleusercontent.com/-0h9j8WoBatA/AAAAAAAAAAI/AAAAAAACWNA/VdqWuxV0ND8/photo.jpg
p74
sVlanguage
p75
Ven
p76
sVtext
p77
VA very beautiful park with great panoramic views of San Francisco and Golden Gate Park. I would definitely recommend a visit. This is on top of a hill and when I visited, it was very very windy (as if I was going to get blown over) so make sure you dress appropriately and watch kids if you bring them.
p78
sVauthor_name
p79
VSunny Wu
p80
sVauthor_url
p81
Vhttps://plus.google.com/117500212198182258088
p82
sVtime
p83
I1455565479
sa(dp84
Vrating
p85
I5
sVaspects
p86
(lp87
(dp88
Vrating
p89
I3
sVtype
p90
Voverall
p91
sasVprofile_photo_url
p92
V//lh3.googleusercontent.com/-CwC90BjMTGg/AAAAAAAAAAI/AAAAAAAAeXQ/koby2N_TE5c/photo.jpg
p93
sVlanguage
p94
Ven
p95
sVtext
p96
VRight next to the Moraga Steps! Another wonderful view of the city! And it has some epic Cedar trees to take pictures next to!\u000a\u000aIt really makes you feel like you are on top of the world! Great place to take visitors to :)
p97
sVauthor_name
p98
VRichard Navarro
p99
sVauthor_url
p100
Vhttps://plus.google.com/102837592139129677983
p101
sVtime
p102
I1441583016
sa(dp103
Vrating
p104
I4
sVaspects
p105
(lp106
(dp107
Vrating
p108
I2
sVtype
p109
Voverall
p110
sasVprofile_photo_url
p111
V//lh6.googleusercontent.com/-oy6PQ_MK5W4/AAAAAAAAAAI/AAAAAAAAAbM/Zv8OU0BDq5Q/photo.jpg
p112
sVlanguage
p113
Ven
p114
sVtext
p115
VI used to love coming to this place because it was so isolated and very few people ventured to the top of the hill. Now it is overcrowded with tourists and locals. \u000aIt is still worth the trip and the steps. 
p116
sVauthor_name
p117
VPenelope Kim
p118
sVauthor_url
p119
Vhttps://plus.google.com/118221204257684133527
p120
sVtime
p121
I1452448699
sasVphotos
p122
(lp123
(dp124
Vphoto_reference
p125
VCmRdAAAAJu5GAxrCzk1bzAb7dO2SMAS-1pr5Wi6U5dvAKm2vrl8R4PF593sJujgzfbxM6JlhlhlcxbCKaypJg7JHekoEUHWieBxpIcTj9L1xMGOolLxBijMxGWKMfdd9jNyGrV9-EhB_8tStdeSFlCHSxnVzRDCqGhSjDAmYTA_FSBcB09mAFnYrJRrQuw
p126
sVwidth
p127
I2000
sVhtml_attributions
p128
(lp129
V<a href="https://maps.google.com/maps/contrib/103183223173318508686/photos">Peter Reinold</a>
p130
asVheight
p131
I1333
sa(dp132
Vphoto_reference
p133
VCmRdAAAAlKbHCjMnXTQyixf376S6Z6mZdvaE6PNexiK049BhSgtS0D4HzYC2-mQV3xUh7cblWZosDD1tIEBFpYMJAALSo9-4eICaH0uUnXdpiHfiacoGUC8inSwOYy4otcJilG0BEhBq9L5E-hVZAIodNJytAfhdGhQM759Bb1wZ_LGSrdR5JUljnPnzNw
p134
sVwidth
p135
I5760
sVhtml_attributions
p136
(lp137
V<a href="https://maps.google.com/maps/contrib/117500212198182258088/photos">Sunny Wu</a>
p138
asVheight
p139
I3840
sa(dp140
Vphoto_reference
p141
VCmRdAAAAcTg7AJZ6u0jjgvHkhMhUiSmcP7d9ueZeAIEFSjHjTvb1aHZlmrSAQr7-Lak0wWg_oHQv_Uwslz_WWF8IhVqaD0Hw1-fwefQtPVs4YCB_5r7KzqSoz-3k98ni2aCeULy-EhCPVE83vYpO9k-om729WCVxGhQVnnasaQF7R_D3tjQwzhFFRgG81w
p142
sVwidth
p143
I2560
sVhtml_attributions
p144
(lp145
V<a href="https://maps.google.com/maps/contrib/101694647795261384221/photos">Shalom Gibly</a>
p146
asVheight
p147
I1707
sa(dp148
Vphoto_reference
p149
VCmRdAAAAXtV5PlE8h0P6CcmZwYq2r6_IN39t534dqgdWrzQl0t1P6yS6WVYPKabnBCjMYUuE6bMbrir5-RoGk6nORuTccS-bi8KcSnIq4RdP50yuDYW0pHB8XqNMiPqOJr16BLoaEhAEVYyUImc7OEluJ5AapXPBGhSMueSRhMK4ZN6I953ZlcoN71V8Gg
p150
sVwidth
p151
I1333
sVhtml_attributions
p152
(lp153
V<a href="https://maps.google.com/maps/contrib/103183223173318508686/photos">Peter Reinold</a>
p154
asVheight
p155
I2000
sa(dp156
Vphoto_reference
p157
VCmRdAAAAmZ2r4dlR0jEVhdLYcGroHYXKPB0-KpMdaD08Lqy8G3eoVGhat-UihgIR3VL2Lcp8rdWyvUUhR6_QUicUrK38wkzAuR4L9a1sBJ9_EgjgPMcKY8MhCu48E9aaSS2kvEtIEhC8Kjg5ESiDcnogL8ZCdD0gGhSQGm5PpYvnCft7uXQ8rP5Ry-sGTg
p158
sVwidth
p159
I2000
sVhtml_attributions
p160
(lp161
V<a href="https://maps.google.com/maps/contrib/103183223173318508686/photos">Peter Reinold</a>
p162
asVheight
p163
I1333
sa(dp164
Vphoto_reference
p165
VCmRdAAAAbMt_JjoHNglFWUkXgiiIKxt5tHbcdEsHAx4841-NlP4VI5X3BD0ypcjVOINOI0zXKwjUAG_56ftnFJfvfFFlSltvKrYxLdODQ2fTdLwCDyXlQ9H__hFtqVc1Kt_3iOWLEhBYPBRHYdgz21DooOI5D17rGhSsFQaATFSxL2eBb3lpmkKDJwN8jQ
p166
sVwidth
p167
I1707
sVhtml_attributions
p168
(lp169
V<a href="https://maps.google.com/maps/contrib/101694647795261384221/photos">Shalom Gibly</a>
p170
asVheight
p171
I2560
sa(dp172
Vphoto_reference
p173
VCmRdAAAAOnrTvmf_LuveeMRcKOiwHlijitG1hY9Ki1CKJD1eOC7594FqB-fN2Y7G1HvmgfGHloLIzZRBucyxCpxE3ZxiDXNL2SazxIfoAHrXRGAAs3e5uKAeTtVHQDT3m3ESwcAyEhDI3ATjQZA3TALl93zY2lYBGhTrbdA_HVm8hs5Ris20HUJvU2ETzA
p174
sVwidth
p175
I4324
sVhtml_attributions
p176
(lp177
V<a href="https://maps.google.com/maps/contrib/101229022868311193347/photos">Clayton Carlson</a>
p178
asVheight
p179
I2878
sa(dp180
Vphoto_reference
p181
VCmRdAAAAEB1frqu9DoWi5TNWMfu7wRdV_Lz-UwtjKtqgsfIp-yGIdgckT085zLfoHsVEd5maRAvEFcxQdR42vDwDEYyy1bEjBNiOXzK7OOmsMsmn3_-JI41XmrD3zDvNc_rEcWwKEhCRDY6Rlmmy7foooQKPNUKhGhSLmhF18EaO6hr2IMHhuLxAurhUzQ
p182
sVwidth
p183
I2000
sVhtml_attributions
p184
(lp185
V<a href="https://maps.google.com/maps/contrib/103183223173318508686/photos">Peter Reinold</a>
p186
asVheight
p187
I1333
sa(dp188
Vphoto_reference
p189
VCmRdAAAAxgizTMJT2DynFKXag-0qaWAdunwsfmv3d3YVZU5oCwgmtgyGRbUNv_L6AR8rwDAn5GtFiUDWC8ktG3bRXvAtlyuG_0u2edPpxBzIHbFoU7B3JpN7hUnhonyfpvHrRfibEhCqimMFzQEflAYcZ09z9zCzGhQY-JJVfqYjBqVGKf2FoD-AjNFa0g
p190
sVwidth
p191
I2048
sVhtml_attributions
p192
(lp193
V<a href="https://maps.google.com/maps/contrib/102837592139129677983/photos">Richard Navarro</a>
p194
asVheight
p195
I1536
sa(dp196
Vphoto_reference
p197
VCmRdAAAALTB9MpbG-vGT2WHPWa-6c1uB8yi6P6COXMfEycH37dMxdvqT4wPcK0rIHlBD6a_FEimSdt0IIHD1a3_jCib4KsBhxXWSk9cKwWg_OYUxv5qkGcpWk0buns4-cdcfD533EhAhTgBoEwJkvY6NTqSc-DOIGhQU12gHvCOiXDVBF1lWK0c8LDBbfg
p198
sVwidth
p199
I912
sVhtml_attributions
p200
(lp201
V<a href="https://maps.google.com/maps/contrib/112883856022078566517/photos">Joel Chaidez</a>
p202
asVheight
p203
I912
sasVurl
p204
Vhttps://maps.google.com/?cid=7590777224865967863
p205
sVscope
p206
VGOOGLE
p207
sVaddress_components
p208
(lp209
(dp210
Vlong_name
p211
VSan Francisco
p212
sVtypes
p213
(lp214
Vlocality
p215
aVpolitical
p216
asVshort_name
p217
VSF
p218
sa(dp219
Vlong_name
p220
VCalifornia
p221
sVtypes
p222
(lp223
Vadministrative_area_level_1
p224
aVpolitical
p225
asVshort_name
p226
VCA
p227
sa(dp228
Vlong_name
p229
VUnited States
p230
sVtypes
p231
(lp232
Vcountry
p233
aVpolitical
p234
asVshort_name
p235
VUS
p236
sa(dp237
Vlong_name
p238
V94122
p239
sVtypes
p240
(lp241
Vpostal_code
p242
asVshort_name
p243
V94122
p244
sasVformatted_address
p245
VSan Francisco, CA 94122, United States
p246
sVid
p247
Va3514231700736a96dabbc818dc8e1fb80ff3837
p248
sVtypes
p249
(lp250
Vpark
p251
aVpoint_of_interest
p252
aVestablishment
p253
asVicon
p254
Vhttps://maps.gstatic.com/mapfiles/place_api/icons/generic_recreational-71.png
p255
s.