(dp1
Vrating
p2
cdecimal
Decimal
p3
(S'4.1'
tRp4
sVreference
p5
VCnRkAAAA5vJ50H5dBLyeA7wSFZLHCS5Wuu54kesStqLUWF-3FLxf4YPhbbs_qDGcq7wa1jwOj6pwnmc8gMstlGikwN1Gc0dvj-tK82XqYZxIMcX_lyxpCKaxxfORZp37xbm2-s4J0A-EnEFAbbiTfxLIm59EbBIQ9qXtuqAXNASFCh1zjduaDxoUZRfiZJ7FjGECN3cgmgorZn_t738
p6
sVplace_id
p7
VChIJceeAXt6AhYARur0rWLmvt1A
p8
sVurl
p9
Vhttps://maps.google.com/?cid=5816310654355357114
p10
sVformatted_address
p11
VA, Fort Mason, 2 Marina Blvd, San Francisco, CA 94123, United States
p12
sVid
p13
Vfd260b30f4d23f4f3d33298c550eb6277fdc5bd3
p14
sVopening_hours
p15
(dp16
Vweekday_text
p17
(lp18
VMonday: 5:30 \u2013 9:00 PM
p19
aVTuesday: 11:45 AM \u2013 2:30 PM, 5:30 \u2013 9:00 PM
p20
aVWednesday: 11:45 AM \u2013 2:30 PM, 5:30 \u2013 9:00 PM
p21
aVThursday: 11:45 AM \u2013 2:30 PM, 5:30 \u2013 9:00 PM
p22
aVFriday: 11:45 AM \u2013 2:30 PM, 5:30 \u2013 9:00 PM
p23
aVSaturday: 11:00 AM \u2013 2:30 PM, 5:30 \u2013 9:00 PM
p24
aVSunday: 10:30 AM \u2013 2:00 PM, 5:30 \u2013 9:00 PM
p25
asVopen_now
p26
I00
sVperiods
p27
(lp28
(dp29
Vclose
p30
(dp31
Vday
p32
I0
sVtime
p33
V1400
p34
ssVopen
p35
(dp36
Vday
p37
I0
sVtime
p38
V1030
p39
ssa(dp40
Vclose
p41
(dp42
Vday
p43
I0
sVtime
p44
V2100
p45
ssVopen
p46
(dp47
Vday
p48
I0
sVtime
p49
V1730
p50
ssa(dp51
Vclose
p52
(dp53
Vday
p54
I1
sVtime
p55
V2100
p56
ssVopen
p57
(dp58
Vday
p59
I1
sVtime
p60
V1730
p61
ssa(dp62
Vclose
p63
(dp64
Vday
p65
I2
sVtime
p66
V1430
p67
ssVopen
p68
(dp69
Vday
p70
I2
sVtime
p71
V1145
p72
ssa(dp73
Vclose
p74
(dp75
Vday
p76
I2
sVtime
p77
V2100
p78
ssVopen
p79
(dp80
Vday
p81
I2
sVtime
p82
V1730
p83
ssa(dp84
Vclose
p85
(dp86
Vday
p87
I3
sVtime
p88
V1430
p89
ssVopen
p90
(dp91
Vday
p92
I3
sVtime
p93
V1145
p94
ssa(dp95
Vclose
p96
(dp97
Vday
p98
I3
sVtime
p99
V2100
p100
ssVopen
p101
(dp102
Vday
p103
I3
sVtime
p104
V1730
p105
ssa(dp106
Vclose
p107
(dp108
Vday
p109
I4
sVtime
p110
V1430
p111
ssVopen
p112
(dp113
Vday
p114
I4
sVtime
p115
V1145
p116
ssa(dp117
Vclose
p118
(dp119
Vday
p120
I4
sVtime
p121
V2100
p122
ssVopen
p123
(dp124
Vday
p125
I4
sVtime
p126
V1730
p127
ssa(dp128
Vclose
p129
(dp130
Vday
p131
I5
sVtime
p132
V1430
p133
ssVopen
p134
(dp135
Vday
p136
I5
sVtime
p137
V1145
p138
ssa(dp139
Vclose
p140
(dp141
Vday
p142
I5
sVtime
p143
V2100
p144
ssVopen
p145
(dp146
Vday
p147
I5
sVtime
p148
V1730
p149
ssa(dp150
Vclose
p151
(dp152
Vday
p153
I6
sVtime
p154
V1430
p155
ssVopen
p156
(dp157
Vday
p158
I6
sVtime
p159
V1100
p160
ssa(dp161
Vclose
p162
(dp163
Vday
p164
I6
sVtime
p165
V2100
p166
ssVopen
p167
(dp168
Vday
p169
I6
sVtime
p170
V1730
p171
ssassVvicinity
p172
VA, Fort Mason, 2 Marina Boulevard, San Francisco
p173
sVscope
p174
VGOOGLE
p175
sVwebsite
p176
Vhttp://greensrestaurant.com/
p177
sVutc_offset
p178
I-420
sVuser_ratings_total
p179
I1332
sVphotos
p180
(lp181
(dp182
Vphoto_reference
p183
VCmRdAAAA8kMHAh3RuE2wZLOTjxFIqXLbOmIegWUncBfSlCTmySloHxayvwh8HEWIm2nLyndBGhHqNrzZO9-7unsOZs1rjqLpRLZ4ZQ9kiCQKr8Q5JnImpaJg1xepRcA3LkD2nPybEhDs9DOmldmAUg5T3TxZWI58GhTokc2vclA90PfKjslcAYun9hM1WA
p184
sVwidth
p185
I1152
sVhtml_attributions
p186
(lp187
V<a href="https://maps.google.com/maps/contrib/101495021367761443234/photos">Walkerfive SFO</a>
p188
asVheight
p189
I648
sa(dp190
Vphoto_reference
p191
VCoQBcwAAAD4TAvMZPShVvHa_30Rft7sQzCaN67CASYwY1D63OQ96iaI-M5-5bfaiiyNWZRUZMNK_jitnoXcZ9Hk67WzxNY3C-4FEVxKugn_SoCqudqJ8T78m8Iu8GzUBebBzdQbocC_zKvk9FI3W-y0trJz9l3tvB2x9yUXD1Hnw27PZw1-SEhBnP-VNZgbI3pHQSmgvQrsiGhTIro4N8qx5XSdcTsr7DnLV79heiw
p192
sVwidth
p193
I2592
sVhtml_attributions
p194
(lp195
V<a href="https://maps.google.com/maps/contrib/106725150319974342947/photos">Serena Uible</a>
p196
asVheight
p197
I1936
sa(dp198
Vphoto_reference
p199
VCmRdAAAAI2K0hZDJg6FcaDPvKvuAwXxhpn63sCQur5c_zTPEzxCs_mxPsMkhXpzPyzqg0LZtQhsMjitIE1Mh1SgrIAWqhUjrUPQadB4leXDlS-BLAg7KFPGIEwvMERgWAQKJ3JVSEhA3GkdK9_tt22dUq1WfMm_nGhT7FBWfqYA_uXMHGVvoJFgp8C1FXg
p200
sVwidth
p201
I3264
sVhtml_attributions
p202
(lp203
V<a href="https://maps.google.com/maps/contrib/101684759371052236980/photos">Don V</a>
p204
asVheight
p205
I2448
sa(dp206
Vphoto_reference
p207
VCmRdAAAAsTuWp0fjtk9f0m5MBcTojNBHntmDTLgprW0TEP2bpWq1ezryxF3kobXlMPZ30WcL3FFHVHJS3d_pFtK21c_1LAvYPXf5zggW4QyuZkR3NQbER8OKAaxttOLQJQOjGSdvEhDtusNDMiCoUuJOMjxaUHAPGhRPfBr_nhq7hcU2G7-4nLN01CahoA
p208
sVwidth
p209
I1152
sVhtml_attributions
p210
(lp211
V<a href="https://maps.google.com/maps/contrib/101495021367761443234/photos">Walkerfive SFO</a>
p212
asVheight
p213
I648
sa(dp214
Vphoto_reference
p215
VCmRdAAAAGQq5pn3bi7H0AOXD0pA6hK6p3ZVnYn8DqqOKI7wG1wYZvdI5bTvk1qkXCVz97BQ36FsU7qr7AZZUT9F6Rvuk52ga0vHPsLO-v51JeSHXa8mTDcIs9ZaJGYJ1qXlO4fL7EhDIXT1Eg8nwy3L2Fjda_IyGGhSkhh5TLFJKKja7v_3fVxBhf--UwA
p216
sVwidth
p217
I3264
sVhtml_attributions
p218
(lp219
V<a href="https://maps.google.com/maps/contrib/101684759371052236980/photos">Don V</a>
p220
asVheight
p221
I2448
sa(dp222
Vphoto_reference
p223
VCmRdAAAAD4ZOHXUr8P3mhaSmDhKAk0lAwB0iDmsgzxqk4yO5gp9HXVqM67qt1k9PNjzWIKKWwaJLVpoNpzmaCm7MwiuWs1S_lZt6-lx-9Dthd20e6VvaysyhzASBWXA0HuxhjBzCEhCheBg5VepKCWXXGzCBxY-IGhSkwdVztveQutbsvg1URW300_UA8w
p224
sVwidth
p225
I1224
sVhtml_attributions
p226
(lp227
VFrom a Google User
p228
asVheight
p229
I1632
sa(dp230
Vphoto_reference
p231
VCoQBcwAAAFnJ3W-K8CDla7xM_xifN_oJzw6sEKJo7ULfx5zNNYMLVfbAuM503lqKOEey3G8J-7N3yFFrokzufaRZIu6NNElKnNPwx7DkxWa5UyizhDuGcfuHeVv0HDLREQjW_LoYLemuK85CUlGiedrhm_9f2XT0CTUu9M8ISgDTmf4eferJEhBr8JUvnLsysCWVHHBnrvVQGhSUiljcCRVqA65CfDYN0UfwOWI53g
p232
sVwidth
p233
I2592
sVhtml_attributions
p234
(lp235
V<a href="https://maps.google.com/maps/contrib/106725150319974342947/photos">Serena Uible</a>
p236
asVheight
p237
I1936
sa(dp238
Vphoto_reference
p239
VCmRdAAAADaJT1GAU2Nq4gGL5HJnz2BE8gyWGA9tKmOnvx6z-D0IChsxCAafV6svCL-3Ki7bc6vVyRNLDqv3LbCwUTHWsw7JHsGVHpY95HoVrjd8fLZqmvgdAbKNEy3v01TbvnEg1EhAlW-nCRDZO2T-wgpvN-mkEGhTPYZTvITrdtY78uI6EGaurYQFNUA
p240
sVwidth
p241
I3264
sVhtml_attributions
p242
(lp243
V<a href="https://maps.google.com/maps/contrib/111234177999678354684/photos">heinztools heinztools.com</a>
p244
asVheight
p245
I2448
sa(dp246
Vphoto_reference
p247
VCmRdAAAAQWjeO8p-QC1x5F1En963FCcQ3ciTVXvMgPFFjg4doKdUPdYVOx1_bJmNpMfi8GvJr7w1tBi6s0QomfCtsTE-9_lW8bGq86DdWJWoZ2sy0VvWoSFxu5vbFmzoAuAscteKEhCVgQP83qnraU1SSYwz8f2KGhRJ39B-6Mh9kRkfOM4ZFIPrCmgsBw
p248
sVwidth
p249
I1152
sVhtml_attributions
p250
(lp251
V<a href="https://maps.google.com/maps/contrib/101495021367761443234/photos">Walkerfive SFO</a>
p252
asVheight
p253
I648
sa(dp254
Vphoto_reference
p255
VCoQBcwAAADHL0iPr2-2fdrVHHhuSZL-9idNUmXcFooywe6K9JDb8MLqEMGrfKpwXeZ0WDv4It2iuRp5OjdsU_dic8L9r9J-RtSyAnUSnf_zwrQjrKvYDBe7Yb_bDtKjA4naXn0daXkc6kPF8O_6y6XWPjvm60zd7d-7_wdk9cF8QmsrQevUFEhB0qhypiAHKeDEyITwV8FrEGhReNspKdvc-A3reAJGSlhrIc6nKhw
p256
sVwidth
p257
I2592
sVhtml_attributions
p258
(lp259
V<a href="https://maps.google.com/maps/contrib/106725150319974342947/photos">Serena Uible</a>
p260
asVheight
p261
I1936
sasVtypes
p262
(lp263
Vrestaurant
p264
aVfood
p265
aVpoint_of_interest
p266
aVestablishment
p267
asVicon
p268
Vhttps://maps.gstatic.com/mapfiles/place_api/icons/restaurant-71.png
p269
sVname
p270
VGreens Restaurant
p271
sVgeometry
p272
(dp273
Vaccess_points
p274
(lp275
(dp276
Vtravel_modes
p277
(lp278
VDRIVING
p279
aVTRANSIT
p280
asVlocation
p281
(dp282
Vlat
p283
g3
(S'37.8068709'
tRp284
sVlng
p285
g3
(S'-122.4319947'
tRp286
ssasVlocation
p287
(dp288
Vlat
p289
g3
(S'37.8067965'
tRp290
sVlng
p291
g3
(S'-122.4321689'
tRp292
sssVadr_address
p293
V<span class="extended-address">A, Fort Mason</span>, <span class="street-address">2 Marina Blvd</span>, <span class="locality">San Francisco</span>, <span class="region">CA</span> <span class="postal-code">94123</span>, <span class="country-name">United States</span>
p294
sVinternational_phone_number
p295
V+1 415-771-6222
p296
sVreviews
p297
(lp298
(dp299
Vrating
p300
I3
sVaspects
p301
(lp302
(dp303
Vrating
p304
I1
sVtype
p305
Voverall
p306
sasVprofile_photo_url
p307
V//lh3.googleusercontent.com/-Ll30q-UDGHo/AAAAAAAAAAI/AAAAAAAABw0/vLt2FN1kEds/photo.jpg
p308
sVlanguage
p309
Ven
p310
sVtext
p311
VI didn't find anything special about this place. The view is really beautiful but that's all. The food was ok but I was expecting more after reading some good reviews. I had better vegetarian food at Millenium.
p312
sVauthor_name
p313
VTiti Vasconcellos
p314
sVauthor_url
p315
Vhttps://plus.google.com/113135397941561646737
p316
sVtime
p317
I1454992444
sa(dp318
Vrating
p319
I5
sVaspects
p320
(lp321
(dp322
Vrating
p323
I3
sVtype
p324
Voverall
p325
sasVprofile_photo_url
p326
V//lh3.googleusercontent.com/-64EdKpZU0Ag/AAAAAAAAAAI/AAAAAAABz0w/7rthuWq0wH4/photo.jpg
p327
sVlanguage
p328
Ven
p329
sVtext
p330
VI ordered the winter sampler, mango iced tea and the banana chocolate cake with coconut ice cream. Everything was excellent, especially the dessert.  Sweet without being too much.\u000a\u000aService is friendly, attentive, professional and not rushed. \u000a\u000aSpace combines beauty and industrial.  Beautiful paintings with nice view. Ceiling is open with spot lighting and metal frames. Restaurant is not quiet, but noise is beatable.\u000a\u000aWould love to come back.\u000a\u000a
p331
sVauthor_name
p332
VSerena Uible
p333
sVauthor_url
p334
Vhttps://plus.google.com/106725150319974342947
p335
sVtime
p336
I1458619783
sa(dp337
Vrating
p338
I3
sVaspects
p339
(lp340
(dp341
Vrating
p342
I1
sVtype
p343
Voverall
p344
sasVprofile_photo_url
p345
V//lh6.googleusercontent.com/-77zXrrD9xPw/AAAAAAAAAAI/AAAAAAAAABk/-2ChWi_NXzw/photo.jpg
p346
sVlanguage
p347
Ven
p348
sVtext
p349
VThe view is best part. The food is solid. But the service was pretty bad. One needs to ask for things multiple times until it's addressed. The place feels like a casual cafeteria even though it's priced like a fancy chic restaurant. Since the view is best during the day - better to take your out-of-town friends during the day and book way in advance. For the food, the pupusas was pretty original - eggs and cheese and summer squash in tortilla wrapping. I liked the salsa sauce. The mushroom barley soup is more like a homemade soup - quite good. One visit every 3 years is probably the right frequency. Weekends can be a mob scene.
p350
sVauthor_name
p351
VWarren Lang
p352
sVauthor_url
p353
Vhttps://plus.google.com/104296471815066404961
p354
sVtime
p355
I1461312905
sa(dp356
Vrating
p357
I4
sVaspects
p358
(lp359
(dp360
Vrating
p361
I2
sVtype
p362
Voverall
p363
sasVprofile_photo_url
p364
V//lh4.googleusercontent.com/-0R09xO74JKo/AAAAAAAAAAI/AAAAAAACJ-M/eGDvS0FpJz0/photo.jpg
p365
sVlanguage
p366
Ven
p367
sVtext
p368
VMenu changes every day, though some dishes are always available with small variation. I've rarely been disappointed (I'm not vegetarian), but sometimes you don't get much for what you pay.\u000a\u000aNo matter where you sit you'll get a stunning view on the bay and the Golden Gate Bridge. If you make a reservation (you'd better on weekend), ask to NOT be seated near the entrance. The massive wooden tables look great but unless you're 10 years old, you'll bump into it constantly.
p369
sVauthor_name
p370
VThomas Devaux
p371
sVauthor_url
p372
Vhttps://plus.google.com/113348736951055038973
p373
sVtime
p374
I1447626813
sa(dp375
Vrating
p376
I4
sVaspects
p377
(lp378
(dp379
Vrating
p380
I2
sVtype
p381
Voverall
p382
sasVprofile_photo_url
p383
V//lh5.googleusercontent.com/-iBX89cz1gAQ/AAAAAAAAAAI/AAAAAAADFho/1I5CpXFSd3Y/photo.jpg
p384
sVlanguage
p385
Ven
p386
sVtext
p387
VI've coordinated a wedding here and also eaten here for lunch a number of times. You get a gorgeous view of the Golden Gate Bridge as you dine on rustic vegetarian dishes. Recently I had the bowl of chili and vegetable sample platter, which was super tasty. 
p388
sVauthor_name
p389
VVera DeVera
p390
sVauthor_url
p391
Vhttps://plus.google.com/111107191255143707404
p392
sVtime
p393
I1458093795
sasVformatted_phone_number
p394
V(415) 771-6222
p395
sVaddress_components
p396
(lp397
(dp398
Vlong_name
p399
VA
sVtypes
p400
(lp401
Vpremise
p402
asVshort_name
p403
VA
sa(dp404
Vlong_name
p405
V2
sVtypes
p406
(lp407
Vstreet_number
p408
asVshort_name
p409
V2
sa(dp410
Vlong_name
p411
VMarina Boulevard
p412
sVtypes
p413
(lp414
Vroute
p415
asVshort_name
p416
VMarina Blvd
p417
sa(dp418
Vlong_name
p419
VSan Francisco
p420
sVtypes
p421
(lp422
Vlocality
p423
aVpolitical
p424
asVshort_name
p425
VSF
p426
sa(dp427
Vlong_name
p428
VCalifornia
p429
sVtypes
p430
(lp431
Vadministrative_area_level_1
p432
aVpolitical
p433
asVshort_name
p434
VCA
p435
sa(dp436
Vlong_name
p437
VUnited States
p438
sVtypes
p439
(lp440
Vcountry
p441
aVpolitical
p442
asVshort_name
p443
VUS
p444
sa(dp445
Vlong_name
p446
V94123
p447
sVtypes
p448
(lp449
Vpostal_code
p450
asVshort_name
p451
V94123
p452
sa(dp453
Vlong_name
p454
VFort Mason
p455
sVtypes
p456
(lp457
sVshort_name
p458
VFort Mason
p459
sas.