(dp1
Vrating
p2
cdecimal
Decimal
p3
(S'4.2'
tRp4
sVreference
p5
VCnRkAAAAPEtQLEGhbKn4MUzW8W7jyX1Ma_5AAciuUHzUwxF1PJpB0zs88mAbkP111FRCer8wSJPHvfzeNeQ-4gBGQz-npAy5NpLqW85BQxJXf0WMi1fhoXdU0oST1CqgsegXg93bk7keQwGWRyzfVUY3C-2qZhIQBjIJftlo5lJtIi0TqWw94xoU0TKLDeFtaOEkx38h4SO4-Fejzso
p6
sVprice_level
p7
I1
sVplace_id
p8
VChIJiZyN7IeAhYARnCn-G6GH73Q
p9
sVurl
p10
Vhttps://maps.google.com/?cid=8426102553862613404
p11
sVformatted_address
p12
V690 Mission St, San Francisco, CA 94105, United States
p13
sVid
p14
V7e38d186fbbcaf4bc1cc7cc1f1283a0922d54e24
p15
sVopening_hours
p16
(dp17
Vweekday_text
p18
(lp19
VMonday: 6:30 AM \u2013 11:00 PM
p20
aVTuesday: 6:30 AM \u2013 11:00 PM
p21
aVWednesday: 6:30 AM \u2013 11:00 PM
p22
aVThursday: 6:30 AM \u2013 11:00 PM
p23
aVFriday: 6:30 AM \u2013 11:00 PM
p24
aVSaturday: 8:00 AM \u2013 11:00 PM
p25
aVSunday: 8:00 AM \u2013 11:00 PM
p26
asVopen_now
p27
I01
sVperiods
p28
(lp29
(dp30
Vclose
p31
(dp32
Vday
p33
I0
sVtime
p34
V2300
p35
ssVopen
p36
(dp37
Vday
p38
I0
sVtime
p39
V0800
p40
ssa(dp41
Vclose
p42
(dp43
Vday
p44
I1
sVtime
p45
V2300
p46
ssVopen
p47
(dp48
Vday
p49
I1
sVtime
p50
V0630
p51
ssa(dp52
Vclose
p53
(dp54
Vday
p55
I2
sVtime
p56
V2300
p57
ssVopen
p58
(dp59
Vday
p60
I2
sVtime
p61
V0630
p62
ssa(dp63
Vclose
p64
(dp65
Vday
p66
I3
sVtime
p67
V2300
p68
ssVopen
p69
(dp70
Vday
p71
I3
sVtime
p72
V0630
p73
ssa(dp74
Vclose
p75
(dp76
Vday
p77
I4
sVtime
p78
V2300
p79
ssVopen
p80
(dp81
Vday
p82
I4
sVtime
p83
V0630
p84
ssa(dp85
Vclose
p86
(dp87
Vday
p88
I5
sVtime
p89
V2300
p90
ssVopen
p91
(dp92
Vday
p93
I5
sVtime
p94
V0630
p95
ssa(dp96
Vclose
p97
(dp98
Vday
p99
I6
sVtime
p100
V2300
p101
ssVopen
p102
(dp103
Vday
p104
I6
sVtime
p105
V0800
p106
ssassVvicinity
p107
V690 Mission Street, San Francisco
p108
sVscope
p109
VGOOGLE
p110
sVwebsite
p111
Vhttp://www.thegrovesf.com/
p112
sVutc_offset
p113
I-420
sVuser_ratings_total
p114
I195
sVphotos
p115
(lp116
(dp117
Vphoto_reference
p118
VCmRdAAAAMRgm3dVJOJXpaLDAlwRofnJrjlfZElzoiHspCYQABt73nGS_tXOvFpnu4L0JdF-ABBJIsDId2yqS1mTGQDkMaKFSxZzI_3ATGN01BUNP4aFxA5ZQLFyL1zcCGGAdCX57EhBqs_F9WwgYNsBwb3HPKT-CGhRO7UicJBudObXm9fKs9pf2AwR40A
p119
sVwidth
p120
I5312
sVhtml_attributions
p121
(lp122
V<a href="https://maps.google.com/maps/contrib/100769310211623822340/photos">Tin Huynh</a>
p123
asVheight
p124
I2988
sa(dp125
Vphoto_reference
p126
VCmRdAAAAwLFVtt9odtvHTag40VDfZBX-Mqr4qadUWrpY0Hw_Isgbxr4ONpdPf1kjcL26cxNGVElebEHrU5tgollvvS8cjUr8WAKVIX336mJUaabbsDrj3kpu65etFEpps2tN0K-QEhBcy59G2Fngp7Gj0WFEAvCWGhSbLzAuB2hVaVzOzJ9bJCy5Jn0z6w
p127
sVwidth
p128
I2432
sVhtml_attributions
p129
(lp130
V<a href="https://maps.google.com/maps/contrib/114067044779953996453/photos">Andrew Noske</a>
p131
asVheight
p132
I4320
sa(dp133
Vphoto_reference
p134
VCoQBcwAAALw_Kz_aWQ2jVJu77JpyMwLW5Hm24iu3xhqIOC8BTQ940Znws5I-s4EEW10vENXqkoyEG04IbNel2CHGvHFEFoP8jJHT40NeTj7CZELY3ALmJnMvcTm9agHCr3cuLL_iKXVPSy8K2Vaw2ohcAsSe8v9txcj7lC--ehXjPN-6I6NqEhCqN78zJ1EIb_XsYkEyXhXtGhTFuAQ2mXuPyVx5D3SyMaLkAKcszA
p135
sVwidth
p136
I2048
sVhtml_attributions
p137
(lp138
V<a href="https://maps.google.com/maps/contrib/105517091820243000529/photos">Joe W</a>
p139
asVheight
p140
I1532
sa(dp141
Vphoto_reference
p142
VCmRdAAAAHTNLCThTfncNPJPrRjRSm40FwxJywFat7mu2JLrSNIHs9L_fmmIMKluuTTaYw2AsmjCFp6jil7e0eKAVT_48ZYs8N9L96mafoGiwBOi-S6doW9WSNSt0CR9gBqu1eFzZEhBq3qXJ1mjejwChFnSlumZgGhQTSg-SALocZYpf3eyzUJTBsU6Vew
p143
sVwidth
p144
I4320
sVhtml_attributions
p145
(lp146
V<a href="https://maps.google.com/maps/contrib/114067044779953996453/photos">Andrew Noske</a>
p147
asVheight
p148
I2432
sa(dp149
Vphoto_reference
p150
VCmRdAAAA6S33cm6QB25BFoAdlrU6YqHvRkyYjorDu4gHwB1WCEzs1Th5wM2RvYHcA6h07AJ0klczhPbmGAAWuJz_inVFtUqMj4daqMPhPxYhprjpNfFYxoZYStZ9HOF8-NdDR5reEhCK-5v_r4xLhpBjrolRKiLuGhT_BvMP0TwCFIBDD6iP_zvbvQW-Bw
p151
sVwidth
p152
I2048
sVhtml_attributions
p153
(lp154
V<a href="https://maps.google.com/maps/contrib/109454089163745588864/photos">Filipe Almeida</a>
p155
asVheight
p156
I1538
sa(dp157
Vphoto_reference
p158
VCmRdAAAAZBYWhLriYh6JNzv5kxI0dI9LeoiU0CqFAJinG7yq-FDxRyk3syde0W2zbVtPbI8oPIyB28bcEAdyVq6b6nItjs2QGhb9oAJQLWVW6ReocSDeFhxKlXNMSpwnHWorj6z0EhAlFHCpBV8o17uo_PIMpI9eGhQFz_Gpp3AzTI-sLklh6ms7Qjhk8w
p159
sVwidth
p160
I2048
sVhtml_attributions
p161
(lp162
V<a href="https://maps.google.com/maps/contrib/109842117639520159116/photos">Gyuri Grell</a>
p163
asVheight
p164
I1536
sa(dp165
Vphoto_reference
p166
VCmRdAAAA2kMLPyX3jWOrnZE1fNrj2dioRDLZ2S73cvM9N7VohPLhJ7Lxx3JzY1WMvsFRTfYwlVHsK-DIcYC4NVFgd_F2xKDHmjEdHIU6omDHdNhgjQUQtRRT813JniyrU8sr2PxzEhCLmBXsC1TD0pFX773_bjaMGhRFjvfJTWc3-jPRyi0q-YfaC5E_WA
p167
sVwidth
p168
I1632
sVhtml_attributions
p169
(lp170
V<a href="https://maps.google.com/maps/contrib/102081466907669508480/photos">Daniel Graf</a>
p171
asVheight
p172
I1224
sa(dp173
Vphoto_reference
p174
VCoQBcwAAAKP6Kb85pfeWM1mA_CZDvzs5S-DQIp_RaQ6QJSmSzkZl8PG8vntaTTd6RJJUadIL30u9iWrg-2LmvjxS3LWRFhbhZ-AIDgqth-hEvvLEhN8UkpnA16Kwj3pVBnUkKZVD984ITcc4JoGOJ6PFpoFvWg_iXilS2k1onrfOXahJlbudEhCP3dWecbNg-GtnOlTYblXQGhTt_Gwh7acXFDj55YoTlfgpDJX7bQ
p175
sVwidth
p176
I4096
sVhtml_attributions
p177
(lp178
V<a href="https://maps.google.com/maps/contrib/110745176717905121030/photos">Gunn H. Gunn</a>
p179
asVheight
p180
I3072
sa(dp181
Vphoto_reference
p182
VCmRdAAAAzAPdA4Yrih9SgaR2e-a6d4qnI7boiRN0xftvNsHRhv7yySAM8vuwzEGRl8S8lQmT4zH4APqS2CWp_CpzsXwwqHBQRIeNiRfKNsbKF6cdwjkZ-Mo4Ljp2qY6C20ANkfMIEhDB53bh1OXpIFQj2UcoNBSyGhQM3QIBnuHzHO2H-khQD84kkV3VCg
p183
sVwidth
p184
I960
sVhtml_attributions
p185
(lp186
V<a href="https://maps.google.com/maps/contrib/112452525836547802287/photos">Jacob Edholm</a>
p187
asVheight
p188
I1293
sa(dp189
Vphoto_reference
p190
VCmRdAAAAWXPA17hCktRadzgufbonRvMpHOhFks3cyNw9CWB_lhfdl3hD1xPCiZlpgl-0UWTG0dbf8XfB53PRzwKJhBogdwkizSxrQfRvI5bX6IguF4kbvmGNHXP9wkX4PQmm0ZKUEhAeXmkN_zxc7ZDNLJBdSUGhGhRUim-X7v5oJQ308Arzr0s5zw_7wg
p191
sVwidth
p192
I5376
sVhtml_attributions
p193
(lp194
V<a href="https://maps.google.com/maps/contrib/106369855854219724181/photos">Talal Algahtani</a>
p195
asVheight
p196
I3024
sasVtypes
p197
(lp198
Vrestaurant
p199
aVfood
p200
aVpoint_of_interest
p201
aVestablishment
p202
asVicon
p203
Vhttps://maps.gstatic.com/mapfiles/place_api/icons/restaurant-71.png
p204
sVname
p205
VGrove Yerba Buena
p206
sVgeometry
p207
(dp208
Vaccess_points
p209
(lp210
(dp211
Vtravel_modes
p212
(lp213
VDRIVING
p214
aVBICYCLING
p215
aVWALKING
p216
aVTRANSIT
p217
asVlocation
p218
(dp219
Vlat
p220
g3
(S'37.7864315'
tRp221
sVlng
p222
g3
(S'-122.4018206'
tRp223
ssasVlocation
p224
(dp225
Vlat
p226
g3
(S'37.7865472'
tRp227
sVlng
p228
g3
(S'-122.4019763'
tRp229
sssVadr_address
p230
V<span class="street-address">690 Mission St</span>, <span class="locality">San Francisco</span>, <span class="region">CA</span> <span class="postal-code">94105-4014</span>, <span class="country-name">United States</span>
p231
sVinternational_phone_number
p232
V+1 415-957-0558
p233
sVreviews
p234
(lp235
(dp236
Vrating
p237
I5
sVaspects
p238
(lp239
(dp240
Vrating
p241
I3
sVtype
p242
Voverall
p243
sasVprofile_photo_url
p244
V//lh6.googleusercontent.com/-S3VzHZTE5n8/AAAAAAAAAAI/AAAAAAAAt0M/wx4fQhJHs90/photo.jpg
p245
sVlanguage
p246
Ven
p247
sVtext
p248
VThe service was impeccable. Such a warm and friendly atmosphere. \u000a\u000aThe manager with all hands on deck. Highly impressed.\u000a\u000aAnd the mimosas are like heaven
p249
sVauthor_name
p250
VTaShan Parks Twyman
p251
sVauthor_url
p252
Vhttps://plus.google.com/106788035561548658043
p253
sVtime
p254
I1453062069
sa(dp255
Vrating
p256
I5
sVaspects
p257
(lp258
(dp259
Vrating
p260
I3
sVtype
p261
Voverall
p262
sasVprofile_photo_url
p263
V//lh5.googleusercontent.com/-owl1wO9a85s/AAAAAAAAAAI/AAAAAAAAKP4/fQWrYXxsNwA/photo.jpg
p264
sVlanguage
p265
Ven
p266
sVtext
p267
VMy goto San Fran spot for lunch and dinner. Great salads and sandwiches! Just good all around can't go wrong. Can get busy during lunch hour.
p268
sVauthor_name
p269
VCarly F
p270
sVauthor_url
p271
Vhttps://plus.google.com/101051271337016585618
p272
sVtime
p273
I1459325403
sa(dp274
Vrating
p275
I3
sVaspects
p276
(lp277
(dp278
Vrating
p279
I1
sVtype
p280
Voverall
p281
sasVprofile_photo_url
p282
V//lh3.googleusercontent.com/-kApob5cB31c/AAAAAAAAAAI/AAAAAAAAAcc/yiL1VNFIFSs/photo.jpg
p283
sVlanguage
p284
Ven
p285
sVtext
p286
VAt the Grove, you order at the counter, get a little stand with your order number on it, pick up your beverages, and take your seat. When your food is ready, they'll drop it off.\u000a\u000aThe line can be a bit long during peak hours.\u000a\u000aThe food is reliably good, but never great.
p287
sVauthor_name
p288
VZach Shepherd
p289
sVauthor_url
p290
Vhttps://plus.google.com/110154523386821720883
p291
sVtime
p292
I1452409671
sa(dp293
Vrating
p294
I5
sVaspects
p295
(lp296
(dp297
Vrating
p298
I3
sVtype
p299
Voverall
p300
sasVprofile_photo_url
p301
V//lh3.googleusercontent.com/-UvSdzWdYY4s/AAAAAAAAAAI/AAAAAAAATZo/E-Jg3MXruXE/photo.jpg
p302
sVlanguage
p303
Ven
p304
sVtext
p305
VGet a great variety of meals here, breakfast lunch and dinner. They also serve desserts, coffee and tea including a delicious masala chai. The prices are a little higher than other places, but we'll worth it. Overall great experience. 
p306
sVauthor_name
p307
VGyuri Grell
p308
sVauthor_url
p309
Vhttps://plus.google.com/109842117639520159116
p310
sVtime
p311
I1451842219
sa(dp312
Vrating
p313
I4
sVaspects
p314
(lp315
(dp316
Vrating
p317
I2
sVtype
p318
Voverall
p319
sasVprofile_photo_url
p320
V//lh4.googleusercontent.com/-V-l50zavr34/AAAAAAAAAAI/AAAAAAAAXrg/rOcu1lwjn-k/photo.jpg
p321
sVlanguage
p322
Ven
p323
sVtext
p324
VGreat atmosphere, good food, unique style of restaurant.  I would highly suggest their club sandwich made from real turkey.  One of, if not the best, turkey club sandwiches I've ever had.  Every time I visit San Francisco I make sure to go here.\u000a\u000aI gave only 4 stars however due to the price.  It's fairly expensive for just about anything on the menu.
p325
sVauthor_name
p326
VDaniel L
p327
sVauthor_url
p328
Vhttps://plus.google.com/106086647487610344884
p329
sVtime
p330
I1447953662
sasVformatted_phone_number
p331
V(415) 957-0558
p332
sVaddress_components
p333
(lp334
(dp335
Vlong_name
p336
V690
p337
sVtypes
p338
(lp339
Vstreet_number
p340
asVshort_name
p341
V690
p342
sa(dp343
Vlong_name
p344
VMission Street
p345
sVtypes
p346
(lp347
Vroute
p348
asVshort_name
p349
VMission St
p350
sa(dp351
Vlong_name
p352
VSan Francisco
p353
sVtypes
p354
(lp355
Vlocality
p356
aVpolitical
p357
asVshort_name
p358
VSF
p359
sa(dp360
Vlong_name
p361
VCalifornia
p362
sVtypes
p363
(lp364
Vadministrative_area_level_1
p365
aVpolitical
p366
asVshort_name
p367
VCA
p368
sa(dp369
Vlong_name
p370
VUnited States
p371
sVtypes
p372
(lp373
Vcountry
p374
aVpolitical
p375
asVshort_name
p376
VUS
p377
sa(dp378
Vlong_name
p379
V94105
p380
sVtypes
p381
(lp382
Vpostal_code
p383
asVshort_name
p384
V94105
p385
sa(dp386
Vlong_name
p387
V4014
p388
sVtypes
p389
(lp390
Vpostal_code_suffix
p391
asVshort_name
p392
V4014
p393
sas.