(dp1
Vrating
p2
cdecimal
Decimal
p3
(S'4.4'
tRp4
sVreference
p5
VCnRhAAAA5fE49-V7VfUiV6uF4woHUxPG2LCIvdpQzJTejbKqURVcYtrSe5hqZ7h_GvRGsDzM_-ypgF05uqUDB_ptTc9ReUjM6LFg1rjfmU6dS4z7mKtc49zYGlW4-VDZJR3Fs7f-oeqrkjdMynANYpEMLIfYDBIQsqtiVp2iRa8dmMLk28KuhhoUuYBbicSlQcY6-Y3-bi-Q1GRw7-I
p6
sVprice_level
p7
I1
sVplace_id
p8
VChIJoe7XC6F-hYARYIiq13W7xeM
p9
sVurl
p10
Vhttps://maps.google.com/?cid=16412730531825485920
p11
sVformatted_address
p12
V1620 Shattuck Ave, Berkeley, CA 94709, United States
p13
sVid
p14
V8ace2833a46ceeef45f23fcff21739a436555e03
p15
sVopening_hours
p16
(dp17
Vweekday_text
p18
(lp19
VMonday: 7:00 AM \u2013 2:00 PM
p20
aVTuesday: 7:00 AM \u2013 4:30 PM
p21
aVWednesday: 7:00 AM \u2013 4:30 PM
p22
aVThursday: 7:00 AM \u2013 4:30 PM
p23
aVFriday: 7:00 AM \u2013 4:30 PM
p24
aVSaturday: 8:00 AM \u2013 4:30 PM
p25
aVSunday: 8:00 AM \u2013 4:30 PM
p26
asVopen_now
p27
I01
sVperiods
p28
(lp29
(dp30
Vclose
p31
(dp32
Vday
p33
I0
sVtime
p34
V1630
p35
ssVopen
p36
(dp37
Vday
p38
I0
sVtime
p39
V0800
p40
ssa(dp41
Vclose
p42
(dp43
Vday
p44
I1
sVtime
p45
V1400
p46
ssVopen
p47
(dp48
Vday
p49
I1
sVtime
p50
V0700
p51
ssa(dp52
Vclose
p53
(dp54
Vday
p55
I2
sVtime
p56
V1630
p57
ssVopen
p58
(dp59
Vday
p60
I2
sVtime
p61
V0700
p62
ssa(dp63
Vclose
p64
(dp65
Vday
p66
I3
sVtime
p67
V1630
p68
ssVopen
p69
(dp70
Vday
p71
I3
sVtime
p72
V0700
p73
ssa(dp74
Vclose
p75
(dp76
Vday
p77
I4
sVtime
p78
V1630
p79
ssVopen
p80
(dp81
Vday
p82
I4
sVtime
p83
V0700
p84
ssa(dp85
Vclose
p86
(dp87
Vday
p88
I5
sVtime
p89
V1630
p90
ssVopen
p91
(dp92
Vday
p93
I5
sVtime
p94
V0700
p95
ssa(dp96
Vclose
p97
(dp98
Vday
p99
I6
sVtime
p100
V1630
p101
ssVopen
p102
(dp103
Vday
p104
I6
sVtime
p105
V0800
p106
ssassVvicinity
p107
V1620 Shattuck Avenue, Berkeley
p108
sVscope
p109
VGOOGLE
p110
sVwebsite
p111
Vhttp://www.guerillacafe.com/
p112
sVutc_offset
p113
I-420
sVuser_ratings_total
p114
I65
sVphotos
p115
(lp116
(dp117
Vphoto_reference
p118
VCmRdAAAABwmri8-ElFlA_FagVcEATlEWKlvDTZpzxoeRfd0aMpFpr5u4uoEjcxDg_g1c57SunG6zqrg8LqzIXh_OysERcxSVGxFmkJu4HyT_HwvceiVAjGZX_uKCtB4rOioIqdX3EhD8KlM61g6Avhm00Yhuy-XQGhSjUw2DGiw0V9VCkf6763GKfhNKBQ
p119
sVwidth
p120
I430
sVhtml_attributions
p121
(lp122
V<a href="https://maps.google.com/maps/contrib/114793145856343531045/photos">Guerilla Cafe</a>
p123
asVheight
p124
I764
sa(dp125
Vphoto_reference
p126
VCmRdAAAA4o_4U_Y6rCwrpGl3TI4dEXUGObNZ1Qivso4m8aP2meeeexb0T5J2MLiYY4YmuxzcdRL5Lz-5SpKFxI04Z4IkUlr7rVRTEH2YqVbPR4Yw5C_lgZPAhlcRtDKDy_uM8_PGEhA97s9_KiKAeXRftnQxOFrVGhTKv4lgcV_1ID9DX_NLd9dyTF_7ww
p127
sVwidth
p128
I2048
sVhtml_attributions
p129
(lp130
V<a href="https://maps.google.com/maps/contrib/114793145856343531045/photos">Guerilla Cafe</a>
p131
asVheight
p132
I1152
sa(dp133
Vphoto_reference
p134
VCmRdAAAAmevXhZ1huDlUOMPX7gY1-SlOHRbcmtvvH1xodQ6KYKBg9u8P-qRuBj3Pfafxp-J7YITPmO9zWPltmyFIfCzfVsow81GV_NDnsqDNVTWWQKDiPc45M35a_RL3QzN9inQOEhBp4Lbu2Uve5tnZr-WKKmVZGhSMiSb6zttjQCf3bpr8ktFngc_zgQ
p135
sVwidth
p136
I960
sVhtml_attributions
p137
(lp138
V<a href="https://maps.google.com/maps/contrib/114793145856343531045/photos">Guerilla Cafe</a>
p139
asVheight
p140
I720
sa(dp141
Vphoto_reference
p142
VCmRdAAAAO8IRWG34Kw-9lW3ClftAkP2SVxLQaornaAtpPrkWlyfDAPi1WIpGnEzS-rpmVsXSPqJZi7TEhlDqIS1eCU9DQQGxrXrar62NnwCIvwwiXcvxsC-zG_i7f5fjryilt9vMEhALOcyHE5a__Nfbwab0yv9NGhQuBZewlxUc5P70Qr31YyBVaiIjAw
p143
sVwidth
p144
I430
sVhtml_attributions
p145
(lp146
V<a href="https://maps.google.com/maps/contrib/114793145856343531045/photos">Guerilla Cafe</a>
p147
asVheight
p148
I764
sa(dp149
Vphoto_reference
p150
VCmRdAAAAfFHEuGKjbl_-bIxWp5l-62N5EuMBcMA7OC2qnomrAmRSWGNbH1ZarDFnR7gEI6B6CPnn1yWS2iJB_9RdLuHXLXaJpPzmJHaRxeYKQolIVEVrcXmOD0pi5oiC8RvbZFmKEhCLTFlwCLXOR2_MRqsjw1a3GhRidzYOv9KMXx1F_xjnYjN1YT3OlA
p151
sVwidth
p152
I1020
sVhtml_attributions
p153
(lp154
V<a href="https://maps.google.com/maps/contrib/114793145856343531045/photos">Guerilla Cafe</a>
p155
asVheight
p156
I765
sa(dp157
Vphoto_reference
p158
VCmRdAAAAbZ2xBDlwjIeI_uSiByOClEClBrKXhvk0u6lY5ULyUhid77cXHd4WRhHdYCupIWh2BqKWDI2g2HSMMoq6ww4suVuLZXIPEKVQfcyxcPkDYiIXNiKr9L3rO9dhqhNDYKIuEhCaKzQP5re2fYlodAVcCRU4GhSyN0GxeNUbFtZ3UNZICKcJP3cHLw
p159
sVwidth
p160
I468
sVhtml_attributions
p161
(lp162
V<a href="https://maps.google.com/maps/contrib/114793145856343531045/photos">Guerilla Cafe</a>
p163
asVheight
p164
I390
sa(dp165
Vphoto_reference
p166
VCmRdAAAA-dth1gLX6om9t2aE5JbcYbb48cVYXxbOZDsp11mVtpkkNC1Tnb0liw6cJw7SV_sdJk2gBngMQCLY0zEYWOjCIlo0Ak2HuDw42mcuENMMxwltLd7oBurAI2xQdPupIPi0EhD45H9C6hTBp3TMlURx2bhqGhQmZ_Om1CRltCfup8w2TEtW3c34Mw
p167
sVwidth
p168
I1360
sVhtml_attributions
p169
(lp170
V<a href="https://maps.google.com/maps/contrib/114793145856343531045/photos">Guerilla Cafe</a>
p171
asVheight
p172
I765
sa(dp173
Vphoto_reference
p174
VCmRdAAAAFgXoB8170iODqZUL8ksnkoXQRU_de75LYXRI2M9DmbP1lf2KheEf_dX3ZeVfaSyl_UoAxPpprz9KJQ4Xc6LUAZoHTtUUiL05Ki4DsYbxdobbw0Zemf59G3XRTi0s1OsYEhB7ycdzcO6cwgbM-KBIjv_4GhSr6FFgBJkGr2UlyTFhEMVFo_AWkg
p175
sVwidth
p176
I1020
sVhtml_attributions
p177
(lp178
V<a href="https://maps.google.com/maps/contrib/114793145856343531045/photos">Guerilla Cafe</a>
p179
asVheight
p180
I765
sa(dp181
Vphoto_reference
p182
VCmRdAAAA2DyEsYbQ5wYSV3Rh7x-JNhi1xNuskV2eKXZXj9sg5043DVss1nWVx3oh6ZQNaQO5hJZuR380mP2TNKvBR2NK02R08ggSnHCLa5r7sxCnxtw9oL3Eu6hDwBnED8tPU0oOEhC9yoqGb8b3SwOOoE0U4esDGhQMoU9HXS0QDwcN7Zau4HQ0Wd7Erg
p183
sVwidth
p184
I1090
sVhtml_attributions
p185
(lp186
V<a href="https://maps.google.com/maps/contrib/114793145856343531045/photos">Guerilla Cafe</a>
p187
asVheight
p188
I550
sa(dp189
Vphoto_reference
p190
VCmRdAAAA-UCyw0pgNDhR-06AGpDCUea-oEDd1LxTEchZqD4BZDK6S3ft0yeh0klOW-6kaBicXkg4P3T7B2ysJ_TVGrisi6bxbXhkTSRm1bvcApRiqSO8qpW8kQCYVRlSYdEycEEIEhBN2m99RbkIrkkkeWVyRS0XGhRg1Pbwu41Yp4yyCu29TsPBgR0GGQ
p191
sVwidth
p192
I960
sVhtml_attributions
p193
(lp194
V<a href="https://maps.google.com/maps/contrib/114793145856343531045/photos">Guerilla Cafe</a>
p195
asVheight
p196
I716
sasVtypes
p197
(lp198
Vcafe
p199
aVstore
p200
aVrestaurant
p201
aVfood
p202
aVpoint_of_interest
p203
aVestablishment
p204
asVicon
p205
Vhttps://maps.gstatic.com/mapfiles/place_api/icons/cafe-71.png
p206
sVname
p207
VGuerilla Cafe
p208
sVgeometry
p209
(dp210
Vaccess_points
p211
(lp212
(dp213
Vtravel_modes
p214
(lp215
VDRIVING
p216
aVBICYCLING
p217
aVWALKING
p218
aVTRANSIT
p219
asVlocation
p220
(dp221
Vlat
p222
g3
(S'37.8779249'
tRp223
sVlng
p224
g3
(S'-122.2690979'
tRp225
ssasVlocation
p226
(dp227
Vlat
p228
g3
(S'37.877911'
tRp229
sVlng
p230
g3
(S'-122.269297'
tRp231
sssVadr_address
p232
V<span class="street-address">1620 Shattuck Ave</span>, <span class="locality">Berkeley</span>, <span class="region">CA</span> <span class="postal-code">94709-1612</span>, <span class="country-name">United States</span>
p233
sVinternational_phone_number
p234
V+1 510-845-2233
p235
sVreviews
p236
(lp237
(dp238
Vrating
p239
I2
sVaspects
p240
(lp241
(dp242
Vrating
p243
I0
sVtype
p244
Voverall
p245
sasVprofile_photo_url
p246
V//lh6.googleusercontent.com/-aOuRUDraEHA/AAAAAAAAAAI/AAAAAAAAEIQ/n-g2Ax0AqGM/photo.jpg
p247
sVlanguage
p248
Ven
p249
sVtext
p250
VThe coffee was rather sour and bitter, but the food was decent and the music was good. There is not a very large selection of food though. Good coffee would make this a 3 or 4 star cafe.\u000a\u000aAlso, the cafe is very not wheelchair accessible.
p251
sVauthor_name
p252
VNate Klein
p253
sVauthor_url
p254
Vhttps://plus.google.com/104383057888691286518
p255
sVtime
p256
I1460913096
sa(dp257
Vrating
p258
I5
sVaspects
p259
(lp260
(dp261
Vrating
p262
I3
sVtype
p263
Voverall
p264
sasVprofile_photo_url
p265
V//lh6.googleusercontent.com/-VMZRBV8Csko/AAAAAAAAAAI/AAAAAAAAvw8/jTKM4nIMHuw/photo.jpg
p266
sVlanguage
p267
Ven
p268
sVtext
p269
VGreat cafe with a hip atmosphere and WiFi.  I also like that I could get Blue Bottle bags of coffee here.
p270
sVauthor_name
p271
VJeff Lawi
p272
sVauthor_url
p273
Vhttps://plus.google.com/116124441731421603250
p274
sVtime
p275
I1450331475
sa(dp276
Vrating
p277
I3
sVaspects
p278
(lp279
(dp280
Vrating
p281
I1
sVtype
p282
Voverall
p283
sasVlanguage
p284
Ven
p285
sVtext
p286
VI had lunch at the Cafe today with two friends. We met around 11 am because we heard the place was busy and noisy. My friends arrived first and ordered coffee, which didn't arrive until I arrived and ordered my own. No coffee for another 20 mins, and even that took speaking to a staffperson.\u000a\u000aWe ordered a simple lunch and waited, watching a party who arrived after us get served. Our salads arrived but it took another 20 minutes to get the third order. \u000a\u000aI requested the check, fearing we might get stuck waiting for it. I paid with plastic on a laptop; the wait person asked if I wanted to tip. I explained why I did not. Later a second person came over to apologize and offer us a card for a free waffle.\u000a\u000aThe food and coffee were OK, but the service and chaos did not work for us. No one expected elegant dining, but this was just sloppiness.
p287
sVauthor_name
p288
VElizabeth Whipple
p289
sVauthor_url
p290
Vhttps://plus.google.com/108861087196644288845
p291
sVtime
p292
I1427502207
sa(dp293
Vrating
p294
I5
sVaspects
p295
(lp296
(dp297
Vrating
p298
I3
sVtype
p299
Voverall
p300
sasVprofile_photo_url
p301
V//lh5.googleusercontent.com/-bkKTpiJ6jSg/AAAAAAAAAAI/AAAAAAAAACA/KKNYL0pdZcI/photo.jpg
p302
sVlanguage
p303
Ven
p304
sVtext
p305
Vl have visited this place several more times and it is a consistently good breakfast spot! The coffee bar always offers different flavors, and I enjoy trying the different ones they have.
p306
sVauthor_name
p307
VMilford Varney
p308
sVauthor_url
p309
Vhttps://plus.google.com/103325530242111301064
p310
sVtime
p311
I1447592424
sa(dp312
Vrating
p313
I4
sVaspects
p314
(lp315
(dp316
Vrating
p317
I2
sVtype
p318
Voverall
p319
sasVprofile_photo_url
p320
V//lh5.googleusercontent.com/-z7z80DCTrQA/AAAAAAAAAAI/AAAAAAAANMg/9Ll2RQQqpeY/photo.jpg
p321
sVlanguage
p322
Ven
p323
sVtext
p324
VAbove average espresso drinks. If you're in a hurry, move on, but if you're chill, park it for a while.
p325
sVauthor_name
p326
VCharles Carlson
p327
sVauthor_url
p328
Vhttps://plus.google.com/104056024865269049118
p329
sVtime
p330
I1458166378
sasVformatted_phone_number
p331
V(510) 845-2233
p332
sVaddress_components
p333
(lp334
(dp335
Vlong_name
p336
V1620
p337
sVtypes
p338
(lp339
Vstreet_number
p340
asVshort_name
p341
V1620
p342
sa(dp343
Vlong_name
p344
VShattuck Avenue
p345
sVtypes
p346
(lp347
Vroute
p348
asVshort_name
p349
VShattuck Ave
p350
sa(dp351
Vlong_name
p352
VBerkeley
p353
sVtypes
p354
(lp355
Vlocality
p356
aVpolitical
p357
asVshort_name
p358
VBerkeley
p359
sa(dp360
Vlong_name
p361
VCalifornia
p362
sVtypes
p363
(lp364
Vadministrative_area_level_1
p365
aVpolitical
p366
asVshort_name
p367
VCA
p368
sa(dp369
Vlong_name
p370
VUnited States
p371
sVtypes
p372
(lp373
Vcountry
p374
aVpolitical
p375
asVshort_name
p376
VUS
p377
sa(dp378
Vlong_name
p379
V94709
p380
sVtypes
p381
(lp382
Vpostal_code
p383
asVshort_name
p384
V94709
p385
sa(dp386
Vlong_name
p387
V1612
p388
sVtypes
p389
(lp390
Vpostal_code_suffix
p391
asVshort_name
p392
V1612
p393
sas.