(dp1
Vwebsite
p2
Vhttp://www.gymboree.com/
p3
sVutc_offset
p4
I-420
sVname
p5
VGymboree
p6
sVprice_level
p7
I2
sVphotos
p8
(lp9
(dp10
Vphoto_reference
p11
VCmRdAAAA47Pf4-21TNyEgydEP_5sbdV6txXJCiP-zQx4owwF3slFAPl19VC2b-3zNGFPTplzPRj6iCLP_yii8bjp9CFd_oSO69WJRnvhGzQc2bGxqG2qMOcdC8e5Z5qxySXVHP5YEhA9rQYbVChI5JXkZs6XzRqTGhQF_m5Y_obGHnMR8Z47I6hx9QBPSA
p12
sVwidth
p13
I4032
sVhtml_attributions
p14
(lp15
V<a href="https://maps.google.com/maps/contrib/105175245829173637529/photos">Libby Chang</a>
p16
asVheight
p17
I3024
sa(dp18
Vphoto_reference
p19
VCoQBcwAAAF3xoTu9JMoMBE74shmnkee_CsPOAzAGecMMwzpUR5kLz1yYMIdcaiIbGbJ3nWCT7o0MyJBzH5DHJeZm-1RKM0fRpeK3EEjzOFFIxhUol-AFGfrr3KK8fJw6w8cfL67xtpum5tLkvqH6bH3JgfQ1iQVimaEl6k-VGkBuSYBhiYJXEhCy-D13Ou9begSxBLHWxEDmGhRn6_r7qByDjAARby_5agZZ6mFLMA
p20
sVwidth
p21
I5312
sVhtml_attributions
p22
(lp23
V<a href="https://maps.google.com/maps/contrib/117413847194138764575/photos">adrian cahya</a>
p24
asVheight
p25
I2988
sasVgeometry
p26
(dp27
Vaccess_points
p28
(lp29
(dp30
Vtravel_modes
p31
(lp32
VDRIVING
p33
aVBICYCLING
p34
aVWALKING
p35
aVTRANSIT
p36
asVlocation
p37
(dp38
Vlat
p39
cdecimal
Decimal
p40
(S'37.7282093'
tRp41
sVlng
p42
g40
(S'-122.475585'
tRp43
ssasVlocation
p44
(dp45
Vlat
p46
g40
(S'37.7281544'
tRp47
sVlng
p48
g40
(S'-122.4768161'
tRp49
sssVadr_address
p50
V<span class="street-address">3251 20th Ave</span>, <span class="locality">San Francisco</span>, <span class="region">CA</span> <span class="postal-code">94132</span>, <span class="country-name">United States</span>
p51
sVplace_id
p52
VChIJP5NLubt9j4ARJTpn02F3beg
p53
sVinternational_phone_number
p54
V+1 415-564-4859
p55
sVvicinity
p56
V3251 20th Avenue, San Francisco
p57
sVformatted_phone_number
p58
V(415) 564-4859
p59
sVscope
p60
VGOOGLE
p61
sVtypes
p62
(lp63
Vclothing_store
p64
aVstore
p65
aVpoint_of_interest
p66
aVestablishment
p67
asVopening_hours
p68
(dp69
Vweekday_text
p70
(lp71
VMonday: 10:00 AM \u2013 9:00 PM
p72
aVTuesday: 10:00 AM \u2013 9:00 PM
p73
aVWednesday: 10:00 AM \u2013 9:00 PM
p74
aVThursday: 10:00 AM \u2013 9:00 PM
p75
aVFriday: 10:00 AM \u2013 9:00 PM
p76
aVSaturday: 10:00 AM \u2013 9:00 PM
p77
aVSunday: 11:00 AM \u2013 6:00 PM
p78
asVopen_now
p79
I01
sVperiods
p80
(lp81
(dp82
Vclose
p83
(dp84
Vday
p85
I0
sVtime
p86
V1800
p87
ssVopen
p88
(dp89
Vday
p90
I0
sVtime
p91
V1100
p92
ssa(dp93
Vclose
p94
(dp95
Vday
p96
I1
sVtime
p97
V2100
p98
ssVopen
p99
(dp100
Vday
p101
I1
sVtime
p102
V1000
p103
ssa(dp104
Vclose
p105
(dp106
Vday
p107
I2
sVtime
p108
V2100
p109
ssVopen
p110
(dp111
Vday
p112
I2
sVtime
p113
V1000
p114
ssa(dp115
Vclose
p116
(dp117
Vday
p118
I3
sVtime
p119
V2100
p120
ssVopen
p121
(dp122
Vday
p123
I3
sVtime
p124
V1000
p125
ssa(dp126
Vclose
p127
(dp128
Vday
p129
I4
sVtime
p130
V2100
p131
ssVopen
p132
(dp133
Vday
p134
I4
sVtime
p135
V1000
p136
ssa(dp137
Vclose
p138
(dp139
Vday
p140
I5
sVtime
p141
V2100
p142
ssVopen
p143
(dp144
Vday
p145
I5
sVtime
p146
V1000
p147
ssa(dp148
Vclose
p149
(dp150
Vday
p151
I6
sVtime
p152
V2100
p153
ssVopen
p154
(dp155
Vday
p156
I6
sVtime
p157
V1000
p158
ssassVurl
p159
Vhttps://maps.google.com/?cid=16748173851303033381
p160
sVaddress_components
p161
(lp162
(dp163
Vlong_name
p164
V3251
p165
sVtypes
p166
(lp167
Vstreet_number
p168
asVshort_name
p169
V3251
p170
sa(dp171
Vlong_name
p172
V20th Avenue
p173
sVtypes
p174
(lp175
Vroute
p176
asVshort_name
p177
V20th Ave
p178
sa(dp179
Vlong_name
p180
VSan Francisco
p181
sVtypes
p182
(lp183
Vlocality
p184
aVpolitical
p185
asVshort_name
p186
VSF
p187
sa(dp188
Vlong_name
p189
VCalifornia
p190
sVtypes
p191
(lp192
Vadministrative_area_level_1
p193
aVpolitical
p194
asVshort_name
p195
VCA
p196
sa(dp197
Vlong_name
p198
VUnited States
p199
sVtypes
p200
(lp201
Vcountry
p202
aVpolitical
p203
asVshort_name
p204
VUS
p205
sa(dp206
Vlong_name
p207
V94132
p208
sVtypes
p209
(lp210
Vpostal_code
p211
asVshort_name
p212
V94132
p213
sasVformatted_address
p214
V3251 20th Ave, San Francisco, CA 94132, United States
p215
sVid
p216
Vc8dd2a474196085da3623b4b999b74ec591edde7
p217
sVreference
p218
VCmRcAAAACE-LQ_DTtqE9HvBuJvLKPemMLkxarpXRol-wbMTGkC5T24d_MShL-fZrRCaC4ngPNUEqTcGdMH60CLL92qc0T-hKwA4GwTfMZbz2dKs9O2ZhDKGosUmF5Cmhh2_61NzxEhA-5u8UodsyHJw4zR1oYN6pGhTB_dQpWuLN9CNmwqajXEhcrAfRNg
p219
sVicon
p220
Vhttps://maps.gstatic.com/mapfiles/place_api/icons/shopping-71.png
p221
s.