(dp1
Vrating
p2
cdecimal
Decimal
p3
(S'4.5'
tRp4
sVreference
p5
VCmRWAAAA2NTxZMbruWv8xL1WbmlQKtvFPJtvErLvth_HmBf1suKKg4zOQsKIG4Pzfov789Jsh1JRwi1Zje7DqmHZMXMXKTjlr6justo4ljnCOTzhbXPqxD0MLeov3j2l8pcDh_ELEhCgt6iXYFCjbE0IJYKKArteGhQrNsrPjaeOmrYQRmYjJkg76WEH2w
p6
sVprice_level
p7
I1
sVplace_id
p8
VChIJ0aBPHbhmhYARe3byyAvdLl0
p9
sVurl
p10
Vhttps://maps.google.com/?cid=6714547137141700219
p11
sVformatted_address
p12
V361 Sunvalley Mall, Concord, CA 94520, United States
p13
sVid
p14
V8e70cd3deed726d2d6ba129e1409aa2454f02bba
p15
sVopening_hours
p16
(dp17
Vweekday_text
p18
(lp19
VMonday: 10:00 AM \u2013 9:00 PM
p20
aVTuesday: 10:00 AM \u2013 9:00 PM
p21
aVWednesday: 10:00 AM \u2013 9:00 PM
p22
aVThursday: 10:00 AM \u2013 9:00 PM
p23
aVFriday: 10:00 AM \u2013 9:00 PM
p24
aVSaturday: 10:00 AM \u2013 9:00 PM
p25
aVSunday: 11:00 AM \u2013 6:00 PM
p26
asVopen_now
p27
I01
sVperiods
p28
(lp29
(dp30
Vclose
p31
(dp32
Vday
p33
I0
sVtime
p34
V1800
p35
ssVopen
p36
(dp37
Vday
p38
I0
sVtime
p39
V1100
p40
ssa(dp41
Vclose
p42
(dp43
Vday
p44
I1
sVtime
p45
V2100
p46
ssVopen
p47
(dp48
Vday
p49
I1
sVtime
p50
V1000
p51
ssa(dp52
Vclose
p53
(dp54
Vday
p55
I2
sVtime
p56
V2100
p57
ssVopen
p58
(dp59
Vday
p60
I2
sVtime
p61
V1000
p62
ssa(dp63
Vclose
p64
(dp65
Vday
p66
I3
sVtime
p67
V2100
p68
ssVopen
p69
(dp70
Vday
p71
I3
sVtime
p72
V1000
p73
ssa(dp74
Vclose
p75
(dp76
Vday
p77
I4
sVtime
p78
V2100
p79
ssVopen
p80
(dp81
Vday
p82
I4
sVtime
p83
V1000
p84
ssa(dp85
Vclose
p86
(dp87
Vday
p88
I5
sVtime
p89
V2100
p90
ssVopen
p91
(dp92
Vday
p93
I5
sVtime
p94
V1000
p95
ssa(dp96
Vclose
p97
(dp98
Vday
p99
I6
sVtime
p100
V2100
p101
ssVopen
p102
(dp103
Vday
p104
I6
sVtime
p105
V1000
p106
ssassVvicinity
p107
V361 Sunvalley Mall, Concord
p108
sVscope
p109
VGOOGLE
p110
sVwebsite
p111
Vhttp://www.hm.com/us/
p112
sVutc_offset
p113
I-420
sVuser_ratings_total
p114
I6
sVtypes
p115
(lp116
Vclothing_store
p117
aVstore
p118
aVpoint_of_interest
p119
aVestablishment
p120
asVicon
p121
Vhttps://maps.gstatic.com/mapfiles/place_api/icons/shopping-71.png
p122
sVname
p123
VH&M
p124
sVgeometry
p125
(dp126
Vlocation
p127
(dp128
Vlat
p129
g3
(S'37.9686752'
tRp130
sVlng
p131
g3
(S'-122.0612769'
tRp132
sssVadr_address
p133
V<span class="street-address">361 Sunvalley Mall</span>, <span class="locality">Concord</span>, <span class="region">CA</span> <span class="postal-code">94520-5811</span>, <span class="country-name">United States</span>
p134
sVinternational_phone_number
p135
V+1 855-466-7467
p136
sVreviews
p137
(lp138
(dp139
Vrating
p140
I5
sVaspects
p141
(lp142
(dp143
Vrating
p144
I3
sVtype
p145
Voverall
p146
sasVprofile_photo_url
p147
V//lh5.googleusercontent.com/-BkS2mYEOvIA/AAAAAAAAAAI/AAAAAAAABjA/Rf9PIHfG_fU/photo.jpg
p148
sVlanguage
p149
Ven
p150
sVtext
p151
Vgreat store, i have a hard time choosing between H&m and Uniqlo. I highly recommend the pants.
p152
sVauthor_name
p153
VLucien Chan
p154
sVauthor_url
p155
Vhttps://plus.google.com/110026946394528271130
p156
sVtime
p157
I1383867053
sa(dp158
Vrating
p159
I5
sVaspects
p160
(lp161
(dp162
Vrating
p163
I3
sVtype
p164
Voverall
p165
sasVlanguage
p166
Ven
p167
sVtext
p168
VI love you guys.
p169
sVauthor_name
p170
VA Google User
p171
sVtime
p172
I1293222443
sa(dp173
Vrating
p174
I4
sVaspects
p175
(lp176
(dp177
Vrating
p178
I2
sVtype
p179
Voverall
p180
sasVlanguage
p181
Ven
p182
sVtext
p183
V
sVauthor_name
p184
VJuan Martinez
p185
sVauthor_url
p186
Vhttps://plus.google.com/109354794449904949985
p187
sVtime
p188
I1394287914
sa(dp189
Vrating
p190
I5
sVaspects
p191
(lp192
(dp193
Vrating
p194
I3
sVtype
p195
Voverall
p196
sasVlanguage
p197
Ven
p198
sVtext
p199
V
sVauthor_name
p200
VA Google User
p201
sVtime
p202
I1303341216
sa(dp203
Vrating
p204
I5
sVaspects
p205
(lp206
(dp207
Vrating
p208
I3
sVtype
p209
Voverall
p210
sasVlanguage
p211
Vzh
p212
sVtext
p213
V
sVauthor_name
p214
Vwentao zhou
p215
sVauthor_url
p216
Vhttps://plus.google.com/115131767375496644762
p217
sVtime
p218
I1445664734
sasVformatted_phone_number
p219
V(855) 466-7467
p220
sVaddress_components
p221
(lp222
(dp223
Vlong_name
p224
V361
p225
sVtypes
p226
(lp227
Vstreet_number
p228
asVshort_name
p229
V361
p230
sa(dp231
Vlong_name
p232
VSunvalley Mall
p233
sVtypes
p234
(lp235
Vroute
p236
asVshort_name
p237
VSunvalley Mall
p238
sa(dp239
Vlong_name
p240
VConcord
p241
sVtypes
p242
(lp243
Vlocality
p244
aVpolitical
p245
asVshort_name
p246
VConcord
p247
sa(dp248
Vlong_name
p249
VCalifornia
p250
sVtypes
p251
(lp252
Vadministrative_area_level_1
p253
aVpolitical
p254
asVshort_name
p255
VCA
p256
sa(dp257
Vlong_name
p258
VUnited States
p259
sVtypes
p260
(lp261
Vcountry
p262
aVpolitical
p263
asVshort_name
p264
VUS
p265
sa(dp266
Vlong_name
p267
V94520
p268
sVtypes
p269
(lp270
Vpostal_code
p271
asVshort_name
p272
V94520
p273
sa(dp274
Vlong_name
p275
V5811
p276
sVtypes
p277
(lp278
Vpostal_code_suffix
p279
asVshort_name
p280
V5811
p281
sas.