(dp1
Vwebsite
p2
Vhttp://www.pacificahotels.com/halfmoonbaylodge?chebs=places-halfmoon-04022014
p3
sVrating
p4
cdecimal
Decimal
p5
(S'3.8'
tRp6
sVutc_offset
p7
I-420
sVuser_ratings_total
p8
I15
sVname
p9
VHalf Moon Bay Lodge
p10
sVreference
p11
VCnRnAAAAWW_PLqeWY3RMDoryNrCCneo_CkXzhA-xKbW6x-K4Mj-Du1sZoJRL268Mq7wO8SUkP9I8lXk0QjaAg5w-h5XmQr5acBUVd0Dh0mFyc1r5eWHdZHbrF15wXnFjswQMQDqI2-TKl-yjiRYjPmAn3STXZxIQt-o3Qpww-HvNO68Xck2PFBoULld7rdxH6GYeP3vG0zCAPRQerI8
p12
sVphotos
p13
(lp14
(dp15
Vphoto_reference
p16
VCmRdAAAAc2wHLpe14JXTgLkHPJM3z75NAR3-V4rkR1ZGvpEoqPm87mC6-hZCNXKqs4vN95fum_oElnll32Qlnwu1oC7eBrKmlJkpJDFbL0PIaor3KTzov8mi3q-nmTywYMzhngxGEhBmWbaNMDdJh0hwxQoAjZReGhQkWIfIa0gv20IQ9nKySRc3bhwnRg
p17
sVwidth
p18
I1525
sVhtml_attributions
p19
(lp20
V<a href="https://maps.google.com/maps/contrib/108275821085752277659/photos">Half Moon Bay Lodge</a>
p21
asVheight
p22
I1525
sa(dp23
Vphoto_reference
p24
VCmRdAAAAfQ5szFlNdLAhPArFFwhMea2_t9O8EIoXyPqy321mCtXpBaaTQgIiq50wZbx6UJjL6EhAamSmq9BGBgtBIpbaC9Yo-XXPtorwi54nKpX2qedJj5hujmTDpS-HQZdfSclFEhANPkrd1AfbRE9AnXA6JqZ2GhSWiWMZStWCBgmdU_bK6QLgeH8nkw
p25
sVwidth
p26
I2048
sVhtml_attributions
p27
(lp28
V<a href="https://maps.google.com/maps/contrib/108275821085752277659/photos">Half Moon Bay Lodge</a>
p29
asVheight
p30
I1503
sa(dp31
Vphoto_reference
p32
VCmRdAAAAeZsrJHd8li4WIYPhS-dSZXAIbgIzdAIRMkgIrwJyJNVRTbvAJls0LrNuWO82tmwdXkNwWapSgPgJsRMtQdr6wpBSQWwWNcx1L_5aDzH_MM7xJhsgbj3-qe6Zm3U51aXSEhCk3-kZ7KRHm0gejw99SfXaGhQDMLBT7QiW59n3b_cUqW7zzf0Vfg
p33
sVwidth
p34
I1088
sVhtml_attributions
p35
(lp36
V<a href="https://maps.google.com/maps/contrib/108275821085752277659/photos">Half Moon Bay Lodge</a>
p37
asVheight
p38
I717
sa(dp39
Vphoto_reference
p40
VCmRdAAAAqxLB7P6akJ6tZ_MDqv4vJxHLWm9u2MaAGDyFO6D9YFy-8qIe8VpRF9ALvTPYVFTfRy2H0jA_FFtIVXFw_VZodIlbadokqkNuEh-mJi4P-fj0v66TJGEMDx9age261xRDEhAPmOGWEd1tnt_xgbJINCp1GhT5I3nNeKOGPaZI--LLp44NS5A16Q
p41
sVwidth
p42
I3104
sVhtml_attributions
p43
(lp44
V<a href="https://maps.google.com/maps/contrib/105220471073680998804/photos">Audrey Charles</a>
p45
asVheight
p46
I1746
sa(dp47
Vphoto_reference
p48
VCmRdAAAAhcptBDe7hq4kTL4w_qq6DLAXmNXPA_yNN3PFiu3JAnnHztcJbjLBtXgeeA7tOSPHxTgi9DMT1g6l5rruntBmAQPTtisNw1ilhWkrMNXalA62ZtD6PaCOntBP7MGudfDREhBBFQQeTqH3uFtH9IypywXxGhSiqfBwIyFhwJCmd5bMOsVjyCz2lw
p49
sVwidth
p50
I700
sVhtml_attributions
p51
(lp52
V<a href="https://maps.google.com/maps/contrib/108275821085752277659/photos">Half Moon Bay Lodge</a>
p53
asVheight
p54
I725
sa(dp55
Vphoto_reference
p56
VCmRdAAAADgmL9gy_YeAoIyCvoyi8LIvEQxecINrzuOozJBb8kOREqTccNnLqEdxas1EPX4tdr-HGXSB8cg2HLqlhRHTcfzilQsF29zbwJrqcCcZujgdezH-6jHRmcgt-B0TnAh8bEhBvl2cCJ6-emyJb5BY04hqKGhQ6ccQ-lnuLwIpzQKvaeYSvwixUvQ
p57
sVwidth
p58
I1034
sVhtml_attributions
p59
(lp60
V<a href="https://maps.google.com/maps/contrib/108275821085752277659/photos">Half Moon Bay Lodge</a>
p61
asVheight
p62
I728
sa(dp63
Vphoto_reference
p64
VCmRdAAAA0Pv6-uuszyBqu-J2ODpJWKGDUYkpyzkWSkud1GPDzoRkkmH7GD0MwXKw3MXgK_3pAcBQKhJhLA_flqTAId7UwQgPXq8GcQ2FGu04OEmncoHNYretOzZEJm88gGNUbS48EhAoe05yyF5Xqwf5meElKMs1GhSOLcQTAyV_h4k5xJV43Z81YL62lg
p65
sVwidth
p66
I1080
sVhtml_attributions
p67
(lp68
V<a href="https://maps.google.com/maps/contrib/111820887306201408474/photos">Adriana Chapa</a>
p69
asVheight
p70
I608
sa(dp71
Vphoto_reference
p72
VCmRdAAAAEiPP2trdSLXQs7ne8J9wO_zC_jTucjqKoF31d4vcqLo12QZzJGH_WbboC7McASKPsJBCQXn9EtBfZLNzVUCP1H9LcUf4EYAYfmCMKoOir4Xp_-HD6Nq_iT4VIxXCUnr8EhBWntPtC5Ui6d72NVj_uVC4GhSL-xjAkqQ_rVb1q9Twjh2Rk6xFbQ
p73
sVwidth
p74
I1028
sVhtml_attributions
p75
(lp76
V<a href="https://maps.google.com/maps/contrib/108275821085752277659/photos">Half Moon Bay Lodge</a>
p77
asVheight
p78
I723
sasVgeometry
p79
(dp80
Vaccess_points
p81
(lp82
(dp83
Vtravel_modes
p84
(lp85
VDRIVING
p86
aVBICYCLING
p87
aVWALKING
p88
aVTRANSIT
p89
asVlocation
p90
(dp91
Vlat
p92
g5
(S'37.4332831'
tRp93
sVlng
p94
g5
(S'-122.4268256'
tRp95
ssasVlocation
p96
(dp97
Vlat
p98
g5
(S'37.43320900000001'
tRp99
sVlng
p100
g5
(S'-122.4282018'
tRp101
sssVadr_address
p102
V<span class="street-address">2400 Cabrillo Hwy S</span>, <span class="locality">Half Moon Bay</span>, <span class="region">CA</span> <span class="postal-code">94019</span>, <span class="country-name">United States</span>
p103
sVplace_id
p104
VChIJnfXzUXILj4ARu-Rak_8q0ow
p105
sVinternational_phone_number
p106
V+1 650-726-9000
p107
sVvicinity
p108
V2400 Cabrillo Highway South, Half Moon Bay
p109
sVreviews
p110
(lp111
(dp112
Vrating
p113
I5
sVaspects
p114
(lp115
(dp116
Vrating
p117
I3
sVtype
p118
Voverall
p119
sasVprofile_photo_url
p120
V//lh5.googleusercontent.com/-XI311we5npk/AAAAAAAAAAI/AAAAAAAAWCw/g1DvdTpwVV4/photo.jpg
p121
sVlanguage
p122
Ven
p123
sVtext
p124
VI LOVE this place. The outside is so charming and the rooms are cozy, especially the ones with a fireplace. The front desk staff are always super nice. They even remember me when I come back. Highly recommended.
p125
sVauthor_name
p126
VMonica Pease
p127
sVauthor_url
p128
Vhttps://plus.google.com/109085620544293160665
p129
sVtime
p130
I1448345952
sa(dp131
Vrating
p132
I5
sVaspects
p133
(lp134
(dp135
Vrating
p136
I3
sVtype
p137
Voverall
p138
sasVlanguage
p139
Ven
p140
sVtext
p141
VGreat Hotel! Quite, clean and the staff was absolutely wonderful. The bathroom was a little small, but the continental breakfast was nicer then I thought it would be and the atmosphere was delightful. I will definitely go here again.
p142
sVauthor_name
p143
VHillary Benedict
p144
sVauthor_url
p145
Vhttps://plus.google.com/106931993387293026146
p146
sVtime
p147
I1435854046
sa(dp148
Vrating
p149
I4
sVaspects
p150
(lp151
(dp152
Vrating
p153
I2
sVtype
p154
Voverall
p155
sasVprofile_photo_url
p156
V//lh4.googleusercontent.com/-lUU4QX1sKjk/AAAAAAAAAAI/AAAAAAAAJDE/SjKWFhZL-n4/photo.jpg
p157
sVlanguage
p158
Ven
p159
sVtext
p160
VGreat hotel with a fireplace. Not inexpensive but a good stay in Half Moon Bay.
p161
sVauthor_name
p162
Vlarry schlocker
p163
sVauthor_url
p164
Vhttps://plus.google.com/111441925130591641421
p165
sVtime
p166
I1447742878
sa(dp167
Vrating
p168
I4
sVaspects
p169
(lp170
(dp171
Vrating
p172
I2
sVtype
p173
Voverall
p174
sasVprofile_photo_url
p175
V//lh6.googleusercontent.com/-y9z1E3tVFhY/AAAAAAAAAAI/AAAAAAAAcN0/VD_I5E6J9F4/photo.jpg
p176
sVlanguage
p177
Ven
p178
sVtext
p179
VGreat place n well worth the upgraded room 
p180
sVauthor_name
p181
VNate Cummings
p182
sVauthor_url
p183
Vhttps://plus.google.com/118342203450820935293
p184
sVtime
p185
I1450851394
sa(dp186
Vrating
p187
I4
sVaspects
p188
(lp189
(dp190
Vrating
p191
I2
sVtype
p192
Voverall
p193
sasVlanguage
p194
Ven
p195
sVtext
p196
VJust spent a lovely weekend at The Half Moon Bay Lodge.  Conveniently located near all the shops and restaurants (yet out of the "fray") and easy beach access minutes away.  The staff was very friendly & helpful.  The grounds are beautifully landscaped and meticulously maintained, right down to the lush potted containers on all the patios/balconies.  VERY relaxing.  We will be back!
p197
sVauthor_name
p198
VDavid Smyth
p199
sVauthor_url
p200
Vhttps://plus.google.com/118116300073800936347
p201
sVtime
p202
I1407199598
sasVformatted_phone_number
p203
V(650) 726-9000
p204
sVurl
p205
Vhttps://maps.google.com/?cid=10147220187596383419
p206
sVscope
p207
VGOOGLE
p208
sVaddress_components
p209
(lp210
(dp211
Vlong_name
p212
V2400
p213
sVtypes
p214
(lp215
Vstreet_number
p216
asVshort_name
p217
V2400
p218
sa(dp219
Vlong_name
p220
VCabrillo Highway South
p221
sVtypes
p222
(lp223
Vroute
p224
asVshort_name
p225
VCabrillo Hwy S
p226
sa(dp227
Vlong_name
p228
VHalf Moon Bay
p229
sVtypes
p230
(lp231
Vlocality
p232
aVpolitical
p233
asVshort_name
p234
VHalf Moon Bay
p235
sa(dp236
Vlong_name
p237
VCalifornia
p238
sVtypes
p239
(lp240
Vadministrative_area_level_1
p241
aVpolitical
p242
asVshort_name
p243
VCA
p244
sa(dp245
Vlong_name
p246
VUnited States
p247
sVtypes
p248
(lp249
Vcountry
p250
aVpolitical
p251
asVshort_name
p252
VUS
p253
sa(dp254
Vlong_name
p255
V94019
p256
sVtypes
p257
(lp258
Vpostal_code
p259
asVshort_name
p260
V94019
p261
sasVformatted_address
p262
V2400 Cabrillo Hwy S, Half Moon Bay, CA 94019, United States
p263
sVid
p264
V31fdb2fac1141444738c0593325602a0d1392ed0
p265
sVtypes
p266
(lp267
Vlodging
p268
aVpoint_of_interest
p269
aVestablishment
p270
asVicon
p271
Vhttps://maps.gstatic.com/mapfiles/place_api/icons/lodging-71.png
p272
s.