(dp1
Vrating
p2
cdecimal
Decimal
p3
(S'4.3'
tRp4
sVreference
p5
VCnRkAAAAkHouljhdkXhJPXgCSRaVLikoG38zEsUcx3ya3vy5MrtIK2wIUsOYZx1VbVunBdQsclMfymel4yB2_Fa9f3HTCh2EIRiBm_N7DdDoIKNyFyhZEQDKzR7PS2fyc7xzrXJL1CgMw-_fB51gIWDFL0comBIQWFBEMoqffg200oiZF3GYJxoUNOCYn85-ZvUWtpZoD1qL-glkzDI
p6
sVprice_level
p7
I1
sVplace_id
p8
VChIJL0eR87l_j4ARzVaL9P2vdDc
p9
sVurl
p10
Vhttps://maps.google.com/?cid=3996012274648831693
p11
sVformatted_address
p12
V732 22nd St, San Francisco, CA 94107, United States
p13
sVid
p14
Veb2a9a308da53302dff600b7b9a98fa79fca3013
p15
sVopening_hours
p16
(dp17
Vweekday_text
p18
(lp19
VMonday: 7:30 AM \u2013 3:00 PM
p20
aVTuesday: 7:30 AM \u2013 3:00 PM
p21
aVWednesday: 7:30 AM \u2013 3:00 PM
p22
aVThursday: 7:30 AM \u2013 3:00 PM
p23
aVFriday: 7:30 AM \u2013 3:00 PM
p24
aVSaturday: 8:00 AM \u2013 5:00 PM
p25
aVSunday: 8:00 AM \u2013 5:00 PM
p26
asVopen_now
p27
I00
sVperiods
p28
(lp29
(dp30
Vclose
p31
(dp32
Vday
p33
I0
sVtime
p34
V1700
p35
ssVopen
p36
(dp37
Vday
p38
I0
sVtime
p39
V0800
p40
ssa(dp41
Vclose
p42
(dp43
Vday
p44
I1
sVtime
p45
V1500
p46
ssVopen
p47
(dp48
Vday
p49
I1
sVtime
p50
V0730
p51
ssa(dp52
Vclose
p53
(dp54
Vday
p55
I2
sVtime
p56
V1500
p57
ssVopen
p58
(dp59
Vday
p60
I2
sVtime
p61
V0730
p62
ssa(dp63
Vclose
p64
(dp65
Vday
p66
I3
sVtime
p67
V1500
p68
ssVopen
p69
(dp70
Vday
p71
I3
sVtime
p72
V0730
p73
ssa(dp74
Vclose
p75
(dp76
Vday
p77
I4
sVtime
p78
V1500
p79
ssVopen
p80
(dp81
Vday
p82
I4
sVtime
p83
V0730
p84
ssa(dp85
Vclose
p86
(dp87
Vday
p88
I5
sVtime
p89
V1500
p90
ssVopen
p91
(dp92
Vday
p93
I5
sVtime
p94
V0730
p95
ssa(dp96
Vclose
p97
(dp98
Vday
p99
I6
sVtime
p100
V1700
p101
ssVopen
p102
(dp103
Vday
p104
I6
sVtime
p105
V0800
p106
ssassVvicinity
p107
V732 22nd Street, San Francisco
p108
sVscope
p109
VGOOGLE
p110
sVwebsite
p111
Vhttp://www.justforyoucafe.com/
p112
sVutc_offset
p113
I-420
sVuser_ratings_total
p114
I137
sVphotos
p115
(lp116
(dp117
Vphoto_reference
p118
VCmRdAAAATDY-t2iuOIG2ZOCzv_EKQs9734XZBf3ipCtSTrPoG6diWlMt99ipTU_jOT_mVYNPAYVYL2PfQobqkAPVyfEs_Xl7pmMpM6vaNgcpfZkJyr8q3Gq9RAF2t9uizdEzbvJ9EhD9vsJaFvsSqZsHS0IhnH7pGhQo8zFA6B2qXGOpG7mTy5Jvu21sZQ
p119
sVwidth
p120
I2048
sVhtml_attributions
p121
(lp122
V<a href="https://maps.google.com/maps/contrib/104847770319584345133/photos">Shiraz Siddiqui</a>
p123
asVheight
p124
I1536
sa(dp125
Vphoto_reference
p126
VCmRdAAAA4QvUzIuwq2NFEZQtCB6lj658r5kbaHPW-VP3JmFdS_N-lFOR4sBhX-lmvtqfpJGW0_F2i0NnbFrkPwwQmTkHTRSLPCsjr-TGwAaUVpVqv_O4AIa1YE6lBwoXxYqgov0dEhDdQowM9n7JrEPMwmkhHBjlGhQSL-w3bV0ncNtWgqqD2BV3CbwCyg
p127
sVwidth
p128
I4000
sVhtml_attributions
p129
(lp130
V<a href="https://maps.google.com/maps/contrib/101795940557254119919/photos">Adnan Y</a>
p131
asVheight
p132
I2992
sa(dp133
Vphoto_reference
p134
VCmRdAAAAUQ8QeTZYViOgLU0jDNRpxkdPTbCJusuRu1nYOKdXHCseVnlGqXvZYSYTPU6ZRn5JA-lAzhy1onYwnkH5zQvQOuyVrJGy8gogYIXR1q_6fnyocDfqhwlGGdiJEgokbEnQEhAul6VL9p3SmIlyYhhO4No1GhRxwLzslGw9orZVqcXdlb3zs7NBwQ
p135
sVwidth
p136
I4096
sVhtml_attributions
p137
(lp138
V<a href="https://maps.google.com/maps/contrib/101402164093437530516/photos">Patrick Au-Yeung</a>
p139
asVheight
p140
I3040
sa(dp141
Vphoto_reference
p142
VCoQBcwAAAAqtbiSspyhTfBaVslgbh56zo-GBfMAwCYy-iwjhO8MeVF-vdasLzLwzpsuCjevu9WSZkg4KffCwJMRor3Oe90KfUCJZS9YOreNPBBThfF42Qh80iuhj5al1P5j3Rw6IK-ylGcMfup6tGSK6azrfWO6Z2LaMxl5YvAOsxM20Abi2EhCDEg2qMChx8_-3whA7SRywGhRGS-su4_aihIzmb8SOGsq7kcBWMg
p143
sVwidth
p144
I3264
sVhtml_attributions
p145
(lp146
V<a href="https://maps.google.com/maps/contrib/109233387124567431984/photos">Joshua Robinson</a>
p147
asVheight
p148
I1836
sa(dp149
Vphoto_reference
p150
VCmRdAAAAR2eepMIMXntGsRCcRcmcrloSJo1ah-9Qw5VfukL9BQfuL1s2bVTuvthBJmh3NZd0unToaRQtuQR6BupNshpewRGnm24z5U7eNQJGfNDjoizkwrDO_EX2xpmBYWvHikI7EhBR78z06JheXeRoaxDMp3OaGhT9Hq67eG0JZUo5Tu0QqpUOgz6hfg
p151
sVwidth
p152
I320
sVhtml_attributions
p153
(lp154
V<a href="https://maps.google.com/maps/contrib/114189428205304364234/photos">Just For You Cafe</a>
p155
asVheight
p156
I499
sa(dp157
Vphoto_reference
p158
VCmRdAAAAT-r8WCjXxPGcNHJg2sJX2CmR3n_IwWTRVzWP32H0EGmhOLeFOhZpEtAQgKSrgkbv91gfWgEfMDi5x5wqn108CTAcKGoZMJmAVgBrljbcviHmWpeUzPOWP1IR_GxySUgMEhBDNvaiQJvZ7Fvca-CioJZeGhTYpsoczsNXKAYZJ4Xn6kJrXxr3Ww
p159
sVwidth
p160
I320
sVhtml_attributions
p161
(lp162
V<a href="https://maps.google.com/maps/contrib/114189428205304364234/photos">Just For You Cafe</a>
p163
asVheight
p164
I416
sa(dp165
Vphoto_reference
p166
VCoQBcwAAANUQFhHrM6iETRgz4AuiYRzyr3D1PwgzDcIF31kEAYXUuLDp5ZPdajZhBx003dEIGg1RWeFhG9Gm4JSEQ8Wt3P9eEOL4dDmr2RtIUzSW0LsuT1YL9juzKeDMd4m1aqBhdtV_1R8cvcL6CH4bcBRIAN0vBEaLqg9qxSHba2I2zYbuEhBC8JlL1Uihl9pQXxxAiLXnGhS0SkRkr6CoTTak3ZC4F5ZoYQPAjA
p167
sVwidth
p168
I5312
sVhtml_attributions
p169
(lp170
V<a href="https://maps.google.com/maps/contrib/107996971847458523370/photos">Kevin Serrano</a>
p171
asVheight
p172
I2988
sa(dp173
Vphoto_reference
p174
VCmRdAAAAxWsPHtY8ju-2tPhyNnDBg5CLeVeyxOwA0goUDy7xShHpjbeyWKQiIdEloYajb5GElBZPdivmrv9VCAcYGAA6rpDx4Ujne96xKNmIX2GK_Lp8-90-bbIfVAkQ4YJTna3PEhDo5G1y0255FV5e1XeGQhb5GhQi2O9Y_cztMV1LWGI2eVtdBTLbEg
p175
sVwidth
p176
I2448
sVhtml_attributions
p177
(lp178
V<a href="https://maps.google.com/maps/contrib/116619093916424800559/photos">Jane Liaw</a>
p179
asVheight
p180
I3264
sa(dp181
Vphoto_reference
p182
VCmRdAAAA8by2qKqIQ1HshTNKGsXCYBzWHKy2QlYg4NtJpjwNQ7b9QROunKs_UGPgmtFzsKJRTttyo6AOlV2dAotF_Qt8kmN1WNa3jPTgCCqtJjKUnjwKTjXwW3cKT_tm6MOzfHZOEhBU3oQ5arL6lFajJgR1u_5EGhQt7GO6doZG4SBFtdv1v0oM8oafdQ
p183
sVwidth
p184
I3200
sVhtml_attributions
p185
(lp186
V<a href="https://maps.google.com/maps/contrib/101491025563625720540/photos">Jenelle Bossett</a>
p187
asVheight
p188
I2368
sa(dp189
Vphoto_reference
p190
VCoQBcwAAAIPEQB77GqDB5Lgg1Jcek84llLvk1rUb329ytu-2ju0jp-JRSl14-ky3DxOtLJ8OHnT23orRZfIOwe3EaiM2EzHY4kq9kWMjujGmaQ296PJV61vJf0qchRozg7CezBbm09kzYMS1ky9W-0Hxxr1gIVbMupURIfFvq2kgPniB26-WEhC7hhldsgEjHmcJVRQwAixxGhQYS_6ElUKM2vAS2rIpqfSBgZhXLA
p191
sVwidth
p192
I2988
sVhtml_attributions
p193
(lp194
V<a href="https://maps.google.com/maps/contrib/110867884216136608243/photos">Caren Campbell</a>
p195
asVheight
p196
I5312
sasVtypes
p197
(lp198
Vcafe
p199
aVrestaurant
p200
aVfood
p201
aVpoint_of_interest
p202
aVestablishment
p203
asVicon
p204
Vhttps://maps.gstatic.com/mapfiles/place_api/icons/restaurant-71.png
p205
sVname
p206
VJust For You Cafe
p207
sVgeometry
p208
(dp209
Vaccess_points
p210
(lp211
(dp212
Vtravel_modes
p213
(lp214
VDRIVING
p215
aVBICYCLING
p216
aVWALKING
p217
aVTRANSIT
p218
asVlocation
p219
(dp220
Vlat
p221
g3
(S'37.7579062'
tRp222
sVlng
p223
g3
(S'-122.3890045'
tRp224
ssasVlocation
p225
(dp226
Vlat
p227
g3
(S'37.758087'
tRp228
sVlng
p229
g3
(S'-122.3888376'
tRp230
sssVadr_address
p231
V<span class="street-address">732 22nd St</span>, <span class="locality">San Francisco</span>, <span class="region">CA</span> <span class="postal-code">94107-3424</span>, <span class="country-name">United States</span>
p232
sVinternational_phone_number
p233
V+1 415-647-3033
p234
sVreviews
p235
(lp236
(dp237
Vrating
p238
I5
sVaspects
p239
(lp240
(dp241
Vrating
p242
I3
sVtype
p243
Voverall
p244
sasVlanguage
p245
Ven
p246
sVtext
p247
VI've never had my mind blown by French toast before. This place sets the bar for breakfast. My girlfriend tried grits for the first time ever here and absolutely loved them. The staff was friendly and prompt. Definitely coming back.
p248
sVauthor_name
p249
VBryan Westall
p250
sVauthor_url
p251
Vhttps://plus.google.com/116311691594025451779
p252
sVtime
p253
I1461354998
sa(dp254
Vrating
p255
I5
sVaspects
p256
(lp257
(dp258
Vrating
p259
I3
sVtype
p260
Voverall
p261
sasVprofile_photo_url
p262
V//lh6.googleusercontent.com/-OeIC6lcxu34/AAAAAAAAAAI/AAAAAAAAAQ8/MjiCCrfxCCk/photo.jpg
p263
sVlanguage
p264
Ven
p265
sVtext
p266
VDelicious brunch, reasonably priced especially for SF! They have outdoor sidewalk seating, though the tables can get small depending on how much you order. Highly recommend their scones.
p267
sVauthor_name
p268
VWinshen Liu
p269
sVauthor_url
p270
Vhttps://plus.google.com/112254573953585815275
p271
sVtime
p272
I1459341112
sa(dp273
Vrating
p274
I4
sVaspects
p275
(lp276
(dp277
Vrating
p278
I2
sVtype
p279
Voverall
p280
sasVlanguage
p281
Ven
p282
sVtext
p283
VLoved this little cafe. Great coffee and the beignets were amazing. We had the butternut squash scramble and it was fantastic, with grits and home fries. Great staff. 
p284
sVauthor_name
p285
VElijah Godfrey
p286
sVauthor_url
p287
Vhttps://plus.google.com/115744392247362516376
p288
sVtime
p289
I1451701164
sa(dp290
Vrating
p291
I5
sVaspects
p292
(lp293
(dp294
Vrating
p295
I3
sVtype
p296
Voverall
p297
sasVprofile_photo_url
p298
V//lh3.googleusercontent.com/-_JyjcXrqO84/AAAAAAAAAAI/AAAAAAABSSQ/xWi1agH0jqg/photo.jpg
p299
sVlanguage
p300
Ven
p301
sVtext
p302
VThere is almost always a long wait but the corn bread alone is worth the wait. :-) 
p303
sVauthor_name
p304
VAsra Nadeem
p305
sVauthor_url
p306
Vhttps://plus.google.com/106201641485302515655
p307
sVtime
p308
I1456553504
sa(dp309
Vrating
p310
I5
sVaspects
p311
(lp312
(dp313
Vrating
p314
I3
sVtype
p315
Voverall
p316
sasVprofile_photo_url
p317
V//lh6.googleusercontent.com/-wC8mTd8UGlk/AAAAAAAAAAI/AAAAAAAAWnc/OkMPPj-4L8w/photo.jpg
p318
sVlanguage
p319
Ven
p320
sVtext
p321
VThese guys have been around for a while, and we used to go to their 18th Street location where Dat Spot is now. Their Beignets is reason enough for coming here, but the rest of the menu is just as good. Love this place not only for the food but the great vibe. Really nice, down to earth service, and the crowd is always pretty chilled.\u000aFamily friendly. Major credit cards accepted.
p322
sVauthor_name
p323
VPatrick Au-Yeung
p324
sVauthor_url
p325
Vhttps://plus.google.com/101402164093437530516
p326
sVtime
p327
I1447905138
sasVformatted_phone_number
p328
V(415) 647-3033
p329
sVaddress_components
p330
(lp331
(dp332
Vlong_name
p333
V732
p334
sVtypes
p335
(lp336
Vstreet_number
p337
asVshort_name
p338
V732
p339
sa(dp340
Vlong_name
p341
V22nd Street
p342
sVtypes
p343
(lp344
Vroute
p345
asVshort_name
p346
V22nd St
p347
sa(dp348
Vlong_name
p349
VSan Francisco
p350
sVtypes
p351
(lp352
Vlocality
p353
aVpolitical
p354
asVshort_name
p355
VSF
p356
sa(dp357
Vlong_name
p358
VCalifornia
p359
sVtypes
p360
(lp361
Vadministrative_area_level_1
p362
aVpolitical
p363
asVshort_name
p364
VCA
p365
sa(dp366
Vlong_name
p367
VUnited States
p368
sVtypes
p369
(lp370
Vcountry
p371
aVpolitical
p372
asVshort_name
p373
VUS
p374
sa(dp375
Vlong_name
p376
V94107
p377
sVtypes
p378
(lp379
Vpostal_code
p380
asVshort_name
p381
V94107
p382
sa(dp383
Vlong_name
p384
V3424
p385
sVtypes
p386
(lp387
Vpostal_code_suffix
p388
asVshort_name
p389
V3424
p390
sas.