(dp1
Vwebsite
p2
Vhttp://www.haywardrec.org/163/Kennedy-Park
p3
sVrating
p4
cdecimal
Decimal
p5
(S'4.1'
tRp6
sVutc_offset
p7
I-420
sVuser_ratings_total
p8
I27
sVname
p9
VKennedy Park
p10
sVreference
p11
VCmRgAAAAoPFgZTfCQsJCmuGlaTfjJZjU7wE3RMqXQW2SIbNwOMMMWd2nq_OvF-h3EMe2Jo05VhesN2EvJwqnNDOut0a_ogkwq3QGLM2J7gBhpH_jEt2fsxWCP38sPH2yl-EFdZFhEhDovdRjzoJAFzrjSnRgkEp_GhRMoi_GPdeL3zMpu8Rrr01bSCDZsQ
p12
sVphotos
p13
(lp14
(dp15
Vphoto_reference
p16
VCoQBdwAAANoWm0AgvS_BnFxrpm2FK8-nR_5VNbRijMn4mB2y9lnMuBeC8yeiRXYW-ST4IDy3w_JnhwC9Rmodl7_0CCcK5C9tRmNiYJYYh1fVgbOThLc08dGaHPDK5VN_xuCacbVLYx03_xG9THyEZYg7BgibtVywFiigSWtNLg6XOJ7eVeK-EhBKHXEg6EyKGUPRSgc8iy3zGhQuBQPUWhBuBizmc6NSTJb5BJtYqA
p17
sVwidth
p18
I2048
sVhtml_attributions
p19
(lp20
V<a href="https://maps.google.com/maps/contrib/104481399338569826796/photos">Luke Shiras</a>
p21
asVheight
p22
I1536
sa(dp23
Vphoto_reference
p24
VCmRdAAAA25zYZbmUN9Nzdkiks43DI6UL3CvPmqNNHxkvQvlrwGiWOAS8VBkBeeuMSJUmdScSn63YryJwBbRmTgnoCCNp1xwUJB_cn7j1DFrqGycLR88FQGgNU_GjLHccaqKD8TH5EhBIU5tXvS94CEXNsDvHxCA0GhQyr-ez6-YA70JCSfU7EjDHFH9HqA
p25
sVwidth
p26
I1265
sVhtml_attributions
p27
(lp28
V<a href="https://maps.google.com/maps/contrib/118241918206313215235/photos">Shwahi Alameer</a>
p29
asVheight
p30
I949
sa(dp31
Vphoto_reference
p32
VCoQBdwAAANXdMhUmStaCAaJODDdZjvnlGc8IVKpzZBWqXQ8YpDfapTkLcvTtFDX6I8J6LdReHKqvEHGtPNMLrZ4XrX9QqfhjU73TlWYghnvG58f19EHqjMCSzdlga1t8IJSRMhbr0FQZSTociA0koIT9yrroyeyeMJhgK8enYeUBR0NlhLY0EhDXGUtlUcSappr8-xhZtpxdGhT6ys-_vfkHG6dz_z0nU4gH478Ubg
p33
sVwidth
p34
I1536
sVhtml_attributions
p35
(lp36
V<a href="https://maps.google.com/maps/contrib/104481399338569826796/photos">Luke Shiras</a>
p37
asVheight
p38
I2048
sa(dp39
Vphoto_reference
p40
VCmRdAAAAvJ4HdSZdYyZeXES2i3jExdlfTrla3r78C8q86Q15l6PgsXaRIv5MLb703U3d1QOAVSE2dYMiF9gLsxW1Vvh9jquGx7pbEtHv93DarxQxFqQdDMKOLJNiC-7KzeVttBwWEhDQycn68aPpUwg5uVyZYyHTGhRntjyXRQ7U0wOUf-j0H5QKbC3RtQ
p41
sVwidth
p42
I949
sVhtml_attributions
p43
(lp44
V<a href="https://maps.google.com/maps/contrib/118241918206313215235/photos">Shwahi Alameer</a>
p45
asVheight
p46
I1265
sa(dp47
Vphoto_reference
p48
VCoQBdwAAAMzoEGL3VPbeRYclxb35-sfkBE-_E5DXyp9DCvsa0vlChXDXrGbPfG_QJePGwxZFCbdsi78bfS-LoN05KSRVS_o4o3bBJJTW8hxJHct-8eGM5YS3RrN9VFPfCY8IEr1i_78qvHYpiPZCZPR77rTevcKGDJvvduuuCMgMp8mBCzaLEhCuDaJLa_WwGx1mhwQUCewYGhSypjGRvNDvR0UTR1Bj6xCdPBykxg
p49
sVwidth
p50
I2048
sVhtml_attributions
p51
(lp52
V<a href="https://maps.google.com/maps/contrib/104481399338569826796/photos">Luke Shiras</a>
p53
asVheight
p54
I1536
sa(dp55
Vphoto_reference
p56
VCmRdAAAAdGYtct3z_ceAry31AT-ebll6kBoAnR-albIvdYiyCOp2Ly-Mo9itIxfu9PFqbiAQInyQwQbU0eeJuewqP4KX3_fw1n8Wgfihf385xzpqcwTPTSf3Bqx8naTRbSWKQ5V9EhA-EalLETOLyaqVqa5Jd8fhGhQNFdCnOkJnwLbcvQOq4oghDzm7DA
p57
sVwidth
p58
I949
sVhtml_attributions
p59
(lp60
V<a href="https://maps.google.com/maps/contrib/118241918206313215235/photos">Shwahi Alameer</a>
p61
asVheight
p62
I1265
sa(dp63
Vphoto_reference
p64
VCmRdAAAAnqQNaHX7WEzuchnrPWi_D7YavFOldKlTnlp62CfgsKSWzCqRHf0cCIJECNod33qHwhDWdT9KQrtf8Ly_7Yq6P9U6Liuy9I3BgFTuLkh71k6Cl3_bnpo3m5teA3uLGcepEhDethNF0Gio8JTTA8od4nTmGhR3ylaoPAicfTI9ytYqJdNTsg7mfw
p65
sVwidth
p66
I1280
sVhtml_attributions
p67
(lp68
V<a href="https://maps.google.com/maps/contrib/100308386889309286676/photos">Solomon Garza</a>
p69
asVheight
p70
I960
sasVgeometry
p71
(dp72
Vaccess_points
p73
(lp74
(dp75
Vtravel_modes
p76
(lp77
VDRIVING
p78
aVBICYCLING
p79
aVWALKING
p80
aVTRANSIT
p81
asVlocation
p82
(dp83
Vlat
p84
g5
(S'37.66862709999999'
tRp85
sVlng
p86
g5
(S'-122.1200533'
tRp87
ssasVlocation
p88
(dp89
Vlat
p90
g5
(S'37.6680714'
tRp91
sVlng
p92
g5
(S'-122.1213757'
tRp93
sssVadr_address
p94
V<span class="street-address">19501 Hesperian Blvd</span>, <span class="locality">Hayward</span>, <span class="region">CA</span> <span class="postal-code">94541</span>, <span class="country-name">United States</span>
p95
sVplace_id
p96
VChIJQdC8kQaRj4ARO9iBDnjPSpE
p97
sVinternational_phone_number
p98
V+1 510-670-7275
p99
sVvicinity
p100
V19501 Hesperian Boulevard, Hayward
p101
sVreviews
p102
(lp103
(dp104
Vrating
p105
I5
sVaspects
p106
(lp107
(dp108
Vrating
p109
I3
sVtype
p110
Voverall
p111
sasVlanguage
p112
Ven
p113
sVtext
p114
VExcellent place!, small farm where you can feed goats, playground, carrousel, train ride and green area, all in one. Parking lot could be bigger but it is free at least. I'm giving it 5 stars
p115
sVauthor_name
p116
VAgustin Garcia-Montiel
p117
sVauthor_url
p118
Vhttps://plus.google.com/108036627206107849475
p119
sVtime
p120
I1459321266
sa(dp121
Vrating
p122
I5
sVaspects
p123
(lp124
(dp125
Vrating
p126
I3
sVtype
p127
Voverall
p128
sasVprofile_photo_url
p129
V//lh5.googleusercontent.com/-kLp3zmSKTXw/AAAAAAAAAAI/AAAAAAAAAB4/wCMgNonlUT4/photo.jpg
p130
sVlanguage
p131
Ven
p132
sVtext
p133
VThis park is the best! I came here a lot when I was little. It has so much for little kids to have fun and play. 
p134
sVauthor_name
p135
VAlina Diaz
p136
sVauthor_url
p137
Vhttps://plus.google.com/106174437608705401857
p138
sVtime
p139
I1452075173
sa(dp140
Vrating
p141
I5
sVaspects
p142
(lp143
(dp144
Vrating
p145
I3
sVtype
p146
Voverall
p147
sasVprofile_photo_url
p148
V//lh6.googleusercontent.com/-GK6wVSeVSVE/AAAAAAAAAAI/AAAAAAAAxSw/y9m5QamzpSY/photo.jpg
p149
sVlanguage
p150
Ven
p151
sVtext
p152
VPetting zoo, marry go round and train rides.  Great for kids under 5.
p153
sVauthor_name
p154
VDaniel Lee
p155
sVauthor_url
p156
Vhttps://plus.google.com/108227827309398622367
p157
sVtime
p158
I1451963382
sa(dp159
Vrating
p160
I5
sVaspects
p161
(lp162
(dp163
Vrating
p164
I3
sVtype
p165
Voverall
p166
sasVprofile_photo_url
p167
V//lh6.googleusercontent.com/-t91ws3WRbxQ/AAAAAAAAAAI/AAAAAAAAABk/loVQBzGyXQQ/photo.jpg
p168
sVlanguage
p169
Ven
p170
sVtext
p171
VI always use to go here with my dad when I was little. Even everyday after school. 
p172
sVauthor_name
p173
VYungBaySoto
p174
sVauthor_url
p175
Vhttps://plus.google.com/113603809568254443159
p176
sVtime
p177
I1454714302
sa(dp178
Vrating
p179
I5
sVaspects
p180
(lp181
(dp182
Vrating
p183
I3
sVtype
p184
Voverall
p185
sasVprofile_photo_url
p186
V//lh5.googleusercontent.com/-pYE3josRKu0/AAAAAAAAAAI/AAAAAAAAD5E/AWW65_YQG7g/photo.jpg
p187
sVlanguage
p188
Ven
p189
sVtext
p190
VGood for small children.
p191
sVauthor_name
p192
VRio Wing
p193
sVauthor_url
p194
Vhttps://plus.google.com/103235707171261341660
p195
sVtime
p196
I1460336277
sasVformatted_phone_number
p197
V(510) 670-7275
p198
sVurl
p199
Vhttps://maps.google.com/?cid=10469408398322554939
p200
sVscope
p201
VGOOGLE
p202
sVaddress_components
p203
(lp204
(dp205
Vlong_name
p206
V19501
p207
sVtypes
p208
(lp209
Vstreet_number
p210
asVshort_name
p211
V19501
p212
sa(dp213
Vlong_name
p214
VHesperian Boulevard
p215
sVtypes
p216
(lp217
Vroute
p218
asVshort_name
p219
VHesperian Blvd
p220
sa(dp221
Vlong_name
p222
VHayward
p223
sVtypes
p224
(lp225
Vlocality
p226
aVpolitical
p227
asVshort_name
p228
VHayward
p229
sa(dp230
Vlong_name
p231
VCalifornia
p232
sVtypes
p233
(lp234
Vadministrative_area_level_1
p235
aVpolitical
p236
asVshort_name
p237
VCA
p238
sa(dp239
Vlong_name
p240
VUnited States
p241
sVtypes
p242
(lp243
Vcountry
p244
aVpolitical
p245
asVshort_name
p246
VUS
p247
sa(dp248
Vlong_name
p249
V94541
p250
sVtypes
p251
(lp252
Vpostal_code
p253
asVshort_name
p254
V94541
p255
sasVformatted_address
p256
V19501 Hesperian Blvd, Hayward, CA 94541, United States
p257
sVid
p258
V9c99cde5af170106235c06fdf04fa6b0eceea77e
p259
sVtypes
p260
(lp261
Vamusement_park
p262
aVpark
p263
aVpoint_of_interest
p264
aVestablishment
p265
asVicon
p266
Vhttps://maps.gstatic.com/mapfiles/place_api/icons/generic_business-71.png
p267
s.