(dp1
Vrating
p2
cdecimal
Decimal
p3
(S'4.5'
tRp4
sVreference
p5
VCmRgAAAA1hsK2m104uFGx3O7NPN_jo3p13UBtxYlEVaoUD9zfGmjrhnvh85QZM5RlxYGwku6nVPXm1g-wo8L1l2_ewLzm9heJM9dMF8P5Al1myYdORVtciKi-8Sust7rRlOVkK_iEhC2dq0enLZMhhgpMNWd3efEGhRJYWNwP-98nZWiM9ZgtOAmRlcVPg
p6
sVplace_id
p7
VChIJv1LfF7-AhYARYNqV_bSwHPc
p8
sVurl
p9
Vhttps://maps.google.com/?cid=17806301318111156832
p10
sVformatted_address
p11
V1700 Laguna St, San Francisco, CA 94115, United States
p12
sVid
p13
Va781fcefeba5de46096cb980c8b116fe762c2edc
p14
sVopening_hours
p15
(dp16
Vweekday_text
p17
(lp18
VMonday: Closed
p19
aVTuesday: Closed
p20
aVWednesday: 5:30 \u2013 9:30 PM
p21
aVThursday: 5:30 \u2013 9:30 PM
p22
aVFriday: 5:30 \u2013 9:30 PM
p23
aVSaturday: 5:30 \u2013 9:30 PM
p24
aVSunday: Closed
p25
asVopen_now
p26
I00
sVperiods
p27
(lp28
(dp29
Vclose
p30
(dp31
Vday
p32
I3
sVtime
p33
V2130
p34
ssVopen
p35
(dp36
Vday
p37
I3
sVtime
p38
V1730
p39
ssa(dp40
Vclose
p41
(dp42
Vday
p43
I4
sVtime
p44
V2130
p45
ssVopen
p46
(dp47
Vday
p48
I4
sVtime
p49
V1730
p50
ssa(dp51
Vclose
p52
(dp53
Vday
p54
I5
sVtime
p55
V2130
p56
ssVopen
p57
(dp58
Vday
p59
I5
sVtime
p60
V1730
p61
ssa(dp62
Vclose
p63
(dp64
Vday
p65
I6
sVtime
p66
V2130
p67
ssVopen
p68
(dp69
Vday
p70
I6
sVtime
p71
V1730
p72
ssassVvicinity
p73
V1700 Laguna Street, San Francisco
p74
sVscope
p75
VGOOGLE
p76
sVwebsite
p77
Vhttp://kissseafoodsf.com/
p78
sVutc_offset
p79
I-420
sVuser_ratings_total
p80
I54
sVphotos
p81
(lp82
(dp83
Vphoto_reference
p84
VCmRdAAAA7eNHOQstxnenH0JkpLTHszsCu5KADnDst4GEXNQZi5HNLxA0lmrTy5E9D_fL93LMnpOlF8pBvy0FAu7TN1TmJvLXk6Ok9FpORtJOYXKrFScy1iGii2EHE1TIdAj98ZK1EhDPgFm11QF2Ehxg1oQYj9J8GhSKnoQXlKF6Ufv5P3K059XwLOnv2Q
p85
sVwidth
p86
I3264
sVhtml_attributions
p87
(lp88
V<a href="https://maps.google.com/maps/contrib/102013564280066334773/photos">Thomas Wysocki</a>
p89
asVheight
p90
I2448
sa(dp91
Vphoto_reference
p92
VCmRdAAAAFZYB9AWLALII7wvCOcnN1_JyeZ7ipuk3Ft-LwJ6wlHSXExCPzsuUOwHDn-pWsjEgl4wHsTc3jtEsH3rUrPXk2-vFDbrGm4yFKYHDvscWiweUw4BKp9Nwxjba5mKrv9H5EhC0qc1ob_DsRmBM8w6WWR4fGhTdytBosUAuvSnzGbojN3dgtfw3hA
p93
sVwidth
p94
I2048
sVhtml_attributions
p95
(lp96
V<a href="https://maps.google.com/maps/contrib/104111246635874032234/photos">ZAGAT</a>
p97
asVheight
p98
I1365
sa(dp99
Vphoto_reference
p100
VCoQBcwAAACaZWkjIPFIyU-TAN2zBkC1MS73O7ZkoFLFz_dWR-jogFHvia7D8fQGnJGCv2quYaTnT0r1gw01t3tVGvi6gOqMRHz_sizZxiXqoPD3cJYsZwSB84GgqT7fKFd2YtwoYNLdG5TLI02nx857U88210kgzSiMR_cMb44siPpIgDC3WEhBHL1Tn_INX-zg8CD-q_2zgGhRSU-86vW6krluI-yagX1Wo5NDQLg
p101
sVwidth
p102
I5312
sVhtml_attributions
p103
(lp104
V<a href="https://maps.google.com/maps/contrib/100421685466459632865/photos">Gina Hsieh</a>
p105
asVheight
p106
I2988
sa(dp107
Vphoto_reference
p108
VCmRdAAAAkvTNylrCnY5s-ofWJsXZaF92t1KzOa_S-XEwrt2eQlNJiiJkm_oh_jwvP323TwYNlzRtQWyy1R9SAi1qyx3Iv-n--EggT_lKb-7dJTxNVkEN6qq0rSFPew41XR0svo42EhAPkYZYWzUhvPMNducX4xyEGhTfqlxB0ds0lTtSfkpG45A6u94bMw
p109
sVwidth
p110
I1024
sVhtml_attributions
p111
(lp112
V<a href="https://maps.google.com/maps/contrib/102013564280066334773/photos">Thomas Wysocki</a>
p113
asVheight
p114
I768
sa(dp115
Vphoto_reference
p116
VCmRdAAAAfmS2xsbSznH3O12pIwUooar_TvFobynyB5NMHSTdYvaFyL60BzWKnp6b5u9e2RUtoAAq4YJytfrRNovNH4cIUhdUnMWO9dyNndRT9RNnEXz7N98u-_qTbiNrMQMoN8VHEhDUR_HyKsO58riTVbt2qMmyGhSYUqG7meX73iRtr6te_htBQ4lpww
p117
sVwidth
p118
I1024
sVhtml_attributions
p119
(lp120
V<a href="https://maps.google.com/maps/contrib/102013564280066334773/photos">Thomas Wysocki</a>
p121
asVheight
p122
I768
sa(dp123
Vphoto_reference
p124
VCmRdAAAAjoDTkiLfbhxrAwt0upn_340KCoPMvugVFCsFdUhYsrZVAplRJ8CTkitZVNYNs6cyMx9gNtBFLohwqmJvAZe_54iVeGWnO8VKdRByLn8kqBsQpOYJxPUOfD05Y5wcIl7SEhCAY3HkqW5TaeMGdL1qDZ9JGhSw049Jqo9smFvFDEVdCfwR6M8U-Q
p125
sVwidth
p126
I1296
sVhtml_attributions
p127
(lp128
V<a href="https://maps.google.com/maps/contrib/101904606179491710926/photos">Annette L</a>
p129
asVheight
p130
I972
sa(dp131
Vphoto_reference
p132
VCmRdAAAAC7yFMjUgXN96nUcKmCNI7OKAaRCS3zjxjLwLh-jB_GQQm1memlByiUOHtBClnLWQXxPVSQjl26KKn5oOAWd-pwHrqFAe3yNAraJPLPQ2ENUU1Ax89yOUZcemyDsNYPcYEhD4d3NxP0Xgc5PnE0Nr3kv5GhRRKsdgoBy673-leuu7zD3KY3iKkw
p133
sVwidth
p134
I2048
sVhtml_attributions
p135
(lp136
V<a href="https://maps.google.com/maps/contrib/104111246635874032234/photos">ZAGAT</a>
p137
asVheight
p138
I1365
sa(dp139
Vphoto_reference
p140
VCmRdAAAAtqcO7VI8NSLcDNQdgS_ha_RBbxVReta5DT2O6A0mmg7f0rJIYKJ2hJ-VjyLhMz9Sjnwbdh4ot7quK9QukbVYcEHJN8faEgStorCYFPIzsRDW7pg6HoTM_AXnohp-eg2YEhABUzgPUhw5nOghahBU5wikGhQe84NdLdC9MwhvqTvVb7YiaOea2g
p141
sVwidth
p142
I2048
sVhtml_attributions
p143
(lp144
V<a href="https://maps.google.com/maps/contrib/107395795129791787754/photos">Janice Myint</a>
p145
asVheight
p146
I1536
sa(dp147
Vphoto_reference
p148
VCmRdAAAAixEwM2BG0nwZHOBolNCu_AWT-t21zLzELwg2IrNsj0JoGY7PezyfzLFIELPF1lgXFSguXwNElMGQQOtAQP0-TgJH4qZyq9LydhkcyYbmaxhJCFboOhEKefO2evGw4KCnEhCpJtZ1x1cSAot18fNqhf-NGhS0b82f0o6_H7QjhkNqBPCP3wRhEA
p149
sVwidth
p150
I2048
sVhtml_attributions
p151
(lp152
V<a href="https://maps.google.com/maps/contrib/104111246635874032234/photos">ZAGAT</a>
p153
asVheight
p154
I1365
sa(dp155
Vphoto_reference
p156
VCmRdAAAA84uTa4MGPI_ZjAgTBRD6hKisJJRcMhIZW2aRlIwOQSW-_pvKdOgF9WZ5rvjR-rUeywn2AODPdyBKx62sCzT7tAGvvHVBuXIPU_O4UqLKmTVWS3G3bCYKfippCkD8lbUZEhBJyVGGZWmOqeefCqtx_PYtGhTld0VZ6YSfcNabZEeUe90IbspIlw
p157
sVwidth
p158
I2048
sVhtml_attributions
p159
(lp160
V<a href="https://maps.google.com/maps/contrib/107395795129791787754/photos">Janice Myint</a>
p161
asVheight
p162
I1536
sasVtypes
p163
(lp164
Vrestaurant
p165
aVfood
p166
aVpoint_of_interest
p167
aVestablishment
p168
asVicon
p169
Vhttps://maps.gstatic.com/mapfiles/place_api/icons/restaurant-71.png
p170
sVname
p171
VKiss Seafood
p172
sVgeometry
p173
(dp174
Vaccess_points
p175
(lp176
(dp177
Vtravel_modes
p178
(lp179
VDRIVING
p180
aVBICYCLING
p181
aVWALKING
p182
aVTRANSIT
p183
asVlocation
p184
(dp185
Vlat
p186
g3
(S'37.7868658'
tRp187
sVlng
p188
g3
(S'-122.4283876'
tRp189
ssasVlocation
p190
(dp191
Vlat
p192
g3
(S'37.78687'
tRp193
sVlng
p194
g3
(S'-122.4282083'
tRp195
sssVadr_address
p196
V<span class="street-address">1700 Laguna St</span>, <span class="locality">San Francisco</span>, <span class="region">CA</span> <span class="postal-code">94115</span>, <span class="country-name">United States</span>
p197
sVinternational_phone_number
p198
V+1 415-474-2866
p199
sVreviews
p200
(lp201
(dp202
Vrating
p203
I4
sVaspects
p204
(lp205
(dp206
Vrating
p207
I2
sVtype
p208
Voverall
p209
sasVprofile_photo_url
p210
V//lh3.googleusercontent.com/-zdznUqfmjY4/AAAAAAAAAAI/AAAAAAAAABE/X17ixcsbnkg/photo.jpg
p211
sVlanguage
p212
Ven
p213
sVtext
p214
VI came here not knowing what to expect and I loved it! I got snow Kiss Seafood, with potatoes, and sausage and corn on the cob in Cajun and the third level of heat. (There's 4 levels) it was AMAZING. I will now forever swear by Kiss Seafood. My new favorite place. Ever. After o left o told everyone I knew about it! I'm taking my parents here next!!!
p215
sVauthor_name
p216
VJames Gilkey
p217
sVauthor_url
p218
Vhttps://plus.google.com/109690050503922100361
p219
sVtime
p220
I1460024472
sa(dp221
Vrating
p222
I5
sVaspects
p223
(lp224
(dp225
Vrating
p226
I3
sVtype
p227
Voverall
p228
sasVlanguage
p229
Ven
p230
sVtext
p231
VSimply outstanding.  A very small, but special place near Japan Town run by just a husband (he prepares the food) and she serves.  This is the only Japanese restaurant in this country that totally reminds me of the great places I eat in in Japan.  Close my eyes so that I can't see that the other customers are all American, I would think I am back in Kyoto.  I love this place.  Not cheap but  worth it with an excellent sake list.
p232
sVauthor_name
p233
VCerritoKid
p234
sVauthor_url
p235
Vhttps://plus.google.com/117086008139970095414
p236
sVtime
p237
I1433043227
sa(dp238
Vrating
p239
I4
sVaspects
p240
(lp241
(dp242
Vrating
p243
I2
sVtype
p244
Voverall
p245
sasVprofile_photo_url
p246
V//lh6.googleusercontent.com/-X_Y59hCTfbE/AAAAAAAAAAI/AAAAAAAA1TI/SwC9pxogcqE/photo.jpg
p247
sVlanguage
p248
Ven
p249
sVtext
p250
VReally cute husband and wife run restaurant, with an excellent Omakase which includes some of the best sushi and sashimi pieces.  Decent value, but not the most distinctive dishes I've had in Omakase. 
p251
sVauthor_name
p252
VThomas Wysocki
p253
sVauthor_url
p254
Vhttps://plus.google.com/102013564280066334773
p255
sVtime
p256
I1408823098
sa(dp257
Vrating
p258
I5
sVaspects
p259
(lp260
(dp261
Vrating
p262
I3
sVtype
p263
Voverall
p264
sasVprofile_photo_url
p265
V//lh6.googleusercontent.com/-MQUIJsI969A/AAAAAAAAAAI/AAAAAAAAAr4/F10zrtfND6Y/photo.jpg
p266
sVlanguage
p267
Ven
p268
sVtext
p269
VExpensive but wow good food in an intimate atmosphere with an exacting chef and good service.
p270
sVauthor_name
p271
Vjeff dunham
p272
sVauthor_url
p273
Vhttps://plus.google.com/107988747734641335202
p274
sVtime
p275
I1427340867
sa(dp276
Vrating
p277
I5
sVaspects
p278
(lp279
(dp280
Vrating
p281
I3
sVtype
p282
Voverall
p283
sasVprofile_photo_url
p284
V//lh6.googleusercontent.com/-OAgVr9vC3rs/AAAAAAAAAAI/AAAAAAAABKI/TXE6cU7YBoA/photo.jpg
p285
sVlanguage
p286
Ven
p287
sVtext
p288
V* Food:\u000ao Presentation: Yes! I love this place! We sat at the bar the last time we went and were able to watch the chef work his magic, it was wonderful! (5/5)\u000ao Temperature: Hot! (5/5)\u000ao Quality: #1! (5/5)\u000ao Dishes ordered: Omakase.\u000ao Tastiest dish: Everything! (5/5)\u000a\u000a* Server:\u000ao Attentive: Yes! (5/5)\u000ao Knowledgeable: Yes! (5/5)\u000ao Friendliness: This place has amazing service! (5/5)\u000a\u000a* Restaurant:\u000ao Atmosphere: This place is reservations only and sits a maximum of about 8 people? It felt very exclusive! What a wonderful place. (5/5)\u000ao Cleanliness: Very organized and clean. (5/5)\u000ao Cost vs. value: Expensive! (3/5)\u000a\u000a* Will I revisit restaurant? Yes, I will revisit! This is my #1 favorite Japanese restaurant! I love everything here!
p289
sVauthor_name
p290
VOishii Moments
p291
sVauthor_url
p292
Vhttps://plus.google.com/117754576587234398756
p293
sVtime
p294
I1407364582
sasVformatted_phone_number
p295
V(415) 474-2866
p296
sVaddress_components
p297
(lp298
(dp299
Vlong_name
p300
V1700
p301
sVtypes
p302
(lp303
Vstreet_number
p304
asVshort_name
p305
V1700
p306
sa(dp307
Vlong_name
p308
VLaguna Street
p309
sVtypes
p310
(lp311
Vroute
p312
asVshort_name
p313
VLaguna St
p314
sa(dp315
Vlong_name
p316
VSan Francisco
p317
sVtypes
p318
(lp319
Vlocality
p320
aVpolitical
p321
asVshort_name
p322
VSF
p323
sa(dp324
Vlong_name
p325
VCalifornia
p326
sVtypes
p327
(lp328
Vadministrative_area_level_1
p329
aVpolitical
p330
asVshort_name
p331
VCA
p332
sa(dp333
Vlong_name
p334
VUnited States
p335
sVtypes
p336
(lp337
Vcountry
p338
aVpolitical
p339
asVshort_name
p340
VUS
p341
sa(dp342
Vlong_name
p343
V94115
p344
sVtypes
p345
(lp346
Vpostal_code
p347
asVshort_name
p348
V94115
p349
sas.