(dp1
Vrating
p2
cdecimal
Decimal
p3
(S'4.7'
tRp4
sVreference
p5
VCmRcAAAAgE25eTBIJyo9gXBVh4Q0iegLN1ElzYMfidxytQcTtL9uirnNBUGPaFZdsGFObVxJ6mCy6d00qY1x5D_Y_js1uB0gFHywChcOesnqs03aQj1upe6AAN56to1KadEkY4rUEhB-_MDa6w9RwFFbueAvm9q-GhQA_i3XI2NSVZx8-zejpie03Fu7Fw
p6
sVprice_level
p7
I3
sVplace_id
p8
VChIJ59pRbR1-j4ARKfQUFqmo33o
p9
sVurl
p10
Vhttps://maps.google.com/?cid=8853980836607095849
p11
sVformatted_address
p12
V151 Noe St, San Francisco, CA 94114, United States
p13
sVid
p14
V462c6a2395eb39f4d5440eb8943c03db9dbd4fb9
p15
sVopening_hours
p16
(dp17
Vweekday_text
p18
(lp19
VMonday: Closed
p20
aVTuesday: 5:30 \u2013 10:00 PM
p21
aVWednesday: 5:30 \u2013 10:00 PM
p22
aVThursday: 5:30 \u2013 10:00 PM
p23
aVFriday: 5:00 \u2013 10:30 PM
p24
aVSaturday: 5:00 \u2013 10:30 PM
p25
aVSunday: Closed
p26
asVopen_now
p27
I00
sVperiods
p28
(lp29
(dp30
Vclose
p31
(dp32
Vday
p33
I2
sVtime
p34
V2200
p35
ssVopen
p36
(dp37
Vday
p38
I2
sVtime
p39
V1730
p40
ssa(dp41
Vclose
p42
(dp43
Vday
p44
I3
sVtime
p45
V2200
p46
ssVopen
p47
(dp48
Vday
p49
I3
sVtime
p50
V1730
p51
ssa(dp52
Vclose
p53
(dp54
Vday
p55
I4
sVtime
p56
V2200
p57
ssVopen
p58
(dp59
Vday
p60
I4
sVtime
p61
V1730
p62
ssa(dp63
Vclose
p64
(dp65
Vday
p66
I5
sVtime
p67
V2230
p68
ssVopen
p69
(dp70
Vday
p71
I5
sVtime
p72
V1700
p73
ssa(dp74
Vclose
p75
(dp76
Vday
p77
I6
sVtime
p78
V2230
p79
ssVopen
p80
(dp81
Vday
p82
I6
sVtime
p83
V1700
p84
ssassVvicinity
p85
V151 Noe Street, San Francisco
p86
sVscope
p87
VGOOGLE
p88
sVwebsite
p89
Vhttp://www.lardoisesf.com/
p90
sVutc_offset
p91
I-420
sVuser_ratings_total
p92
I91
sVphotos
p93
(lp94
(dp95
Vphoto_reference
p96
VCmRdAAAAq4UCbnCjbgGJzdtnawgNRn-b2P1UFy_FHjiqvFlhDFf-AIdN9SUkH9O6R_rx691D0-PNb62hn4cgubNsFK9arOc5YsStlq1zHihzfDAv0XNB9T1ybEbE1vrK2bchO1yJEhC4KeC0ys5m40xkAYr-i9BJGhQ6W3eYfSwFFLNHV-1RtZUgehN1rA
p97
sVwidth
p98
I480
sVhtml_attributions
p99
(lp100
V<a href="https://maps.google.com/maps/contrib/105672270327191539430/photos">L&#39;Ardoise</a>
p101
asVheight
p102
I481
sa(dp103
Vphoto_reference
p104
VCmRdAAAAlHHp1L1jHnPIyo-M8qpVZyfnNexqvK2a0PS-LCBw9fw6cGuCICOK3FO1wLuwgbMGluHI3HO5H9LWz7ySsfJTd_8MWRa-qO34e2AQh_5RM3zSuY980btyjoG2D8evinXSEhDrxH2KhQWxADk7TCdmNoIcGhRZ-RimpKXahq1MLe3W9Dfi8dd7vQ
p105
sVwidth
p106
I3872
sVhtml_attributions
p107
(lp108
V<a href="https://maps.google.com/maps/contrib/108349549252548890551/photos">thierry clement</a>
p109
asVheight
p110
I2592
sa(dp111
Vphoto_reference
p112
VCmRdAAAA5XrXu-vMwZEDE6dgxy36oVF4B1rXpdmBzUI0lT3KDodi4VXhvbBlri7HWAUTgBRxaH3-GP3Qd7vqVopC0lj0vTpCCzVk21MWNEvI1HfPQ_AdyHKqsp1bp8LwnD6AmgCVEhAUOFvCm6FqUrR9CNEGsNU0GhQZULZB4_KNueOPn__lh5Lb0N76mw
p113
sVwidth
p114
I453
sVhtml_attributions
p115
(lp116
V<a href="https://maps.google.com/maps/contrib/105672270327191539430/photos">L&#39;Ardoise</a>
p117
asVheight
p118
I604
sa(dp119
Vphoto_reference
p120
VCmRdAAAAWM1Yl-X2SRiRW61cw2DNKA2UHOixjvUUQxKascIWjbWZc6BotQ6qem2MWVbwNWcbpnwe8vThtNxyvDLJR9evJv13PYtG2cob87VG-AnvLFOv8qH1Dh4yXx5rmp9kSCXEEhCsVBgvqavXwbzNqoTAuRQsGhR5ifOkg6SCRRk8jseGgNDuD_sZOA
p121
sVwidth
p122
I3392
sVhtml_attributions
p123
(lp124
V<a href="https://maps.google.com/maps/contrib/108349549252548890551/photos">thierry clement</a>
p125
asVheight
p126
I5088
sa(dp127
Vphoto_reference
p128
VCmRdAAAACBygZvlPEMs53skb26DVlBh3p2aCR7vXeeCg88wgAoI6aWAii3w4aVPeu5KQ2dWbj9Z-9u7ex4K6KuknjVYlVS93QZommRvCPM0rGvvMOTHa37i69hlSlcesWqoMdfksEhCUpknu7fcwX_KLse8Sv5NcGhRbgbWhEDyfX1_bPhS2QD0VjOe4Qg
p129
sVwidth
p130
I3385
sVhtml_attributions
p131
(lp132
V<a href="https://maps.google.com/maps/contrib/108349549252548890551/photos">thierry clement</a>
p133
asVheight
p134
I5079
sa(dp135
Vphoto_reference
p136
VCmRdAAAALU9BX73h4c9pBw88kLypaoCn6ukQ0ye_awMP45ywN4ihiyfm6S-iIAcyPCnUHLMmP0noj7VtJ_PWx1oA-DU8xvTP5gq_u8eQN6E1iZp3J9r-kDPdXvxnVLV0-cVxe5JVEhBX_ImU6xt_bQAolvLyo6jTGhS7s-sRBaEEhhsTknZo3lVPAHQ-3Q
p137
sVwidth
p138
I2048
sVhtml_attributions
p139
(lp140
V<a href="https://maps.google.com/maps/contrib/105672270327191539430/photos">L&#39;Ardoise</a>
p141
asVheight
p142
I1536
sa(dp143
Vphoto_reference
p144
VCmRdAAAA5DE11J5R91eqhjUfK71QRmzTFdzENUaTaj8HgAs_roNczPDy8SJscDEgsWvlx1e60RIhWWL3zPnoHtlCatQ6zZ0O9vYh82Ucj1MupjFfEIDRJ3B2q58i2mEARTECf2HbEhDyc_BGJsgD08KrCW0JIDedGhQ-iBQRZxVtAJDm4SE_EDdsn1soJw
p145
sVwidth
p146
I2048
sVhtml_attributions
p147
(lp148
V<a href="https://maps.google.com/maps/contrib/105672270327191539430/photos">L&#39;Ardoise</a>
p149
asVheight
p150
I1536
sa(dp151
Vphoto_reference
p152
VCmRdAAAA3c5NlXOGcJQ-qNix-U14L25HXOAMrrsvMxciAd2mCPTiqQOb1HPaWr2ooTRIIJAQGPn1H2bm75jqrZBKu8bQy0maM1C22TAZCns7wl9M17kVi4Z0jHChy0gt1jD3Ck6-EhAq0sMGinREue3vFGOKuTzFGhTXl12Z2-y0D3OEMqEDL_OxcXiKtw
p153
sVwidth
p154
I480
sVhtml_attributions
p155
(lp156
V<a href="https://maps.google.com/maps/contrib/105672270327191539430/photos">L&#39;Ardoise</a>
p157
asVheight
p158
I720
sa(dp159
Vphoto_reference
p160
VCmRdAAAAsZ-_sT85r8F-67NviczHMAikEk1WYJCBcbMi_0HmFm3COtY53WqtumNom_U5LjKzgT35rC_YaM75b_eTRx5DzhIZi53lOTUtda0r2BfdiveY8OEhnlwXpCd1XmK4p_ftEhBTncdYIhXE1vlZwQw7zEPoGhTBMVoU2wRsseCXinYraDchNUDEzQ
p161
sVwidth
p162
I720
sVhtml_attributions
p163
(lp164
V<a href="https://maps.google.com/maps/contrib/105672270327191539430/photos">L&#39;Ardoise</a>
p165
asVheight
p166
I960
sa(dp167
Vphoto_reference
p168
VCmRdAAAAurYK1CzoMoXddbly-_WC3BPguzdBgEi1VvoqyRKmEEFjVVrkj-Say6_RkSQxwnhH-8lzFicLn1AwNuRBuWED8xAQEO6Cukg7p8wf9PvpIb3ntjQYj_MD_q9QPCjNMkPbEhC5QXhpe3jmxPPS82CAsj-SGhTZNg-A9qkMPlMyyJc7T6gYJvv2_A
p169
sVwidth
p170
I640
sVhtml_attributions
p171
(lp172
V<a href="https://maps.google.com/maps/contrib/105672270327191539430/photos">L&#39;Ardoise</a>
p173
asVheight
p174
I480
sasVtypes
p175
(lp176
Vbar
p177
aVrestaurant
p178
aVfood
p179
aVpoint_of_interest
p180
aVestablishment
p181
asVicon
p182
Vhttps://maps.gstatic.com/mapfiles/place_api/icons/restaurant-71.png
p183
sVname
p184
VL'Ardoise
p185
sVgeometry
p186
(dp187
Vaccess_points
p188
(lp189
(dp190
Vtravel_modes
p191
(lp192
VDRIVING
p193
aVBICYCLING
p194
aVWALKING
p195
aVTRANSIT
p196
asVlocation
p197
(dp198
Vlat
p199
g3
(S'37.7665562'
tRp200
sVlng
p201
g3
(S'-122.4333031'
tRp202
ssasVlocation
p203
(dp204
Vlat
p205
g3
(S'37.7665713'
tRp206
sVlng
p207
g3
(S'-122.433042'
tRp208
sssVadr_address
p209
V<span class="street-address">151 Noe St</span>, <span class="locality">San Francisco</span>, <span class="region">CA</span> <span class="postal-code">94114</span>, <span class="country-name">United States</span>
p210
sVinternational_phone_number
p211
V+1 415-437-2600
p212
sVreviews
p213
(lp214
(dp215
Vrating
p216
I4
sVaspects
p217
(lp218
(dp219
Vrating
p220
I2
sVtype
p221
Voverall
p222
sasVprofile_photo_url
p223
V//lh4.googleusercontent.com/-ZyGuKwqu9zc/AAAAAAAAAAI/AAAAAAAAABE/RRmF3DvPHFk/photo.jpg
p224
sVlanguage
p225
Ven
p226
sVtext
p227
VWow. What a terrific surprise! \u000a\u000aMy friend and I went to CPMC to visit a patient. When she was asleep, we had some time to kill, so we headed here for dinner. What a great choice!!\u000a\u000aSuper-tasty, beautifully prepared food. Cozy, warm environment. Amazingly friendly and helpful staff. \u000a\u000aSit at the counter if you can. So fun to watch the goings-on the kitchen.
p228
sVauthor_name
p229
VBen Hyde
p230
sVauthor_url
p231
Vhttps://plus.google.com/118119248616681034513
p232
sVtime
p233
I1460523272
sa(dp234
Vrating
p235
I4
sVaspects
p236
(lp237
(dp238
Vrating
p239
I2
sVtype
p240
Voverall
p241
sasVprofile_photo_url
p242
V//lh4.googleusercontent.com/-8XFmqy_gGyk/AAAAAAAAAAI/AAAAAAAAABE/T0F-nI4zv28/photo.jpg
p243
sVlanguage
p244
Ven
p245
sVtext
p246
VExcellent food with savory flavors. The service meets a high bar. The space is intimate and the ambiance is excellent. Romantic vibe so would be good to make a reservation and take a date.
p247
sVauthor_name
p248
VRyan Boan
p249
sVauthor_url
p250
Vhttps://plus.google.com/112983220109494207529
p251
sVtime
p252
I1461040597
sa(dp253
Vrating
p254
I5
sVaspects
p255
(lp256
(dp257
Vrating
p258
I3
sVtype
p259
Voverall
p260
sasVlanguage
p261
Ven
p262
sVtext
p263
VThey have excellent food here. We went there for Valentine's Day dinner. The staff are very polite and nice too. Highly recommended. 
p264
sVauthor_name
p265
VSaeed Chehrazi
p266
sVauthor_url
p267
Vhttps://plus.google.com/109114135393976960302
p268
sVtime
p269
I1455506558
sa(dp270
Vrating
p271
I5
sVaspects
p272
(lp273
(dp274
Vrating
p275
I3
sVtype
p276
Voverall
p277
sasVlanguage
p278
Ven
p279
sVtext
p280
VLike walking into a cosy, neighborhood spot in the 16th Arr. Amazing attentive service (all French staff), excellent wine selection and fabulous apps, mains, and desserts. The prawn ravioli was amazing and the stuffed quail heavenly. AMAZING!
p281
sVauthor_name
p282
VDan Peck
p283
sVauthor_url
p284
Vhttps://plus.google.com/103591389028299471684
p285
sVtime
p286
I1428085246
sa(dp287
Vrating
p288
I4
sVaspects
p289
(lp290
(dp291
Vrating
p292
I2
sVtype
p293
Voverall
p294
sasVprofile_photo_url
p295
V//lh6.googleusercontent.com/-wE5_9T8t-OU/AAAAAAAAAAI/AAAAAAAABcY/TQo77nwzFBA/photo.jpg
p296
sVlanguage
p297
Ven
p298
sVtext
p299
VI had a very close friend that was back in town (our hometown) for a few days to celebrate her birthday. It is times like these when you wish San Francisco didn't have so many options. However, you can't go wrong with French food.\u000a\u000aI had the Coq au Vin. My friend had the duck confit with the epic potatoes. We started with the crab ravioli.\u000a\u000aI am debating whether or not to kidnap the chef that made those potatoes. I have never tasted anything so amazing made from Potatoes (aside from Gregoire's in Berkeley). The ravioli was just ok to me - I'd explore other options next time.\u000a\u000aTo me, chicken is chicken. It is also good and you can never go wrong. But ask any of my colleagues, I can't stop raving about the chicken here. The Coq au Vin is amazing. Ask the server to pair you the right red and you're set for an incredible dining experience.\u000a\u000aMake reservations! This place is small and they really do make you feel as if you're expected to stay the duration of the night exchanging bites of warm home cooked meala and sips of some superb wine.
p300
sVauthor_name
p301
VChristopher Lam
p302
sVauthor_url
p303
Vhttps://plus.google.com/108877777802499023186
p304
sVtime
p305
I1435074911
sasVformatted_phone_number
p306
V(415) 437-2600
p307
sVaddress_components
p308
(lp309
(dp310
Vlong_name
p311
V151
p312
sVtypes
p313
(lp314
Vstreet_number
p315
asVshort_name
p316
V151
p317
sa(dp318
Vlong_name
p319
VNoe Street
p320
sVtypes
p321
(lp322
Vroute
p323
asVshort_name
p324
VNoe St
p325
sa(dp326
Vlong_name
p327
VSan Francisco
p328
sVtypes
p329
(lp330
Vlocality
p331
aVpolitical
p332
asVshort_name
p333
VSF
p334
sa(dp335
Vlong_name
p336
VCalifornia
p337
sVtypes
p338
(lp339
Vadministrative_area_level_1
p340
aVpolitical
p341
asVshort_name
p342
VCA
p343
sa(dp344
Vlong_name
p345
VUnited States
p346
sVtypes
p347
(lp348
Vcountry
p349
aVpolitical
p350
asVshort_name
p351
VUS
p352
sa(dp353
Vlong_name
p354
V94114
p355
sVtypes
p356
(lp357
Vpostal_code
p358
asVshort_name
p359
V94114
p360
sas.