(dp1
Vrating
p2
I4
sVreference
p3
VCoQBcgAAANKfwH8KyxEZMdrgocUR5RU6ifVGThJgh_uUqLNXMYd3O0J6gDj9qSzBNmv--Abf7j2bGuALjui5uuI_hKvUeevVcTAfAX9glrTg7IaB_WWh8VkYrJwsX27P16kQR2M8spE3Y_OAM3hUefuK1CzIRnK63Q1II2xbVcTBIl_morf-EhC-_dWgv1IoTdBaktRZKObSGhQGyTnhygbfPkEkIAH-kemJxB8_6Q
p4
sVprice_level
p5
I2
sVplace_id
p6
VChIJSXyr97rLj4AR4kaVdvnP5g4
p7
sVurl
p8
Vhttps://maps.google.com/?cid=1073774231517742818
p9
sVformatted_address
p10
V1290 Coleman Ave, Santa Clara, CA 95050, United States
p11
sVid
p12
V54784f308be7c3b3fc209430f7e7b457806ce663
p13
sVopening_hours
p14
(dp15
Vweekday_text
p16
(lp17
VMonday: Closed
p18
aVTuesday: 11:00 AM \u2013 8:00 PM
p19
aVWednesday: 11:00 AM \u2013 8:00 PM
p20
aVThursday: 11:00 AM \u2013 8:00 PM
p21
aVFriday: 11:00 AM \u2013 9:00 PM
p22
aVSaturday: 12:00 \u2013 9:00 PM
p23
aVSunday: 12:00 \u2013 4:00 PM
p24
asVopen_now
p25
I01
sVperiods
p26
(lp27
(dp28
Vclose
p29
(dp30
Vday
p31
I0
sVtime
p32
V1600
p33
ssVopen
p34
(dp35
Vday
p36
I0
sVtime
p37
V1200
p38
ssa(dp39
Vclose
p40
(dp41
Vday
p42
I2
sVtime
p43
V2000
p44
ssVopen
p45
(dp46
Vday
p47
I2
sVtime
p48
V1100
p49
ssa(dp50
Vclose
p51
(dp52
Vday
p53
I3
sVtime
p54
V2000
p55
ssVopen
p56
(dp57
Vday
p58
I3
sVtime
p59
V1100
p60
ssa(dp61
Vclose
p62
(dp63
Vday
p64
I4
sVtime
p65
V2000
p66
ssVopen
p67
(dp68
Vday
p69
I4
sVtime
p70
V1100
p71
ssa(dp72
Vclose
p73
(dp74
Vday
p75
I5
sVtime
p76
V2100
p77
ssVopen
p78
(dp79
Vday
p80
I5
sVtime
p81
V1100
p82
ssa(dp83
Vclose
p84
(dp85
Vday
p86
I6
sVtime
p87
V2100
p88
ssVopen
p89
(dp90
Vday
p91
I6
sVtime
p92
V1200
p93
ssassVvicinity
p94
V1290 Coleman Avenue, Santa Clara
p95
sVscope
p96
VGOOGLE
p97
sVwebsite
p98
Vhttp://www.lilliemaeshouse.com/
p99
sVutc_offset
p100
I-420
sVuser_ratings_total
p101
I67
sVphotos
p102
(lp103
(dp104
Vphoto_reference
p105
VCmRdAAAAZbWx_AkeY7ObML4tt55nvz7z1wxVbxjL_fr7Jlq0CzyEerQ0Jw9xe8mS6FRNUGiph8yWT-2Zy4q4GY54NYnw9HnB7QBOoJxD_NNfkGQNTBcPfg6dhOi04Ao88VEAa8O6EhAKicJOVGKCSp-gSO8vrZcaGhTJgn8m-z4c8Y7N_tnQFrmHwLMPPQ
p106
sVwidth
p107
I735
sVhtml_attributions
p108
(lp109
V<a href="https://maps.google.com/maps/contrib/103984517065131464925/photos">Lillie Mae&#39;s House of Soul Food</a>
p110
asVheight
p111
I444
sa(dp112
Vphoto_reference
p113
VCmRdAAAAyeRpV7XHzZdEMsuslBATMLhBlo2LXDmyAz1Vd7c8tEnV6qTzQomAScwH43rfoNteJvddrWcYOnMbcBIhC-eyqPQpBilaXcBj3PlVthTyBI8gbgsjMmoxuoLnqLYylr3TEhBayOVNW-dgDWxXtl6xtSWUGhQ0MZ1NN9xxWJiQvOE1r1BfbCe_jw
p114
sVwidth
p115
I720
sVhtml_attributions
p116
(lp117
V<a href="https://maps.google.com/maps/contrib/103984517065131464925/photos">Lillie Mae&#39;s House of Soul Food</a>
p118
asVheight
p119
I479
sa(dp120
Vphoto_reference
p121
VCoQBcwAAAE74317mZeLFDHz4BOiY-fq2hNCP8w7oQE_EbbQKB3QN_Irhtx_d0Z4abvkyI78VCFTH1rOxErFM02bQG3Z7IAsoTw1dzWQEZbvQ5FRD7fQpA9_3Osk7KzzICXcvS1-TIXsCEzWddBrXjp6pCmZ5cvaktGFmG9tVI9T3VMSK62tOEhAR0aoa5uNBp-taJu8Xtu1jGhQllfwFq2YWKNi86K_PdWiR_G133Q
p122
sVwidth
p123
I2448
sVhtml_attributions
p124
(lp125
V<a href="https://maps.google.com/maps/contrib/106119423482791191514/photos">Loretta Barrow</a>
p126
asVheight
p127
I3264
sa(dp128
Vphoto_reference
p129
VCmRdAAAAgn_vpJ52NWKxTW5T9-caSZI5KrwQ5r2ZjMaL8wtNbFyUggximElnjhSh87Jr2nsSYBd-zetFjcWEoAr_98pvsR-S5CphWXTcNOBdGgBP9Aga17-ZlFBAgmLTj3c0iXOaEhChUpkUCseYy0sRcji66AVQGhT6TaCtILZg0JvpKRu2aW460-tytg
p130
sVwidth
p131
I720
sVhtml_attributions
p132
(lp133
V<a href="https://maps.google.com/maps/contrib/103984517065131464925/photos">Lillie Mae&#39;s House of Soul Food</a>
p134
asVheight
p135
I479
sa(dp136
Vphoto_reference
p137
VCoQBcwAAAH8Ukg4QouyHfVWvH3aNCPuT0Dot_pcizreOlx1uQ2cQbpkCZm5v-qsqzcCb3LWeH4F6xmxty4HjSB1OPIal0GEvWlXY9goLe2oHDUaFkQekGArEf7UlY-LvYlms0omXmPssZIufHyEdkwFln8K2kzHFLbcgtM4ILVym7weF6FwEEhDyBd0oObGNmysarnGSpyInGhToJQ-4Hb0HTswC3Rx0ujwyV5YqrA
p138
sVwidth
p139
I1152
sVhtml_attributions
p140
(lp141
V<a href="https://maps.google.com/maps/contrib/113080465381485584051/photos">Gerald Hom</a>
p142
asVheight
p143
I2048
sa(dp144
Vphoto_reference
p145
VCoQBdwAAAC3Qn9y-bE4ZJWkqjFjc6qfy_hA6wVgBemh0DPf9Rk4Bg0byR3eEkq2xOW7Z9SOkqkeEAOf6WazS89hOCBNZndzL-Nh1eSwE-HPhP39F7mLHL-2OBLi-tX2B59EgKl9m6uOpzzvKzMbes5yttzRM_eBm-wInKWEn6DdCafqH6qE6EhAsUP-lXSZHmRmTfqbBuEkNGhTJxqyEWhmio4sTf7RQIKWl8HAz6A
p146
sVwidth
p147
I4032
sVhtml_attributions
p148
(lp149
V<a href="https://maps.google.com/maps/contrib/115546972549135964161/photos">Joel Hang</a>
p150
asVheight
p151
I3024
sa(dp152
Vphoto_reference
p153
VCoQBdwAAAAe9FYbyFf-hUYd1O2k5qCux3pWQvXbgT-cS4nbS8v4Ts30D_p0mCrL5fV80pLNzqRHCFP163V-xfSIU1hNxMv5nRj6hUl6ZCYzagpKED32UVy7BEfPfQKR3bEPL47_8sWE6wMh55PEHRL0lDcFUrPQe59TWonGZjWKQnoDnMrKWEhDyXLMLqDP1sUKj7WQs0xzwGhTUMmNIE4JBOOTTbFxva9NMvebgBg
p154
sVwidth
p155
I2448
sVhtml_attributions
p156
(lp157
V<a href="https://maps.google.com/maps/contrib/106119423482791191514/photos">Loretta Barrow</a>
p158
asVheight
p159
I3264
sa(dp160
Vphoto_reference
p161
VCmRdAAAADvf06UaE23aR7HQpC11ZtWlbHEP0qzPka4E4nV1fZDJZFkmEX8SOkftVR_FgqCTywjAHsWSWYt1pvRYfYwBsU50U5iXhVjUwMgdOse7wRcgGhJvyPx2lrEYFhjn6xneQEhD5UWKukNfkt56vdeR6-O29GhRID-AWcz0-rfAR-RP-yZStjLtr9A
p162
sVwidth
p163
I300
sVhtml_attributions
p164
(lp165
V<a href="https://maps.google.com/maps/contrib/103984517065131464925/photos">Lillie Mae&#39;s House of Soul Food</a>
p166
asVheight
p167
I400
sa(dp168
Vphoto_reference
p169
VCmRdAAAAvsaHmYAMIF-SR7sRGfLefB2PAeHhLhdXfSCjpqz2RGTekwiCCWk9LxZb6ZLGzE2K_koD2nsRsYifSo7KdobhzxWVbnHBIRoHfmbLVFUmki6wcwzCvuGaDlE9NFCd1Rb_EhCE0pjpeXHLC7V2FqGPx45LGhRC6Dnt8aSVs6v-ODeWOuvojfdRoA
p170
sVwidth
p171
I802
sVhtml_attributions
p172
(lp173
V<a href="https://maps.google.com/maps/contrib/103984517065131464925/photos">Lillie Mae&#39;s House of Soul Food</a>
p174
asVheight
p175
I752
sa(dp176
Vphoto_reference
p177
VCoQBdwAAAJzWNWGvKvElkSOOd3_Ky5yu88PlpJHW0TFBc34lIokLXDyRzhvMwXhi57r5eprq6LpgH2Zztu8PQX15huNAk6-1dRmx0QCHxiT7-yaOPQtdfTw0JETid5xKQppZAbVLTOukutHCkuc-oRxdnSfs30WFWPhlt5EvdddYzu4Gi0jmEhBinWBga0buWRPbo0ao9PmQGhTAg3g1ZI6xalyk6WvQNm0261cZqA
p178
sVwidth
p179
I2358
sVhtml_attributions
p180
(lp181
V<a href="https://maps.google.com/maps/contrib/105109249618376093714/photos">MBS 623</a>
p182
asVheight
p183
I4191
sasVtypes
p184
(lp185
Vbar
p186
aVrestaurant
p187
aVfood
p188
aVpoint_of_interest
p189
aVestablishment
p190
asVicon
p191
Vhttps://maps.gstatic.com/mapfiles/place_api/icons/restaurant-71.png
p192
sVname
p193
VLillie Mae's House of Soul Food
p194
sVgeometry
p195
(dp196
Vaccess_points
p197
(lp198
(dp199
Vtravel_modes
p200
(lp201
VDRIVING
p202
aVBICYCLING
p203
aVWALKING
p204
aVTRANSIT
p205
asVlocation
p206
(dp207
Vlat
p208
cdecimal
Decimal
p209
(S'37.3568558'
tRp210
sVlng
p211
g209
(S'-121.9340265'
tRp212
ssasVlocation
p213
(dp214
Vlat
p215
g209
(S'37.3572305'
tRp216
sVlng
p217
g209
(S'-121.9340167'
tRp218
sssVadr_address
p219
V<span class="street-address">1290 Coleman Ave</span>, <span class="locality">Santa Clara</span>, <span class="region">CA</span> <span class="postal-code">95050</span>, <span class="country-name">United States</span>
p220
sVinternational_phone_number
p221
V+1 408-227-7685
p222
sVreviews
p223
(lp224
(dp225
Vrating
p226
I5
sVaspects
p227
(lp228
(dp229
Vrating
p230
I3
sVtype
p231
Voverall
p232
sasVprofile_photo_url
p233
V//lh6.googleusercontent.com/-W5OwVbweUts/AAAAAAAAAAI/AAAAAAAAoqw/l36EBIgb7iY/photo.jpg
p234
sVlanguage
p235
Ven
p236
sVtext
p237
VDo you love friend chicken? No really,  DO YOU LOVE FRIED CHICKEN?  If yes,  and you haven't visited Lillie Mae's yet,  what are you doing reading this? Get yourself over there now,  and start enjoying the best friend chicken I've ever had in the Bay Area. I'm sure the BBQ is good too,  but oh my that fried chicken... \u000a\u000aSeriously. 
p238
sVauthor_name
p239
VTash Hepting
p240
sVauthor_url
p241
Vhttps://plus.google.com/113598657464424216035
p242
sVtime
p243
I1461288804
sa(dp244
Vrating
p245
I2
sVaspects
p246
(lp247
(dp248
Vrating
p249
I0
sVtype
p250
Voverall
p251
sasVprofile_photo_url
p252
V//lh4.googleusercontent.com/-2QtZF4F3DYI/AAAAAAAAAAI/AAAAAAAAAK8/KW47lHVceAk/photo.jpg
p253
sVlanguage
p254
Ven
p255
sVtext
p256
VGood place but crazy expensive. Especially for Catfish. Love the environment. Reminded the office of back home. All of our employees loved the traditional food. Can't beat soul food  on the west coast ... haven't went back due to pricing.
p257
sVauthor_name
p258
VDefining Sports
p259
sVauthor_url
p260
Vhttps://plus.google.com/109737612852358477298
p261
sVtime
p262
I1460002284
sa(dp263
Vrating
p264
I4
sVaspects
p265
(lp266
(dp267
Vrating
p268
I2
sVtype
p269
Voverall
p270
sasVprofile_photo_url
p271
V//lh6.googleusercontent.com/-yxQUM7ky1iI/AAAAAAAAAAI/AAAAAAAAABA/ktNzg8jFwJM/photo.jpg
p272
sVlanguage
p273
Ven
p274
sVtext
p275
VPretty good but way way too much oil and grease in some dishes. Our goat dish was nauseating with oily sauce. Bread dish was good but expensive for what you get and the accompanying oil and butter were again too potent. Service amazing and atmosphere is great.
p276
sVauthor_name
p277
Vjesse boyd
p278
sVauthor_url
p279
Vhttps://plus.google.com/111513939463082179064
p280
sVtime
p281
I1446529325
sa(dp282
Vrating
p283
I3
sVaspects
p284
(lp285
(dp286
Vrating
p287
I1
sVtype
p288
Voverall
p289
sasVprofile_photo_url
p290
V//lh5.googleusercontent.com/-OaUd_GQLGW4/AAAAAAAAAAI/AAAAAAAACHQ/zbSNLVmdVkg/photo.jpg
p291
sVlanguage
p292
Ven
p293
sVtext
p294
VThe workers here are very friendly, and the atmosphere here is really nice. The prices are a little more on the expensive side, but the portions are relatively large so its not too bad; however, their bbq ribs are a little on the dry side and doesn't have the fall off the bone texture we all know and love. The food is only slightly warm and not blistering hot which i really love. The best side in my opinion was the Mac and cheese which had great cheese drag and actually tasted a like cheddar. 
p295
sVauthor_name
p296
VDerik Vo
p297
sVauthor_url
p298
Vhttps://plus.google.com/106318286058253753146
p299
sVtime
p300
I1439858829
sa(dp301
Vrating
p302
I5
sVaspects
p303
(lp304
(dp305
Vrating
p306
I3
sVtype
p307
Voverall
p308
sasVlanguage
p309
Ven
p310
sVtext
p311
VExcellent customer service and the food is outstanding
p312
sVauthor_name
p313
VLoretta Barrow
p314
sVauthor_url
p315
Vhttps://plus.google.com/106119423482791191514
p316
sVtime
p317
I1458877149
sasVformatted_phone_number
p318
V(408) 227-7685
p319
sVaddress_components
p320
(lp321
(dp322
Vlong_name
p323
V1290
p324
sVtypes
p325
(lp326
Vstreet_number
p327
asVshort_name
p328
V1290
p329
sa(dp330
Vlong_name
p331
VColeman Avenue
p332
sVtypes
p333
(lp334
Vroute
p335
asVshort_name
p336
VColeman Ave
p337
sa(dp338
Vlong_name
p339
VSanta Clara
p340
sVtypes
p341
(lp342
Vlocality
p343
aVpolitical
p344
asVshort_name
p345
VSanta Clara
p346
sa(dp347
Vlong_name
p348
VCalifornia
p349
sVtypes
p350
(lp351
Vadministrative_area_level_1
p352
aVpolitical
p353
asVshort_name
p354
VCA
p355
sa(dp356
Vlong_name
p357
VUnited States
p358
sVtypes
p359
(lp360
Vcountry
p361
aVpolitical
p362
asVshort_name
p363
VUS
p364
sa(dp365
Vlong_name
p366
V95050
p367
sVtypes
p368
(lp369
Vpostal_code
p370
asVshort_name
p371
V95050
p372
sas.