(dp1
Vwebsite
p2
Vhttp://www.lingonberryfarm.com/
p3
sVutc_offset
p4
I-420
sVuser_ratings_total
p5
I1
sVname
p6
VLingonberry Farm
p7
sVreference
p8
VCnRkAAAAF7yKEujDo02ccm6B0ZDqr0IT6E5aCEm09WulTXL20rs7FM3vqcb0R00Olf6vEyEXkYQwts2VYDCfpbWiiOeTSp_lBndXBQjBMkuVUtuucztH5YmgmrhJXmKlrKlOYEPh5_RyAHWRVN8KmvWODhn9ghIQ9E-_8M0YqaGJ16VqzMpOIxoUejvsKlQHdWnrf8oEdYKb2l_-DNU
p9
sVgeometry
p10
(dp11
Vaccess_points
p12
(lp13
(dp14
Vtravel_modes
p15
(lp16
VDRIVING
p17
aVBICYCLING
p18
aVWALKING
p19
aVTRANSIT
p20
asVlocation
p21
(dp22
Vlat
p23
cdecimal
Decimal
p24
(S'38.0839104'
tRp25
sVlng
p26
g24
(S'-122.8110044'
tRp27
ssasVlocation
p28
(dp29
Vlat
p30
g24
(S'38.0843789'
tRp31
sVlng
p32
g24
(S'-122.8097093'
tRp33
sssVadr_address
p34
V<span class="street-address">12430 CA-1</span>, <span class="locality">Point Reyes Station</span>, <span class="region">CA</span> <span class="postal-code">94956</span>, <span class="country-name">United States</span>
p35
sVplace_id
p36
VChIJkZe7ReTFhYARvpnBCO-CLZI
p37
sVinternational_phone_number
p38
V+1 415-663-1826
p39
sVvicinity
p40
V12430 California 1, Point Reyes Station
p41
sVreviews
p42
(lp43
(dp44
Vrating
p45
I4
sVaspects
p46
(lp47
(dp48
Vrating
p49
I2
sVtype
p50
Voverall
p51
sasVprofile_photo_url
p52
V//lh4.googleusercontent.com/-IY-W9m_Lx14/AAAAAAAAAAI/AAAAAAAB1x0/EPDnel47PUI/photo.jpg
p53
sVlanguage
p54
Ven
p55
sVtext
p56
V
sVauthor_name
p57
VSteven Hines
p58
sVauthor_url
p59
Vhttps://plus.google.com/113905467779025537818
p60
sVtime
p61
I1399874328
sasVformatted_phone_number
p62
V(415) 663-1826
p63
sVurl
p64
Vhttps://maps.google.com/?cid=10533219066645158334
p65
sVscope
p66
VGOOGLE
p67
sVaddress_components
p68
(lp69
(dp70
Vlong_name
p71
V12430
p72
sVtypes
p73
(lp74
Vstreet_number
p75
asVshort_name
p76
V12430
p77
sa(dp78
Vlong_name
p79
VCalifornia 1
p80
sVtypes
p81
(lp82
Vroute
p83
asVshort_name
p84
VCA-1
p85
sa(dp86
Vlong_name
p87
VPoint Reyes Station
p88
sVtypes
p89
(lp90
Vlocality
p91
aVpolitical
p92
asVshort_name
p93
VPoint Reyes Station
p94
sa(dp95
Vlong_name
p96
VCalifornia
p97
sVtypes
p98
(lp99
Vadministrative_area_level_1
p100
aVpolitical
p101
asVshort_name
p102
VCA
p103
sa(dp104
Vlong_name
p105
VUnited States
p106
sVtypes
p107
(lp108
Vcountry
p109
aVpolitical
p110
asVshort_name
p111
VUS
p112
sa(dp113
Vlong_name
p114
V94956
p115
sVtypes
p116
(lp117
Vpostal_code
p118
asVshort_name
p119
V94956
p120
sasVformatted_address
p121
V12430 CA-1, Point Reyes Station, CA 94956, United States
p122
sVid
p123
Vaee33dd274403d71cfd3f9a82088b66e1bad16f9
p124
sVtypes
p125
(lp126
Vlodging
p127
aVpoint_of_interest
p128
aVestablishment
p129
asVicon
p130
Vhttps://maps.gstatic.com/mapfiles/place_api/icons/lodging-71.png
p131
s.