(dp1
Vrating
p2
cdecimal
Decimal
p3
(S'4.4'
tRp4
sVreference
p5
VCnRlAAAAqLXI3dLm34905U9k1fJATsnEf4NTj9g37AgFQ6eZzXPPkWh1Dop10GDYqiffYSntYwgS_yfVAZC2htg_MJbFILC06ZnGPr_kNPLa2eGiAQ_U-Y-9GVovJZEw_TVxyuSzLsli7CrIpGuToKhXH65_LRIQCvfkyHWR_EjvIGQaSDjMqRoUJlVOC5iaebqWFTtao_7jnpIQEAo
p6
sVprice_level
p7
I2
sVplace_id
p8
VChIJzf0lTbCAhYARqz-tqaIyJaY
p9
sVurl
p10
Vhttps://maps.google.com/?cid=11972030858647125931
p11
sVformatted_address
p12
V846 Divisadero St, San Francisco, CA 94117, United States
p13
sVid
p14
V4f9f5fe44680f2b98980b58ece9beb7197d07863
p15
sVopening_hours
p16
(dp17
Vweekday_text
p18
(lp19
VMonday: 5:00 \u2013 10:00 PM
p20
aVTuesday: 5:00 \u2013 10:00 PM
p21
aVWednesday: 5:00 \u2013 10:00 PM
p22
aVThursday: 5:00 \u2013 10:00 PM
p23
aVFriday: 4:00 \u2013 11:00 PM
p24
aVSaturday: 12:00 \u2013 11:00 PM
p25
aVSunday: 12:00 \u2013 10:00 PM
p26
asVopen_now
p27
I01
sVperiods
p28
(lp29
(dp30
Vclose
p31
(dp32
Vday
p33
I0
sVtime
p34
V2200
p35
ssVopen
p36
(dp37
Vday
p38
I0
sVtime
p39
V1200
p40
ssa(dp41
Vclose
p42
(dp43
Vday
p44
I1
sVtime
p45
V2200
p46
ssVopen
p47
(dp48
Vday
p49
I1
sVtime
p50
V1700
p51
ssa(dp52
Vclose
p53
(dp54
Vday
p55
I2
sVtime
p56
V2200
p57
ssVopen
p58
(dp59
Vday
p60
I2
sVtime
p61
V1700
p62
ssa(dp63
Vclose
p64
(dp65
Vday
p66
I3
sVtime
p67
V2200
p68
ssVopen
p69
(dp70
Vday
p71
I3
sVtime
p72
V1700
p73
ssa(dp74
Vclose
p75
(dp76
Vday
p77
I4
sVtime
p78
V2200
p79
ssVopen
p80
(dp81
Vday
p82
I4
sVtime
p83
V1700
p84
ssa(dp85
Vclose
p86
(dp87
Vday
p88
I5
sVtime
p89
V2300
p90
ssVopen
p91
(dp92
Vday
p93
I5
sVtime
p94
V1600
p95
ssa(dp96
Vclose
p97
(dp98
Vday
p99
I6
sVtime
p100
V2300
p101
ssVopen
p102
(dp103
Vday
p104
I6
sVtime
p105
V1200
p106
ssassVvicinity
p107
V846 Divisadero Street, San Francisco
p108
sVscope
p109
VGOOGLE
p110
sVwebsite
p111
Vhttp://www.littlestarpizza.com/
p112
sVutc_offset
p113
I-420
sVuser_ratings_total
p114
I351
sVphotos
p115
(lp116
(dp117
Vphoto_reference
p118
VCmRdAAAAtu4Pz5ILrt8hsLTpPLsv3rzzBOOG40dZ6mFExO-ox71L2S03l-1iyqf6IdT2IbqJPEnlegx-rVgV-7pBi_J67UsiHiTG9IWPuPHeG3ngS4ADlY2_i6OeRtJmQjqxBWo_EhDnaQV9ZQbqqqvXmFxC_s0WGhRzYg8chp7bcGfzf5A2unBtEUo63A
p119
sVwidth
p120
I540
sVhtml_attributions
p121
(lp122
V<a href="https://maps.google.com/maps/contrib/106170335079428053302/photos">Corrie Davidson</a>
p123
asVheight
p124
I960
sa(dp125
Vphoto_reference
p126
VCoQBcwAAAFBFENUU9wbBFKKf8kMDTFNdtDd0n5QsVbQdQ0kuIxiR1JGNwOFLWy0iLDrsYRsqKm5Fb36S2VMYmT3M2CNNvoPKz_P1UzJW9LOrHy-lXOkkgLC0rja4fCyGxueejc70y78z91APofzinIwP9bh4FTIk4C_SyHjLLv8DdptCYFY7EhAwuChrncZOhbgop0sEYuVBGhSSi2f4nsxfRcd6PtuWLKdvtj6vfw
p127
sVwidth
p128
I5312
sVhtml_attributions
p129
(lp130
V<a href="https://maps.google.com/maps/contrib/110810967121947630802/photos">Jeff Fredryk</a>
p131
asVheight
p132
I2988
sa(dp133
Vphoto_reference
p134
VCmRdAAAAmzh_sZcsipG9O1n1Fs7IpZM7DF-dMpBeX71EVOp_8tDpXh5lyR2HQHETUnmPHkeh7JeLLfwBOkfeLZ4I3HBTdAVFBNyv36kkg7Kh6_pRid0O0NZ6-4LkB_5SAtDMIeV9EhDZhUL95MbS1vQKRqt02hynGhRY_3jQx6K_LkLs4rFyw19N4E9zyg
p135
sVwidth
p136
I2432
sVhtml_attributions
p137
(lp138
V<a href="https://maps.google.com/maps/contrib/106170335079428053302/photos">Corrie Davidson</a>
p139
asVheight
p140
I4320
sa(dp141
Vphoto_reference
p142
VCmRdAAAAx5RClp22pTItgQZkCuxu-ShS92PIICYVAoi1QF26D4Sb2y30g-AxBeQnLadrsXu_zqZ6b8ohQtzQ3zLRAJubb05pwhW05ykWRr5IZPkMt-H9W0msE8jnWHyhLabd7tqgEhBjasBrYs6fssm_0thK0DUJGhRXDz_lNMHRduU2yOVFCbnnBBbhew
p143
sVwidth
p144
I2484
sVhtml_attributions
p145
(lp146
V<a href="https://maps.google.com/maps/contrib/104704411172499887499/photos">Connie Qian</a>
p147
asVheight
p148
I2484
sa(dp149
Vphoto_reference
p150
VCmRdAAAAZT_Eko_xRRmSeNtRP_Jy2IdLEKF7u6P0K75cL_qZudKUPnTkAY1tyXmgO6y-0Xhmj3S05zG8QO0iW6xukoYjk6kBtVpyqmievmt-j8IbVIdokFchUMPeutJ8gq6pMr9DEhDKlva2fdvff9NkBNW1IEoTGhQhkMYqqMGqx0uKEI8TKCnTzyxB5w
p151
sVwidth
p152
I4320
sVhtml_attributions
p153
(lp154
V<a href="https://maps.google.com/maps/contrib/106170335079428053302/photos">Corrie Davidson</a>
p155
asVheight
p156
I2432
sa(dp157
Vphoto_reference
p158
VCoQBcwAAAI-ot9axkbFGaxVf7iDJcL8eQZ4jzW7G1xkAftRIn_QA9GJdgzN5aZd6P5fjSnFl_xq_R41vhRWBeKIlFe0NF03zP2Z9JPGwvntiZ16OLURF5JYYZ45rWxGGC5nKuSoqrDyeVmeZkFYNkyhTAUXzEjEIRAhZprI_jfXY_csrz1jAEhAgCD-FPIrp4vwzuZe2zuPtGhT4AqZ0tFOHw2bLb-1TOAZTvPL4bA
p159
sVwidth
p160
I1135
sVhtml_attributions
p161
(lp162
V<a href="https://maps.google.com/maps/contrib/106095111146912905437/photos">Paul Campbell</a>
p163
asVheight
p164
I640
sa(dp165
Vphoto_reference
p166
VCmRdAAAAe1HknYh6icZPWsFUbNyh5ZcuIZITZzOhkQtZFqVhGhhJ2_tUXng8wcExM1mNH6F1f55ByYNUPNmRCOxANymH5ZcAKUt6gnu-EeH5-1MfxM8OV-8JDHvTdbgTKZuiJ9zhEhADf1ZlDriQlPaCGG7ValdoGhQTCsjKzBnHZAjz4VvlZje8XPJLOQ
p167
sVwidth
p168
I4320
sVhtml_attributions
p169
(lp170
V<a href="https://maps.google.com/maps/contrib/106170335079428053302/photos">Corrie Davidson</a>
p171
asVheight
p172
I2432
sa(dp173
Vphoto_reference
p174
VCmRdAAAAClCwhuoO5RfTafbyibgVQcifUCsduWH7Kzv3MZpSAUxI7ErBAdVKmFacLA5iz58iTpUxLFNndFMOeO5v1E9ZMgq07kYTmRw7aMegFQ87B2Jur6n9mdfHcMe2PXKIKVS9EhAQYiM4bihVIpngdGQOOPE_GhQV1SXhHx35rM866F8yBxWD1PxUlQ
p175
sVwidth
p176
I532
sVhtml_attributions
p177
(lp178
V<a href="https://maps.google.com/maps/contrib/105566901076930544921/photos">Little Star Pizza</a>
p179
asVheight
p180
I400
sa(dp181
Vphoto_reference
p182
VCmRdAAAAw4jCguEsIL6yjScBb3jVRuiNm8hQY82xccRxLm-1WUxt1dnj5POOcQ2jBC2LjeZJxNEG6SNQSb2KhqQ1VqR0fDo67FN2-b4Bw5_kcfGJ1LXA3WTltaKoigwKT8P59b5REhBKGW2ps7p_JFLn6y1AcgIiGhSu9WYG7taVX1tAUs8LDb0iILQvjw
p183
sVwidth
p184
I886
sVhtml_attributions
p185
(lp186
V<a href="https://maps.google.com/maps/contrib/105566901076930544921/photos">Little Star Pizza</a>
p187
asVheight
p188
I446
sa(dp189
Vphoto_reference
p190
VCoQBdwAAAGJjW3QTyOp-5V5Je73zrV0T1NSbngyZPzX_8QR0cUi0oDbYSptBiQm5bCpAcZCPLJIRq5bcu6U2cqoiCivVn_pdN_9qrl_rkQPV5oVkKOwJo2kJ6JQC-VKYMsM9ZnJKwN-6CD7b_jXZHTjoXlqOx8RKymdemzDGqb_lqWTLos4UEhAgFzyHo6cGohlgCTjux01tGhScCsBYiRW0wXcVD29m24cTDtQXSA
p191
sVwidth
p192
I3088
sVhtml_attributions
p193
(lp194
V<a href="https://maps.google.com/maps/contrib/116833442409973613103/photos">Matthew Essex</a>
p195
asVheight
p196
I4160
sasVtypes
p197
(lp198
Vrestaurant
p199
aVfood
p200
aVpoint_of_interest
p201
aVestablishment
p202
asVicon
p203
Vhttps://maps.gstatic.com/mapfiles/place_api/icons/restaurant-71.png
p204
sVname
p205
VLittle Star Pizza
p206
sVgeometry
p207
(dp208
Vaccess_points
p209
(lp210
(dp211
Vtravel_modes
p212
(lp213
VDRIVING
p214
aVBICYCLING
p215
aVWALKING
p216
aVTRANSIT
p217
asVlocation
p218
(dp219
Vlat
p220
g3
(S'37.7775126'
tRp221
sVlng
p222
g3
(S'-122.4382367'
tRp223
ssasVlocation
p224
(dp225
Vlat
p226
g3
(S'37.7775405'
tRp227
sVlng
p228
g3
(S'-122.4380149'
tRp229
sssVadr_address
p230
V<span class="street-address">846 Divisadero St</span>, <span class="locality">San Francisco</span>, <span class="region">CA</span> <span class="postal-code">94117</span>, <span class="country-name">United States</span>
p231
sVinternational_phone_number
p232
V+1 415-441-1118
p233
sVreviews
p234
(lp235
(dp236
Vrating
p237
I4
sVaspects
p238
(lp239
(dp240
Vrating
p241
I2
sVtype
p242
Voverall
p243
sasVprofile_photo_url
p244
V//lh4.googleusercontent.com/-LrrjRp7LeYw/AAAAAAAAAAI/AAAAAAAAABU/YUU4-ec1bak/photo.jpg
p245
sVlanguage
p246
Ven
p247
sVtext
p248
VDue to growing up within easy driving distance to Zachary's pizza, I was a tad skeptical of Little Star before I tried it.  Could it truly be as good as the excellent stuffed pizza I was born and raised on in the East Bay? The answer: yes!  I actually give Little Star the edge over Zachary's in a couple of areas including their corn meal crust and the chill vibe working.  Although parking is tough, the pizza makes it worth it!  The craft beer selection was solid last time I went.  You could even walk (or roll if you ate entirely too much pizza) a couple blocks to the Independent post dinner.
p249
sVauthor_name
p250
VJoseph Watson
p251
sVauthor_url
p252
Vhttps://plus.google.com/114559360804966973317
p253
sVtime
p254
I1460981492
sa(dp255
Vrating
p256
I4
sVaspects
p257
(lp258
(dp259
Vrating
p260
I2
sVtype
p261
Voverall
p262
sasVprofile_photo_url
p263
V//lh4.googleusercontent.com/-kNbar8Jqgr8/AAAAAAAAAAI/AAAAAAAAABE/NXQhMrTo3Zw/photo.jpg
p264
sVlanguage
p265
Ven
p266
sVtext
p267
VOrdered a white pie with meatballs as an addition (+$3) and it was SO GOOD. The meatballs were that night's special and was made in house. Adding a bit of a meat to an otherwise vegetarian pie sans tomato sauce was really a great call in my family's opinion. Granted, we didn't finish the pie, but we were very satisfied with our choice. The salad we ordered to start off our meal was fresh and dressed well....but raw onions are the bane of all my food experiences.
p268
sVauthor_name
p269
VGeorge Roberson
p270
sVauthor_url
p271
Vhttps://plus.google.com/102447563179335781427
p272
sVtime
p273
I1460888339
sa(dp274
Vrating
p275
I5
sVaspects
p276
(lp277
(dp278
Vrating
p279
I3
sVtype
p280
Voverall
p281
sasVprofile_photo_url
p282
V//lh3.googleusercontent.com/-c7cvEOQGpCg/AAAAAAAAAAI/AAAAAAAABn4/YzwDtdjLRCM/photo.jpg
p283
sVlanguage
p284
Ven
p285
sVtext
p286
VAmazing pizzas! We tried the Chicago one, the ones that are thick, and it was the best pizza I've ever had. Never leave San Francisco without trying a pizza from here.\u000a\u000aThe place is super cozy and the staff were really nice!
p287
sVauthor_name
p288
VMarta Melgar
p289
sVauthor_url
p290
Vhttps://plus.google.com/111471935122560917611
p291
sVtime
p292
I1453826150
sa(dp293
Vrating
p294
I5
sVaspects
p295
(lp296
(dp297
Vrating
p298
I3
sVtype
p299
Voverall
p300
sasVprofile_photo_url
p301
V//lh6.googleusercontent.com/-MXx37G2c3NU/AAAAAAAAAAI/AAAAAAAAAIs/xyGDW3ztGds/photo.jpg
p302
sVlanguage
p303
Ven
p304
sVtext
p305
VWe really enjoyed this restaurant. We showed up around 8pm on a Thursday and were seated promptly. The restaurant was just about at full capacity. The staff was very friendly and attentive, serving us our appetizer within 10 minutes. The pizza took about 30 minutes which was expected. \u000a\u000aWe ordered the Caprese salad and the small size Little Star deep dish and were not let down! The small easily feeds 2 people about 3 slices each. The mozzarella on the salad was fresh and full of flavor. The pizza was cheesy and hearty with tomatoes and ricotta. Definitely a great eatery for Chicago-style deep dish! To finish this off, get a small work-out in and walk 3 blocks down to Bi-Rite for some ice cream. 
p306
sVauthor_name
p307
VErica Vela
p308
sVauthor_url
p309
Vhttps://plus.google.com/106645467070268789670
p310
sVtime
p311
I1452836314
sa(dp312
Vrating
p313
I5
sVaspects
p314
(lp315
(dp316
Vrating
p317
I3
sVtype
p318
Voverall
p319
sasVprofile_photo_url
p320
V//lh5.googleusercontent.com/-QtYgBo0MX3k/AAAAAAAAAAI/AAAAAAAAAAA/H1_8E4WDrcs/photo.jpg
p321
sVlanguage
p322
Ven
p323
sVtext
p324
VFavorite pizza in town. Known for cornbread crust pizza. As good as it gets, but not cheap. That said you get what you pay for here! Come here 6 times a year, worth eating at especially if visiting. It's where locals know to go.
p325
sVauthor_name
p326
VBen Miskie
p327
sVauthor_url
p328
Vhttps://plus.google.com/110753705917459241076
p329
sVtime
p330
I1450458311
sasVformatted_phone_number
p331
V(415) 441-1118
p332
sVaddress_components
p333
(lp334
(dp335
Vlong_name
p336
V846
p337
sVtypes
p338
(lp339
Vstreet_number
p340
asVshort_name
p341
V846
p342
sa(dp343
Vlong_name
p344
VDivisadero Street
p345
sVtypes
p346
(lp347
Vroute
p348
asVshort_name
p349
VDivisadero St
p350
sa(dp351
Vlong_name
p352
VSan Francisco
p353
sVtypes
p354
(lp355
Vlocality
p356
aVpolitical
p357
asVshort_name
p358
VSF
p359
sa(dp360
Vlong_name
p361
VCalifornia
p362
sVtypes
p363
(lp364
Vadministrative_area_level_1
p365
aVpolitical
p366
asVshort_name
p367
VCA
p368
sa(dp369
Vlong_name
p370
VUnited States
p371
sVtypes
p372
(lp373
Vcountry
p374
aVpolitical
p375
asVshort_name
p376
VUS
p377
sa(dp378
Vlong_name
p379
V94117
p380
sVtypes
p381
(lp382
Vpostal_code
p383
asVshort_name
p384
V94117
p385
sas.