(dp1
Vrating
p2
cdecimal
Decimal
p3
(S'4.1'
tRp4
sVreference
p5
VCmReAAAAm30r_Rwdj2lM4h3AZTvqF2jZwhqJZJ4UZJlCvJeCh-U7ZgVlecwUIaVmoFePbapD0PgnFZT_956JkGSh9NAJD7YFg1pw_CZcOY2fVFcJlQ3PG-zBHxC7ECHRBNnIMqNDEhC30ppKo88_CD5b2zvhofmJGhQ_A1jYRu9a_u259fWUa6h5GqeHow
p6
sVprice_level
p7
I1
sVplace_id
p8
VChIJlbIO1Oi2j4ARp17Uf24xkHk
p9
sVurl
p10
Vhttps://maps.google.com/?cid=8759555625896402599
p11
sVformatted_address
p12
V1177 W El Camino Real, Sunnyvale, CA 94087, United States
p13
sVid
p14
Vc4a8761d0ad1e0b1eaaa137451f1fb33093fdea1
p15
sVopening_hours
p16
(dp17
Vweekday_text
p18
(lp19
VMonday: Closed
p20
aVTuesday: 8:30 AM \u2013 2:30 PM, 5:30 \u2013 10:00 PM
p21
aVWednesday: 8:30 AM \u2013 2:30 PM, 5:30 \u2013 10:00 PM
p22
aVThursday: 8:30 AM \u2013 2:30 PM, 5:30 \u2013 10:00 PM
p23
aVFriday: 8:30 AM \u2013 2:30 PM, 5:30 \u2013 10:00 PM
p24
aVSaturday: 8:30 AM \u2013 10:00 PM
p25
aVSunday: 8:30 AM \u2013 10:00 PM
p26
asVopen_now
p27
I01
sVperiods
p28
(lp29
(dp30
Vclose
p31
(dp32
Vday
p33
I0
sVtime
p34
V2200
p35
ssVopen
p36
(dp37
Vday
p38
I0
sVtime
p39
V0830
p40
ssa(dp41
Vclose
p42
(dp43
Vday
p44
I2
sVtime
p45
V1430
p46
ssVopen
p47
(dp48
Vday
p49
I2
sVtime
p50
V0830
p51
ssa(dp52
Vclose
p53
(dp54
Vday
p55
I2
sVtime
p56
V2200
p57
ssVopen
p58
(dp59
Vday
p60
I2
sVtime
p61
V1730
p62
ssa(dp63
Vclose
p64
(dp65
Vday
p66
I3
sVtime
p67
V1430
p68
ssVopen
p69
(dp70
Vday
p71
I3
sVtime
p72
V0830
p73
ssa(dp74
Vclose
p75
(dp76
Vday
p77
I3
sVtime
p78
V2200
p79
ssVopen
p80
(dp81
Vday
p82
I3
sVtime
p83
V1730
p84
ssa(dp85
Vclose
p86
(dp87
Vday
p88
I4
sVtime
p89
V1430
p90
ssVopen
p91
(dp92
Vday
p93
I4
sVtime
p94
V0830
p95
ssa(dp96
Vclose
p97
(dp98
Vday
p99
I4
sVtime
p100
V2200
p101
ssVopen
p102
(dp103
Vday
p104
I4
sVtime
p105
V1730
p106
ssa(dp107
Vclose
p108
(dp109
Vday
p110
I5
sVtime
p111
V1430
p112
ssVopen
p113
(dp114
Vday
p115
I5
sVtime
p116
V0830
p117
ssa(dp118
Vclose
p119
(dp120
Vday
p121
I5
sVtime
p122
V2200
p123
ssVopen
p124
(dp125
Vday
p126
I5
sVtime
p127
V1730
p128
ssa(dp129
Vclose
p130
(dp131
Vday
p132
I6
sVtime
p133
V2200
p134
ssVopen
p135
(dp136
Vday
p137
I6
sVtime
p138
V0830
p139
ssassVvicinity
p140
V1177 West El Camino Real, Sunnyvale
p141
sVscope
p142
VGOOGLE
p143
sVwebsite
p144
Vhttp://www.madrascafe.us/
p145
sVutc_offset
p146
I-420
sVuser_ratings_total
p147
I437
sVphotos
p148
(lp149
(dp150
Vphoto_reference
p151
VCmRdAAAAol0X4sDogsogjMOj6pcXQLN07qBh5xvrDCtKkKGs-lNJi4HBE40YjGP1ZYSVBix_AWwHV6bgQwlRlxq3WQ2nA4VdUlgXFFxLSQ9eTyG5D1rP1l1kWAQ_uJFYonMYqdA_EhC2AdBxWkwHeknzwOn27pZWGhR_1drYjY_tmyCj_Z4RpxQ9EntWpg
p152
sVwidth
p153
I2048
sVhtml_attributions
p154
(lp155
V<a href="https://maps.google.com/maps/contrib/118268451358807750636/photos">Shyam Bansal</a>
p156
asVheight
p157
I1536
sa(dp158
Vphoto_reference
p159
VCmRdAAAATlwgEGTKdJSTgt9fP0IbtvFcBQxs8rPEVD4HfcVrDwEcXCv7xW4lqDFaCJ4S24dxVQ8na3GkYwIZH_-vDXCsYqHpzBbnjavJH9D-Ijr4su58KQRCy-ZByW2KwTX3aSdCEhB7_OYqAXJWuXNNn_z2juygGhSwN-Kz06uPYRyXKJHQRr5D-HXo5Q
p160
sVwidth
p161
I2886
sVhtml_attributions
p162
(lp163
V<a href="https://maps.google.com/maps/contrib/116957355589541374954/photos">Nikhil Vaishnavi</a>
p164
asVheight
p165
I2887
sa(dp166
Vphoto_reference
p167
VCmRdAAAAnlfLfyUIL2PlXyIyZGdOKZog-80dcSzaBnxW64htHtQsvoQ3aku9-eMB8d-FEoZPKtz3vue8GL7FlmsAYK8cMkz_qIRaQ_WcszeHz2Q7Qs5kK-uVK04ivaHFH6mXOEbGEhBNNtanGbUgVTjivOOb9rH8GhTaIweCb9vnLPI2cSyHZVPjhmmuYg
p168
sVwidth
p169
I1224
sVhtml_attributions
p170
(lp171
V<a href="https://maps.google.com/maps/contrib/118268451358807750636/photos">Shyam Bansal</a>
p172
asVheight
p173
I1632
sa(dp174
Vphoto_reference
p175
VCmRdAAAAKEkaMmNEJXNDLFhrtr2kgeTNYHhU_XinqLmHFDVtja1YTv3ct_NhyW_HSjHFE9jRftm47QfOY3x1gaLGJI2aQZnuLppNO9duQjVwGxcQKaVFnnWGM2UOhwXn0RN1VvEgEhB74UqjM3DqoxnTq6q0eT2SGhTIM7XtGr4_hmLbrZgMAO60LPKpkw
p176
sVwidth
p177
I1536
sVhtml_attributions
p178
(lp179
V<a href="https://maps.google.com/maps/contrib/118268451358807750636/photos">Shyam Bansal</a>
p180
asVheight
p181
I2048
sa(dp182
Vphoto_reference
p183
VCoQBcwAAALnms4D_ijeHyoma7yvo7VGwDIxdcf3IqbEzBTw1elS066Ac85PSsD_xxDsoDQQLp6YJa0s5ohLRsnNviQSNMcEg7tFGxCvJcD3FYnm9_VLIr0pPPW1LES8htg44OZqELCbZPJoTtcLEgrKEGbCtQMJa2aGBvoVmEHm9TqRnXNjdEhAZW3YAMT9wRhoXTmzUGUu8GhSN9qZVBvXXn9WDl87PwtIwQMdcxw
p184
sVwidth
p185
I3264
sVhtml_attributions
p186
(lp187
V<a href="https://maps.google.com/maps/contrib/117123132360822354357/photos">Saumya Ranjan Sahu</a>
p188
asVheight
p189
I1836
sa(dp190
Vphoto_reference
p191
VCmRdAAAADPtPZn55nMHRPZXOU3Z1P0WI7lJDT-kv79dw-v6TScZtBID1jpGDxp9GNjfqwCXrLgWFX3yBzA_EMYcqukd_i030u-9tKcwcZn7VwOfIkSSz3uk8V9VSyImP-9hyUUQ-EhDVjEMdNMkCawXHNvoc4n3eGhQpgh-0bsbDto08ur9HJFLWcxiKQQ
p192
sVwidth
p193
I1536
sVhtml_attributions
p194
(lp195
V<a href="https://maps.google.com/maps/contrib/118268451358807750636/photos">Shyam Bansal</a>
p196
asVheight
p197
I2048
sa(dp198
Vphoto_reference
p199
VCoQBdwAAAKysekHD52pwihNTYOL7mQO1LUDs_U6JdQJpYv-1_isQw4R9QQLPT4x67qY9s50reLGvCUfJ3ePZe61D4S1Ngwm7f5nniDMMSNMoZgvpgsAzni-UsoPRgSARNs2EzBxIydIPVKDEZWnQSIEh-wXtlW3NkUdeSM8UBvzY-cQEsfiOEhA70lpm9aXACVTf5hDJwI6IGhQNcVVabfGfaWM_4AwBPnBqxX7_NQ
p200
sVwidth
p201
I4433
sVhtml_attributions
p202
(lp203
V<a href="https://maps.google.com/maps/contrib/104111246635874032234/photos">ZAGAT</a>
p204
asVheight
p205
I2955
sa(dp206
Vphoto_reference
p207
VCoQBdwAAAKMyc5FT0k9LwSGmEgPWo_mxzADeK0qXDKHUYJVwTCIasCAt09-kUATPFDUSkZ1UUd21KkHsxtbWnQsnPfDQ1pclCZhAEWLgfc47yiRvTA9K9F3oPgRtO4IJugWjW8WZtpE4KnS5X4LEF21kSsfrQFa9ufX807v3o3p15VFW7MZGEhD0T6DLRsBwHBo9-_SNISRWGhS3YbQfoyQCp6Y1CvWWhIvtdfGzYg
p208
sVwidth
p209
I3456
sVhtml_attributions
p210
(lp211
V<a href="https://maps.google.com/maps/contrib/104111246635874032234/photos">ZAGAT</a>
p212
asVheight
p213
I5184
sa(dp214
Vphoto_reference
p215
VCmRdAAAAng8lnHK8q7Msc09edFTi3ker2aJy4JcGp4ojoOnbE3TJeA9xqYQ6JIuPZMl92gxg87VSPW4qnxuaKjmtlWYa9HrmTHtJlKOD-bbO--dVJCO8tLiIkU3OdxX4f8EgDp3fEhBsBa76MOfqeRD4ISyMquoRGhT1h6eW0doGD-55zdW8UhOuQlGQTg
p216
sVwidth
p217
I760
sVhtml_attributions
p218
(lp219
V<a href="https://maps.google.com/maps/contrib/105823853620118597247/photos">\u0d38\u0d3f\u0d2c\u0d41 \u200c</a>
p220
asVheight
p221
I1344
sa(dp222
Vphoto_reference
p223
VCoQBdwAAAObcxqWHXLk8C-QkLPLvQ7w1gk_bB6hmx9tNRZkhW565DdA-ECqvNcgLsKzHe_t2oaY0HEaL1ZiyjB8Rc_JYS7dZFqxkH9JZT2GVZYU13UGgf_7ZSrN63rMjaRZNlCve9GF72KzL8OBMZL3sP31XwaOciQcqYAMb8mXGOp6czsXWEhC_qg_F4pAWsy-gS0q8_FyKGhRgc7AOXrKq6fhrBnQ-UdrR2QaexQ
p224
sVwidth
p225
I2715
sVhtml_attributions
p226
(lp227
V<a href="https://maps.google.com/maps/contrib/104111246635874032234/photos">ZAGAT</a>
p228
asVheight
p229
I4072
sasVtypes
p230
(lp231
Vrestaurant
p232
aVfood
p233
aVpoint_of_interest
p234
aVestablishment
p235
asVicon
p236
Vhttps://maps.gstatic.com/mapfiles/place_api/icons/restaurant-71.png
p237
sVname
p238
VMadras Cafe
p239
sVgeometry
p240
(dp241
Vaccess_points
p242
(lp243
(dp244
Vtravel_modes
p245
(lp246
VDRIVING
p247
aVBICYCLING
p248
aVWALKING
p249
aVTRANSIT
p250
asVlocation
p251
(dp252
Vlat
p253
g3
(S'37.3736739'
tRp254
sVlng
p255
g3
(S'-122.0553903'
tRp256
ssasVlocation
p257
(dp258
Vlat
p259
g3
(S'37.3743938'
tRp260
sVlng
p261
g3
(S'-122.0551927'
tRp262
sssVadr_address
p263
V<span class="street-address">1177 W El Camino Real</span>, <span class="locality">Sunnyvale</span>, <span class="region">CA</span> <span class="postal-code">94087</span>, <span class="country-name">United States</span>
p264
sVinternational_phone_number
p265
V+1 408-737-2323
p266
sVreviews
p267
(lp268
(dp269
Vrating
p270
I4
sVaspects
p271
(lp272
(dp273
Vrating
p274
I2
sVtype
p275
Voverall
p276
sasVprofile_photo_url
p277
V//lh5.googleusercontent.com/-SCN0F-_Gu-M/AAAAAAAAAAI/AAAAAAAADMk/9MGUxSPKD7A/photo.jpg
p278
sVlanguage
p279
Ven
p280
sVtext
p281
VVery popular with the Indian community in the Bay Area. Sometimes huge queues outside but it is well managed. Had Masala dosa, filter coffee and rava kesari. Dosa and coffee were good, Rawa kesari was even better but quite sweet and laden with ghee calories
p282
sVauthor_name
p283
VSanket Gupta
p284
sVauthor_url
p285
Vhttps://plus.google.com/115992352779186481372
p286
sVtime
p287
I1460473816
sa(dp288
Vrating
p289
I4
sVaspects
p290
(lp291
(dp292
Vrating
p293
I2
sVtype
p294
Voverall
p295
sasVprofile_photo_url
p296
V//lh3.googleusercontent.com/-JkSsaTfoXw8/AAAAAAAAAAI/AAAAAAAAApA/efDZj_I1TzY/photo.jpg
p297
sVlanguage
p298
Ven
p299
sVtext
p300
VPretty solid south Indian food. Get the masala dosa and the rasam vada
p301
sVauthor_name
p302
VRohit Sabnis
p303
sVauthor_url
p304
Vhttps://plus.google.com/104674796896874478193
p305
sVtime
p306
I1459716932
sa(dp307
Vrating
p308
I5
sVaspects
p309
(lp310
(dp311
Vrating
p312
I3
sVtype
p313
Voverall
p314
sasVprofile_photo_url
p315
V//lh6.googleusercontent.com/-s-MT0pPCJ0E/AAAAAAAAAAI/AAAAAAAAmG0/YX5VFdao0oY/photo.jpg
p316
sVlanguage
p317
Ven
p318
sVtext
p319
VGreat food , great ambiance. Noise reminds me of walking in an authentic South Indian eatery back home. Value for money , vegetarian food. You can never go wrong about this place, hit it. 
p320
sVauthor_name
p321
VMahendra Shelke
p322
sVauthor_url
p323
Vhttps://plus.google.com/100804535290321638278
p324
sVtime
p325
I1455679137
sa(dp326
Vrating
p327
I4
sVaspects
p328
(lp329
(dp330
Vrating
p331
I2
sVtype
p332
Voverall
p333
sasVprofile_photo_url
p334
V//lh6.googleusercontent.com/-TKeoL7SpAlg/AAAAAAAAAAI/AAAAAAAACX0/luGqxK_yAYg/photo.jpg
p335
sVlanguage
p336
Ven
p337
sVtext
p338
VYou pay for food at the counter and by the time you sit your order is ready. Tried idly vada sambar which was exactly like the home cooked meal. The mango lassi unfortunately was too sweet for me.
p339
sVauthor_name
p340
VAaditya Vadnere
p341
sVauthor_url
p342
Vhttps://plus.google.com/108372257076843829433
p343
sVtime
p344
I1458609562
sa(dp345
Vrating
p346
I4
sVaspects
p347
(lp348
(dp349
Vrating
p350
I2
sVtype
p351
Voverall
p352
sasVprofile_photo_url
p353
V//lh6.googleusercontent.com/-doi-Dr51oNU/AAAAAAAAAAI/AAAAAAAAMnE/Z9To092RopE/photo.jpg
p354
sVlanguage
p355
Ven
p356
sVtext
p357
VOnly Tiffins.....\u000a\u000aI wouldn't say tiffins are tasty, taste was OK.\u000aPreferred only for south Indian  tiffins, it will be crowd during lunch and dinner hours.\u000aMore crowd during weekends and public holidays.
p358
sVauthor_name
p359
VSiva Bandaru
p360
sVauthor_url
p361
Vhttps://plus.google.com/101603926074907897202
p362
sVtime
p363
I1458459207
sasVformatted_phone_number
p364
V(408) 737-2323
p365
sVaddress_components
p366
(lp367
(dp368
Vlong_name
p369
V1177
p370
sVtypes
p371
(lp372
Vstreet_number
p373
asVshort_name
p374
V1177
p375
sa(dp376
Vlong_name
p377
VWest El Camino Real
p378
sVtypes
p379
(lp380
Vroute
p381
asVshort_name
p382
VW El Camino Real
p383
sa(dp384
Vlong_name
p385
VSunnyvale
p386
sVtypes
p387
(lp388
Vlocality
p389
aVpolitical
p390
asVshort_name
p391
VSunnyvale
p392
sa(dp393
Vlong_name
p394
VCalifornia
p395
sVtypes
p396
(lp397
Vadministrative_area_level_1
p398
aVpolitical
p399
asVshort_name
p400
VCA
p401
sa(dp402
Vlong_name
p403
VUnited States
p404
sVtypes
p405
(lp406
Vcountry
p407
aVpolitical
p408
asVshort_name
p409
VUS
p410
sa(dp411
Vlong_name
p412
V94087
p413
sVtypes
p414
(lp415
Vpostal_code
p416
asVshort_name
p417
V94087
p418
sas.