(dp1
Vwebsite
p2
Vhttp://www.mankas.com/
p3
sVrating
p4
cdecimal
Decimal
p5
(S'4.3'
tRp6
sVutc_offset
p7
I-420
sVuser_ratings_total
p8
I15
sVname
p9
VManka's Inverness Lodge
p10
sVreference
p11
VCnRpAAAAYo2l9oGkNv2hHGOLuvbY3MqnRiyaU0iNjEoDqpJY5n_k2Law_1nn3kfp2bfJ0VLMJfsoSEfHrmEi6TcdQaTAWM579nE6WNg11_zoh6Nk0D1QCA1WQqVSV5l2RWlkEr0KEHVHYlt4UjGazzyg7uoAOBIQTMkhpPE886PciubY8EBkFxoUpTca2sCmhbp4l1_n3QZSaRmRyao
p12
sVphotos
p13
(lp14
(dp15
Vphoto_reference
p16
VCmRdAAAA8LEDnlnZqs_VS6J9ZAnFyVeLGOm7zj40ut4zn2NDwnFAHhODCeHOaUqCWmhDJ19CuOmOVu4ozR3ysbhQUahdKSwOZRQo6UnFEUjkorBFwqXWxh11oJiKm3bqOb74MD3uEhDR1k9IWhbS2zMu4TXYr1mEGhRaDK40Y0fEBbVe1w879EnpH4_M0g
p17
sVwidth
p18
I949
sVhtml_attributions
p19
(lp20
V<a href="https://maps.google.com/maps/contrib/108797165364216129722/photos">Scott Perket</a>
p21
asVheight
p22
I1266
sasVgeometry
p23
(dp24
Vaccess_points
p25
(lp26
(dp27
Vtravel_modes
p28
(lp29
VDRIVING
p30
aVBICYCLING
p31
aVWALKING
p32
aVTRANSIT
p33
asVlocation
p34
(dp35
Vlat
p36
g5
(S'38.1016826'
tRp37
sVlng
p38
g5
(S'-122.8589723'
tRp39
ssasVlocation
p40
(dp41
Vlat
p42
g5
(S'38.1015277'
tRp43
sVlng
p44
g5
(S'-122.8592384'
tRp45
sssVadr_address
p46
V<span class="street-address">30 Callendar Way</span>, <span class="locality">Inverness</span>, <span class="region">CA</span> <span class="postal-code">94937</span>, <span class="country-name">United States</span>
p47
sVplace_id
p48
VChIJMy6lqJzPhYARExzvWXxEyQA
p49
sVinternational_phone_number
p50
V+1 415-669-1034
p51
sVvicinity
p52
V30 Callendar Way, Inverness
p53
sVreviews
p54
(lp55
(dp56
Vrating
p57
I5
sVaspects
p58
(lp59
(dp60
Vrating
p61
I3
sVtype
p62
Voverall
p63
sasVlanguage
p64
Ven
p65
sVtext
p66
VAbsolutely amazing stay at the boatman quarters, overlooking Tomales Bay. The room was extremely cozy, aesthetically wonderful and just beyond any expectations. This has earned a big spot in our hearts and expect to be coming back for years to come.
p67
sVauthor_name
p68
VAlex Fuentes
p69
sVauthor_url
p70
Vhttps://plus.google.com/115502323977266440991
p71
sVtime
p72
I1455690911
sa(dp73
Vrating
p74
I5
sVaspects
p75
(lp76
(dp77
Vrating
p78
I3
sVtype
p79
Voverall
p80
sasVprofile_photo_url
p81
V//lh3.googleusercontent.com/-x2rXncfWXj0/AAAAAAAAAAI/AAAAAAAD2Ak/xFsIYeujmjo/photo.jpg
p82
sVlanguage
p83
Ven
p84
sVtext
p85
VAmazingly cozy and relaxing hunting-cabin luxury (with pastries and a copy of the NY Times for breakfast).
p86
sVauthor_name
p87
VMax Davis
p88
sVauthor_url
p89
Vhttps://plus.google.com/113020808653361527612
p90
sVtime
p91
I1453191102
sa(dp92
Vrating
p93
I5
sVaspects
p94
(lp95
(dp96
Vrating
p97
I3
sVtype
p98
Voverall
p99
sasVprofile_photo_url
p100
V//lh4.googleusercontent.com/-gKhjDTU1EEw/AAAAAAAAAAI/AAAAAAAAR60/j3e4MZtsG2Y/photo.jpg
p101
sVlanguage
p102
Ven
p103
sVtext
p104
VWe first heard of Manka's as a recommendation from a friend for a quick weekend getaway. We have been back and have stayed in nearly all of the cabins/rooms and have had a variety of meals. The rooms have tons of character and the food is incredible. The staff and service are always excellent. We love it more every time. 
p105
sVauthor_name
p106
VScott Perket
p107
sVauthor_url
p108
Vhttps://plus.google.com/108797165364216129722
p109
sVtime
p110
I1412987304
sa(dp111
Vrating
p112
I2
sVaspects
p113
(lp114
(dp115
Vrating
p116
I0
sVtype
p117
Voverall
p118
sasVprofile_photo_url
p119
V//lh3.googleusercontent.com/-B4HGZ3z9bPE/AAAAAAAAAAI/AAAAAAAAV0I/yNoXwZrBW1A/photo.jpg
p120
sVlanguage
p121
Ven
p122
sVtext
p123
VA friend recommended this place and I'm interested, but they have a very poorly designed website that forces you to sit through some lengthy Flash (over 60 seconds, moving achingly slowly) before you can actually look at what the rooms are like. Then when you finally get to that part, the text is in a tiny scrolling window, and the single photo that accompanies the room description is just as tiny. \u000a\u000aDon't get me wrong, the hotel could be great, but the website is a huge turn-off. Booking is not possible through the website, either.
p124
sVauthor_name
p125
VAndrea Chen
p126
sVauthor_url
p127
Vhttps://plus.google.com/100357861686137963855
p128
sVtime
p129
I1426821410
sa(dp130
Vrating
p131
I5
sVaspects
p132
(lp133
(dp134
Vrating
p135
I3
sVtype
p136
Voverall
p137
sasVprofile_photo_url
p138
V//lh4.googleusercontent.com/-v-xlHfiyGMU/AAAAAAAAAAI/AAAAAAABfC8/YBs_gJNTKJ4/photo.jpg
p139
sVlanguage
p140
Ven
p141
sVtext
p142
VI was treated to a surprise visit to Mankas.  We stayed in the fisherman's cabin and it was lovely.  No TV, no clocks, but a great hot tub and and outdoor shower made this a memorable trip for me.
p143
sVauthor_name
p144
VTheresa Sobczak
p145
sVauthor_url
p146
Vhttps://plus.google.com/113074101860727537534
p147
sVtime
p148
I1353821272
sasVformatted_phone_number
p149
V(415) 669-1034
p150
sVurl
p151
Vhttps://maps.google.com/?cid=56651771194317843
p152
sVscope
p153
VGOOGLE
p154
sVaddress_components
p155
(lp156
(dp157
Vlong_name
p158
V30
p159
sVtypes
p160
(lp161
Vstreet_number
p162
asVshort_name
p163
V30
p164
sa(dp165
Vlong_name
p166
VCallendar Way
p167
sVtypes
p168
(lp169
Vroute
p170
asVshort_name
p171
VCallendar Way
p172
sa(dp173
Vlong_name
p174
VInverness
p175
sVtypes
p176
(lp177
Vlocality
p178
aVpolitical
p179
asVshort_name
p180
VInverness
p181
sa(dp182
Vlong_name
p183
VCalifornia
p184
sVtypes
p185
(lp186
Vadministrative_area_level_1
p187
aVpolitical
p188
asVshort_name
p189
VCA
p190
sa(dp191
Vlong_name
p192
VUnited States
p193
sVtypes
p194
(lp195
Vcountry
p196
aVpolitical
p197
asVshort_name
p198
VUS
p199
sa(dp200
Vlong_name
p201
V94937
p202
sVtypes
p203
(lp204
Vpostal_code
p205
asVshort_name
p206
V94937
p207
sasVformatted_address
p208
V30 Callendar Way, Inverness, CA 94937, United States
p209
sVid
p210
V83129fe31559d9be5c76d7fe0d651208dd5721a0
p211
sVtypes
p212
(lp213
Vlodging
p214
aVpoint_of_interest
p215
aVestablishment
p216
asVicon
p217
Vhttps://maps.gstatic.com/mapfiles/place_api/icons/lodging-71.png
p218
s.