(dp1
Vrating
p2
cdecimal
Decimal
p3
(S'4.3'
tRp4
sVreference
p5
VCoQBdQAAAB0Ci4NT7HJglOBsRJkTqXQi368mTnEmvuOkMdag7rEz9_wKlBFB71V-KMm3XEvlXc6JeGWTih4OY_w9qNrvOxrW7ACiV6xTSluGCR9f16IyWh9nWc31m4e-sN0veDtYM1HqARi8nTK3y2aYHCKMhEPdZD3YhR7ix7Aj0yZVWHB7EhA8Es4p9wqPjuHVAexDsS3iGhRdiWFJOB5PZPXpbS3t0gSMwkX-jQ
p6
sVprice_level
p7
I2
sVplace_id
p8
VChIJr6IFZPGAhYAR5e3y0GGJp8w
p9
sVurl
p10
Vhttps://maps.google.com/?cid=14746906558058393061
p11
sVformatted_address
p12
V566 Columbus Ave, San Francisco, CA 94133, United States
p13
sVid
p14
Va02e64c80cc6ac95263357457bdba649c3881eed
p15
sVopening_hours
p16
(dp17
Vweekday_text
p18
(lp19
VMonday: 10:00 AM \u2013 11:00 PM
p20
aVTuesday: 10:00 AM \u2013 11:00 PM
p21
aVWednesday: 10:00 AM \u2013 11:00 PM
p22
aVThursday: 10:00 AM \u2013 11:00 PM
p23
aVFriday: 10:00 AM \u2013 11:00 PM
p24
aVSaturday: 10:00 AM \u2013 11:00 PM
p25
aVSunday: 10:00 AM \u2013 11:00 PM
p26
asVopen_now
p27
I01
sVperiods
p28
(lp29
(dp30
Vclose
p31
(dp32
Vday
p33
I0
sVtime
p34
V2300
p35
ssVopen
p36
(dp37
Vday
p38
I0
sVtime
p39
V1000
p40
ssa(dp41
Vclose
p42
(dp43
Vday
p44
I1
sVtime
p45
V2300
p46
ssVopen
p47
(dp48
Vday
p49
I1
sVtime
p50
V1000
p51
ssa(dp52
Vclose
p53
(dp54
Vday
p55
I2
sVtime
p56
V2300
p57
ssVopen
p58
(dp59
Vday
p60
I2
sVtime
p61
V1000
p62
ssa(dp63
Vclose
p64
(dp65
Vday
p66
I3
sVtime
p67
V2300
p68
ssVopen
p69
(dp70
Vday
p71
I3
sVtime
p72
V1000
p73
ssa(dp74
Vclose
p75
(dp76
Vday
p77
I4
sVtime
p78
V2300
p79
ssVopen
p80
(dp81
Vday
p82
I4
sVtime
p83
V1000
p84
ssa(dp85
Vclose
p86
(dp87
Vday
p88
I5
sVtime
p89
V2300
p90
ssVopen
p91
(dp92
Vday
p93
I5
sVtime
p94
V1000
p95
ssa(dp96
Vclose
p97
(dp98
Vday
p99
I6
sVtime
p100
V2300
p101
ssVopen
p102
(dp103
Vday
p104
I6
sVtime
p105
V1000
p106
ssassVvicinity
p107
V566 Columbus Avenue, San Francisco
p108
sVscope
p109
VGOOGLE
p110
sVutc_offset
p111
I-420
sVuser_ratings_total
p112
I70
sVphotos
p113
(lp114
(dp115
Vphoto_reference
p116
VCmRdAAAA_GMLf-zxj509G-cvH3fBXy0WRP-dueNZIAEm_isiy-azG-MDsnbl7qQyKYRxgoxJKkH8ICaCZehwYBUCF_TtdNeGARZjN0nKnTp2-Zz8alIA8QqY6v3x6J-lk12CL6ROEhCNk3RZj8po2iLHcMxBs68DGhR1K1O1gAjZXl2U7XxoksxGzrKxRQ
p117
sVwidth
p118
I4128
sVhtml_attributions
p119
(lp120
V<a href="https://maps.google.com/maps/contrib/107721404123505875377/photos">albert lee</a>
p121
asVheight
p122
I2322
sa(dp123
Vphoto_reference
p124
VCmRdAAAAJvcKLBtM1WSKfELw4Q6BGbI5Rlk3gewGlkCW_EtCjM2Ryp9ygObK_9kv11L-FRL2E0xJrIqts77Izzs-Eq_Zn8V_QY1AoZH7f-_M8WDRy8mtWAGPXDh8DP37sSz_ps2wEhC62E1TaWJ1SDl28ctZFHRKGhQuOlRwLxzOjcBWK853UNIjl9LAFQ
p125
sVwidth
p126
I1296
sVhtml_attributions
p127
(lp128
V<a href="https://maps.google.com/maps/contrib/115877612390906203055/photos">Walkertwo SFO</a>
p129
asVheight
p130
I972
sa(dp131
Vphoto_reference
p132
VCmRdAAAAmhPgY3E9_43_eXOkH9x7628s06ETXEupQvr1i2QzC0YhnqFpAx85_W_2zcWTrI69v13tYM7Dkf4qMY9dX6qrMJE6mp4FXfYlPfSsmiNrjxnIjfq56YdMYUWZjXWiApf_EhB6rblWpWFgxlpULX35ztUZGhRaGR_20u1dXKDAoKGYAJN6m8Rdhg
p133
sVwidth
p134
I2048
sVhtml_attributions
p135
(lp136
V<a href="https://maps.google.com/maps/contrib/104111246635874032234/photos">ZAGAT</a>
p137
asVheight
p138
I1365
sa(dp139
Vphoto_reference
p140
VCmRdAAAAyjK2npOaL7Sa7yKnnv9xdxvpJ-K6wmOrawQ_vjGuVRI-k9gvmairk42nsbJSTKX9nDp3G_5cTXwnMLA3n9MS6LWJGCAbCB1E3FcbgVQKT5vwIGcJTfbownQfT3q-cdLcEhAZwXi3mQnttNRMWsVkCJXmGhTOM4D4olkzN_Yo0Tv3qTP6TfspUQ
p141
sVwidth
p142
I2048
sVhtml_attributions
p143
(lp144
V<a href="https://maps.google.com/maps/contrib/104111246635874032234/photos">ZAGAT</a>
p145
asVheight
p146
I1365
sa(dp147
Vphoto_reference
p148
VCmRdAAAA8UmXsh9oZOvfeYCB6wCZlZL8g-NXWGTtiw_xjM47oLTqst31fU_OX9LgSPeFe9fxCpwoEG4YpEHy1sGiN-O4iJT3bNrUd7qSxayzLu0OQOaJx-ckpJt9VKO2PcfL4aE9EhDd8biluQW59T3QmxBNqPE0GhRfIkop8wTiFX2MQXLKxzf5Ym2tDw
p149
sVwidth
p150
I2048
sVhtml_attributions
p151
(lp152
V<a href="https://maps.google.com/maps/contrib/104111246635874032234/photos">ZAGAT</a>
p153
asVheight
p154
I1365
sa(dp155
Vphoto_reference
p156
VCmRdAAAAe7pM2gTdHhIQRZcLh9Sijh_-_zT-AXBP6fU3REm4PwO6p_IFg4aMsZjnY-HsrqRdzpymDELuQWtZn70mLzilp83rl2_ZvpetfsM0ol1f3CF3EifUJMRESmbfrZZZrmsmEhAWS2-hf_wvq0POn4vkiZVxGhSF3HjLtQ_pVb3cZXbKhEaD1Jy-jg
p157
sVwidth
p158
I2048
sVhtml_attributions
p159
(lp160
V<a href="https://maps.google.com/maps/contrib/104111246635874032234/photos">ZAGAT</a>
p161
asVheight
p162
I1365
sa(dp163
Vphoto_reference
p164
VCoQBdwAAAGlDNNMuQ4QZHdrBmRKJvbpDsQeddc1oKAO1Fy0YnBF-1Rz9HCMujq-Ff6ZmMP5js6Xfewx5CEtsBoVGviS1qU8gCCC6mt_pwSuHQLm3bYWR_D16UIkUTDyWt1bwnfE21wMsfIv8P0v7_N8FyqcSECp8wf-_-xVSdslNovX4nBenEhAm_0CJ3woKscRKBPJ6WuFnGhRy-QjvOoM2Cp6-MNxlfq9EOeaddg
p165
sVwidth
p166
I3024
sVhtml_attributions
p167
(lp168
V<a href="https://maps.google.com/maps/contrib/108027912078218278948/photos">Jeremy Brooks</a>
p169
asVheight
p170
I5376
sa(dp171
Vphoto_reference
p172
VCmRdAAAA8phWPzCO4Xc_OJZcSQMYyJL_oEC76D0lUpfKfIfNOcf9VJCRkiehAdS3i5oPUdrer7b1RC-gO6ZjyLNhF0O-j-XS83hnixMXUyY3-6yyVuLEZO4teGaHwlCaCyUYtocREhD7ZCGPBbevno0W1aRC-bkeGhQBogCd3RMAoxaMXU1HBuEoU9GXAA
p173
sVwidth
p174
I4128
sVhtml_attributions
p175
(lp176
V<a href="https://maps.google.com/maps/contrib/107721404123505875377/photos">albert lee</a>
p177
asVheight
p178
I2322
sa(dp179
Vphoto_reference
p180
VCmRdAAAAbIJlFhm_K13gruTm4X3XRwBySkpKVI7ljxU6aH5pKC-p13f8JxsD8xocBuaZAdx8mud8sgvci8K-CC3amptv-SXtZxJyzUJy0vYaqu4BpeztscppsWVcxeYnJMLeKZwiEhC_7moMIX0Q-QDu0tKRzNxIGhRolfa7waRjCbtezgymGAlCtj28Rw
p181
sVwidth
p182
I2322
sVhtml_attributions
p183
(lp184
V<a href="https://maps.google.com/maps/contrib/107721404123505875377/photos">albert lee</a>
p185
asVheight
p186
I4128
sa(dp187
Vphoto_reference
p188
VCoQBdwAAAAw3d_V02Au24H1V0Dv9NQJL0PQejSKM8-PmH2SNSqn98unybiN91NjoBIzKZAPMS-D5F1UBwdOkCPLpnniVspSnfOHRhgKVJoWsx4euBJJI9Rq7FBMdTPjOVBnxDdIHaa1OG9UB4xYoxRO9eo_H41IuC_LCHortGE8ELpmDBUL8EhBolW8oC4mfneRh-Oo7HzZ2GhTWvxqQcKq1sLNPRlxHu3bKMEL5_w
p189
sVwidth
p190
I3024
sVhtml_attributions
p191
(lp192
V<a href="https://maps.google.com/maps/contrib/108027912078218278948/photos">Jeremy Brooks</a>
p193
asVheight
p194
I5376
sasVtypes
p195
(lp196
Vcafe
p197
aVrestaurant
p198
aVfood
p199
aVpoint_of_interest
p200
aVestablishment
p201
asVicon
p202
Vhttps://maps.gstatic.com/mapfiles/place_api/icons/cafe-71.png
p203
sVname
p204
VMario's Bohemian Cigar Store Cafe
p205
sVgeometry
p206
(dp207
Vaccess_points
p208
(lp209
(dp210
Vtravel_modes
p211
(lp212
VDRIVING
p213
aVBICYCLING
p214
aVWALKING
p215
aVTRANSIT
p216
asVlocation
p217
(dp218
Vlat
p219
g3
(S'37.8002028'
tRp220
sVlng
p221
g3
(S'-122.4099543'
tRp222
ssasVlocation
p223
(dp224
Vlat
p225
g3
(S'37.8002706'
tRp226
sVlng
p227
g3
(S'-122.4098789'
tRp228
sssVadr_address
p229
V<span class="street-address">566 Columbus Ave</span>, <span class="locality">San Francisco</span>, <span class="region">CA</span> <span class="postal-code">94133-2802</span>, <span class="country-name">United States</span>
p230
sVinternational_phone_number
p231
V+1 415-362-0536
p232
sVreviews
p233
(lp234
(dp235
Vrating
p236
I5
sVaspects
p237
(lp238
(dp239
Vrating
p240
I3
sVtype
p241
Voverall
p242
sasVprofile_photo_url
p243
V//lh5.googleusercontent.com/-ukJ--GRGXfM/AAAAAAAAAAI/AAAAAAAAJQg/CjM6wuY_0U0/photo.jpg
p244
sVlanguage
p245
Ven
p246
sVtext
p247
VAs  13+ year SF resident, I love coming here and seeing familiar faces and enjoying my personal favourites, meatball focaccia and caprese with prosciutto.
p248
sVauthor_name
p249
VJeremy Brooks
p250
sVauthor_url
p251
Vhttps://plus.google.com/108027912078218278948
p252
sVtime
p253
I1460846705
sa(dp254
Vrating
p255
I1
sVaspects
p256
(lp257
(dp258
Vrating
p259
I0
sVtype
p260
Voverall
p261
sasVlanguage
p262
Ven
p263
sVtext
p264
VWe walked in. My partner politely asked the waitress a couple of questions. She was extremely rude and bullying. We were stunned and walked right out again. People visiting San Francisco should avoid this creepy faux diner like the plague, they obviously don't like "outsiders".
p265
sVauthor_name
p266
VNick W
p267
sVauthor_url
p268
Vhttps://plus.google.com/109305789980645360683
p269
sVtime
p270
I1455900580
sa(dp271
Vrating
p272
I5
sVaspects
p273
(lp274
(dp275
Vrating
p276
I3
sVtype
p277
Voverall
p278
sasVprofile_photo_url
p279
V//lh5.googleusercontent.com/-Y57l43ZGwR0/AAAAAAAAAAI/AAAAAAAAAAA/3keGa4EWerw/photo.jpg
p280
sVlanguage
p281
Ven
p282
sVtext
p283
VDespite what that snob IdiotSellsArt says, it is still a very pleasant old SF hangout. Popular but rarely crowded, not too cheap but not too pricey. I'm going there right now, in fact. My mouth is watering already.\u000a\u000aAnd yes, I don't doubt that the cook is Mexican - just like at EVERY OTHER RESTAURANT in the US. Imagine the nerve of someone who speaks one of the Romance languages working at an Italian joint!\u000a\u000aSure, folks miss Mario and his family. But in modern SF, the fact that the place is there at all anymore is a miracle.
p284
sVauthor_name
p285
VSteven Bird
p286
sVauthor_url
p287
Vhttps://plus.google.com/108774305315178522047
p288
sVtime
p289
I1447033379
sa(dp290
Vrating
p291
I5
sVaspects
p292
(lp293
(dp294
Vrating
p295
I3
sVtype
p296
Voverall
p297
sasVprofile_photo_url
p298
V//lh4.googleusercontent.com/-KKBtfojDdZk/AAAAAAAAAAI/AAAAAAAAMPY/hkkGPfCK6bs/photo.jpg
p299
sVlanguage
p300
Ven
p301
sVtext
p302
VSettle down with a coffee or beer\u000aAnd enjoy the atmospheric, old-school vibe in the heart of North Beach, with views onto Washington Square Park. Pretty darn tasty sandwiches too.  
p303
sVauthor_name
p304
VRyan Moore
p305
sVauthor_url
p306
Vhttps://plus.google.com/117420317766542125751
p307
sVtime
p308
I1451972496
sa(dp309
Vrating
p310
I5
sVaspects
p311
(lp312
(dp313
Vrating
p314
I3
sVtype
p315
Voverall
p316
sasVprofile_photo_url
p317
V//lh3.googleusercontent.com/-U2ZVaIF4Ld0/AAAAAAAAAAI/AAAAAAAAAHw/85mXjO4_Gvs/photo.jpg
p318
sVlanguage
p319
Ven
p320
sVtext
p321
VNorth Beach institution with attitude; no frills but good sandwiches and espressos
p322
sVauthor_name
p323
VColin Sebastian
p324
sVauthor_url
p325
Vhttps://plus.google.com/117232760979791083742
p326
sVtime
p327
I1458701777
sasVformatted_phone_number
p328
V(415) 362-0536
p329
sVaddress_components
p330
(lp331
(dp332
Vlong_name
p333
V566
p334
sVtypes
p335
(lp336
Vstreet_number
p337
asVshort_name
p338
V566
p339
sa(dp340
Vlong_name
p341
VColumbus Avenue
p342
sVtypes
p343
(lp344
Vroute
p345
asVshort_name
p346
VColumbus Ave
p347
sa(dp348
Vlong_name
p349
VSan Francisco
p350
sVtypes
p351
(lp352
Vlocality
p353
aVpolitical
p354
asVshort_name
p355
VSF
p356
sa(dp357
Vlong_name
p358
VCalifornia
p359
sVtypes
p360
(lp361
Vadministrative_area_level_1
p362
aVpolitical
p363
asVshort_name
p364
VCA
p365
sa(dp366
Vlong_name
p367
VUnited States
p368
sVtypes
p369
(lp370
Vcountry
p371
aVpolitical
p372
asVshort_name
p373
VUS
p374
sa(dp375
Vlong_name
p376
V94133
p377
sVtypes
p378
(lp379
Vpostal_code
p380
asVshort_name
p381
V94133
p382
sa(dp383
Vlong_name
p384
V2802
p385
sVtypes
p386
(lp387
Vpostal_code_suffix
p388
asVshort_name
p389
V2802
p390
sas.