(dp1
Vrating
p2
cdecimal
Decimal
p3
(S'4.4'
tRp4
sVreference
p5
VCmRfAAAAWXySp35BNw96Qvug6Nb5Qks6anjVEFm71FZGKvZ1KeezEe-4kumItkmMoXswkFWIlyI1KNpo7m4zjrqG-AEqMFLyBIewfkezrmI6qgmeQqjYVKB0ckQRJH0Gcw_hciXLEhCFIc4zdPmylB1gdlaM5yF9GhSl22CvSpspWtLE1NQa8yKDoEfRCQ
p6
sVplace_id
p7
VChIJ8z23CuiZhYARb_QVrS8Ui_E
p8
sVurl
p9
Vhttps://maps.google.com/?cid=17405027379903329391
p10
sVformatted_address
p11
V1735 Lincoln Ave, San Rafael, CA 94901, United States
p12
sVid
p13
V41e825025e4611b2fa0851f7328e134e75aa886c
p14
sVopening_hours
p15
(dp16
Vweekday_text
p17
(lp18
VMonday: Open 24 hours
p19
aVTuesday: Open 24 hours
p20
aVWednesday: Open 24 hours
p21
aVThursday: Open 24 hours
p22
aVFriday: Open 24 hours
p23
aVSaturday: Open 24 hours
p24
aVSunday: Open 24 hours
p25
asVopen_now
p26
I01
sVperiods
p27
(lp28
(dp29
Vopen
p30
(dp31
Vday
p32
I0
sVtime
p33
V0000
p34
ssassVvicinity
p35
V1735 Lincoln Avenue, San Rafael
p36
sVscope
p37
VGOOGLE
p38
sVwebsite
p39
Vhttp://www.marinlodge.com
p40
sVutc_offset
p41
I-420
sVuser_ratings_total
p42
I13
sVphotos
p43
(lp44
(dp45
Vphoto_reference
p46
VCmRdAAAAJx37o2Bjcl8XVU9aFPL9afvCo850ZR3WyZHUkDXeVT1InRyrxCL0mwd3iTRwe4eIsAiWMuAbtiRm_fInOmHesM6FENmBpClk1Urv8lGYJESW_jaaBHD2ExBlss5Bvq8GEhDJZ8pgZMkM8RCmZmLdQYgzGhTOwKWniJRSrI1R_j8wJbmbjL6-KQ
p47
sVwidth
p48
I1156
sVhtml_attributions
p49
(lp50
V<a href="https://maps.google.com/maps/contrib/111555288418111651717/photos">Marin Lodge</a>
p51
asVheight
p52
I1152
sa(dp53
Vphoto_reference
p54
VCmRdAAAA9xQxW_KY4W3MSDq5gtNWv4nDCHx0UjZsIzgx0rMayU_EMhRu_0z4L7qILQpirXIbak6BWE3m_RpugtbbaRuwZggToETr9eLVAcN7lzEdefQgY0G6Hkj2WVJje5_nCn7BEhBSHXg8U0yTkT-D3cOD-bYrGhR1SbZMyMe93HqKGvFElup50utw9w
p55
sVwidth
p56
I2048
sVhtml_attributions
p57
(lp58
V<a href="https://maps.google.com/maps/contrib/111555288418111651717/photos">Marin Lodge</a>
p59
asVheight
p60
I1152
sa(dp61
Vphoto_reference
p62
VCmRdAAAA2mm5DfhqktSoLyEp-6WBIIkF7P4imyD-kOF0-JRjea_cnwSh3yezia8nCdGTGlfPQIFOIZ1tW-8X5kbWbB0gwnJkN-WqZMlwjQzuFDvh7R0l-7G_e9Du1Fc3Xu3CBmLhEhBBqzt2vIMoxbtoSMhupyDeGhSrO3X8Gl9b6lCtR6adgfkr_cqSCQ
p63
sVwidth
p64
I5312
sVhtml_attributions
p65
(lp66
V<a href="https://maps.google.com/maps/contrib/111555288418111651717/photos">Marin Lodge</a>
p67
asVheight
p68
I2988
sa(dp69
Vphoto_reference
p70
VCmRdAAAAsGxq9Au2mkJANpEX5mRPOhhhodyLWcH3ewOxr9bJd6lDNJ-qRXXqoxmS__GZjFjPGRP0mQS-FLWG2A7_XWAe75u59NhbmbZDJIQG_bbnN3jCgDWZ0yXAPLJ06sSC8S-_EhBVCjrVp4KBT_nHys4Zbo9JGhTJZEQ_gBWH1N2uqqsV7N2zGfy8ig
p71
sVwidth
p72
I5312
sVhtml_attributions
p73
(lp74
V<a href="https://maps.google.com/maps/contrib/111555288418111651717/photos">Marin Lodge</a>
p75
asVheight
p76
I2988
sa(dp77
Vphoto_reference
p78
VCmRdAAAAIpCF6Y1PR34Iu0ag5TxeeJFxCImy4mEKR1siETTbsK1jqin0MSua7SAj7Gzb6zji7s2uajIVgILqp6hi7GcT0OZr9Bb2leosfZP81XIlKt44w7slcV_zD11rwxqJuRCGEhCULeziTmi3W_btR8z7pG5IGhQS-qzcrpb7bU91pbOA8Y1Fhuaz8g
p79
sVwidth
p80
I5312
sVhtml_attributions
p81
(lp82
V<a href="https://maps.google.com/maps/contrib/111555288418111651717/photos">Marin Lodge</a>
p83
asVheight
p84
I2988
sa(dp85
Vphoto_reference
p86
VCmRdAAAA_cXUyxWNdYs936O8mH8E-dutrStRPoNrgqX3_FCC4ADACuij3vYDdaPOsS3e5v52BAEV4cBg2ZD5V2hglS2AZbTZmSjc8JczRR41_1zJU11xmP1fbWHWnOdYHIlcPAnjEhCJBXx9bwS7aSacVhopIvHiGhR7bYVmvD2rX7peyzH1jxl434rzNg
p87
sVwidth
p88
I5312
sVhtml_attributions
p89
(lp90
V<a href="https://maps.google.com/maps/contrib/111555288418111651717/photos">Marin Lodge</a>
p91
asVheight
p92
I2988
sa(dp93
Vphoto_reference
p94
VCmRdAAAA2d2crcjM4jFzj7VP7bhH4nA46uliWbWprJa_fi-yga-GXWBbKZiGZxirU9bsrdqU4gF07aGZvdNdli-NRxLX1sWydF-ir23xeSJEOCvn2pyJvOAwQaoYU675Yf2ES-yvEhC6-sXJM1JhLF7hGXw4soRRGhSVISJGIz7a8cQxpGfHXkXxfg9XvQ
p95
sVwidth
p96
I5312
sVhtml_attributions
p97
(lp98
V<a href="https://maps.google.com/maps/contrib/111555288418111651717/photos">Marin Lodge</a>
p99
asVheight
p100
I2988
sa(dp101
Vphoto_reference
p102
VCmRdAAAA1fJ6aNA06pyM8WzXv-NR0c60eVPsPX87TmjK7WKvN_CZER2LIltcfscgAW_gavqycE_DnYe_btqQbk9eZVRZhT-wFY1JFVv0Lv_ZJBeZ0bZ1oP8Uk8j18CrJh25LDwkjEhDOPZ9DGATYpX6LckHwMIGHGhSmFjnlNrKjzJFwNMRduUZmZsyUnA
p103
sVwidth
p104
I5312
sVhtml_attributions
p105
(lp106
V<a href="https://maps.google.com/maps/contrib/111555288418111651717/photos">Marin Lodge</a>
p107
asVheight
p108
I2988
sa(dp109
Vphoto_reference
p110
VCmRdAAAAfM4ZN01gqgHjOYu5jjhz8sdk9vkWDLsJEmXigQOsK-eyDGGOOWLh47i7rzXwGwwkzT30A-8ySwlT2nTOEEvrYFbSEPa1jMvjw_fXm24kJizuEQj62t2bk3xopT9zRp3bEhC1aSpEdMHSN__gg4l0ptVoGhQ0VH8NODpNxJEpe2pTtUguGfQB6A
p111
sVwidth
p112
I2048
sVhtml_attributions
p113
(lp114
V<a href="https://maps.google.com/maps/contrib/111555288418111651717/photos">Marin Lodge</a>
p115
asVheight
p116
I1152
sa(dp117
Vphoto_reference
p118
VCmRdAAAAb17e48jX-56ntT59ytg0BhatoX8ZFjakWICUDJrdngG4FqZjoNerzmG2qSuvysZ0EHC9rqWJAxi1brH-mIZuT2Ivi52cWeFVjfVyPH7_Cem7xSdFW-0ON8Wi-rvvyhN_EhC__0WwHPpQQX7oQduozgHuGhQPt8wlgzZ-bRUjf-DIUFbbwpSp3g
p119
sVwidth
p120
I5312
sVhtml_attributions
p121
(lp122
V<a href="https://maps.google.com/maps/contrib/111555288418111651717/photos">Marin Lodge</a>
p123
asVheight
p124
I2988
sasVtypes
p125
(lp126
Vlodging
p127
aVpoint_of_interest
p128
aVestablishment
p129
asVicon
p130
Vhttps://maps.gstatic.com/mapfiles/place_api/icons/lodging-71.png
p131
sVname
p132
VMarin Lodge
p133
sVgeometry
p134
(dp135
Vaccess_points
p136
(lp137
(dp138
Vtravel_modes
p139
(lp140
VDRIVING
p141
aVBICYCLING
p142
aVWALKING
p143
aVTRANSIT
p144
asVlocation
p145
(dp146
Vlat
p147
g3
(S'37.9851654'
tRp148
sVlng
p149
g3
(S'-122.5255068'
tRp150
ssasVlocation
p151
(dp152
Vlat
p153
g3
(S'37.98531759999999'
tRp154
sVlng
p155
g3
(S'-122.5259834'
tRp156
sssVadr_address
p157
V<span class="street-address">1735 Lincoln Ave</span>, <span class="locality">San Rafael</span>, <span class="region">CA</span> <span class="postal-code">94901-1218</span>, <span class="country-name">United States</span>
p158
sVinternational_phone_number
p159
V+1 415-578-2827
p160
sVreviews
p161
(lp162
(dp163
Vrating
p164
I5
sVaspects
p165
(lp166
(dp167
Vrating
p168
I3
sVtype
p169
Voverall
p170
sasVprofile_photo_url
p171
V//lh3.googleusercontent.com/-_GUsHJK6D8M/AAAAAAAAAAI/AAAAAAAAS_o/diTsEo3o9Rg/photo.jpg
p172
sVlanguage
p173
Ven
p174
sVtext
p175
VVery clean little place. I got there after 10 hours of solo driving, and was welcomed by a very friendly staff. Amenities are obviously clean, breakfast is simple but good quality. You can't really hear the road nearby.
p176
sVauthor_name
p177
VVictorien Genna
p178
sVauthor_url
p179
Vhttps://plus.google.com/103639878984230594367
p180
sVtime
p181
I1447779866
sa(dp182
Vrating
p183
I4
sVaspects
p184
(lp185
(dp186
Vrating
p187
I2
sVtype
p188
Voverall
p189
sasVprofile_photo_url
p190
V//lh3.googleusercontent.com/-0IiAdsERL6U/AAAAAAAAAAI/AAAAAAAAAhg/GuMqyS_0dvQ/photo.jpg
p191
sVlanguage
p192
Ven
p193
sVtext
p194
VNice place, comfy rooms. I'd give it 5 stars but the office with coffee, pastries , soda, etc. Doesn't open until 8am, and I'm an early riser...
p195
sVauthor_name
p196
VSkip Batz
p197
sVauthor_url
p198
Vhttps://plus.google.com/104854659288483025831
p199
sVtime
p200
I1441551147
sa(dp201
Vrating
p202
I5
sVaspects
p203
(lp204
(dp205
Vrating
p206
I3
sVtype
p207
Voverall
p208
sasVlanguage
p209
Ven
p210
sVtext
p211
VSuper clean! Super friendly staff, very accommodating! 
p212
sVauthor_name
p213
VNoah Walters
p214
sVauthor_url
p215
Vhttps://plus.google.com/104897031632882762589
p216
sVtime
p217
I1452406375
sa(dp218
Vrating
p219
I5
sVaspects
p220
(lp221
(dp222
Vrating
p223
I3
sVtype
p224
Voverall
p225
sasVprofile_photo_url
p226
V//lh3.googleusercontent.com/--h5JKFq_sOk/AAAAAAAAAAI/AAAAAAAAAUI/N5xNg3EQuiU/photo.jpg
p227
sVlanguage
p228
Ven
p229
sVtext
p230
VStayed one night on our 2,300 mile motorcycle trip to Yosemite. The room was beautiful! and clean!  Will stay here again if ever in the area.
p231
sVauthor_name
p232
VSandie L
p233
sVauthor_url
p234
Vhttps://plus.google.com/108251015862299642783
p235
sVtime
p236
I1437855910
sa(dp237
Vrating
p238
I5
sVaspects
p239
(lp240
(dp241
Vrating
p242
I3
sVtype
p243
Voverall
p244
sasVlanguage
p245
Ven
p246
sVtext
p247
VNice people at the front desk. Rooms are nice and clean. And in a quiet area but still close to everything . 
p248
sVauthor_name
p249
VWill Forrest
p250
sVauthor_url
p251
Vhttps://plus.google.com/108509037567226580081
p252
sVtime
p253
I1432870145
sasVformatted_phone_number
p254
V(415) 578-2827
p255
sVaddress_components
p256
(lp257
(dp258
Vlong_name
p259
V1735
p260
sVtypes
p261
(lp262
Vstreet_number
p263
asVshort_name
p264
V1735
p265
sa(dp266
Vlong_name
p267
VLincoln Avenue
p268
sVtypes
p269
(lp270
Vroute
p271
asVshort_name
p272
VLincoln Ave
p273
sa(dp274
Vlong_name
p275
VSan Rafael
p276
sVtypes
p277
(lp278
Vlocality
p279
aVpolitical
p280
asVshort_name
p281
VSan Rafael
p282
sa(dp283
Vlong_name
p284
VCalifornia
p285
sVtypes
p286
(lp287
Vadministrative_area_level_1
p288
aVpolitical
p289
asVshort_name
p290
VCA
p291
sa(dp292
Vlong_name
p293
VUnited States
p294
sVtypes
p295
(lp296
Vcountry
p297
aVpolitical
p298
asVshort_name
p299
VUS
p300
sa(dp301
Vlong_name
p302
V94901
p303
sVtypes
p304
(lp305
Vpostal_code
p306
asVshort_name
p307
V94901
p308
sa(dp309
Vlong_name
p310
V1218
p311
sVtypes
p312
(lp313
Vpostal_code_suffix
p314
asVshort_name
p315
V1218
p316
sas.