(dp1
Vrating
p2
cdecimal
Decimal
p3
(S'4.2'
tRp4
sVreference
p5
VCmRcAAAAhEHK7tRw4UA5A5dl4fangrXPfm0HSjNsalVOHt8n6BXeaTZefrkJVMG1yn0iA2ly9Yhcwzq7h56FxjrdIOHzr9u13fPKilVlwnmZDdd53sSN6tmdk8eyyJOhM34kOv5oEhBNKZLJ84ov06JdjXq5oOA2GhSQwso6JXoEfLeFs6_W98Z-LSGCgQ
p6
sVplace_id
p7
VChIJf_3ZwZ-AhYARCTZKQkYvMDw
p8
sVurl
p9
Vhttps://maps.google.com/?cid=4337018419964163593
p10
sVformatted_address
p11
V4 Valencia St, San Francisco, CA 94103, United States
p12
sVid
p13
Vf72dc8ee0d23767381276970005e1102a8f01d9e
p14
sVopening_hours
p15
(dp16
Vweekday_text
p17
(lp18
VMonday: 4:00 PM \u2013 2:00 AM
p19
aVTuesday: 4:00 PM \u2013 2:00 AM
p20
aVWednesday: 4:00 PM \u2013 2:00 AM
p21
aVThursday: 4:00 PM \u2013 2:00 AM
p22
aVFriday: 4:00 PM \u2013 2:00 AM
p23
aVSaturday: 4:00 PM \u2013 2:00 AM
p24
aVSunday: 4:00 PM \u2013 2:00 AM
p25
asVopen_now
p26
I00
sVperiods
p27
(lp28
(dp29
Vclose
p30
(dp31
Vday
p32
I1
sVtime
p33
V0200
p34
ssVopen
p35
(dp36
Vday
p37
I0
sVtime
p38
V1600
p39
ssa(dp40
Vclose
p41
(dp42
Vday
p43
I2
sVtime
p44
V0200
p45
ssVopen
p46
(dp47
Vday
p48
I1
sVtime
p49
V1600
p50
ssa(dp51
Vclose
p52
(dp53
Vday
p54
I3
sVtime
p55
V0200
p56
ssVopen
p57
(dp58
Vday
p59
I2
sVtime
p60
V1600
p61
ssa(dp62
Vclose
p63
(dp64
Vday
p65
I4
sVtime
p66
V0200
p67
ssVopen
p68
(dp69
Vday
p70
I3
sVtime
p71
V1600
p72
ssa(dp73
Vclose
p74
(dp75
Vday
p76
I5
sVtime
p77
V0200
p78
ssVopen
p79
(dp80
Vday
p81
I4
sVtime
p82
V1600
p83
ssa(dp84
Vclose
p85
(dp86
Vday
p87
I6
sVtime
p88
V0200
p89
ssVopen
p90
(dp91
Vday
p92
I5
sVtime
p93
V1600
p94
ssa(dp95
Vclose
p96
(dp97
Vday
p98
I0
sVtime
p99
V0200
p100
ssVopen
p101
(dp102
Vday
p103
I6
sVtime
p104
V1600
p105
ssassVvicinity
p106
V4 Valencia Street, San Francisco
p107
sVscope
p108
VGOOGLE
p109
sVwebsite
p110
Vhttp://martunis.ypguides.net/
p111
sVutc_offset
p112
I-420
sVuser_ratings_total
p113
I66
sVphotos
p114
(lp115
(dp116
Vphoto_reference
p117
VCmRdAAAAj8h1i0zJKxh7soiHSw6FfcQlnpbax6YIfKgmEzlbBx586FddQC7sWlt5FLvJoRQgJZT4_Q6VlrWw8M0WlVTUEwM2SndPWPZqj00BvwdUwv20zOt7Uiq_ZCXZYnyVyOlhEhCL-h2VI9_r5AfnRv6xElRHGhROCYMfj7rGHX7oQGUrI-KOk5dudQ
p118
sVwidth
p119
I1080
sVhtml_attributions
p120
(lp121
V<a href="https://maps.google.com/maps/contrib/109746711395311324601/photos">Owen Prater</a>
p122
asVheight
p123
I608
sasVtypes
p124
(lp125
Vbar
p126
aVrestaurant
p127
aVfood
p128
aVpoint_of_interest
p129
aVestablishment
p130
asVicon
p131
Vhttps://maps.gstatic.com/mapfiles/place_api/icons/bar-71.png
p132
sVname
p133
VMartuni's
p134
sVgeometry
p135
(dp136
Vaccess_points
p137
(lp138
(dp139
Vtravel_modes
p140
(lp141
VDRIVING
p142
aVBICYCLING
p143
aVWALKING
p144
aVTRANSIT
p145
asVlocation
p146
(dp147
Vlat
p148
g3
(S'37.7721165'
tRp149
sVlng
p150
g3
(S'-122.422609'
tRp151
ssasVlocation
p152
(dp153
Vlat
p154
g3
(S'37.7721084'
tRp155
sVlng
p156
g3
(S'-122.4228045'
tRp157
sssVadr_address
p158
V<span class="street-address">4 Valencia St</span>, <span class="locality">San Francisco</span>, <span class="region">CA</span> <span class="postal-code">94103-1102</span>, <span class="country-name">United States</span>
p159
sVinternational_phone_number
p160
V+1 415-241-0205
p161
sVreviews
p162
(lp163
(dp164
Vrating
p165
I4
sVaspects
p166
(lp167
(dp168
Vrating
p169
I2
sVtype
p170
Voverall
p171
sasVprofile_photo_url
p172
V//lh6.googleusercontent.com/-sejr0Ef-d9o/AAAAAAAAAAI/AAAAAAAAAYI/DNu9eFzHXh8/photo.jpg
p173
sVlanguage
p174
Ven
p175
sVtext
p176
VVery nice piano bar.  Very difficult to find a table.  Nice ambiance.  Forgot to tip the waiter (new into the country) then spent the next half hour trying to get his attention to give him one but he ignored us. Walked up to him and gave him his tip then got drinks directly from the bar after that.  All of a sudden he kept reappearing near our table again.  Drinks are really good.  Try the Hawaiian blue chi chi. You won't be disappointed.
p177
sVauthor_name
p178
VEv Hill
p179
sVauthor_url
p180
Vhttps://plus.google.com/103107103590163418656
p181
sVtime
p182
I1442084387
sa(dp183
Vrating
p184
I5
sVaspects
p185
(lp186
(dp187
Vrating
p188
I3
sVtype
p189
Voverall
p190
sasVprofile_photo_url
p191
V//lh6.googleusercontent.com/-YoBQqLAgpaM/AAAAAAAAAAI/AAAAAAAAEcs/mIsPk2hsCzA/photo.jpg
p192
sVlanguage
p193
Ven
p194
sVtext
p195
VGreat cocktails great showtunes singing piano karaoke spot. Love the atmosphere, service, and clientele. 
p196
sVauthor_name
p197
VCasandra Higuera
p198
sVauthor_url
p199
Vhttps://plus.google.com/107934326820018171886
p200
sVtime
p201
I1460344348
sa(dp202
Vrating
p203
I5
sVaspects
p204
(lp205
(dp206
Vrating
p207
I3
sVtype
p208
Voverall
p209
sasVprofile_photo_url
p210
V//lh3.googleusercontent.com/-XOIn2d4nFYA/AAAAAAAAAAI/AAAAAAAABdo/tszsW-3vaaQ/photo.jpg
p211
sVlanguage
p212
Ven
p213
sVtext
p214
VRaucously fun if touristy piano bar and performance space; drinks are not cheap but it's worth it to watch the above-averagely talented amateur singers and the hilarious weekend piano performer.
p215
sVauthor_name
p216
VMatt Warren
p217
sVauthor_url
p218
Vhttps://plus.google.com/102914900549553779546
p219
sVtime
p220
I1459639579
sa(dp221
Vrating
p222
I5
sVaspects
p223
(lp224
(dp225
Vrating
p226
I3
sVtype
p227
Voverall
p228
sasVprofile_photo_url
p229
V//lh3.googleusercontent.com/-v4p50DEyZKw/AAAAAAAAAAI/AAAAAAAAHlU/ftNJ2lyd6ko/photo.jpg
p230
sVlanguage
p231
Ven
p232
sVtext
p233
VStiff martinis and people singing along a professional pianist. Monday night is off Broadway, join along for a show! 
p234
sVauthor_name
p235
VTomer Emmar
p236
sVauthor_url
p237
Vhttps://plus.google.com/103390001823558185687
p238
sVtime
p239
I1459579006
sa(dp240
Vrating
p241
I4
sVaspects
p242
(lp243
(dp244
Vrating
p245
I2
sVtype
p246
Voverall
p247
sasVprofile_photo_url
p248
V//lh6.googleusercontent.com/-u9LHj_Qu-FY/AAAAAAAAAAI/AAAAAAAAGiY/LT3IGVlSg9A/photo.jpg
p249
sVlanguage
p250
Ven
p251
sVtext
p252
VWonderful host cabaret bar of Vanessa Bousay, baritone Chanteuse, 2nd Sunday of every month at 7:00pm. Comfortable room, great sound, cocktails, service, and friends.
p253
sVauthor_name
p254
VTerry Gauchat
p255
sVauthor_url
p256
Vhttps://plus.google.com/110227522796744796055
p257
sVtime
p258
I1432968168
sasVformatted_phone_number
p259
V(415) 241-0205
p260
sVaddress_components
p261
(lp262
(dp263
Vlong_name
p264
V4
sVtypes
p265
(lp266
Vstreet_number
p267
asVshort_name
p268
V4
sa(dp269
Vlong_name
p270
VValencia Street
p271
sVtypes
p272
(lp273
Vroute
p274
asVshort_name
p275
VValencia St
p276
sa(dp277
Vlong_name
p278
VSan Francisco
p279
sVtypes
p280
(lp281
Vlocality
p282
aVpolitical
p283
asVshort_name
p284
VSF
p285
sa(dp286
Vlong_name
p287
VCalifornia
p288
sVtypes
p289
(lp290
Vadministrative_area_level_1
p291
aVpolitical
p292
asVshort_name
p293
VCA
p294
sa(dp295
Vlong_name
p296
VUnited States
p297
sVtypes
p298
(lp299
Vcountry
p300
aVpolitical
p301
asVshort_name
p302
VUS
p303
sa(dp304
Vlong_name
p305
V94103
p306
sVtypes
p307
(lp308
Vpostal_code
p309
asVshort_name
p310
V94103
p311
sa(dp312
Vlong_name
p313
V1102
p314
sVtypes
p315
(lp316
Vpostal_code_suffix
p317
asVshort_name
p318
V1102
p319
sas.