(dp1
Vwebsite
p2
Vhttp://www.menlopark.org/
p3
sVutc_offset
p4
I-420
sVuser_ratings_total
p5
I1
sVname
p6
VMenlo Park Maintenance
p7
sVreference
p8
VCnRpAAAAuWw3soqWZTwQmeN5WiG27pcLs7DWL6aqpPTm-G5Qs0e5sK0zeIkOOkCydJL72ZzGf3qMvoZNugtUxESnwF3woNwh52qO7UCfd8jFtzMgeNZZAr1CjDM_0H7Y5DvuPt9YY8hPjHfKMTEnw_CQq2F1EhIQyvWZQgL2ITOvejA5y-bDkxoU7RPYRZsrIZtsCPbnKc1vzKBJUaY
p9
sVgeometry
p10
(dp11
Vaccess_points
p12
(lp13
(dp14
Vtravel_modes
p15
(lp16
VDRIVING
p17
aVBICYCLING
p18
aVWALKING
p19
aVTRANSIT
p20
asVlocation
p21
(dp22
Vlat
p23
cdecimal
Decimal
p24
(S'37.4544559'
tRp25
sVlng
p26
g24
(S'-122.1739732'
tRp27
ssasVlocation
p28
(dp29
Vlat
p30
g24
(S'37.4541985'
tRp31
sVlng
p32
g24
(S'-122.1734551'
tRp33
sssVadr_address
p34
V<span class="street-address">333 Burgess Dr</span>, <span class="locality">Menlo Park</span>, <span class="region">CA</span> <span class="postal-code">94025-3409</span>, <span class="country-name">United States</span>
p35
sVplace_id
p36
VChIJLUokOk27j4AReFpr11KdA0w
p37
sVinternational_phone_number
p38
V+1 650-330-6780
p39
sVvicinity
p40
V333 Burgess Drive, Menlo Park
p41
sVreviews
p42
(lp43
(dp44
Vrating
p45
I5
sVaspects
p46
(lp47
(dp48
Vrating
p49
I3
sVtype
p50
Voverall
p51
sasVprofile_photo_url
p52
V//lh3.googleusercontent.com/-4_lC3a2zLFU/AAAAAAAAAAI/AAAAAAAAAjQ/cYrVzTBbry0/photo.jpg
p53
sVlanguage
p54
Ven
p55
sVtext
p56
V
sVauthor_name
p57
VJesse Quirion
p58
sVauthor_url
p59
Vhttps://plus.google.com/114355861403383627383
p60
sVtime
p61
I1442367152
sasVformatted_phone_number
p62
V(650) 330-6780
p63
sVurl
p64
Vhttps://maps.google.com/?cid=5477394550939671160
p65
sVscope
p66
VGOOGLE
p67
sVaddress_components
p68
(lp69
(dp70
Vlong_name
p71
V333
p72
sVtypes
p73
(lp74
Vstreet_number
p75
asVshort_name
p76
V333
p77
sa(dp78
Vlong_name
p79
VBurgess Drive
p80
sVtypes
p81
(lp82
Vroute
p83
asVshort_name
p84
VBurgess Dr
p85
sa(dp86
Vlong_name
p87
VMenlo Park
p88
sVtypes
p89
(lp90
Vlocality
p91
aVpolitical
p92
asVshort_name
p93
VMenlo Park
p94
sa(dp95
Vlong_name
p96
VCalifornia
p97
sVtypes
p98
(lp99
Vadministrative_area_level_1
p100
aVpolitical
p101
asVshort_name
p102
VCA
p103
sa(dp104
Vlong_name
p105
VUnited States
p106
sVtypes
p107
(lp108
Vcountry
p109
aVpolitical
p110
asVshort_name
p111
VUS
p112
sa(dp113
Vlong_name
p114
V94025
p115
sVtypes
p116
(lp117
Vpostal_code
p118
asVshort_name
p119
V94025
p120
sa(dp121
Vlong_name
p122
V3409
p123
sVtypes
p124
(lp125
Vpostal_code_suffix
p126
asVshort_name
p127
V3409
p128
sasVformatted_address
p129
V333 Burgess Dr, Menlo Park, CA 94025, United States
p130
sVid
p131
V80afac92e729ba2c90c9204707e3ed48c8ede46e
p132
sVtypes
p133
(lp134
Vpark
p135
aVpoint_of_interest
p136
aVestablishment
p137
asVicon
p138
Vhttps://maps.gstatic.com/mapfiles/place_api/icons/generic_recreational-71.png
p139
s.