(dp1
Vrating
p2
cdecimal
Decimal
p3
(S'4.3'
tRp4
sVreference
p5
VCmRfAAAAWHk9hfv9_MSEk3vIKVwA6Dx2D0yZxcnu_821B3Fu717a3IDsrBt_hzF7_DWtHZIqxxVLc-mgqX2_APt85b-4iocq4286jf8Ovd0V9tJGUM0zGJ9AnoC7URA70AHAy5BBEhCDyjI1sV6Tx6MMtF8N5Gw5GhQwmRepstnyqMLu8U1xEa65nkXhdw
p6
sVprice_level
p7
I2
sVplace_id
p8
VChIJZ_Ak36GAhYARaz2iDa2Cygs
p9
sVurl
p10
Vhttps://maps.google.com/?cid=849635159482449259
p11
sVformatted_address
p12
V201 Octavia St, San Francisco, CA 94102, United States
p13
sVid
p14
V93cae3c7da37a26347facfe8ed815e41249ababa
p15
sVopening_hours
p16
(dp17
Vweekday_text
p18
(lp19
VMonday: 7:00 AM \u2013 5:00 PM
p20
aVTuesday: 7:00 AM \u2013 5:00 PM
p21
aVWednesday: 7:00 AM \u2013 5:00 PM
p22
aVThursday: 7:00 AM \u2013 5:00 PM
p23
aVFriday: 7:00 AM \u2013 5:00 PM
p24
aVSaturday: 8:00 AM \u2013 5:00 PM
p25
aVSunday: 8:00 AM \u2013 5:00 PM
p26
asVopen_now
p27
I01
sVperiods
p28
(lp29
(dp30
Vclose
p31
(dp32
Vday
p33
I0
sVtime
p34
V1700
p35
ssVopen
p36
(dp37
Vday
p38
I0
sVtime
p39
V0800
p40
ssa(dp41
Vclose
p42
(dp43
Vday
p44
I1
sVtime
p45
V1700
p46
ssVopen
p47
(dp48
Vday
p49
I1
sVtime
p50
V0700
p51
ssa(dp52
Vclose
p53
(dp54
Vday
p55
I2
sVtime
p56
V1700
p57
ssVopen
p58
(dp59
Vday
p60
I2
sVtime
p61
V0700
p62
ssa(dp63
Vclose
p64
(dp65
Vday
p66
I3
sVtime
p67
V1700
p68
ssVopen
p69
(dp70
Vday
p71
I3
sVtime
p72
V0700
p73
ssa(dp74
Vclose
p75
(dp76
Vday
p77
I4
sVtime
p78
V1700
p79
ssVopen
p80
(dp81
Vday
p82
I4
sVtime
p83
V0700
p84
ssa(dp85
Vclose
p86
(dp87
Vday
p88
I5
sVtime
p89
V1700
p90
ssVopen
p91
(dp92
Vday
p93
I5
sVtime
p94
V0700
p95
ssa(dp96
Vclose
p97
(dp98
Vday
p99
I6
sVtime
p100
V1700
p101
ssVopen
p102
(dp103
Vday
p104
I6
sVtime
p105
V0800
p106
ssassVvicinity
p107
V201 Octavia Street, San Francisco
p108
sVscope
p109
VGOOGLE
p110
sVwebsite
p111
Vhttp://www.mercurycafe.net/
p112
sVutc_offset
p113
I-420
sVuser_ratings_total
p114
I50
sVphotos
p115
(lp116
(dp117
Vphoto_reference
p118
VCmRdAAAA79r0ceiu6kXI7mWaDXfzO6BUh-IzZDZ8fee44yATuqyYDuADstrAcle1aT5b1_wjmHoxXgB0e_E29Ih5S0mcsx2q9emjoYcOH6ON7jYfciWSghOk2SIhjYMKGwGsOJm7EhA_87uRsket1_Ei4206_oHHGhRSuU4zkcvVf452ndk-2qx_d6nSOg
p119
sVwidth
p120
I1536
sVhtml_attributions
p121
(lp122
V<a href="https://maps.google.com/maps/contrib/117211711134427721008/photos">Mary Smith</a>
p123
asVheight
p124
I2048
sa(dp125
Vphoto_reference
p126
VCmRdAAAAE9RaHN9QsniMGGyVeQcZNp8UtCnRQ-onrcZMDSsLx9_ANqoRh1J9FM5BAZPGxq-k95exUQaY9MGIiop97cTXQcnt5uDCnJ8ELeJz7YkOGfzgPVhWlKkvzaxmZhr22bd3EhBTFADAGpeQchBrYsEjxLQIGhQVIPROas9zpeP5v5IrmXCNgL12hA
p127
sVwidth
p128
I4032
sVhtml_attributions
p129
(lp130
V<a href="https://maps.google.com/maps/contrib/113147390012091969051/photos">Nicole Bradshaw</a>
p131
asVheight
p132
I3024
sa(dp133
Vphoto_reference
p134
VCmRdAAAAEtRWMVCQN2JF7r9Jyo2eooRf1HoR-ZLLJWFkZZd9cojmuqks9KsbKeVFWpK_R1vGKNB_cxP5uPoV1nvpXpquM-hYJHuUo4GfGAuCE7GiHGUfh_iAtYqYP7rvJSVIfbotEhBZXqWCDxp9T4MjyC9bB9-ZGhTE0GHPRIKbeT9xvkS-bLYGSYTXEg
p135
sVwidth
p136
I1536
sVhtml_attributions
p137
(lp138
V<a href="https://maps.google.com/maps/contrib/117211711134427721008/photos">Mary Smith</a>
p139
asVheight
p140
I2048
sasVtypes
p141
(lp142
Vcafe
p143
aVrestaurant
p144
aVfood
p145
aVpoint_of_interest
p146
aVestablishment
p147
asVicon
p148
Vhttps://maps.gstatic.com/mapfiles/place_api/icons/cafe-71.png
p149
sVname
p150
VMercury Cafe
p151
sVgeometry
p152
(dp153
Vaccess_points
p154
(lp155
(dp156
Vtravel_modes
p157
(lp158
VDRIVING
p159
aVBICYCLING
p160
aVWALKING
p161
aVTRANSIT
p162
asVlocation
p163
(dp164
Vlat
p165
g3
(S'37.7740148'
tRp166
sVlng
p167
g3
(S'-122.4241478'
tRp168
ssasVlocation
p169
(dp170
Vlat
p171
g3
(S'37.7740028'
tRp172
sVlng
p173
g3
(S'-122.4243743'
tRp174
sssVadr_address
p175
V<span class="street-address">201 Octavia St</span>, <span class="locality">San Francisco</span>, <span class="region">CA</span> <span class="postal-code">94102-5813</span>, <span class="country-name">United States</span>
p176
sVinternational_phone_number
p177
V+1 415-252-7855
p178
sVreviews
p179
(lp180
(dp181
Vrating
p182
I4
sVaspects
p183
(lp184
(dp185
Vrating
p186
I2
sVtype
p187
Voverall
p188
sasVprofile_photo_url
p189
V//lh3.googleusercontent.com/-Bgy0aBKYJHs/AAAAAAAAAAI/AAAAAAAAJ-M/eu9sbyaIgn0/photo.jpg
p190
sVlanguage
p191
Ven
p192
sVtext
p193
VUnpretentious, unassuming neighborhood cafe. Great for book-reading, light-laptopping, and friend-meeting. In fact, it's my default rendezvous meeting point for Hayes valley, because it's just a great place to hang out while you wait for your group to assemble. 
p194
sVauthor_name
p195
VJohn Gelb
p196
sVauthor_url
p197
Vhttps://plus.google.com/111717262311636103965
p198
sVtime
p199
I1448950749
sa(dp200
Vrating
p201
I5
sVaspects
p202
(lp203
(dp204
Vrating
p205
I3
sVtype
p206
Voverall
p207
sasVprofile_photo_url
p208
V//lh3.googleusercontent.com/-bftjFIG3LOo/AAAAAAAAAAI/AAAAAAABcT8/oe0IDruTGsQ/photo.jpg
p209
sVlanguage
p210
Ven
p211
sVtext
p212
VGreat pour-overs and quality sandwiches. Free Wifi compensates for the over-prices food. Lots of people working on weekday afternoons. 
p213
sVauthor_name
p214
VTommy Zed
p215
sVauthor_url
p216
Vhttps://plus.google.com/115590902520153484514
p217
sVtime
p218
I1451341381
sa(dp219
Vrating
p220
I5
sVaspects
p221
(lp222
(dp223
Vrating
p224
I3
sVtype
p225
Voverall
p226
sasVprofile_photo_url
p227
V//lh5.googleusercontent.com/-FtZrraIhyUc/AAAAAAAAAAI/AAAAAAAAJtQ/VvUzl5GHGhU/photo.jpg
p228
sVlanguage
p229
Ven
p230
sVtext
p231
Vfantastic four barrel pour over and a great breakfast sandwich
p232
sVauthor_name
p233
VBryan Davis
p234
sVauthor_url
p235
Vhttps://plus.google.com/117252724077423538349
p236
sVtime
p237
I1459179372
sa(dp238
Vrating
p239
I4
sVaspects
p240
(lp241
(dp242
Vrating
p243
I2
sVtype
p244
Voverall
p245
sasVprofile_photo_url
p246
V//lh5.googleusercontent.com/-6FEGQr5YNh0/AAAAAAAAAAI/AAAAAAAAIYw/rOm6PyV4SDE/photo.jpg
p247
sVlanguage
p248
Ven
p249
sVtext
p250
VGreat place to casually meet friends or go to work and read 
p251
sVauthor_name
p252
VAdriana Olmos
p253
sVauthor_url
p254
Vhttps://plus.google.com/117757482227220001220
p255
sVtime
p256
I1458398185
sa(dp257
Vrating
p258
I5
sVaspects
p259
(lp260
(dp261
Vrating
p262
I3
sVtype
p263
Voverall
p264
sasVprofile_photo_url
p265
V//lh5.googleusercontent.com/-1q89538WS8U/AAAAAAAAAAI/AAAAAAADvaA/J_YMaKL_z1k/photo.jpg
p266
sVlanguage
p267
Ven
p268
sVtext
p269
VI always get the caprese sandwich or egg McMercury and a coffee. 
p270
sVauthor_name
p271
VChris Cartland
p272
sVauthor_url
p273
Vhttps://plus.google.com/111661289724043424828
p274
sVtime
p275
I1437332470
sasVformatted_phone_number
p276
V(415) 252-7855
p277
sVaddress_components
p278
(lp279
(dp280
Vlong_name
p281
V201
p282
sVtypes
p283
(lp284
Vstreet_number
p285
asVshort_name
p286
V201
p287
sa(dp288
Vlong_name
p289
VOctavia Street
p290
sVtypes
p291
(lp292
Vroute
p293
asVshort_name
p294
VOctavia St
p295
sa(dp296
Vlong_name
p297
VSan Francisco
p298
sVtypes
p299
(lp300
Vlocality
p301
aVpolitical
p302
asVshort_name
p303
VSF
p304
sa(dp305
Vlong_name
p306
VCalifornia
p307
sVtypes
p308
(lp309
Vadministrative_area_level_1
p310
aVpolitical
p311
asVshort_name
p312
VCA
p313
sa(dp314
Vlong_name
p315
VUnited States
p316
sVtypes
p317
(lp318
Vcountry
p319
aVpolitical
p320
asVshort_name
p321
VUS
p322
sa(dp323
Vlong_name
p324
V94102
p325
sVtypes
p326
(lp327
Vpostal_code
p328
asVshort_name
p329
V94102
p330
sa(dp331
Vlong_name
p332
V5813
p333
sVtypes
p334
(lp335
Vpostal_code_suffix
p336
asVshort_name
p337
V5813
p338
sas.