(dp1
Vrating
p2
cdecimal
Decimal
p3
(S'4.3'
tRp4
sVreference
p5
VCmRdAAAAo23wTOHTz54ji1d_5gizu-fDLcLGtzgpAhhcCCVAEUBNu6duA-wd4apdUpFYY9ZFhLET0nWnUk6BlySHLUeoLV2JBMeGVHJ2gZgcxwDw0x6GWF12ix--Cq90sUL-CZCXEhAzXmj5-QnMW7JEwLMmH2OxGhS7KHqNoxDhWYiMN2u19h2-sSViQw
p6
sVplace_id
p7
VChIJ6XYD2ZGAhYARhDX0sVfc6Cc
p8
sVurl
p9
Vhttps://maps.google.com/?cid=2875790631281898884
p10
sVformatted_address
p11
V5912 College Ave, Oakland, CA 94618, United States
p12
sVid
p13
V119c555fc2e215ca78d4ca4da7f7935199d37055
p14
sVopening_hours
p15
(dp16
Vweekday_text
p17
(lp18
VMonday: 5:30 \u2013 9:30 PM
p19
aVTuesday: 5:30 \u2013 9:30 PM
p20
aVWednesday: 5:30 \u2013 9:30 PM
p21
aVThursday: 5:30 \u2013 9:30 PM
p22
aVFriday: 5:30 \u2013 10:30 PM
p23
aVSaturday: 5:30 \u2013 10:30 PM
p24
aVSunday: 10:30 AM \u2013 2:00 PM, 5:30 \u2013 9:00 PM
p25
asVopen_now
p26
I00
sVperiods
p27
(lp28
(dp29
Vclose
p30
(dp31
Vday
p32
I0
sVtime
p33
V1400
p34
ssVopen
p35
(dp36
Vday
p37
I0
sVtime
p38
V1030
p39
ssa(dp40
Vclose
p41
(dp42
Vday
p43
I0
sVtime
p44
V2100
p45
ssVopen
p46
(dp47
Vday
p48
I0
sVtime
p49
V1730
p50
ssa(dp51
Vclose
p52
(dp53
Vday
p54
I1
sVtime
p55
V2130
p56
ssVopen
p57
(dp58
Vday
p59
I1
sVtime
p60
V1730
p61
ssa(dp62
Vclose
p63
(dp64
Vday
p65
I2
sVtime
p66
V2130
p67
ssVopen
p68
(dp69
Vday
p70
I2
sVtime
p71
V1730
p72
ssa(dp73
Vclose
p74
(dp75
Vday
p76
I3
sVtime
p77
V2130
p78
ssVopen
p79
(dp80
Vday
p81
I3
sVtime
p82
V1730
p83
ssa(dp84
Vclose
p85
(dp86
Vday
p87
I4
sVtime
p88
V2130
p89
ssVopen
p90
(dp91
Vday
p92
I4
sVtime
p93
V1730
p94
ssa(dp95
Vclose
p96
(dp97
Vday
p98
I5
sVtime
p99
V2230
p100
ssVopen
p101
(dp102
Vday
p103
I5
sVtime
p104
V1730
p105
ssa(dp106
Vclose
p107
(dp108
Vday
p109
I6
sVtime
p110
V2230
p111
ssVopen
p112
(dp113
Vday
p114
I6
sVtime
p115
V1730
p116
ssassVvicinity
p117
V5912 College Avenue, Oakland
p118
sVscope
p119
VGOOGLE
p120
sVwebsite
p121
Vhttp://www.millenniumrestaurant.com/
p122
sVutc_offset
p123
I-420
sVuser_ratings_total
p124
I322
sVphotos
p125
(lp126
(dp127
Vphoto_reference
p128
VCmRdAAAA4T5TC5U6br-zm4UDTLhpsd7gyPsheSVGbq5XQEtT4Y803in6QPOZFv0Oxh2BQ6qTjBic0V19aDlE9eXou_I1jAijABsEk8OutEpM9CtuMPaWES3aPwG49h8NbKFL-1hvEhBNRuKpBNKQ4KkIWb0iO8TQGhR2rffIcqz6CtriaidQBfyEdXEZlA
p129
sVwidth
p130
I1296
sVhtml_attributions
p131
(lp132
V<a href="https://maps.google.com/maps/contrib/115181284336253070220/photos">Walkerthree SFO</a>
p133
asVheight
p134
I972
sa(dp135
Vphoto_reference
p136
VCmRdAAAAtuVKftwebZhg9sTBSKCQdLgBbwehuu-j7P78UklO9UgczgyHQweJs9TgaI3tN_LrXWfnaiGWZMNnIxZbO2a6z5nKPqYwbCmMN_CHVYHQE0obNLccVJJRNod_K2EbL50DEhAmjojS-DArNMiIRYakvJvYGhTW4B_DMbRE0YvLZnxkIka9MYhKCw
p137
sVwidth
p138
I4128
sVhtml_attributions
p139
(lp140
V<a href="https://maps.google.com/maps/contrib/107721404123505875377/photos">albert lee</a>
p141
asVheight
p142
I3096
sa(dp143
Vphoto_reference
p144
VCmRdAAAAaO7EXN6idQM_VRxrkXOMudplEZnObE23BEO7_TxKrCa9qL0Ehsi5LucmrBjOBmEnjKbTBtn0K2zXR1sh4DXOMYJo-NnazayZ-N_8YF-YGtRM3hhil0Zf18-g3Q0iZoJ5EhAVkSGPg6aI0gddlTPSV18CGhQs8KVUBG3E6I1-qXzM066rJIhXJA
p145
sVwidth
p146
I800
sVhtml_attributions
p147
(lp148
V<a href="https://maps.google.com/maps/contrib/106262756122940463198/photos">Laurens Hartog</a>
p149
asVheight
p150
I533
sa(dp151
Vphoto_reference
p152
VCoQBcwAAAPVxImP92Guv-5_1F8a3uyL3SXZLLkkkC9gKf_WfX9KQlEnYWZBNLaqTXK1YwGxhVxlt_Nn0A41LQOhU6xYjeCpb22a7-VEChYdn7jFf927MkQnfbzAgMA2hCbr37AYBMsd3vV0eT1lsKxUPnxN3miLCuqq1OHP8KjjHI_zMwt04EhBOGs-xJ5Yabe9Kr9LLogV_GhRdOsLbDgM48PdmaT4O6i31zsAQUg
p153
sVwidth
p154
I1440
sVhtml_attributions
p155
(lp156
V<a href="https://maps.google.com/maps/contrib/110514685105396750025/photos">Kyle Hager</a>
p157
asVheight
p158
I2392
sa(dp159
Vphoto_reference
p160
VCmRdAAAAixVRq5_wrvCLF4p-A_trXcq3wk_ECH3pvgYyNEaTGZzu5aPQvEHMN3-XCi0YctAGM_QJcRMx8g3oNE2wdrzWdbOudlX6Ua4weEON3eXcUDm4YEvrZXN1wOs4RAVwQFHxEhCWUy-vbXlV_a0Dft4AJZ5DGhQNQrwxHn1jtLA4R9klRtcYNX3LSg
p161
sVwidth
p162
I4128
sVhtml_attributions
p163
(lp164
V<a href="https://maps.google.com/maps/contrib/107721404123505875377/photos">albert lee</a>
p165
asVheight
p166
I3096
sa(dp167
Vphoto_reference
p168
VCmRdAAAAulU2aV9ZeH_XfMvcwK_VPwZzm07Z4WxmmDlldlqVU9bQMkbWnZJGRRuI3v-jHDk0NJbcy3xX6mHIqkJQGbdQz9v4Ndwg0G84co-il84t9pXZHgdyUDpTCpzivaTz-YzjEhDQ1PARBx6DYW6ZsqTaFa_ZGhRa-F4QiIvae5ztMnD0VmytHPm-OQ
p169
sVwidth
p170
I640
sVhtml_attributions
p171
(lp172
V<a href="https://maps.google.com/maps/contrib/104111246635874032234/photos">ZAGAT</a>
p173
asVheight
p174
I590
sa(dp175
Vphoto_reference
p176
VCmRdAAAA2Efawx9Cl5gMfSlXNvsjJ9I6Sblf7Thd8AC4kqVYVfBx2R2vXY2jehRJTt-ygMXfGUM84tGqSlbjQ6KizRxogyK6Le9bbrwmVlJH0I4iRJt0FHlRuMoQTzHHUeqsy-7JEhAvK41EERABzwLSagc1JJQDGhRIgq9iuOuSXn214PlnDJ_o5trigA
p177
sVwidth
p178
I640
sVhtml_attributions
p179
(lp180
V<a href="https://maps.google.com/maps/contrib/104111246635874032234/photos">ZAGAT</a>
p181
asVheight
p182
I452
sa(dp183
Vphoto_reference
p184
VCmRdAAAA9How6ZsWdWnbTKLJMj9SWNN71dHSnvCYRVZRYKdzPmb-KMW0rlFWwGoJlohom8aA9ohXMPIjW4FnFuXm3OQOnggAQuDmQxrZrhTcMzuoy8f6B3TbjjSk-nXSRX91s1RnEhBosXBpxZnBf-GjF2_RNNkrGhRcll25cmg-FkcrMU05eMY1f72ZwQ
p185
sVwidth
p186
I1280
sVhtml_attributions
p187
(lp188
V<a href="https://maps.google.com/maps/contrib/104111246635874032234/photos">ZAGAT</a>
p189
asVheight
p190
I960
sa(dp191
Vphoto_reference
p192
VCoQBcwAAADutXSY3E5U4WVHy7sFNViB2kIJrZj8RSsgt8Sp4py2p8_tGbTGMkhPZaMaRAKHFuvwwYrwJdnSOSCaF_wCU9lajicAGVBcBFel60tNDZb24gqfxcM_zLSL9AjntJyBUqDNPN0hDvNbb5WuSxBa9tsIGFTFBkQkCxZRFq2iRXIu0EhCd1rAsbiLUgeJoUx2Mz48_GhRuAAheOJSX8vPmuy3EEMzeAXfZvw
p193
sVwidth
p194
I1440
sVhtml_attributions
p195
(lp196
V<a href="https://maps.google.com/maps/contrib/110514685105396750025/photos">Kyle Hager</a>
p197
asVheight
p198
I2392
sa(dp199
Vphoto_reference
p200
VCmRdAAAAWrD0fNcdGLJnT4qYweYb5LLM7jXj3YQ8WoK6_d-fIDSSQStDjUjYuag4xI79cbX7E5h_azlFqCHMMJj09S8ZksToVStMWpDK93o-Xv269P05HPco-jwr10wtWvE1Y65WEhC4jOxWzuF-EZdTmtMqi2hzGhRQZuowyHN1j8S5Y4vyAvzQav76lA
p201
sVwidth
p202
I4128
sVhtml_attributions
p203
(lp204
V<a href="https://maps.google.com/maps/contrib/107721404123505875377/photos">albert lee</a>
p205
asVheight
p206
I3096
sasVtypes
p207
(lp208
Vbar
p209
aVrestaurant
p210
aVfood
p211
aVpoint_of_interest
p212
aVestablishment
p213
asVicon
p214
Vhttps://maps.gstatic.com/mapfiles/place_api/icons/restaurant-71.png
p215
sVname
p216
VMillennium
p217
sVgeometry
p218
(dp219
Vaccess_points
p220
(lp221
(dp222
Vtravel_modes
p223
(lp224
VDRIVING
p225
aVBICYCLING
p226
aVWALKING
p227
aVTRANSIT
p228
asVlocation
p229
(dp230
Vlat
p231
g3
(S'37.8474706'
tRp232
sVlng
p233
g3
(S'-122.2520817'
tRp234
ssasVlocation
p235
(dp236
Vlat
p237
g3
(S'37.8474956'
tRp238
sVlng
p239
g3
(S'-122.2518681'
tRp240
sssVadr_address
p241
V<span class="street-address">5912 College Ave</span>, <span class="locality">Oakland</span>, <span class="region">CA</span> <span class="postal-code">94618</span>, <span class="country-name">United States</span>
p242
sVinternational_phone_number
p243
V+1 510-735-9459
p244
sVreviews
p245
(lp246
(dp247
Vrating
p248
I5
sVaspects
p249
(lp250
(dp251
Vrating
p252
I3
sVtype
p253
Voverall
p254
sasVprofile_photo_url
p255
V//lh5.googleusercontent.com/-iBX89cz1gAQ/AAAAAAAAAAI/AAAAAAADFho/1I5CpXFSd3Y/photo.jpg
p256
sVlanguage
p257
Ven
p258
sVtext
p259
VI surprised my boyfriend with a birthday dinner at Millennium, a renowned vegan restaurant. We had the pistachio crusted dates, shaved persimmon salad, raw risotto, chanterelle mushrooms over roulade, and roasted sweet pepper red coconut curry with cinnamon scented volcano rice cake. That last one was crazemazing. \u000a\u000aThe ambiance is romantic and elegant. It's definitely a nice night out and some of the best upscale vegan food I've had. \u000a\u000a
p260
sVauthor_name
p261
VVera DeVera
p262
sVauthor_url
p263
Vhttps://plus.google.com/111107191255143707404
p264
sVtime
p265
I1459130147
sa(dp266
Vrating
p267
I5
sVaspects
p268
(lp269
(dp270
Vrating
p271
I3
sVtype
p272
Voverall
p273
sasVprofile_photo_url
p274
V//lh5.googleusercontent.com/-NPBBYiTksP0/AAAAAAAAAAI/AAAAAAAAA3Q/e5fsf4kBJPo/photo.jpg
p275
sVlanguage
p276
Ven
p277
sVtext
p278
VI cannot even begin to explain how disappointed I was when I heard that Millennium was closing its doors in San Francisco! It is by far my favorite restaurant in the entire city! Opening this new location in Oakland was one of their best moves though, as the prices are slightly lower now! It still continues to have the same amazing food though with fantastic service. I'm a vegetarian (not vegan) and really appreciate all of the hard work that goes into their cooking. It truly is a work of art! I went to their new location for the first time in October for my birthday dinner and I literally could not have had a better birthday dinner!
p279
sVauthor_name
p280
VKarl Stallknecht
p281
sVauthor_url
p282
Vhttps://plus.google.com/115524845536586404190
p283
sVtime
p284
I1448510859
sa(dp285
Vrating
p286
I5
sVaspects
p287
(lp288
(dp289
Vrating
p290
I3
sVtype
p291
Voverall
p292
sasVprofile_photo_url
p293
V//lh5.googleusercontent.com/-k9UZKBOpqJE/AAAAAAAAAAI/AAAAAAAAAFI/hbSKEKL8Z5o/photo.jpg
p294
sVlanguage
p295
Ven
p296
sVtext
p297
VUnparalleled service, impossibly innovative cuisine. No better place to dine, vegan or omni. 
p298
sVauthor_name
p299
VMelodi Donahue
p300
sVauthor_url
p301
Vhttps://plus.google.com/115600452571732494303
p302
sVtime
p303
I1451796355
sa(dp304
Vrating
p305
I5
sVaspects
p306
(lp307
(dp308
Vrating
p309
I3
sVtype
p310
Voverall
p311
sasVprofile_photo_url
p312
V//lh3.googleusercontent.com/-vcU5J7-Ze5I/AAAAAAAAAAI/AAAAAAAABx8/_9HCk-iGGRQ/photo.jpg
p313
sVlanguage
p314
Ven
p315
sVtext
p316
VI was an infrequent but enthusiastic patron of Millennium when it was in SF, but now that it's in Rockridge I'll be able to enjoy their tasty food and fantastic cocktails more often! I've visited for dinner a handful of times since they have opened  their new location and from day one my experience has been consistently impressive. \u000a\u000aFood: I'm not vegan and the food is amazing, thoughtful, flavorful and filling. Get the trumpet mushrooms. Don't think about it. Just do it.\u000a\u000aService: Friendly, informative, helpful, warm.\u000a\u000aCocktails: OOOoo so tasty. I love a drink menu that takes classics to a whole new level. \u000a\u000aAmbiance: The outdoor patio is lovely, the indoor woodwork and metalwork is done by local craftsmen, which is a great touch. 
p317
sVauthor_name
p318
VLauryn Claassen
p319
sVauthor_url
p320
Vhttps://plus.google.com/107532083411013379816
p321
sVtime
p322
I1440450810
sa(dp323
Vrating
p324
I5
sVaspects
p325
(lp326
(dp327
Vrating
p328
I3
sVtype
p329
Voverall
p330
sasVprofile_photo_url
p331
V//lh4.googleusercontent.com/-639GUnmbXkQ/AAAAAAAAAAI/AAAAAAAADhc/Rb_FflbpWAk/photo.jpg
p332
sVlanguage
p333
Ven
p334
sVtext
p335
VLike its prior incarnation in San Francisco, Millennium, now in Oakland, is a great place to eat. Very good vegan & vegetarian food, and more small plate style than in SF. Great mocktails & deserts as well.
p336
sVauthor_name
p337
VMihir Meghani
p338
sVauthor_url
p339
Vhttps://plus.google.com/112704870730510086957
p340
sVtime
p341
I1448329804
sasVformatted_phone_number
p342
V(510) 735-9459
p343
sVaddress_components
p344
(lp345
(dp346
Vlong_name
p347
V5912
p348
sVtypes
p349
(lp350
Vstreet_number
p351
asVshort_name
p352
V5912
p353
sa(dp354
Vlong_name
p355
VCollege Avenue
p356
sVtypes
p357
(lp358
Vroute
p359
asVshort_name
p360
VCollege Ave
p361
sa(dp362
Vlong_name
p363
VOakland
p364
sVtypes
p365
(lp366
Vlocality
p367
aVpolitical
p368
asVshort_name
p369
VOakland
p370
sa(dp371
Vlong_name
p372
VCalifornia
p373
sVtypes
p374
(lp375
Vadministrative_area_level_1
p376
aVpolitical
p377
asVshort_name
p378
VCA
p379
sa(dp380
Vlong_name
p381
VUnited States
p382
sVtypes
p383
(lp384
Vcountry
p385
aVpolitical
p386
asVshort_name
p387
VUS
p388
sa(dp389
Vlong_name
p390
V94618
p391
sVtypes
p392
(lp393
Vpostal_code
p394
asVshort_name
p395
V94618
p396
sas.