(dp1
Vrating
p2
cdecimal
Decimal
p3
(S'4.3'
tRp4
sVreference
p5
VCnRkAAAAMYXTQAFwTV-DAij1vZnJ8qF9ikhlFVU4UP0FqzZA8kzAhs3ii5tEYM8KNo5QYDmsWm95CsJea9HY1d0Z6uA3ZZZ5BLIF2kfaDDDvRJsI6EVN_qwcMbixzYzmVoOLp92ZJ5kL7o05foSK2FEA8uCFAxIQgi9_nFolUviJEVvra_zRjhoUmBg5GJoolHTW9zVuNlbwBywXeUM
p6
sVprice_level
p7
I2
sVplace_id
p8
VChIJzfp706-AhYARn_qk2m_-XmY
p9
sVurl
p10
Vhttps://maps.google.com/?cid=7376612996042521247
p11
sVformatted_address
p12
V639-A Divisadero St, San Francisco, CA 94117, United States
p13
sVid
p14
V83e83eca1a3701e641e141e8ab3c029b18609edb
p15
sVopening_hours
p16
(dp17
Vweekday_text
p18
(lp19
VMonday: 9:00 AM \u2013 10:00 PM
p20
aVTuesday: 9:00 AM \u2013 10:00 PM
p21
aVWednesday: 9:00 AM \u2013 10:00 PM
p22
aVThursday: 8:00 AM \u2013 11:00 PM
p23
aVFriday: 8:00 AM \u2013 11:00 PM
p24
aVSaturday: 8:00 AM \u2013 11:00 PM
p25
aVSunday: 8:00 AM \u2013 10:00 PM
p26
asVopen_now
p27
I01
sVperiods
p28
(lp29
(dp30
Vclose
p31
(dp32
Vday
p33
I0
sVtime
p34
V2200
p35
ssVopen
p36
(dp37
Vday
p38
I0
sVtime
p39
V0800
p40
ssa(dp41
Vclose
p42
(dp43
Vday
p44
I1
sVtime
p45
V2200
p46
ssVopen
p47
(dp48
Vday
p49
I1
sVtime
p50
V0900
p51
ssa(dp52
Vclose
p53
(dp54
Vday
p55
I2
sVtime
p56
V2200
p57
ssVopen
p58
(dp59
Vday
p60
I2
sVtime
p61
V0900
p62
ssa(dp63
Vclose
p64
(dp65
Vday
p66
I3
sVtime
p67
V2200
p68
ssVopen
p69
(dp70
Vday
p71
I3
sVtime
p72
V0900
p73
ssa(dp74
Vclose
p75
(dp76
Vday
p77
I4
sVtime
p78
V2300
p79
ssVopen
p80
(dp81
Vday
p82
I4
sVtime
p83
V0800
p84
ssa(dp85
Vclose
p86
(dp87
Vday
p88
I5
sVtime
p89
V2300
p90
ssVopen
p91
(dp92
Vday
p93
I5
sVtime
p94
V0800
p95
ssa(dp96
Vclose
p97
(dp98
Vday
p99
I6
sVtime
p100
V2300
p101
ssVopen
p102
(dp103
Vday
p104
I6
sVtime
p105
V0800
p106
ssassVvicinity
p107
V639-A Divisadero Street, San Francisco
p108
sVscope
p109
VGOOGLE
p110
sVwebsite
p111
Vhttp://www.mojobicyclecafe.com/
p112
sVutc_offset
p113
I-420
sVuser_ratings_total
p114
I110
sVphotos
p115
(lp116
(dp117
Vphoto_reference
p118
VCmRdAAAAb1A7HHJAT7Q5exHKKfEHc0ujP2pIm6kRStmyhdJbGFlWxz5a02bchGuXPkCr4jZcdeRjFtw0BVySc6BWXlTj85F7qMz24l6zf1E4zUVmXPBHQXpJDbHL2JTubvnTAeH_EhDQefBxcnb3dMQ8zm5ygCKPGhTyOxDYvp95J0r2Dmx-QmAD1b9m_A
p119
sVwidth
p120
I480
sVhtml_attributions
p121
(lp122
V<a href="https://maps.google.com/maps/contrib/107042996322989095276/photos">Mojo Bicycle Cafe</a>
p123
asVheight
p124
I480
sa(dp125
Vphoto_reference
p126
VCmRdAAAARkae85GrS6JT2AiDOT22T47YnK3ISmweoHBt0CRMOr4QdtKA46UwbeLLhFXU2nFiKDe6kzfYxUPk16p1vT35c_uLmCxkDKtxextIdyiWFG0Iy8MNUxZ16aPo6ajQOa1AEhAnF-vH33q7mzBoL453z79XGhTS_-mmMDT6wgKv7mxJ3-W_PG5NmA
p127
sVwidth
p128
I1000
sVhtml_attributions
p129
(lp130
V<a href="https://maps.google.com/maps/contrib/107042996322989095276/photos">Mojo Bicycle Cafe</a>
p131
asVheight
p132
I617
sa(dp133
Vphoto_reference
p134
VCmRdAAAAm2q81yJeLI4B7kEs0ZEwvXBSxcy3PfqDxkxJb8zwUeBCdMteZvNyrB15RnKX2LWLgtgHUk-KYVzxiebBkGakOuIi1bJhvEvB_8-uZmwSTjIQsIkw3dnraDDllLv8wkjqEhCwroB1DM9rSqDcYaDIwkhkGhTrY1rbWwVgqez9Peck3fbZfylYxg
p135
sVwidth
p136
I4128
sVhtml_attributions
p137
(lp138
V<a href="https://maps.google.com/maps/contrib/108342428972657815858/photos">Kian Gholizadeh</a>
p139
asVheight
p140
I3096
sa(dp141
Vphoto_reference
p142
VCmRdAAAAYKoBU2aGPTSztI0UNTLo20mesqagIGPo_PZMnb69H3yPa7g3GgPv0tZbQ7wl6u2Ga7AWzsRNmGsrnJfbaT0zKdEK-qgmyF5wFz0lNWrPSHQnPk-oPP7nReZiZSZO0ZKcEhABs4n8_C9tbBWBqB-bqrdpGhRDwqhrs2YNBmLnzowNxqn7UW4aZg
p143
sVwidth
p144
I2048
sVhtml_attributions
p145
(lp146
V<a href="https://maps.google.com/maps/contrib/103094228835523885970/photos">David Moss</a>
p147
asVheight
p148
I1536
sa(dp149
Vphoto_reference
p150
VCoQBcwAAAFuP0x_RclRi1ac1t_rP6xpuX4p-5YDv5WLkziYlAnu7kWAzIDM0sTkdakm2FC9x14aBhPO_qw536r_ouQ0bFER-3iSAJTCokrD8qJAKRhAl42A5ZQYHLnNki_h8ieRLVOfzOTZCIOrJdx1i9_0mDoNBzCMzOhWkTq4oKUnqeGZMEhCRi0zwcHHg-cB4j4e3coVlGhTyvt83vU1r1OfAMBZPnGHw3mydBw
p151
sVwidth
p152
I2448
sVhtml_attributions
p153
(lp154
V<a href="https://maps.google.com/maps/contrib/114813504318465238530/photos">Jason Laveglia</a>
p155
asVheight
p156
I2448
sa(dp157
Vphoto_reference
p158
VCmRdAAAAFQZY89LW9IK8YGNJ8j4e5Ji25aKOQj99NsBFj_ZHfB6tdENEnXqhHIBj2J0yw7q6yyNB-TqpFYo7Pz2RUwExEt_qEOgqknr58fYsMYz3kul_Q4g_Z-sE_rwF2lCxPTCcEhCma3u6w-gQ2LAB3WxIWiNQGhRpvPFkX07fQHG2PgH54QAANO_WIA
p159
sVwidth
p160
I610
sVhtml_attributions
p161
(lp162
V<a href="https://maps.google.com/maps/contrib/107042996322989095276/photos">Mojo Bicycle Cafe</a>
p163
asVheight
p164
I458
sa(dp165
Vphoto_reference
p166
VCoQBcwAAAKJjDpYFXHfGykmizkm-RKF7ghnFE5TJGaGpAUKkvDO8Un6Aka2AlaakWrkDscccX0eXb2lljI5r46XaXMnm5CnciUMc49HfnyYfyd_IOSVJNrDu4yC8Fz5eFeq5ieCeWJSF_kQ37NHo3CT1zVx8psxLelaD1dm9NyA9rFx-TGSzEhAOcuf5CGpLVKMO5P5zUnCRGhQgHn-envIsw97Yg7ns8wQBrIkMWg
p167
sVwidth
p168
I2448
sVhtml_attributions
p169
(lp170
V<a href="https://maps.google.com/maps/contrib/114813504318465238530/photos">Jason Laveglia</a>
p171
asVheight
p172
I2448
sa(dp173
Vphoto_reference
p174
VCmRdAAAAktZRHeKEJGvqjfnFmDHD3ZhSoH_6ZbqKfFBoL1-_-UmGE5UjdEXLgpenfmCZic_EPMnbXFuWITHcJHbxoIiw1hMdWXtl0sCa5uoQv1DrM7pC4cLnT1DpiJhAt-eRontTEhBjDZ3mbjqOTlNXQksHzmuvGhSbswzXGuLxhG0D_ei1WifCvR4s2A
p175
sVwidth
p176
I2048
sVhtml_attributions
p177
(lp178
V<a href="https://maps.google.com/maps/contrib/103094228835523885970/photos">David Moss</a>
p179
asVheight
p180
I1536
sa(dp181
Vphoto_reference
p182
VCoQBcwAAAOQ76ypURAk_wJYIM210Ow8fLHks4iddcLfDkaXL_CuC4cZl6CuKZp5L1FV4h62ZylGfKEbdaUHYyHAzF92asCzYxYrihMxZfzQw1oLsw8xOxszu6nuTGcaKTxUISGdo_HDNBx8zU9JlOoVAefT-zyZKamMKBPW7_Ei8IiTnX-7QEhB8LSd3QIlzEUb18GRLqcbnGhRWNMNH9ixltZqxaPZltDqyjJFAng
p183
sVwidth
p184
I2448
sVhtml_attributions
p185
(lp186
V<a href="https://maps.google.com/maps/contrib/114813504318465238530/photos">Jason Laveglia</a>
p187
asVheight
p188
I2448
sa(dp189
Vphoto_reference
p190
VCoQBcwAAALPg6htjcBgwqe7FIQxQPX_wzHN2ksFwFeOYwHycEBkfjuk6s4kzdc7j-zxRENXA502B5gcVTy7PKMePx8CsRV4xeoI3WBZm-YNvrlrxV6SHv_qKLtduDC1vHdZWE7pseQVWqU7Kbu4q0L9IofdQk8knVgiix7RPNZii6h-0vz8eEhAnx2AVRywg_dE0tNrtGW3_GhRoBZv_9I59f73n42xjLiUlhAdnfw
p191
sVwidth
p192
I2448
sVhtml_attributions
p193
(lp194
V<a href="https://maps.google.com/maps/contrib/114813504318465238530/photos">Jason Laveglia</a>
p195
asVheight
p196
I2448
sasVtypes
p197
(lp198
Vcafe
p199
aVbar
p200
aVfood
p201
aVpoint_of_interest
p202
aVestablishment
p203
asVicon
p204
Vhttps://maps.gstatic.com/mapfiles/place_api/icons/cafe-71.png
p205
sVname
p206
VMojo Bicycle Cafe
p207
sVgeometry
p208
(dp209
Vaccess_points
p210
(lp211
(dp212
Vtravel_modes
p213
(lp214
VDRIVING
p215
aVBICYCLING
p216
aVWALKING
p217
aVTRANSIT
p218
asVlocation
p219
(dp220
Vlat
p221
g3
(S'37.7755636'
tRp222
sVlng
p223
g3
(S'-122.4379369'
tRp224
ssasVlocation
p225
(dp226
Vlat
p227
g3
(S'37.7755474'
tRp228
sVlng
p229
g3
(S'-122.4381149'
tRp230
sssVadr_address
p231
V<span class="street-address">639-A Divisadero St</span>, <span class="locality">San Francisco</span>, <span class="region">CA</span> <span class="postal-code">94117</span>, <span class="country-name">United States</span>
p232
sVinternational_phone_number
p233
V+1 415-440-2370
p234
sVreviews
p235
(lp236
(dp237
Vrating
p238
I3
sVaspects
p239
(lp240
(dp241
Vrating
p242
I1
sVtype
p243
Voverall
p244
sasVprofile_photo_url
p245
V//lh3.googleusercontent.com/-XuULcNq52pY/AAAAAAAAAAI/AAAAAAAAJjM/m9eOtIq-fxc/photo.jpg
p246
sVlanguage
p247
Ven
p248
sVtext
p249
Va bicycle shop that's a coffee bar a restaurant and a bar sounds like a fantastic combination good beer selection with pitchers and great sandwich options if it wasn't cash only and no wifi(there is an access point that says mojo cafe no wifi) it would be five stars
p250
sVauthor_name
p251
VJason Laveglia
p252
sVauthor_url
p253
Vhttps://plus.google.com/114813504318465238530
p254
sVtime
p255
I1459738354
sa(dp256
Vrating
p257
I5
sVaspects
p258
(lp259
(dp260
Vrating
p261
I3
sVtype
p262
Voverall
p263
sasVprofile_photo_url
p264
V//lh5.googleusercontent.com/-pEmgbQCmI_0/AAAAAAAAAAI/AAAAAAAADMA/gS2ybv9qCQ0/photo.jpg
p265
sVlanguage
p266
Ven
p267
sVtext
p268
VReally nice people, good food, good beer, good coffee. Happy hour gets you $2 off drafts, I think it's 3-5 pm.
p269
sVauthor_name
p270
VBill Bauman
p271
sVauthor_url
p272
Vhttps://plus.google.com/115227403077663468810
p273
sVtime
p274
I1458855007
sa(dp275
Vrating
p276
I5
sVaspects
p277
(lp278
(dp279
Vrating
p280
I3
sVtype
p281
Voverall
p282
sasVprofile_photo_url
p283
V//lh4.googleusercontent.com/-16OZZWKxbOs/AAAAAAAAAAI/AAAAAAABg2Y/2QnGtdKu2J8/photo.jpg
p284
sVlanguage
p285
Ven
p286
sVtext
p287
VEccelent of beers on tap, now 10! Also good beer and wine in bottles. \u000a\u000aWeekend breakfast beagles are a go to.\u000a\u000aBike shop staff are very friendly and not intimidating at all.
p288
sVauthor_name
p289
Vbryan kiechle
p290
sVauthor_url
p291
Vhttps://plus.google.com/103029997790903404653
p292
sVtime
p293
I1458666694
sa(dp294
Vrating
p295
I5
sVaspects
p296
(lp297
(dp298
Vrating
p299
I3
sVtype
p300
Voverall
p301
sasVprofile_photo_url
p302
V//lh6.googleusercontent.com/-Z1rAxZlDZOw/AAAAAAAAAAI/AAAAAAAAAUQ/64xD4H2CJbE/photo.jpg
p303
sVlanguage
p304
Ven
p305
sVtext
p306
VGreat beer selection and a pleasant ambiance. Bike shop in the back closes earlier than the cafe so beware. \u000a\u000aThis is a nice place to have coffee or a drink with friends without the clamor of a full bar.
p307
sVauthor_name
p308
VTrevor Narayan
p309
sVauthor_url
p310
Vhttps://plus.google.com/113992015716149284311
p311
sVtime
p312
I1447733424
sa(dp313
Vrating
p314
I4
sVaspects
p315
(lp316
(dp317
Vrating
p318
I2
sVtype
p319
Voverall
p320
sasVprofile_photo_url
p321
V//lh3.googleusercontent.com/-d6-FTOg_300/AAAAAAAAAAI/AAAAAAAABcU/5yHzRu86Cdk/photo.jpg
p322
sVlanguage
p323
Ven
p324
sVtext
p325
VLove to come here for lunch or to get a bit of work done.  It's usually pretty quiet, but beware: no power outlets and spotty wifi (which is way I gave them 4 stars).  They have great sandwiches and a decent beer selection.  Can't say anything about the bike shop, but it's a cool concept to combine the two.
p326
sVauthor_name
p327
VJessica Allen
p328
sVauthor_url
p329
Vhttps://plus.google.com/109418109265233873903
p330
sVtime
p331
I1437155657
sasVformatted_phone_number
p332
V(415) 440-2370
p333
sVaddress_components
p334
(lp335
(dp336
Vlong_name
p337
V639-A
p338
sVtypes
p339
(lp340
Vstreet_number
p341
asVshort_name
p342
V639-A
p343
sa(dp344
Vlong_name
p345
VDivisadero Street
p346
sVtypes
p347
(lp348
Vroute
p349
asVshort_name
p350
VDivisadero St
p351
sa(dp352
Vlong_name
p353
VSan Francisco
p354
sVtypes
p355
(lp356
Vlocality
p357
aVpolitical
p358
asVshort_name
p359
VSF
p360
sa(dp361
Vlong_name
p362
VCalifornia
p363
sVtypes
p364
(lp365
Vadministrative_area_level_1
p366
aVpolitical
p367
asVshort_name
p368
VCA
p369
sa(dp370
Vlong_name
p371
VUnited States
p372
sVtypes
p373
(lp374
Vcountry
p375
aVpolitical
p376
asVshort_name
p377
VUS
p378
sa(dp379
Vlong_name
p380
V94117
p381
sVtypes
p382
(lp383
Vpostal_code
p384
asVshort_name
p385
V94117
p386
sas.