(dp1
Vwebsite
p2
Vhttp://www.menlopark.org/251/Nealon-Park
p3
sVrating
p4
cdecimal
Decimal
p5
(S'4.2'
tRp6
sVutc_offset
p7
I-420
sVuser_ratings_total
p8
I8
sVname
p9
VNealon Park
p10
sVreference
p11
VCmReAAAAqPVkqcFNUe1hWY5Jgytf5sBesZm1z2BOjyboVscqRjYcggISXULL89Pob3kgvKjaAPZDrt575LhdO1ngwM2XqNe8vs1ETirIYRiwL8GLY9Z27t2GeUIk7YDkiE2WVAoeEhD0gtdP2Nk2guXT8-jTZyDwGhTeMqDzHkfsrPdqT5QI03A5iqBLuw
p12
sVgeometry
p13
(dp14
Vaccess_points
p15
(lp16
(dp17
Vtravel_modes
p18
(lp19
VDRIVING
p20
aVBICYCLING
p21
aVWALKING
p22
aVTRANSIT
p23
asVlocation
p24
(dp25
Vlat
p26
g5
(S'37.4475397'
tRp27
sVlng
p28
g5
(S'-122.1796059'
tRp29
ssasVlocation
p30
(dp31
Vlat
p32
g5
(S'37.4481067'
tRp33
sVlng
p34
g5
(S'-122.1805701'
tRp35
sssVadr_address
p36
V<span class="street-address">800 Middle Ave</span>, <span class="locality">Menlo Park</span>, <span class="region">CA</span> <span class="postal-code">94025</span>, <span class="country-name">United States</span>
p37
sVplace_id
p38
VChIJcxADqbakj4ARF55yRHFLJVY
p39
sVinternational_phone_number
p40
V+1 650-330-6794
p41
sVvicinity
p42
V800 Middle Avenue, Menlo Park
p43
sVreviews
p44
(lp45
(dp46
Vrating
p47
I4
sVaspects
p48
(lp49
(dp50
Vrating
p51
I2
sVtype
p52
Voverall
p53
sasVprofile_photo_url
p54
V//lh6.googleusercontent.com/-owaUE_NoxM8/AAAAAAAAAAI/AAAAAAAAA98/L641WzOYNRs/photo.jpg
p55
sVlanguage
p56
Ven
p57
sVtext
p58
VGreat park with baseball field, playground, tennis courts, and open grass area.  The outfield at the baseball field is a little rough.
p59
sVauthor_name
p60
VJason Lawrence
p61
sVauthor_url
p62
Vhttps://plus.google.com/117077787237560587984
p63
sVtime
p64
I1448925986
sa(dp65
Vrating
p66
I3
sVaspects
p67
(lp68
(dp69
Vrating
p70
I1
sVtype
p71
Voverall
p72
sasVprofile_photo_url
p73
V//lh4.googleusercontent.com/-NKEUFJ_fBQ0/AAAAAAAAAAI/AAAAAAAAACk/a_N1836GoNA/photo.jpg
p74
sVlanguage
p75
Ven
p76
sVtext
p77
VThe park is OK, but overcrowded and the dusty. \u000aI personally didn't like it, I would not like to return there.
p78
sVauthor_name
p79
VAy Se
p80
sVauthor_url
p81
Vhttps://plus.google.com/113899469970475835006
p82
sVtime
p83
I1440389825
sa(dp84
Vrating
p85
I5
sVaspects
p86
(lp87
(dp88
Vrating
p89
I3
sVtype
p90
Voverall
p91
sasVprofile_photo_url
p92
V//lh6.googleusercontent.com/-6yXR2URpabs/AAAAAAAAAAI/AAAAAAAAAyI/qkie38GjOLc/photo.jpg
p93
sVlanguage
p94
Ven
p95
sVtext
p96
V
sVauthor_name
p97
VAaavani Modalali
p98
sVauthor_url
p99
Vhttps://plus.google.com/112708521948869252824
p100
sVtime
p101
I1460970746
sa(dp102
Vrating
p103
I5
sVaspects
p104
(lp105
(dp106
Vrating
p107
I3
sVtype
p108
Voverall
p109
sasVprofile_photo_url
p110
V//lh4.googleusercontent.com/-_xN0o9xbPP0/AAAAAAAAAAI/AAAAAAAAKD0/UumdyA9PLyY/photo.jpg
p111
sVlanguage
p112
Ven
p113
sVtext
p114
V
sVauthor_name
p115
VPatrick Moor
p116
sVauthor_url
p117
Vhttps://plus.google.com/113043176744088847832
p118
sVtime
p119
I1459640919
sa(dp120
Vrating
p121
I5
sVaspects
p122
(lp123
(dp124
Vrating
p125
I3
sVtype
p126
Voverall
p127
sasVprofile_photo_url
p128
V//lh3.googleusercontent.com/-4_lC3a2zLFU/AAAAAAAAAAI/AAAAAAAAAjQ/cYrVzTBbry0/photo.jpg
p129
sVlanguage
p130
Ven
p131
sVtext
p132
V
sVauthor_name
p133
VJesse Quirion
p134
sVauthor_url
p135
Vhttps://plus.google.com/114355861403383627383
p136
sVtime
p137
I1423172633
sasVformatted_phone_number
p138
V(650) 330-6794
p139
sVurl
p140
Vhttps://maps.google.com/?cid=6207450611251846679
p141
sVscope
p142
VGOOGLE
p143
sVaddress_components
p144
(lp145
(dp146
Vlong_name
p147
V800
p148
sVtypes
p149
(lp150
Vstreet_number
p151
asVshort_name
p152
V800
p153
sa(dp154
Vlong_name
p155
VMiddle Avenue
p156
sVtypes
p157
(lp158
Vroute
p159
asVshort_name
p160
VMiddle Ave
p161
sa(dp162
Vlong_name
p163
VMenlo Park
p164
sVtypes
p165
(lp166
Vlocality
p167
aVpolitical
p168
asVshort_name
p169
VMenlo Park
p170
sa(dp171
Vlong_name
p172
VCalifornia
p173
sVtypes
p174
(lp175
Vadministrative_area_level_1
p176
aVpolitical
p177
asVshort_name
p178
VCA
p179
sa(dp180
Vlong_name
p181
VUnited States
p182
sVtypes
p183
(lp184
Vcountry
p185
aVpolitical
p186
asVshort_name
p187
VUS
p188
sa(dp189
Vlong_name
p190
V94025
p191
sVtypes
p192
(lp193
Vpostal_code
p194
asVshort_name
p195
V94025
p196
sasVformatted_address
p197
V800 Middle Ave, Menlo Park, CA 94025, United States
p198
sVid
p199
Va8be805e53eb0ecb98ac43a44f3eb78d7993242b
p200
sVtypes
p201
(lp202
Vpark
p203
aVpoint_of_interest
p204
aVestablishment
p205
asVicon
p206
Vhttps://maps.gstatic.com/mapfiles/place_api/icons/generic_recreational-71.png
p207
s.