(dp1
Vrating
p2
cdecimal
Decimal
p3
(S'4.5'
tRp4
sVreference
p5
VCmRfAAAA40h8dqtstA3GVNlyQRt5iuNYyHOYALdAd1ynGIq_Ur8DpZQfWKQFda4RcEHKnNb1iNnB3Xgp6rW1qFT-C9pE8XuP4CsNfrVRbEjKxhCZM3bNb9yFkJbWx-dhKJpVhvifEhBa5L-3aE6s05SSimE0ylo0GhSx82xTzRq4Z0wXbGTGWLdooP4j6w
p6
sVplace_id
p7
VChIJQXnZ_ASHhYARiIl0VPpsEQs
p8
sVurl
p9
Vhttps://maps.google.com/?cid=797538431435835784
p10
sVformatted_address
p11
V211 23rd Ave, San Francisco, CA 94121, United States
p12
sVid
p13
V62086d147ec612871007c2fc9e2d29a7550450c7
p14
sVopening_hours
p15
(dp16
Vweekday_text
p17
(lp18
VMonday: 12:00 \u2013 2:30 PM, 5:00 \u2013 9:00 PM
p19
aVTuesday: Closed
p20
aVWednesday: 12:00 \u2013 2:30 PM, 5:00 \u2013 9:00 PM
p21
aVThursday: 12:00 \u2013 2:30 PM, 5:00 \u2013 9:00 PM
p22
aVFriday: 12:00 \u2013 2:30 PM, 5:00 \u2013 9:00 PM
p23
aVSaturday: 12:00 \u2013 9:00 PM
p24
aVSunday: 12:00 \u2013 9:00 PM
p25
asVopen_now
p26
I01
sVperiods
p27
(lp28
(dp29
Vclose
p30
(dp31
Vday
p32
I0
sVtime
p33
V2100
p34
ssVopen
p35
(dp36
Vday
p37
I0
sVtime
p38
V1200
p39
ssa(dp40
Vclose
p41
(dp42
Vday
p43
I1
sVtime
p44
V1430
p45
ssVopen
p46
(dp47
Vday
p48
I1
sVtime
p49
V1200
p50
ssa(dp51
Vclose
p52
(dp53
Vday
p54
I1
sVtime
p55
V2100
p56
ssVopen
p57
(dp58
Vday
p59
I1
sVtime
p60
V1700
p61
ssa(dp62
Vclose
p63
(dp64
Vday
p65
I3
sVtime
p66
V1430
p67
ssVopen
p68
(dp69
Vday
p70
I3
sVtime
p71
V1200
p72
ssa(dp73
Vclose
p74
(dp75
Vday
p76
I3
sVtime
p77
V2100
p78
ssVopen
p79
(dp80
Vday
p81
I3
sVtime
p82
V1700
p83
ssa(dp84
Vclose
p85
(dp86
Vday
p87
I4
sVtime
p88
V1430
p89
ssVopen
p90
(dp91
Vday
p92
I4
sVtime
p93
V1200
p94
ssa(dp95
Vclose
p96
(dp97
Vday
p98
I4
sVtime
p99
V2100
p100
ssVopen
p101
(dp102
Vday
p103
I4
sVtime
p104
V1700
p105
ssa(dp106
Vclose
p107
(dp108
Vday
p109
I5
sVtime
p110
V1430
p111
ssVopen
p112
(dp113
Vday
p114
I5
sVtime
p115
V1200
p116
ssa(dp117
Vclose
p118
(dp119
Vday
p120
I5
sVtime
p121
V2100
p122
ssVopen
p123
(dp124
Vday
p125
I5
sVtime
p126
V1700
p127
ssa(dp128
Vclose
p129
(dp130
Vday
p131
I6
sVtime
p132
V2100
p133
ssVopen
p134
(dp135
Vday
p136
I6
sVtime
p137
V1200
p138
ssassVvicinity
p139
V211 23rd Avenue, San Francisco
p140
sVscope
p141
VGOOGLE
p142
sVwebsite
p143
Vhttp://www.pizzetta211.com/
p144
sVutc_offset
p145
I-420
sVuser_ratings_total
p146
I98
sVphotos
p147
(lp148
(dp149
Vphoto_reference
p150
VCoQBcwAAAOJqzzXs_6FEYkSwD7SGAtMHc50tIgIr4Nv7GBtzy8nobwobf7SVXXeR1JOI6z2Aq2hiz-UCHA1PUllVWRZge94Por-NpLAk1lcD5W-saqtyH9dJ3F2UhNm1jWiEDbPHqlK6ntyXvxJQFjZM-fF9T50Rro6_VhCx_IHqo-ATuOyGEhAlrcWi_wnNwP4WSZOLnk-vGhRu7iq1pYt-QZfcLr1_ebx3Ktv5XQ
p151
sVwidth
p152
I4160
sVhtml_attributions
p153
(lp154
V<a href="https://maps.google.com/maps/contrib/105800680184978979492/photos">Michael Emerick</a>
p155
asVheight
p156
I3120
sa(dp157
Vphoto_reference
p158
VCmRdAAAACozUrXGsoVlTm2JGEKpeDKjmpOEyT7NrlWWKMhB6hdQOB1lCK6DYX72dcoDMywkxTQcY4nQYnT8KQRxacQpLEWs75zXnB_tJmigEfkCZoSTi8rTPb4tmm60ARQcFoFIAEhBgrOOJC0932d8ff8hHVqEJGhR_wtEYh83GLyjSvhgyMdOL2LiTuQ
p159
sVwidth
p160
I4160
sVhtml_attributions
p161
(lp162
V<a href="https://maps.google.com/maps/contrib/105800680184978979492/photos">Michael Emerick</a>
p163
asVheight
p164
I3120
sa(dp165
Vphoto_reference
p166
VCmRdAAAAR2MXinusOXTzBtyrA9BIMLZq6t57gdVA1etLmryzu13-652iKE08EkU_Qaozq5Va2wDMbUPUkbdJ6xMPHgby5fzZtW8A1St2b3d5qVkkiicyr56lneq_GlrUThd7MepzEhBjCkUTC_i-2ixrx5P-O5xtGhQIqalwO9UWmK80osFLOFAuIp6gsw
p167
sVwidth
p168
I3264
sVhtml_attributions
p169
(lp170
V<a href="https://maps.google.com/maps/contrib/101684759371052236980/photos">Don V</a>
p171
asVheight
p172
I2448
sa(dp173
Vphoto_reference
p174
VCmRdAAAAV2oCyJWLLpVQx8T8Hz7FhmaZxo8wCYIOTWycVsr9HjLJtqAciPHkwoMvnSOwi4bbgI3ztWXwpbGAGCcXJu83peeBKqecxiq385WuNh2VsukYNwW0miBLuIYd2qvdf_uaEhALF84bteDiMhXfLDhjfdr1GhSxS_JeoAkp5h7gJ03IjiWvV4ocbQ
p175
sVwidth
p176
I3264
sVhtml_attributions
p177
(lp178
V<a href="https://maps.google.com/maps/contrib/101684759371052236980/photos">Don V</a>
p179
asVheight
p180
I2448
sa(dp181
Vphoto_reference
p182
VCmRdAAAAhQ8wp70x4b-rquFUrt35McNMPXclPjBYs6ihTbWj6pHj3gQd21mUzK6AglOj-fqbsywsFJK8v6Rx0B1XF9K2PsqVl02kgd65GjwT7tTINKNxsDQmh4HgEBI3IawEPLnLEhBaFBPPlmSxY3piR9Lq8QUkGhTqtJxjWADMxCqqs6w44ICz6Vl54A
p183
sVwidth
p184
I4160
sVhtml_attributions
p185
(lp186
V<a href="https://maps.google.com/maps/contrib/105800680184978979492/photos">Michael Emerick</a>
p187
asVheight
p188
I3120
sa(dp189
Vphoto_reference
p190
VCmRdAAAABYu_ADx9s20GWG8XVcueGydDdaDai3gk_EA7iBrEUyJfCQzZiJX1cE4qpKQJwrTL3WEwbQb_QqvWKqGSw1m15UfhoKrK1NFq5oEW3s9DzlYKrzJRfqg_kWHtHue2KxwTEhByKtY_JdmLpHPD8IBDIsimGhQdbweRfTWL9W_9q410Dd-2pB31Xg
p191
sVwidth
p192
I1632
sVhtml_attributions
p193
(lp194
V<a href="https://maps.google.com/maps/contrib/109467717400903653061/photos">Ryan Constantino</a>
p195
asVheight
p196
I1224
sa(dp197
Vphoto_reference
p198
VCmRdAAAAZKQw4ij_ExpcaM_W51agxXWYtKRaFhuiygFvYp82ub6_PdpFT05Y6UL0eh_HueM4gsF_tmUy5OTAVSK6tQrWERbmdvumgLnxIOgeJeb2hZpa1eUdJpimMQI41-6dqAwWEhBcgEv1EvkFgHcX8YE0i4CIGhSISjaDULWu7T-xRAGXdzIXu8Vkcw
p199
sVwidth
p200
I1280
sVhtml_attributions
p201
(lp202
V<a href="https://maps.google.com/maps/contrib/102272337686480191000/photos">Julius Heilman</a>
p203
asVheight
p204
I960
sa(dp205
Vphoto_reference
p206
VCmRdAAAA11noamF-5av82Dux0ed7HTMNgWWqZpek-R25a8XdkMuL1vewuxwebk5hcqiGLH3x36Y7npdpkIo3WAWFCgA00mDVegRTBuZ98iVg-ITakFLOL9VVI6azJihlA8prCLuIEhAI9zr1ITeNZ0R80mOh31LfGhQQwPrvkyLYuN8TyR13RC48VJGkvQ
p207
sVwidth
p208
I2048
sVhtml_attributions
p209
(lp210
V<a href="https://maps.google.com/maps/contrib/102272337686480191000/photos">Julius Heilman</a>
p211
asVheight
p212
I1536
sa(dp213
Vphoto_reference
p214
VCmRdAAAAw63_F4HUzpr7JKnDTpmmtBfQpZ6Gfgu8NBQ3ysvjVSQCG7SUHHDNTynMMtMzb8XHjqsYj_XiFQrsTbeuf5zefgCG7xYPVr2l8WBokm1_K5SEHL0OKFRk01VTP_6N9WjvEhBDp9K_9K8zE4eaRn_43QrJGhS6kTjnL3QmMBqcNW4XaaJaBoC2eg
p215
sVwidth
p216
I1280
sVhtml_attributions
p217
(lp218
V<a href="https://maps.google.com/maps/contrib/102272337686480191000/photos">Julius Heilman</a>
p219
asVheight
p220
I960
sa(dp221
Vphoto_reference
p222
VCmRdAAAA3PJMpGBAnW3s4RThy1Gcd_npgZTF7koaOfnadPJtlJFsATODUir4e3VU74lwBhfBlrG_F3Y6487FOmoAu1PchROe-SIBE-AXaXXgjaLNUYwUzLR_XzVzyz6kCuuLUOCHEhA3NOoZsrmtg04YsTlYrymIGhR9twPb85NdSCdfXUp-Ssz5TvQxXw
p223
sVwidth
p224
I3264
sVhtml_attributions
p225
(lp226
V<a href="https://maps.google.com/maps/contrib/101684759371052236980/photos">Don V</a>
p227
asVheight
p228
I2448
sasVtypes
p229
(lp230
Vmeal_takeaway
p231
aVrestaurant
p232
aVfood
p233
aVpoint_of_interest
p234
aVestablishment
p235
asVicon
p236
Vhttps://maps.gstatic.com/mapfiles/place_api/icons/restaurant-71.png
p237
sVname
p238
VPizzetta 211
p239
sVgeometry
p240
(dp241
Vaccess_points
p242
(lp243
(dp244
Vtravel_modes
p245
(lp246
VDRIVING
p247
aVBICYCLING
p248
aVWALKING
p249
aVTRANSIT
p250
asVlocation
p251
(dp252
Vlat
p253
g3
(S'37.7837133'
tRp254
sVlng
p255
g3
(S'-122.4828622'
tRp256
ssasVlocation
p257
(dp258
Vlat
p259
g3
(S'37.7837045'
tRp260
sVlng
p261
g3
(S'-122.483052'
tRp262
sssVadr_address
p263
V<span class="street-address">211 23rd Ave</span>, <span class="locality">San Francisco</span>, <span class="region">CA</span> <span class="postal-code">94121-2008</span>, <span class="country-name">United States</span>
p264
sVinternational_phone_number
p265
V+1 415-379-9880
p266
sVreviews
p267
(lp268
(dp269
Vrating
p270
I4
sVaspects
p271
(lp272
(dp273
Vrating
p274
I2
sVtype
p275
Voverall
p276
sasVprofile_photo_url
p277
V//lh6.googleusercontent.com/-TMdaKtBPHoU/AAAAAAAAAAI/AAAAAAAAABI/pLBousQ5wOU/photo.jpg
p278
sVlanguage
p279
Ven
p280
sVtext
p281
VLove tiny spots like this in the city. I'd definitely recommend getting here when it opens though (especially if you have kids). We got here a little before 5 (when it opened) and got the last seat to fit four. The meal was awesome though. We got the olives and organic green salad to start. We got two pizzas - the rosemary one and the prosciutto one. I've never had rosemary on a pizza before and it was subtle but delicious. Great neighborhood pizza spot.
p282
sVauthor_name
p283
VDavid Alleyne
p284
sVauthor_url
p285
Vhttps://plus.google.com/114329339460401890436
p286
sVtime
p287
I1459339960
sa(dp288
Vrating
p289
I1
sVaspects
p290
(lp291
(dp292
Vrating
p293
I0
sVtype
p294
Voverall
p295
sasVlanguage
p296
Ven
p297
sVtext
p298
VWow!  I am shocked!!! So I am only giving this 1 star rating because of what I just witnessed.  On numerous occasions, I have been told that they have run out of dough.  Today, Valentine's Day 2016, I came early, enjoyed a wonderful dinner, only to find the woman checking in customers profiles individuals.  Racially, we'll I wouldn't know what true racism is because I have been blinded by living in SF for ages.  I would like to mention that a man came in at 7 pm 2 hours before closing asking for a spot for two and the waitress said she was out of dough.  Five minutes later, a woman came in, and was seated right away with 2 in her party.  Shortly after, a white guy came in, same thing, she apparently freed up some dough.  Anyways, the moral of my story is, we live in such a cool place, why hate? 
p299
sVauthor_name
p300
VTiffany Crain
p301
sVauthor_url
p302
Vhttps://plus.google.com/102952048201463411642
p303
sVtime
p304
I1455507027
sa(dp305
Vrating
p306
I5
sVaspects
p307
(lp308
(dp309
Vrating
p310
I3
sVtype
p311
Voverall
p312
sasVprofile_photo_url
p313
V//lh3.googleusercontent.com/-h1pHfe97Y3Q/AAAAAAAAAAI/AAAAAAAAHnA/jRXmbbS8VZM/photo.jpg
p314
sVlanguage
p315
Ven
p316
sVtext
p317
VWe waited for about 30 minutes to get one of the few tables inside and boy was it worth the wait! There was one waiter on staff and he was working his butt off! Our food came out super fast and with exceptional quality despite how understaffed they were. Ordering the farmers egg pizza with a beer is a must. There isn't enough to be said about the atmosphere, you just have to visit yourself to find out how great it is! 
p318
sVauthor_name
p319
VMichael Emerick
p320
sVauthor_url
p321
Vhttps://plus.google.com/105800680184978979492
p322
sVtime
p323
I1456555069
sa(dp324
Vrating
p325
I3
sVaspects
p326
(lp327
(dp328
Vrating
p329
I1
sVtype
p330
Voverall
p331
sasVprofile_photo_url
p332
V//lh5.googleusercontent.com/-dJoJ28nJLC8/AAAAAAAAAAI/AAAAAAAASzw/A8OY_FXnWro/photo.jpg
p333
sVlanguage
p334
Ven
p335
sVtext
p336
VGood thin crust pizza in the Richmond. I had the margherita, which was good but nothing memorable or amazing. The restaurant is tiny so you're better off taking it to go. There are only 4-5 tables. I would come here more often if it were convenient and a neighborhood spot, but not a place worth going out of your way for. 
p337
sVauthor_name
p338
VYvette Ngo
p339
sVauthor_url
p340
Vhttps://plus.google.com/104287900749560866993
p341
sVtime
p342
I1442684243
sa(dp343
Vrating
p344
I4
sVaspects
p345
(lp346
(dp347
Vrating
p348
I2
sVtype
p349
Voverall
p350
sasVprofile_photo_url
p351
V//lh3.googleusercontent.com/-FpU5wqX_KTE/AAAAAAAAAAI/AAAAAAAAABE/bBraeB7Ea2o/photo.jpg
p352
sVlanguage
p353
Ven
p354
sVtext
p355
VVery friendly staff, great service. Very family friendly spot. Been several times now had the pizza and wings several times both of which are delicious. In this area this has become our go to spot for pizza worth a visit!\u000a\u000a
p356
sVauthor_name
p357
VDavid range
p358
sVauthor_url
p359
Vhttps://plus.google.com/107726175028434779836
p360
sVtime
p361
I1446264108
sasVformatted_phone_number
p362
V(415) 379-9880
p363
sVaddress_components
p364
(lp365
(dp366
Vlong_name
p367
V211
p368
sVtypes
p369
(lp370
Vstreet_number
p371
asVshort_name
p372
V211
p373
sa(dp374
Vlong_name
p375
V23rd Avenue
p376
sVtypes
p377
(lp378
Vroute
p379
asVshort_name
p380
V23rd Ave
p381
sa(dp382
Vlong_name
p383
VSan Francisco
p384
sVtypes
p385
(lp386
Vlocality
p387
aVpolitical
p388
asVshort_name
p389
VSF
p390
sa(dp391
Vlong_name
p392
VCalifornia
p393
sVtypes
p394
(lp395
Vadministrative_area_level_1
p396
aVpolitical
p397
asVshort_name
p398
VCA
p399
sa(dp400
Vlong_name
p401
VUnited States
p402
sVtypes
p403
(lp404
Vcountry
p405
aVpolitical
p406
asVshort_name
p407
VUS
p408
sa(dp409
Vlong_name
p410
V94121
p411
sVtypes
p412
(lp413
Vpostal_code
p414
asVshort_name
p415
V94121
p416
sa(dp417
Vlong_name
p418
V2008
p419
sVtypes
p420
(lp421
Vpostal_code_suffix
p422
asVshort_name
p423
V2008
p424
sas.