(dp1
Vwebsite
p2
Vhttp://www.pointreyesschoolhouse.com/
p3
sVutc_offset
p4
I-420
sVuser_ratings_total
p5
I4
sVname
p6
VPoint Reyes Schoolhouse Lodging
p7
sVreference
p8
VCoQBcgAAAGPR13mJ_ouw_iCYNVHGTppsxxoLDo57WsAG2n1n93nnffyGOtgZwXVZj7ttaaFA41C55qzmQOYqWLvJP1w2hNMaw1BqBWK8XuzllGjlea4hvImmvg5Tmx1Sj3bv30Z91gWaAxO7J8f9TLfe-cm7Nb0oiD4CGIBrvkkPSYHeYVHtEhBRLepcC1TsYAzNaMeS5SXgGhSZdP1xyyNeHGsV5gFjVA7nYaoqqQ
p9
sVphotos
p10
(lp11
(dp12
Vphoto_reference
p13
VCmRdAAAAftP3AbBl6nedO31ABrzTb3wRf1seBcNMejg0W1aXufr8vkY_--lXN89BLD3YYNqnJg-w70JhwutMs8q7v6NvZpSjYLP-yUQa52mchiCHveopsN5OASYvCIha_WQWuCf4EhDzb613ZVvjrKSDIEXMYyXlGhQk7zkf2bUSEjK7akRUIJLBqbWRVA
p14
sVwidth
p15
I400
sVhtml_attributions
p16
(lp17
V<a href="https://maps.google.com/maps/contrib/105398039158454105590/photos">Point Reyes Schoolhouse Lodging</a>
p18
asVheight
p19
I400
sasVgeometry
p20
(dp21
Vaccess_points
p22
(lp23
(dp24
Vtravel_modes
p25
(lp26
VDRIVING
p27
aVBICYCLING
p28
aVWALKING
p29
aVTRANSIT
p30
asVlocation
p31
(dp32
Vlat
p33
cdecimal
Decimal
p34
(S'38.0715021'
tRp35
sVlng
p36
g34
(S'-122.8032764'
tRp37
ssasVlocation
p38
(dp39
Vlat
p40
g34
(S'38.0717013'
tRp41
sVlng
p42
g34
(S'-122.8035327'
tRp43
sssVadr_address
p44
V<span class="street-address">11559 CA-1</span>, <span class="locality">Point Reyes Station</span>, <span class="region">CA</span> <span class="postal-code">94956</span>, <span class="country-name">United States</span>
p45
sVplace_id
p46
VChIJUZpaGX7GhYARhjoA6Dj5cXM
p47
sVinternational_phone_number
p48
V+1 415-663-1166
p49
sVvicinity
p50
V11559 California 1, Point Reyes Station
p51
sVreviews
p52
(lp53
(dp54
Vrating
p55
I5
sVaspects
p56
(lp57
(dp58
Vrating
p59
I3
sVtype
p60
Voverall
p61
sasVprofile_photo_url
p62
V//lh3.googleusercontent.com/-DWXYlOJRme0/AAAAAAAAAAI/AAAAAAAADI8/lyihh0vvt8M/photo.jpg
p63
sVlanguage
p64
Ven
p65
sVtext
p66
VThis place is simply awesome. \u000aBeautiful and hospitable to the max.\u000a\u000aJust stayed again-January 2015. This place keeps getting better.\u000aIt's hard to imagine a more authentic experience in such beautiful surroundings.\u000aThe details are wonderful. It feels more like staying at the home of a gifted artist friend than any lodging I've ever been to. \u000a\u000aCannot recommend more highly.  Five stars *****\u000a\u000a
p67
sVauthor_name
p68
VDoug Elliott
p69
sVauthor_url
p70
Vhttps://plus.google.com/111434664268395729460
p71
sVtime
p72
I1422141501
sa(dp73
Vrating
p74
I5
sVaspects
p75
(lp76
(dp77
Vrating
p78
I3
sVtype
p79
Voverall
p80
sasVlanguage
p81
Ven
p82
sVtext
p83
VOne of kind hospitality and atmosphere, relaxing home away from home, the best with a wonderful Innkeeper , Karen!!
p84
sVauthor_name
p85
VKevin Donovan
p86
sVauthor_url
p87
Vhttps://plus.google.com/106850978572705362184
p88
sVtime
p89
I1420663439
sa(dp90
Vrating
p91
I5
sVaspects
p92
(lp93
(dp94
Vrating
p95
I3
sVtype
p96
Voverall
p97
sasVprofile_photo_url
p98
V//lh5.googleusercontent.com/-0_rWIPiwJnM/AAAAAAAAAAI/AAAAAAAAAY4/yOhpbLe1uGc/photo.jpg
p99
sVlanguage
p100
Ven
p101
sVtext
p102
V
sVauthor_name
p103
VElizabeth Johnson
p104
sVauthor_url
p105
Vhttps://plus.google.com/102824160332271378729
p106
sVtime
p107
I1457903268
sa(dp108
Vrating
p109
I4
sVaspects
p110
(lp111
(dp112
Vrating
p113
I2
sVtype
p114
Voverall
p115
sasVprofile_photo_url
p116
V//lh6.googleusercontent.com/-fS8AjO1hZd8/AAAAAAAAAAI/AAAAAAAD4ko/OjwJTjIPQLo/photo.jpg
p117
sVlanguage
p118
Ven
p119
sVtext
p120
V
sVauthor_name
p121
VJohn LaBarre
p122
sVauthor_url
p123
Vhttps://plus.google.com/107209936799463307236
p124
sVtime
p125
I1325448312
sasVformatted_phone_number
p126
V(415) 663-1166
p127
sVscope
p128
VGOOGLE
p129
sVurl
p130
Vhttps://maps.google.com/?cid=8318704009535830662
p131
sVopening_hours
p132
(dp133
Vweekday_text
p134
(lp135
VMonday: 9:00 AM \u2013 5:00 PM
p136
aVTuesday: 9:00 AM \u2013 5:00 PM
p137
aVWednesday: 9:00 AM \u2013 5:00 PM
p138
aVThursday: 9:00 AM \u2013 5:00 PM
p139
aVFriday: 9:00 AM \u2013 5:00 PM
p140
aVSaturday: 9:00 AM \u2013 5:00 PM
p141
aVSunday: 9:00 AM \u2013 5:00 PM
p142
asVopen_now
p143
I00
sVperiods
p144
(lp145
(dp146
Vclose
p147
(dp148
Vday
p149
I0
sVtime
p150
V1700
p151
ssVopen
p152
(dp153
Vday
p154
I0
sVtime
p155
V0900
p156
ssa(dp157
Vclose
p158
(dp159
Vday
p160
I1
sVtime
p161
V1700
p162
ssVopen
p163
(dp164
Vday
p165
I1
sVtime
p166
V0900
p167
ssa(dp168
Vclose
p169
(dp170
Vday
p171
I2
sVtime
p172
V1700
p173
ssVopen
p174
(dp175
Vday
p176
I2
sVtime
p177
V0900
p178
ssa(dp179
Vclose
p180
(dp181
Vday
p182
I3
sVtime
p183
V1700
p184
ssVopen
p185
(dp186
Vday
p187
I3
sVtime
p188
V0900
p189
ssa(dp190
Vclose
p191
(dp192
Vday
p193
I4
sVtime
p194
V1700
p195
ssVopen
p196
(dp197
Vday
p198
I4
sVtime
p199
V0900
p200
ssa(dp201
Vclose
p202
(dp203
Vday
p204
I5
sVtime
p205
V1700
p206
ssVopen
p207
(dp208
Vday
p209
I5
sVtime
p210
V0900
p211
ssa(dp212
Vclose
p213
(dp214
Vday
p215
I6
sVtime
p216
V1700
p217
ssVopen
p218
(dp219
Vday
p220
I6
sVtime
p221
V0900
p222
ssassVaddress_components
p223
(lp224
(dp225
Vlong_name
p226
V11559
p227
sVtypes
p228
(lp229
Vstreet_number
p230
asVshort_name
p231
V11559
p232
sa(dp233
Vlong_name
p234
VCalifornia 1
p235
sVtypes
p236
(lp237
Vroute
p238
asVshort_name
p239
VCA-1
p240
sa(dp241
Vlong_name
p242
VPoint Reyes Station
p243
sVtypes
p244
(lp245
Vlocality
p246
aVpolitical
p247
asVshort_name
p248
VPoint Reyes Station
p249
sa(dp250
Vlong_name
p251
VCalifornia
p252
sVtypes
p253
(lp254
Vadministrative_area_level_1
p255
aVpolitical
p256
asVshort_name
p257
VCA
p258
sa(dp259
Vlong_name
p260
VUnited States
p261
sVtypes
p262
(lp263
Vcountry
p264
aVpolitical
p265
asVshort_name
p266
VUS
p267
sa(dp268
Vlong_name
p269
V94956
p270
sVtypes
p271
(lp272
Vpostal_code
p273
asVshort_name
p274
V94956
p275
sasVformatted_address
p276
V11559 CA-1, Point Reyes Station, CA 94956, United States
p277
sVid
p278
V750a7ca42674b50b751550503250902475f52c44
p279
sVtypes
p280
(lp281
Vlodging
p282
aVpoint_of_interest
p283
aVestablishment
p284
asVicon
p285
Vhttps://maps.gstatic.com/mapfiles/place_api/icons/lodging-71.png
p286
s.