(dp1
Vwebsite
p2
Vhttp://www.pointreyesseashore.com/
p3
sVrating
p4
cdecimal
Decimal
p5
(S'4.1'
tRp6
sVutc_offset
p7
I-420
sVuser_ratings_total
p8
I16
sVname
p9
VPoint Reyes Seashore Lodge
p10
sVreference
p11
VCnRuAAAACU3MDbh-6W5-5MpK4JdIr00WnptzT-hnI8VwJWNK-scrtjn9A7SJzubq60i_TdPo-VZwR6dKNOfVjfBhw2SY_CSwMv2b4HgQYuMJm1rfZT8_yN3jHyQCA4YS76i29VCMt7SMor9bYuKQdH97wyT42xIQY8t_rKyZpw0Slz4wSRKArBoUnDR1NL5xfPF11aQzYE_GGppgntk
p12
sVphotos
p13
(lp14
(dp15
Vphoto_reference
p16
VCmRdAAAA46yQBe2OEHE08ZLOEoTBC2NBWP22UWH1fx9KAFbrXE-V8E0iaDoipdoy2n9LNf86TsL_HIk780lk0DlBmryUQhgHRSM75ODz11Qxxosnkujjv2FizyeXRxu0DPtJ1y8jEhBhpmgNBvwTBahVJwB4vb7RGhQV9XbYQTyh1dKAKuy89_H7bvNaow
p17
sVwidth
p18
I2048
sVhtml_attributions
p19
(lp20
V<a href="https://maps.google.com/maps/contrib/104085498919656441711/photos">Point Reyes Seashore Lodge</a>
p21
asVheight
p22
I1365
sa(dp23
Vphoto_reference
p24
VCmRdAAAAAHd8mJ7-0f0Gtz3oxtj4XoNjHNvEhusNKaiunyPrXpfOwb6wR466HBa0cv2d2iIEYhDBfw_YUt6qSzoxPiXXBRk_fqlABW2m_urAQPxxjwDRva6l6gpQXec9iNuyE_ozEhBAbufzkCDWuM7ea4oi1jPkGhRRW5RGsCWf48Rdrf1aevXb9uKCCA
p25
sVwidth
p26
I1811
sVhtml_attributions
p27
(lp28
V<a href="https://maps.google.com/maps/contrib/104085498919656441711/photos">Point Reyes Seashore Lodge</a>
p29
asVheight
p30
I1200
sa(dp31
Vphoto_reference
p32
VCmRdAAAAgjFVSZhj66OsSGXEgLzMf5QfByfFI25-rin970g2HJfHXWGz85nnx2PLDjTtCrCZMWqO_SdD-xHpKZ8khrSrbI7oEL4Wsjn5mzQArD-PrRZ4x_jaVmJAm10Bo8UfLGQlEhC39IRDzpvQUJrQXkJbfqdnGhQS4ULMKugj3yDJaCi6XO53kUXgDQ
p33
sVwidth
p34
I1032
sVhtml_attributions
p35
(lp36
V<a href="https://maps.google.com/maps/contrib/105097673830275787844/photos">Mike Almason</a>
p37
asVheight
p38
I774
sa(dp39
Vphoto_reference
p40
VCmRdAAAAh3BRUtkGALq_TyBsrHhW9RxpGcsxMREF0jUslWoPJYCzmOPPMpaJU7fP3gBS4aemRcy4QGzxyVuFaUz8GsaMLfVib1mU6mfO-5QruDgGqs2DvTnLrYumj7x6KJNw_N0vEhARhJxJCmTjQAekiAt9iTT2GhTow05D_MkwpAZgoODtxOdwabrRaw
p41
sVwidth
p42
I1032
sVhtml_attributions
p43
(lp44
V<a href="https://maps.google.com/maps/contrib/105097673830275787844/photos">Mike Almason</a>
p45
asVheight
p46
I774
sa(dp47
Vphoto_reference
p48
VCmRdAAAA8BrDy66_vT2mSMerSJOxsP_AH-5WEvcFFn-DgMgkW26ezqGG7b9k6WWAM_BWMK406xUjP8ZVDw78zZldPnICqa-g3rqB17JHZjjQj-wVxMmVTbNQxt0V-U_xqZ4HP1kgEhDpw24lExWLhiaslbyBZcsjGhQ9fkGoBytdivg7HsrIBOBhFaJMzQ
p49
sVwidth
p50
I1032
sVhtml_attributions
p51
(lp52
V<a href="https://maps.google.com/maps/contrib/105097673830275787844/photos">Mike Almason</a>
p53
asVheight
p54
I774
sasVgeometry
p55
(dp56
Vlocation
p57
(dp58
Vlat
p59
g5
(S'38.0408283'
tRp60
sVlng
p61
g5
(S'-122.7884277'
tRp62
sssVadr_address
p63
V10021 Coastal Highway 1, <span class="locality">Olema</span>, <span class="region">CA</span> <span class="postal-code">94950</span>, <span class="country-name">United States</span>
p64
sVplace_id
p65
VChIJZUp-4J8HjoARLgMqQJv936o
p66
sVinternational_phone_number
p67
V+1 415-663-9000
p68
sVvicinity
p69
V10021 Coastal Highway 1, Olema
p70
sVreviews
p71
(lp72
(dp73
Vrating
p74
I5
sVaspects
p75
(lp76
(dp77
Vrating
p78
I3
sVtype
p79
Voverall
p80
sasVprofile_photo_url
p81
V//lh3.googleusercontent.com/-LAAfP0jvL_8/AAAAAAAAAAI/AAAAAAAAEnk/EdvdT2ttcxg/photo.jpg
p82
sVlanguage
p83
Ven
p84
sVtext
p85
VBooked the Audubon suite for an important weekend with my partner. Everything went exceptionally smoothly, including the booking, check in, and working with the staff. I'm in love with the room particularly, the fireplace is a particular winner. The grounds are gorgeous, the breakfast is tasty, amenities are nice. Fun location about 1hr10min out from San Francisco. \u000a\u000aWe'll definitely be staying here again! 
p86
sVauthor_name
p87
VArt Lansing
p88
sVauthor_url
p89
Vhttps://plus.google.com/102943052644319425543
p90
sVtime
p91
I1447568764
sa(dp92
Vrating
p93
I4
sVaspects
p94
(lp95
(dp96
Vrating
p97
I2
sVtype
p98
Voverall
p99
sasVprofile_photo_url
p100
V//lh6.googleusercontent.com/-FVgHZo_C9wE/AAAAAAAAAAI/AAAAAAAAAJM/glkPI8rgbD4/photo.jpg
p101
sVlanguage
p102
Ven
p103
sVtext
p104
VWe stayed here for one night and wished it had been longer. Everyone was very attentive. The rooms were nice and the gardens were lovely. We found ourselves relaxing in the chairs drinking wine in the evening and coffee in the morning just enjoying the garden views. The fireside breakfast was great and selection was above average. 
p105
sVauthor_name
p106
VAna Pierpont
p107
sVauthor_url
p108
Vhttps://plus.google.com/112994600494986588044
p109
sVtime
p110
I1447428543
sa(dp111
Vrating
p112
I5
sVaspects
p113
(lp114
(dp115
Vrating
p116
I3
sVtype
p117
Voverall
p118
sasVprofile_photo_url
p119
V//lh4.googleusercontent.com/-jTItKO0fq3o/AAAAAAAAAAI/AAAAAAAAAtU/xKRKCLkWRc8/photo.jpg
p120
sVlanguage
p121
Ven
p122
sVtext
p123
VA bit noisy if you have loud walkers upstairs (more than usual) and it's a bit pricey, but solid room and amazing breakfast spread make it a nice stop!
p124
sVauthor_name
p125
VMike DiScala
p126
sVauthor_url
p127
Vhttps://plus.google.com/109325248137502717968
p128
sVtime
p129
I1459747267
sa(dp130
Vrating
p131
I3
sVaspects
p132
(lp133
(dp134
Vrating
p135
I1
sVtype
p136
Voverall
p137
sasVprofile_photo_url
p138
V//lh4.googleusercontent.com/-7Q9fyAF5srg/AAAAAAAAAAI/AAAAAAAANO8/uyelpk9Snho/photo.jpg
p139
sVlanguage
p140
Ven
p141
sVtext
p142
VClean and a nice breakfast, location is convenient near highway 1, but the lodge is not seashore, it's about 20 mins drive to the sea shore through the national park.
p143
sVauthor_name
p144
VSimon Clegg
p145
sVauthor_url
p146
Vhttps://plus.google.com/113381397947770015072
p147
sVtime
p148
I1461212108
sa(dp149
Vrating
p150
I3
sVaspects
p151
(lp152
(dp153
Vrating
p154
I1
sVtype
p155
Voverall
p156
sasVprofile_photo_url
p157
V//lh3.googleusercontent.com/-ANAReySqvp8/AAAAAAAAAAI/AAAAAAAAACM/nIeWWNCLtr8/photo.jpg
p158
sVlanguage
p159
Ven
p160
sVtext
p161
VThe food was medicine and the service ws not as pleasent.
p162
sVauthor_name
p163
VSean Nguyen
p164
sVauthor_url
p165
Vhttps://plus.google.com/106011364523429271762
p166
sVtime
p167
I1455775067
sasVformatted_phone_number
p168
V(415) 663-9000
p169
sVurl
p170
Vhttps://maps.google.com/?cid=12312838749492478766
p171
sVscope
p172
VGOOGLE
p173
sVaddress_components
p174
(lp175
(dp176
Vlong_name
p177
VOlema
p178
sVtypes
p179
(lp180
Vlocality
p181
aVpolitical
p182
asVshort_name
p183
VOlema
p184
sa(dp185
Vlong_name
p186
VCalifornia
p187
sVtypes
p188
(lp189
Vadministrative_area_level_1
p190
aVpolitical
p191
asVshort_name
p192
VCA
p193
sa(dp194
Vlong_name
p195
VUnited States
p196
sVtypes
p197
(lp198
Vcountry
p199
aVpolitical
p200
asVshort_name
p201
VUS
p202
sa(dp203
Vlong_name
p204
V94950
p205
sVtypes
p206
(lp207
Vpostal_code
p208
asVshort_name
p209
V94950
p210
sasVformatted_address
p211
V10021 Coastal Highway 1, Olema, CA 94950, United States
p212
sVid
p213
Vee4b870ba3ed51fc2d25544b4d9853debdbbae27
p214
sVtypes
p215
(lp216
Vlodging
p217
aVpoint_of_interest
p218
aVestablishment
p219
asVicon
p220
Vhttps://maps.gstatic.com/mapfiles/place_api/icons/lodging-71.png
p221
s.