(dp1
Vrating
p2
cdecimal
Decimal
p3
(S'4.3'
tRp4
sVreference
p5
VCmRcAAAAZMjN26xJONU0YlWiKBBvfPQng2VEqm7QZUd2FvJSaTJc_2ArXiHlndM9FFFMXxZ64i4K3WY04Nwra2uuagRVBhll7pBhaTneLvSpXmKBqiwY5YZHf5X8zVj5FgIdWBTgEhBkOynk2NZa9Jb2jqOSggn_GhSChVqhOnDf2GpQ_2hZwZSsCIAbug
p6
sVprice_level
p7
I3
sVplace_id
p8
VChIJ5VjkK4aAhYAR4JdQs3IUjQA
p9
sVurl
p10
Vhttps://maps.google.com/?cid=39710454583433184
p11
sVformatted_address
p12
V20 Yerba Buena Ln, San Francisco, CA 94103, United States
p13
sVid
p14
V34239fd357d200b3733f28743c86b0175bb7c9ac
p15
sVopening_hours
p16
(dp17
Vweekday_text
p18
(lp19
VMonday: 4:00 \u2013 11:00 PM
p20
aVTuesday: 4:00 \u2013 11:00 PM
p21
aVWednesday: 4:00 \u2013 11:00 PM
p22
aVThursday: 4:00 \u2013 11:00 PM
p23
aVFriday: 2:00 PM \u2013 12:00 AM
p24
aVSaturday: 2:00 PM \u2013 12:00 AM
p25
aVSunday: 2:00 \u2013 8:00 PM
p26
asVopen_now
p27
I00
sVperiods
p28
(lp29
(dp30
Vclose
p31
(dp32
Vday
p33
I0
sVtime
p34
V2000
p35
ssVopen
p36
(dp37
Vday
p38
I0
sVtime
p39
V1400
p40
ssa(dp41
Vclose
p42
(dp43
Vday
p44
I1
sVtime
p45
V2300
p46
ssVopen
p47
(dp48
Vday
p49
I1
sVtime
p50
V1600
p51
ssa(dp52
Vclose
p53
(dp54
Vday
p55
I2
sVtime
p56
V2300
p57
ssVopen
p58
(dp59
Vday
p60
I2
sVtime
p61
V1600
p62
ssa(dp63
Vclose
p64
(dp65
Vday
p66
I3
sVtime
p67
V2300
p68
ssVopen
p69
(dp70
Vday
p71
I3
sVtime
p72
V1600
p73
ssa(dp74
Vclose
p75
(dp76
Vday
p77
I4
sVtime
p78
V2300
p79
ssVopen
p80
(dp81
Vday
p82
I4
sVtime
p83
V1600
p84
ssa(dp85
Vclose
p86
(dp87
Vday
p88
I6
sVtime
p89
V0000
p90
ssVopen
p91
(dp92
Vday
p93
I5
sVtime
p94
V1400
p95
ssa(dp96
Vclose
p97
(dp98
Vday
p99
I0
sVtime
p100
V0000
p101
ssVopen
p102
(dp103
Vday
p104
I6
sVtime
p105
V1400
p106
ssassVvicinity
p107
V20 Yerba Buena Lane, San Francisco
p108
sVscope
p109
VGOOGLE
p110
sVwebsite
p111
Vhttp://www.pressclubsf.com/
p112
sVutc_offset
p113
I-420
sVuser_ratings_total
p114
I143
sVphotos
p115
(lp116
(dp117
Vphoto_reference
p118
VCoQBdwAAAIT_xUYpvqADSVMXh8BSV1mi853fxM2-OYfxSax4_gT9jRPtsUa-YSfBZvQOyPX2_b0GERcGb1uw2LZhbu1VfuYGDnXJDj9BjGkkEaC5y-5qHZBuKD1pM7Pk2yxiAFIg9A8yl8WerwOOlXiJOFs6M3cnyH1X1rXXZ2GyvXOCcdLiEhBLa-yAdGEAUeopjdMW_EFfGhSqdUmm_GV627Nyw8qspZAIRjOKUg
p119
sVwidth
p120
I3264
sVhtml_attributions
p121
(lp122
V<a href="https://maps.google.com/maps/contrib/102175648707380307385/photos">Sellers Family</a>
p123
asVheight
p124
I2448
sa(dp125
Vphoto_reference
p126
VCmRdAAAAx_o-_9_MndkUuujB8eaosa3uqZ2UhyDD3-uvzPVdPffMhA7clOod34qCQL3U_zVLNzuImXc52X64MbiFa1tei9drEj7Fx3uOuv57wu16g8eSD3dTKclAKn8ET9worencEhCwXNqTJz6cz2HdR9m2VLZiGhSTfA8sUEVDrjQtHR8cwO4FzYsqWg
p127
sVwidth
p128
I640
sVhtml_attributions
p129
(lp130
V<a href="https://maps.google.com/maps/contrib/101374000368245616924/photos">Press Club</a>
p131
asVheight
p132
I339
sa(dp133
Vphoto_reference
p134
VCmRdAAAAQKirUqj6nW1JNG8xmK301DgU2Ri_17jaFDaF8hI46v4yh_hiCkw5Qd02sxvSpzKetRg4P7mmO-XfN1qXLEmkrDUWWZ2U9QbY-6_IxhHENBTfMqU42EEC3FeUJIYQx9PqEhDBI5-9dIOeanlhKCarB6rkGhQXDDzthMef0rGJMNxive9rXBaKcw
p135
sVwidth
p136
I640
sVhtml_attributions
p137
(lp138
V<a href="https://maps.google.com/maps/contrib/110075723435494449220/photos">Michelle Wong</a>
p139
asVheight
p140
I640
sa(dp141
Vphoto_reference
p142
VCmRdAAAAn4A9D2ol7Eqd35g7BPGBHKtOz2GvRl0DaNh2upnSAy8EfMcUr6DeV2NPyoniXlmYJ7KERG7h7dOrY3jgECmXUE1-sCp3S3LLtghqDnQHot-S5yJURnZwi5B-cV6elJPKEhAKg2DOI2EEks2ZBAwhLypoGhTVEgcQ7gEsFpFXb3sH1XWzpiD2jQ
p143
sVwidth
p144
I535
sVhtml_attributions
p145
(lp146
V<a href="https://maps.google.com/maps/contrib/117861407115312882356/photos">jhun manuel garcia</a>
p147
asVheight
p148
I302
sa(dp149
Vphoto_reference
p150
VCoQBdwAAADnMOtlzZibh6SIxVfwuLQRaxiAXJKaKTR4ZUnbSFVA3vOyWWqKvUIBjwpsGPKIfUyUumE94O0fwsJqQ0E8ht9KwQxsxO-gGnYzeblC9G0MTcEAOpOUnHKPYyEqRGp1zHLPG-iKcxbvnoihB4ohvRLHaHqAtkhEEH4i2fmfN43qBEhCW7gCXpr1gSS0OhvaL4qZkGhTlPF8c4ARsgSxQiLRwR-NbfmLpTQ
p151
sVwidth
p152
I4032
sVhtml_attributions
p153
(lp154
V<a href="https://maps.google.com/maps/contrib/115039204753802038457/photos">Shenglong Gao</a>
p155
asVheight
p156
I3024
sa(dp157
Vphoto_reference
p158
VCmRdAAAA8NoBHqoCyCI8NdjvuXq3a4S43fRscXb9x63AhsCxSGw3OCcwePrAZwomxwegwc7zvMhvDp8fFrTjiJTefvBfhUm7Kuw9UZgksOJqV7B16uF47583DErdFXfsTDjYVzZ7EhCXoOL1SQBNXRO_9zjggv-MGhScVE1Cp92OBdRt4oIfgaadx8RrEw
p159
sVwidth
p160
I1536
sVhtml_attributions
p161
(lp162
V<a href="https://maps.google.com/maps/contrib/109205144679654268249/photos">Amy Higgins</a>
p163
asVheight
p164
I2048
sa(dp165
Vphoto_reference
p166
VCmRdAAAABMA0M1MFxI_5g-KGS9E04qPGmMeV3q3Ky0x1BQmmNa9xO7GpOoaM-mpaTSgq1eWxh8RzW0HoFqoO7dUDrmDlhYrjIMyL9nv2oOA3x8lluI97G14p3aBgUR8xaDlSrLK1EhDxnS7mE3rZxRpU484KW7KoGhRk7_PBdLeotQr3CKnSlva8c0D1xw
p167
sVwidth
p168
I976
sVhtml_attributions
p169
(lp170
V<a href="https://maps.google.com/maps/contrib/104054615564975632009/photos">Sukhjit Ghag</a>
p171
asVheight
p172
I1632
sa(dp173
Vphoto_reference
p174
VCmRdAAAA8dPjeqZpxyBs-SJOGuWspDoMVpDNAyIkaUhYW2s3SdJY0sWLVYynTVQTZTkMK2047NVdJCC2OyzPNjPZ8xwIi6lhAFA5hN-fcTWu-7aqHi71qb5OMC2-tU4xXa3LHC56EhCf3zl3gg_Ien_wCu1uutRKGhRZz_BbwFNuOm5ud_EDz-qe93GWyQ
p175
sVwidth
p176
I768
sVhtml_attributions
p177
(lp178
V<a href="https://maps.google.com/maps/contrib/115075780929632244990/photos">Rick Johnson</a>
p179
asVheight
p180
I1024
sa(dp181
Vphoto_reference
p182
VCoQBcwAAABOAnwEIRPMDJ6ZsnKmtuhspztf0Q0fGO2_MvWnfpFutV9hJdg_0cHQgfy42WafguBzWM2__iCyRnvR8P4h56V-OT1hRpgKyXju_k-5O7NWaDS1qU1kXGghf-tA5UA7Gup_ZDcsJO9rBh5V_OMZIBTgB1XTdOGKcSHMjOMy2ZAw1EhBTm7XJVyZcE0E2BC5F8lG4GhQKJhzS-wR32_xMmUIn2_MKah_rpw
p183
sVwidth
p184
I2988
sVhtml_attributions
p185
(lp186
V<a href="https://maps.google.com/maps/contrib/100275637557074554059/photos">Travis Illig</a>
p187
asVheight
p188
I5312
sa(dp189
Vphoto_reference
p190
VCmRdAAAAml7aW6ES2iu35ROsY1LlIMXrSH3YbrE8kMGL_QJagCJ6jUudRFbt-vMSxW91TRjUSHCstpvCrChxpKybtFOYl5meof4ep3bm876AmvUwiDCk_1QrKlMLc457qqUdls_bEhDgLBJbXWKJfv3rYmrN_BZZGhSp7E4HG_cgBN2ktDdhTlW8goPo8Q
p191
sVwidth
p192
I1536
sVhtml_attributions
p193
(lp194
V<a href="https://maps.google.com/maps/contrib/109205144679654268249/photos">Amy Higgins</a>
p195
asVheight
p196
I2048
sasVtypes
p197
(lp198
Vfood
p199
aVbar
p200
aVpoint_of_interest
p201
aVestablishment
p202
asVicon
p203
Vhttps://maps.gstatic.com/mapfiles/place_api/icons/bar-71.png
p204
sVname
p205
VPress Club
p206
sVgeometry
p207
(dp208
Vaccess_points
p209
(lp210
(dp211
Vtravel_modes
p212
(lp213
VDRIVING
p214
aVBICYCLING
p215
aVWALKING
p216
aVTRANSIT
p217
asVlocation
p218
(dp219
Vlat
p220
g3
(S'37.7859469'
tRp221
sVlng
p222
g3
(S'-122.404547'
tRp223
ssasVlocation
p224
(dp225
Vlat
p226
g3
(S'37.78612979999999'
tRp227
sVlng
p228
g3
(S'-122.4043144'
tRp229
sssVadr_address
p230
V<span class="street-address">20 Yerba Buena Ln</span>, <span class="locality">San Francisco</span>, <span class="region">CA</span> <span class="postal-code">94103</span>, <span class="country-name">United States</span>
p231
sVinternational_phone_number
p232
V+1 415-744-5000
p233
sVreviews
p234
(lp235
(dp236
Vrating
p237
I1
sVaspects
p238
(lp239
(dp240
Vrating
p241
I0
sVtype
p242
Voverall
p243
sasVlanguage
p244
Ven
p245
sVtext
p246
VAfter arriving at press club it took us over 45 minutes to get our first round. The food was mediocre and extremely overpriced. When we asked the staff if the portions of food we ordered was a regular amount the server literally rolled her eyes, didn't realize we were so bothersome with our ridiculous "is it really $17 for 3 pieces of cheese" question. The wine was meh, until I ordered a $300 bottle of cab. If you're willing to drop $500 for overpriced drinks/food and don't care about how you're treated then this place will work for you.
p247
sVauthor_name
p248
VSteve Winchester
p249
sVauthor_url
p250
Vhttps://plus.google.com/113358205802733944418
p251
sVtime
p252
I1460850088
sa(dp253
Vrating
p254
I4
sVaspects
p255
(lp256
(dp257
Vrating
p258
I2
sVtype
p259
Voverall
p260
sasVprofile_photo_url
p261
V//lh3.googleusercontent.com/-K6d1R4r_F8s/AAAAAAAAAAI/AAAAAAAAABo/cIEH8WzGF1I/photo.jpg
p262
sVlanguage
p263
Ven
p264
sVtext
p265
VThis place is cool!! Really fun ambience -- it's in the basement but doesn't feel too dark or claustrophobic. Great food -- albeit pricey/small portions (it is SF after all). Would definitely come back for drinks. Tons of seating 
p266
sVauthor_name
p267
VSofie Thixton
p268
sVauthor_url
p269
Vhttps://plus.google.com/112000814392211433286
p270
sVtime
p271
I1458544108
sa(dp272
Vrating
p273
I4
sVaspects
p274
(lp275
(dp276
Vrating
p277
I2
sVtype
p278
Voverall
p279
sasVprofile_photo_url
p280
V//lh6.googleusercontent.com/-XJde-Xu2uvQ/AAAAAAAAAAI/AAAAAAAADQ4/XAF0OijUWjk/photo.jpg
p281
sVlanguage
p282
Ven
p283
sVtext
p284
VHappy hour scene with a great DJ. Wish they offered cocktails, but it's still a nice vibe. Good layout, easy to get to the bar and find space/seats.
p285
sVauthor_name
p286
VRishita Patel
p287
sVauthor_url
p288
Vhttps://plus.google.com/115422078515754641489
p289
sVtime
p290
I1454610297
sa(dp291
Vrating
p292
I5
sVaspects
p293
(lp294
(dp295
Vrating
p296
I3
sVtype
p297
Voverall
p298
sasVprofile_photo_url
p299
V//lh4.googleusercontent.com/-QxaJPS67BsY/AAAAAAAAAAI/AAAAAAAAeUA/1M7pOsHmvyc/photo.jpg
p300
sVlanguage
p301
Ven
p302
sVtext
p303
VAwesome wine bar! Great music with DJ, very good food, cool clientele. 
p304
sVauthor_name
p305
VChristopher Sheehan
p306
sVauthor_url
p307
Vhttps://plus.google.com/118267411757001592506
p308
sVtime
p309
I1456032839
sa(dp310
Vrating
p311
I4
sVaspects
p312
(lp313
(dp314
Vrating
p315
I2
sVtype
p316
Voverall
p317
sasVprofile_photo_url
p318
V//lh3.googleusercontent.com/-3eA7vusGLks/AAAAAAAAAAI/AAAAAAAAs7M/UhsVKDiW0c0/photo.jpg
p319
sVlanguage
p320
Ven
p321
sVtext
p322
VThis place was good, not really casual though. Drink prices were okay, selection was decent.
p323
sVauthor_name
p324
VJP Loingsigh
p325
sVauthor_url
p326
Vhttps://plus.google.com/106877015704802860889
p327
sVtime
p328
I1457457901
sasVformatted_phone_number
p329
V(415) 744-5000
p330
sVaddress_components
p331
(lp332
(dp333
Vlong_name
p334
V20
p335
sVtypes
p336
(lp337
Vstreet_number
p338
asVshort_name
p339
V20
p340
sa(dp341
Vlong_name
p342
VYerba Buena Lane
p343
sVtypes
p344
(lp345
Vroute
p346
asVshort_name
p347
VYerba Buena Ln
p348
sa(dp349
Vlong_name
p350
VSan Francisco
p351
sVtypes
p352
(lp353
Vlocality
p354
aVpolitical
p355
asVshort_name
p356
VSF
p357
sa(dp358
Vlong_name
p359
VCalifornia
p360
sVtypes
p361
(lp362
Vadministrative_area_level_1
p363
aVpolitical
p364
asVshort_name
p365
VCA
p366
sa(dp367
Vlong_name
p368
VUnited States
p369
sVtypes
p370
(lp371
Vcountry
p372
aVpolitical
p373
asVshort_name
p374
VUS
p375
sa(dp376
Vlong_name
p377
V94103
p378
sVtypes
p379
(lp380
Vpostal_code
p381
asVshort_name
p382
V94103
p383
sas.