(dp1
Vrating
p2
cdecimal
Decimal
p3
(S'4.6'
tRp4
sVreference
p5
VCnRpAAAAPR8sw1KWM6slWZBzvqkOEkAxFAfGnOpg5syA1U5Mw9tXvMWAo5Nb0pQQyE9gSV25_nWYqz-7hFL9HGav66Ubis6bO6nqX2e6vMdWg5l0xATB7B-EDtK447XD4gBDDqi1tw9pgC8M0TNiVhhdw3DLfxIQhcvIORNn9PQUpZ6L3DEzsBoU7sGrPOYkmLjwUa7uOPgIb79QysA
p6
sVplace_id
p7
VChIJQRWV0WKIj4AREtwLqNxJxs4
p8
sVurl
p9
Vhttps://maps.google.com/?cid=14899677629262846994
p10
sVformatted_address
p11
V7867 Redwood Rd, Oakland, CA 94619, United States
p12
sVid
p13
V1cba01e684a0dc78a4ca04364b44f1db4a291a60
p14
sVopening_hours
p15
(dp16
Vweekday_text
p17
(lp18
VMonday: 5:00 AM \u2013 10:00 PM
p19
aVTuesday: 5:00 AM \u2013 10:00 PM
p20
aVWednesday: 5:00 AM \u2013 10:00 PM
p21
aVThursday: 5:00 AM \u2013 10:00 PM
p22
aVFriday: 5:00 AM \u2013 10:00 PM
p23
aVSaturday: 5:00 AM \u2013 10:00 PM
p24
aVSunday: 5:00 AM \u2013 10:00 PM
p25
asVopen_now
p26
I01
sVperiods
p27
(lp28
(dp29
Vclose
p30
(dp31
Vday
p32
I0
sVtime
p33
V2200
p34
ssVopen
p35
(dp36
Vday
p37
I0
sVtime
p38
V0500
p39
ssa(dp40
Vclose
p41
(dp42
Vday
p43
I1
sVtime
p44
V2200
p45
ssVopen
p46
(dp47
Vday
p48
I1
sVtime
p49
V0500
p50
ssa(dp51
Vclose
p52
(dp53
Vday
p54
I2
sVtime
p55
V2200
p56
ssVopen
p57
(dp58
Vday
p59
I2
sVtime
p60
V0500
p61
ssa(dp62
Vclose
p63
(dp64
Vday
p65
I3
sVtime
p66
V2200
p67
ssVopen
p68
(dp69
Vday
p70
I3
sVtime
p71
V0500
p72
ssa(dp73
Vclose
p74
(dp75
Vday
p76
I4
sVtime
p77
V2200
p78
ssVopen
p79
(dp80
Vday
p81
I4
sVtime
p82
V0500
p83
ssa(dp84
Vclose
p85
(dp86
Vday
p87
I5
sVtime
p88
V2200
p89
ssVopen
p90
(dp91
Vday
p92
I5
sVtime
p93
V0500
p94
ssa(dp95
Vclose
p96
(dp97
Vday
p98
I6
sVtime
p99
V2200
p100
ssVopen
p101
(dp102
Vday
p103
I6
sVtime
p104
V0500
p105
ssassVvicinity
p106
V7867 Redwood Road, Oakland
p107
sVscope
p108
VGOOGLE
p109
sVwebsite
p110
Vhttp://www.ebparks.org/parks/redwood
p111
sVutc_offset
p112
I-420
sVuser_ratings_total
p113
I76
sVphotos
p114
(lp115
(dp116
Vphoto_reference
p117
VCoQBcwAAANR8LhgBIxM-qLAdP3s4ZYwFbdVlyv4jGhElx5-exd1jSHfJ5sKK6CBMxS4yzfFo2VwkR7MXEWaHnnLlv0_zK8TlfbtLmqNHSaGdcByFC04U9RY5j45A6XPX1vGk0rt6ITE_fgUt4txoEkJE_OAj8XqbfJ6LMogkAawJoMLK8U3OEhD5W6Nnn0ZusIDmZq54kDArGhQZ7MK2dT8shIFzHTHY0-q3_Mw3bg
p118
sVwidth
p119
I3264
sVhtml_attributions
p120
(lp121
V<a href="https://maps.google.com/maps/contrib/115619047556375390506/photos">Devin Ramdutt</a>
p122
asVheight
p123
I2448
sa(dp124
Vphoto_reference
p125
VCmRdAAAAWDF2gzTZraclSxS206syXF8xnXfOojpD8bC3tDz0pLCHi7wM6FwfPOxjSyEH30QD9S3ttxfJKuLyXKyJ46Cs95BM6nUfG85F24uAiSfAtvIRrrXe9QCvGc9NkOojH7etEhBT39P1b6uQQsIGHRPQVxYAGhQwt9LvOQWlQxO3J1VL16fEJz2iNA
p126
sVwidth
p127
I2688
sVhtml_attributions
p128
(lp129
V<a href="https://maps.google.com/maps/contrib/104503129662662673597/photos">Brandon Harrington</a>
p130
asVheight
p131
I1520
sa(dp132
Vphoto_reference
p133
VCmRdAAAAsaLtZvK4heLGiUj_QO1JdrU0r7ArKCO_IuvSxXegSSaaeJS0eXU8IG_S1q5BgHsLqy82agnhr_NM7kw7-TXV_83JY32Vg7BGmrwhbIiBAwhRsBnJcAHyhqN184tNcx35EhAqFasJAdS61onZCVfr_-LvGhTKdMPt4NZcZGAgJ7bTtqNzD2fyOA
p134
sVwidth
p135
I2688
sVhtml_attributions
p136
(lp137
V<a href="https://maps.google.com/maps/contrib/104503129662662673597/photos">Brandon Harrington</a>
p138
asVheight
p139
I1520
sa(dp140
Vphoto_reference
p141
VCoQBcwAAAJMGtwproePOQiYPDCzC-DVwLQSGZSAaVJTthl_O5YOEn9X-OZgwAoJK_s7Ts66rmWf0jYG6yKHy_A1P5iFfM8eMt7fT0Wn5Lt_UkEvRrBknydSOifzYi6wDSn0-DERxypUjcqXMa7TYjs4k75oPI_Fg4JhmIsf57_zl8TNrE57cEhC0mbSHhwtZIAf2939jqL3IGhQCF52GfjUt7YVjXC4v98Psmwsv0w
p142
sVwidth
p143
I3024
sVhtml_attributions
p144
(lp145
V<a href="https://maps.google.com/maps/contrib/103165843238634425447/photos">Francine Lambeth</a>
p146
asVheight
p147
I3024
sa(dp148
Vphoto_reference
p149
VCmRdAAAAvz9BaBX8fiLWhQY4JAVOEABwOQ8_d-Joa_656ROD8_ZgiUmVMz9ZG0bSIgRgqPoOWifGz1ncz_51trs0guMJBgWld1_rVxu7F1G2u4ZSOywAuGSHm5H_65dus6It-9o2EhDZ_hNeWWeQ7BCO-B2wDiNUGhR9AC3Rwfrui895VjyoCTPua64SVA
p150
sVwidth
p151
I949
sVhtml_attributions
p152
(lp153
V<a href="https://maps.google.com/maps/contrib/104555464017237061050/photos">James Lin</a>
p154
asVheight
p155
I1265
sa(dp156
Vphoto_reference
p157
VCmRdAAAAoLI2-koP6GI6UQ76SEavcT9uTACZMY3lealcQlzflvEHZLWXMux67hcpsBWFEriuwt60RMfLFc78tYPMp9jrj3nuiDAJarwG4YfpmCtj47uC6w1o5-Xd-K-IHqDwXBZREhCKAQGwezK7poJ1i4WcI48uGhSnTwWGYvJX1d5wCQ91ajbqv8gYig
p158
sVwidth
p159
I2688
sVhtml_attributions
p160
(lp161
V<a href="https://maps.google.com/maps/contrib/104503129662662673597/photos">Brandon Harrington</a>
p162
asVheight
p163
I1520
sa(dp164
Vphoto_reference
p165
VCoQBcwAAAA3mZdGFQBeVNBPecZYEULxFCo7WEN1WhEmu0Za0xhWaRqUE9nmHVMd5AXR2Dy4Kz7eXkPRppBu-XN8NMkDRVeOX39y5za38Blu0WjP1BGJ7XVRC-N-jxUPN6NaKJhIVbJ4LuxJ5jDOiNOTgoPJY74Bt43ZS9Dz3S0rIi2Hfb1sSEhAyy6lxeNc8ibQjCnVVJkaMGhRP2Xzp6Ha5UBi-Nrf2hYX4zvXxNA
p166
sVwidth
p167
I3024
sVhtml_attributions
p168
(lp169
V<a href="https://maps.google.com/maps/contrib/103165843238634425447/photos">Francine Lambeth</a>
p170
asVheight
p171
I3024
sa(dp172
Vphoto_reference
p173
VCmRdAAAA0nOyirF887dAvQjtf4yvyGF2AHqx3hN5DZK2YjaBmJu-AGDSmkCqC7JsMn9PpPtXWsp2HCWDyRagkT6cFb5BTKXqnWCVoy_RWxGKh6cK88O_5LkAtYKpiGnoQ2t0FInoEhDgsYLW61PLc4hkAsXylTc4GhRlrI9Avfyd3FQAsIxmbLgwksACuQ
p174
sVwidth
p175
I1520
sVhtml_attributions
p176
(lp177
V<a href="https://maps.google.com/maps/contrib/104503129662662673597/photos">Brandon Harrington</a>
p178
asVheight
p179
I2688
sa(dp180
Vphoto_reference
p181
VCoQBcwAAAO6nctYwlz2FpaX3jujqSdKWyAz2Lh13t_ZSw6COU6Ty7uECZgiyRtEw-F44tk9fk8jI0il7aHL2MrVsR-n3h0ON7uA-v6ZEhcIaJbP7oRDk5ZAzYqy6uTvbYjH25yRSM4VQGq0bDvZ_PfvDu60pf8dOnjW5RS1lM3pRlj8eYI1QEhC2Zi7x0RX50R15kxU8N4PqGhTBY0lFUtQ5y36RxYy7LZI6KTc2nA
p182
sVwidth
p183
I2448
sVhtml_attributions
p184
(lp185
V<a href="https://maps.google.com/maps/contrib/115619047556375390506/photos">Devin Ramdutt</a>
p186
asVheight
p187
I3264
sa(dp188
Vphoto_reference
p189
VCmRdAAAAgWIYnoqznHIRnY7zEKBwasiEv0y-kHVwn36bDxaxRn-JTn6WFU0kvp6KXEP5OaEQ6gdcU3x9wKjhBaHxsglPxA_LCZUSwhiytG0Eh4yFKTNHRFF--dZL00OFiI8RWaJ-EhC5FrmTIJ3pNcGL7UiDmi68GhRqPJo8V7KVyOH0tXZTGDl6BSz4xA
p190
sVwidth
p191
I1096
sVhtml_attributions
p192
(lp193
V<a href="https://maps.google.com/maps/contrib/108778750031128645602/photos">Sante Salvoni</a>
p194
asVheight
p195
I1096
sasVtypes
p196
(lp197
Vpark
p198
aVpoint_of_interest
p199
aVestablishment
p200
asVicon
p201
Vhttps://maps.gstatic.com/mapfiles/place_api/icons/generic_recreational-71.png
p202
sVname
p203
VRedwood Regional Park
p204
sVgeometry
p205
(dp206
Vaccess_points
p207
(lp208
(dp209
Vtravel_modes
p210
(lp211
VDRIVING
p212
aVTRANSIT
p213
asVlocation
p214
(dp215
Vlat
p216
g3
(S'37.8004262'
tRp217
sVlng
p218
g3
(S'-122.1450743'
tRp219
ssa(dp220
Vtravel_modes
p221
(lp222
VDRIVING
p223
aVTRANSIT
p224
asVlocation
p225
(dp226
Vlat
p227
g3
(S'37.8317177'
tRp228
sVlng
p229
g3
(S'-122.1852685'
tRp230
ssasVlocation
p231
(dp232
Vlat
p233
g3
(S'37.8138747'
tRp234
sVlng
p235
g3
(S'-122.1660901'
tRp236
sssVadr_address
p237
V<span class="street-address">7867 Redwood Rd</span>, <span class="locality">Oakland</span>, <span class="region">CA</span> <span class="postal-code">94619</span>, <span class="country-name">United States</span>
p238
sVinternational_phone_number
p239
V+1 888-327-2757
p240
sVreviews
p241
(lp242
(dp243
Vrating
p244
I5
sVaspects
p245
(lp246
(dp247
Vrating
p248
I3
sVtype
p249
Voverall
p250
sasVprofile_photo_url
p251
V//lh6.googleusercontent.com/-i1YLy-xmLhA/AAAAAAAAAAI/AAAAAAAAV6U/1JVdXlvGC0U/photo.jpg
p252
sVlanguage
p253
Ven
p254
sVtext
p255
VDelightful wilderness area just west of Oakland. Lots of great hikes, well maintained trails and lots of off-leash areas to hie with dogs.
p256
sVauthor_name
p257
VDevin Ramdutt
p258
sVauthor_url
p259
Vhttps://plus.google.com/115619047556375390506
p260
sVtime
p261
I1460243872
sa(dp262
Vrating
p263
I5
sVaspects
p264
(lp265
(dp266
Vrating
p267
I3
sVtype
p268
Voverall
p269
sasVprofile_photo_url
p270
V//lh6.googleusercontent.com/-qlYH9ai6gcU/AAAAAAAAAAI/AAAAAAAAAMw/eIc4fUUlnKY/photo.jpg
p271
sVlanguage
p272
Ven
p273
sVtext
p274
VI love the scenic views and the lush redwoods. I hike here once a week. 
p275
sVauthor_name
p276
VIan Smith
p277
sVauthor_url
p278
Vhttps://plus.google.com/118219087151766649398
p279
sVtime
p280
I1458775093
sa(dp281
Vrating
p282
I4
sVaspects
p283
(lp284
(dp285
Vrating
p286
I2
sVtype
p287
Voverall
p288
sasVprofile_photo_url
p289
V//lh3.googleusercontent.com/-xIQQefo0y68/AAAAAAAAAAI/AAAAAAAAAFQ/RRl9Sg1ipCw/photo.jpg
p290
sVlanguage
p291
Ven
p292
sVtext
p293
VGreat place to hike, beautiful trees. It's so nice to be able to get out in nature
p294
sVauthor_name
p295
VMeghan McCann
p296
sVauthor_url
p297
Vhttps://plus.google.com/103716163831441132339
p298
sVtime
p299
I1454944133
sa(dp300
Vrating
p301
I5
sVaspects
p302
(lp303
(dp304
Vrating
p305
I3
sVtype
p306
Voverall
p307
sasVprofile_photo_url
p308
V//lh4.googleusercontent.com/-28zmFXif-_c/AAAAAAAAAAI/AAAAAAAAEvM/6CKAWVpbX70/photo.jpg
p309
sVlanguage
p310
Ven
p311
sVtext
p312
VArchery with the Bowman Redwood Club was so much fun. It's a beautiful course!
p313
sVauthor_name
p314
VKaren Leung
p315
sVauthor_url
p316
Vhttps://plus.google.com/105553757387685074000
p317
sVtime
p318
I1460864531
sa(dp319
Vrating
p320
I5
sVaspects
p321
(lp322
(dp323
Vrating
p324
I3
sVtype
p325
Voverall
p326
sasVlanguage
p327
Ven
p328
sVtext
p329
VPretty, lots of good recreation area, great summer camps like Shake Rattle and Roll and Touch the Earth
p330
sVauthor_name
p331
VPeter Murphy
p332
sVauthor_url
p333
Vhttps://plus.google.com/114141319956625702844
p334
sVtime
p335
I1459806767
sasVformatted_phone_number
p336
V(888) 327-2757
p337
sVaddress_components
p338
(lp339
(dp340
Vlong_name
p341
V7867
p342
sVtypes
p343
(lp344
Vstreet_number
p345
asVshort_name
p346
V7867
p347
sa(dp348
Vlong_name
p349
VRedwood Road
p350
sVtypes
p351
(lp352
Vroute
p353
asVshort_name
p354
VRedwood Rd
p355
sa(dp356
Vlong_name
p357
VOakland
p358
sVtypes
p359
(lp360
Vlocality
p361
aVpolitical
p362
asVshort_name
p363
VOakland
p364
sa(dp365
Vlong_name
p366
VCalifornia
p367
sVtypes
p368
(lp369
Vadministrative_area_level_1
p370
aVpolitical
p371
asVshort_name
p372
VCA
p373
sa(dp374
Vlong_name
p375
VUnited States
p376
sVtypes
p377
(lp378
Vcountry
p379
aVpolitical
p380
asVshort_name
p381
VUS
p382
sa(dp383
Vlong_name
p384
V94619
p385
sVtypes
p386
(lp387
Vpostal_code
p388
asVshort_name
p389
V94619
p390
sas.