(dp1
Vrating
p2
cdecimal
Decimal
p3
(S'4.2'
tRp4
sVreference
p5
VCmReAAAA4RRefLdRKJb5n4hDYxgbGOUjobPfx9Nts-uCofC1mLyij7qZcyQQGzsq6ZT6icZDWuqnpSqOQg-FELbVhnE0WmeleO612xBuQBgcn7zTSRARsyc4-uks6ugsR9_oJXL1EhDb8BTqcG8qBd8nBg1F55EQGhQllv-VIiNWGoPQQUYoGfqiw28Ihw
p6
sVprice_level
p7
I1
sVplace_id
p8
VChIJ7RuSj51-hYAR92XYj0iOPx4
p9
sVurl
p10
Vhttps://maps.google.com/?cid=2179617186972722679
p11
sVformatted_address
p12
V2175 Allston Way, Berkeley, CA 94704, United States
p13
sVid
p14
V822abfdfb674c2f9a7691f8650c5c4312c5600ef
p15
sVopening_hours
p16
(dp17
Vweekday_text
p18
(lp19
VMonday: 11:00 AM \u2013 12:00 AM
p20
aVTuesday: 11:00 AM \u2013 12:00 AM
p21
aVWednesday: 11:00 AM \u2013 12:00 AM
p22
aVThursday: 11:00 AM \u2013 12:00 AM
p23
aVFriday: 11:00 AM \u2013 12:00 AM
p24
aVSaturday: 10:00 AM \u2013 12:00 AM
p25
aVSunday: 10:00 AM \u2013 12:00 AM
p26
asVopen_now
p27
I01
sVperiods
p28
(lp29
(dp30
Vclose
p31
(dp32
Vday
p33
I1
sVtime
p34
V0000
p35
ssVopen
p36
(dp37
Vday
p38
I0
sVtime
p39
V1000
p40
ssa(dp41
Vclose
p42
(dp43
Vday
p44
I2
sVtime
p45
V0000
p46
ssVopen
p47
(dp48
Vday
p49
I1
sVtime
p50
V1100
p51
ssa(dp52
Vclose
p53
(dp54
Vday
p55
I3
sVtime
p56
V0000
p57
ssVopen
p58
(dp59
Vday
p60
I2
sVtime
p61
V1100
p62
ssa(dp63
Vclose
p64
(dp65
Vday
p66
I4
sVtime
p67
V0000
p68
ssVopen
p69
(dp70
Vday
p71
I3
sVtime
p72
V1100
p73
ssa(dp74
Vclose
p75
(dp76
Vday
p77
I5
sVtime
p78
V0000
p79
ssVopen
p80
(dp81
Vday
p82
I4
sVtime
p83
V1100
p84
ssa(dp85
Vclose
p86
(dp87
Vday
p88
I6
sVtime
p89
V0000
p90
ssVopen
p91
(dp92
Vday
p93
I5
sVtime
p94
V1100
p95
ssa(dp96
Vclose
p97
(dp98
Vday
p99
I0
sVtime
p100
V0000
p101
ssVopen
p102
(dp103
Vday
p104
I6
sVtime
p105
V1000
p106
ssassVvicinity
p107
V2175 Allston Way, Berkeley
p108
sVscope
p109
VGOOGLE
p110
sVwebsite
p111
Vhttp://berkeley.saturncafe.com/
p112
sVutc_offset
p113
I-420
sVuser_ratings_total
p114
I81
sVphotos
p115
(lp116
(dp117
Vphoto_reference
p118
VCmRdAAAABS0vfrtCedCNQux1cu7nkW_R1EaLFNEkqKq82qqcFBv7OYv1Ztinjatd3gxBqtNohlj0yVSe7OeyqHQeos0TSXELEg0YgQnBH1i_dsg1vL2smESM6VQo2uTMdYss6TTOEhCOpHy69wdCE1TYtyPyyhpMGhTgrvyxTaHMsy5uosxkKveTDSF3LQ
p119
sVwidth
p120
I3024
sVhtml_attributions
p121
(lp122
V<a href="https://maps.google.com/maps/contrib/107146705451401183157/photos">Colin Musselman</a>
p123
asVheight
p124
I4032
sa(dp125
Vphoto_reference
p126
VCmRdAAAAmVXHpFnrx8BYoDZLthxCDn9UzlQhuG8hyEfIrojVt6cp0a3sMAoXcQFY6Y9XEtk8YclJvbED3pWnTqJQN0Oevlk-IWw5Nyd__OVlDY48kOSg4RP-qo51g5RTQgex-LnJEhCfbV5-UtGOUNPpS29JGk6JGhQOD2Yv3PgwzBEIrIHs3NNbiwAbag
p127
sVwidth
p128
I2048
sVhtml_attributions
p129
(lp130
V<a href="https://maps.google.com/maps/contrib/107916594762937957742/photos">Saturn Cafe</a>
p131
asVheight
p132
I1383
sa(dp133
Vphoto_reference
p134
VCmRdAAAAmxGgElUPSzoLbU37wP4U_rEzXydl4knwhIYlzX8UsSPyHbTOJKtuPisRv1c3BxH03yNmdQNHl-PBl-olwPXy8aMsCjPj_hq5KlKMRDoErKcMkLhf_s7cIBdCE9L_SqQNEhCFYjiaoDHPQF8ZzvY21NxIGhReFF0PgHShCJqe0TdWbgeTgZtalw
p135
sVwidth
p136
I4032
sVhtml_attributions
p137
(lp138
V<a href="https://maps.google.com/maps/contrib/118161829920434439864/photos">Sasha Mamaev</a>
p139
asVheight
p140
I3024
sa(dp141
Vphoto_reference
p142
VCoQBdwAAAKA36PTCziVHt_NaC8pEHpri_aCoVAj6KvCAQO5w8f96xk-EyHADbKrEjXqpKgoEqfcbP4Ox097qjSZRmYBexlGbDLmBVTguBKF8lTMm0l6puAYiV0hB8gRar2hIl4EuRBgWOBKt6QTEUslNZvs2yZW5a-3L2__QtaADkYameTs5EhC9dZO8y_obRDKK1IuhysJiGhTs27lcFv_JvQHtFrBXY3mdfr3qMA
p143
sVwidth
p144
I2988
sVhtml_attributions
p145
(lp146
V<a href="https://maps.google.com/maps/contrib/108889429306740593070/photos">Maria Fe</a>
p147
asVheight
p148
I5312
sa(dp149
Vphoto_reference
p150
VCoQBcwAAAAKtqIf6CEL53ia8OWYp-n_LLY1fSgdxj5IZY17FN6LLJ14M8kF6TAwOFkWcJ4pNkZACsWWRKEFhp38HzGX0bG8empeSH-eE_msgnOTWH3D-pOlWmWEo4_hpEdKVGPIO586LEOcdBrEN0hWmIja1-AxrjFn3HCRLGWfdtGQHrgWAEhCc8JI3TLNdAyONtAxr6FXUGhTyas1_fwFARzD9STpTnszLRiTJ-g
p151
sVwidth
p152
I1550
sVhtml_attributions
p153
(lp154
V<a href="https://maps.google.com/maps/contrib/114793967685216290949/photos">Joe Gebis</a>
p155
asVheight
p156
I2066
sa(dp157
Vphoto_reference
p158
VCmRdAAAArsyv9o0YAFVxI4goMTeMdciGWUqvAR7xvEQu2F0CGB5BjmoIxr99-ZvyNhwdhKup7vMa5jLAwCboj4TTN8VGCh0HQPtEv4akas6LdMdClxTnM6-6XJnoHQO_gHDZg1dPEhB0xzoehdkSEFQ98zBgsHztGhTkHegSvBEbHpjP6ut1SFLISOimcA
p159
sVwidth
p160
I2988
sVhtml_attributions
p161
(lp162
V<a href="https://maps.google.com/maps/contrib/108889429306740593070/photos">Maria Fe</a>
p163
asVheight
p164
I5312
sa(dp165
Vphoto_reference
p166
VCmRdAAAAo73n0RAMVVzshw4NjR5LFjZg7PtQSM25NZGrfxHWq0akwFT0SekRqmXxtK5Z2JVtMcmoVykQ7yXnpoUdfEwbx4lqza1wx4P4JBk71FMoKbppjae8B-ly6TPnPixbQ0kcEhB4sVOOX40U3ARbB0CN-EmeGhRgX1YUQ0EvrMRlww6Pq-3GnA4UKw
p167
sVwidth
p168
I1296
sVhtml_attributions
p169
(lp170
V<a href="https://maps.google.com/maps/contrib/117454953906757170811/photos">George Fosselius</a>
p171
asVheight
p172
I972
sa(dp173
Vphoto_reference
p174
VCmRdAAAAWTdLklrxn_WUCyh_z2leqi8GHQ7DlvVhvNScqNmtXQzbcesGJwP2rmEWuCN3tPFM0x90I4LADc9APVyImbcQP1G3iCGV-Kt3C-GXFhPZL6SRT2XsIevwRYfA0AvrLZQmEhCvo9iwtzs1gIxc-hvAAQZ5GhT_GMglFbm0nuUwTWEVA61CTKQzKw
p175
sVwidth
p176
I500
sVhtml_attributions
p177
(lp178
V<a href="https://maps.google.com/maps/contrib/107916594762937957742/photos">Saturn Cafe</a>
p179
asVheight
p180
I350
sa(dp181
Vphoto_reference
p182
VCoQBcwAAAAHhQqVtxF1QZwiGn6WRTLP52MxJ4bmFUvpNekLndoqiGFaSgmnX2d2NEP6QeXzhe5FImFVpnG-SMlCQvEOPMWhfCTSgw_HFQ_TACKERD8N9WoxP88neNKrvYXoBc6EUxYC8ux_Pd8Sl977oaHJsDgLPbVa2t06B7fuLPp95grD6EhAMGGh0f_ihnRA8S9-6eXHxGhSFUqrTzIWbVhs20Sb-2oIlltpthw
p183
sVwidth
p184
I2988
sVhtml_attributions
p185
(lp186
V<a href="https://maps.google.com/maps/contrib/108889429306740593070/photos">Maria Fe</a>
p187
asVheight
p188
I5312
sa(dp189
Vphoto_reference
p190
VCoQBdwAAAEX0DSxaCZn6okzEzhoRadohYBCQkC_QvcxTxDDS8WWMFwOSmGVMIolZ5F4J4OpFgdgfRJiRUlcjAxvwpETrH2xl87efbqxu9J6KiMk1OK0-bpcq3tPHVfz7PHeTw5Jrg9rVdAxMx1phG0qxTf6VY__bYDdvUCiZ-m1mLofZhuUpEhC9jfcj2TJAHCfTv-d3vOQTGhRkGYFh3jSjHWhn4lRprmkGToPW0g
p191
sVwidth
p192
I2988
sVhtml_attributions
p193
(lp194
V<a href="https://maps.google.com/maps/contrib/108889429306740593070/photos">Maria Fe</a>
p195
asVheight
p196
I5312
sasVtypes
p197
(lp198
Vrestaurant
p199
aVfood
p200
aVpoint_of_interest
p201
aVestablishment
p202
asVicon
p203
Vhttps://maps.gstatic.com/mapfiles/place_api/icons/restaurant-71.png
p204
sVname
p205
VSaturn Cafe
p206
sVgeometry
p207
(dp208
Vaccess_points
p209
(lp210
(dp211
Vtravel_modes
p212
(lp213
VDRIVING
p214
aVBICYCLING
p215
aVWALKING
p216
aVTRANSIT
p217
asVlocation
p218
(dp219
Vlat
p220
g3
(S'37.8696607'
tRp221
sVlng
p222
g3
(S'-122.2658964'
tRp223
ssasVlocation
p224
(dp225
Vlat
p226
g3
(S'37.8697714'
tRp227
sVlng
p228
g3
(S'-122.2660044'
tRp229
sssVadr_address
p230
V<span class="street-address">2175 Allston Way</span>, <span class="locality">Berkeley</span>, <span class="region">CA</span> <span class="postal-code">94704</span>, <span class="country-name">United States</span>
p231
sVinternational_phone_number
p232
V+1 510-845-8505
p233
sVreviews
p234
(lp235
(dp236
Vrating
p237
I5
sVaspects
p238
(lp239
(dp240
Vrating
p241
I3
sVtype
p242
Voverall
p243
sasVprofile_photo_url
p244
V//lh3.googleusercontent.com/-ZsQZRV9kAbE/AAAAAAAAAAI/AAAAAAAADQE/bIqBWRBj_dI/photo.jpg
p245
sVlanguage
p246
Ven
p247
sVtext
p248
VA little bit pricey, but delicious, homey food that's good for you! I left feeling really full but not bloated after finishing a grilled cheese, cup of tomato soup and the last bit of my friend's Space Cowboy. Great house-made veggie burgers and fun surroundings.
p249
sVauthor_name
p250
VMaddie Davenport
p251
sVauthor_url
p252
Vhttps://plus.google.com/115983072266517771319
p253
sVtime
p254
I1458362160
sa(dp255
Vrating
p256
I5
sVaspects
p257
(lp258
(dp259
Vrating
p260
I3
sVtype
p261
Voverall
p262
sasVprofile_photo_url
p263
V//lh4.googleusercontent.com/-1Z8-8_o2YHU/AAAAAAAAAAI/AAAAAAAABUM/k7IfQCKCrbU/photo.jpg
p264
sVlanguage
p265
Ven
p266
sVtext
p267
VVeggie haven.  If you want veggie burgers, this is definitely the place to go.  They have several other good sandwiches as well. I particularly recommend the club sandwich.  The salads are great, too - organic and large. Everything else is also good, with the exception of their soups, which - to my taste, at least - never quite measure up. Still, we all have room for improvement; that's part of life.  Besides better soups, my only other wish is that they would offer free refills on their iced tea and coolers.
p268
sVauthor_name
p269
VSteve G
p270
sVauthor_url
p271
Vhttps://plus.google.com/108387862976344373340
p272
sVtime
p273
I1447891722
sa(dp274
Vrating
p275
I4
sVaspects
p276
(lp277
(dp278
Vrating
p279
I2
sVtype
p280
Voverall
p281
sasVlanguage
p282
Ven
p283
sVtext
p284
VPlace is totally vegetarian. California burger was amazing. Root beer was little tangy and in a good way. Pan cakes with walnuts was delicious, not too sweet. Mini donuts had a cinnamon flavor that i did not like much.
p285
sVauthor_name
p286
Vbinit shah
p287
sVauthor_url
p288
Vhttps://plus.google.com/118331940976190246732
p289
sVtime
p290
I1457258024
sa(dp291
Vrating
p292
I4
sVaspects
p293
(lp294
(dp295
Vrating
p296
I2
sVtype
p297
Voverall
p298
sasVprofile_photo_url
p299
V//lh6.googleusercontent.com/-KsfMLneAmAw/AAAAAAAAAAI/AAAAAAAAILQ/NQHfTitV2DA/photo.jpg
p300
sVlanguage
p301
Ven
p302
sVtext
p303
VHaving only been to the Santa Cruz location, coming into the Berkeley Saturn Cafe felt a bit odd, but the food was just as good. I had the Space Cowboy burger, subbing in a faux chicken patty, with a side salad. The staff was friendly. Our food took a while to come and there were ants on our table before we sat down (our host quickly wiped down the table upon noticing). Overall a solid vegetarian meal with funky decor.
p304
sVauthor_name
p305
VThomas Sumner
p306
sVauthor_url
p307
Vhttps://plus.google.com/109670219066111135170
p308
sVtime
p309
I1453077703
sa(dp310
Vrating
p311
I5
sVaspects
p312
(lp313
(dp314
Vrating
p315
I3
sVtype
p316
Voverall
p317
sasVprofile_photo_url
p318
V//lh5.googleusercontent.com/-sNht5wDt0_I/AAAAAAAAAAI/AAAAAAAAQ2Q/VAqTPgFbVoI/photo.jpg
p319
sVlanguage
p320
Ven
p321
sVtext
p322
VAmazing burgers. Great place for vegetarians and vegans. The desserts are delicious too. 
p323
sVauthor_name
p324
VGhanshyam Bhatt
p325
sVauthor_url
p326
Vhttps://plus.google.com/106111667826961527297
p327
sVtime
p328
I1454798050
sasVformatted_phone_number
p329
V(510) 845-8505
p330
sVaddress_components
p331
(lp332
(dp333
Vlong_name
p334
V2175
p335
sVtypes
p336
(lp337
Vstreet_number
p338
asVshort_name
p339
V2175
p340
sa(dp341
Vlong_name
p342
VAllston Way
p343
sVtypes
p344
(lp345
Vroute
p346
asVshort_name
p347
VAllston Way
p348
sa(dp349
Vlong_name
p350
VBerkeley
p351
sVtypes
p352
(lp353
Vlocality
p354
aVpolitical
p355
asVshort_name
p356
VBerkeley
p357
sa(dp358
Vlong_name
p359
VCalifornia
p360
sVtypes
p361
(lp362
Vadministrative_area_level_1
p363
aVpolitical
p364
asVshort_name
p365
VCA
p366
sa(dp367
Vlong_name
p368
VUnited States
p369
sVtypes
p370
(lp371
Vcountry
p372
aVpolitical
p373
asVshort_name
p374
VUS
p375
sa(dp376
Vlong_name
p377
V94704
p378
sVtypes
p379
(lp380
Vpostal_code
p381
asVshort_name
p382
V94704
p383
sas.