(dp1
Vrating
p2
I4
sVreference
p3
VCnRjAAAADuTD1FYgvQIvbgcV7NmCSyrzRIqkdiXYA_fZVYkc3AjJdHwHhe4B8hLKbDy96cqUHLVceBDvAp0ZAQjGc-rgCPu8hrsHj1RA7ICX47r5TRp0CNPpQfe9Z53QDoRNlvUo7PS1J8768Jrx17Y0GV75HRIQnINTAh7ChGxtGUjApHQxoBoU3HKE2KO8OPz3iuNWdkuqEObgiPw
p4
sVprice_level
p5
I2
sVplace_id
p6
VChIJlW39lY6AhYAR-kYSJfvNY6A
p7
sVurl
p8
Vhttps://maps.google.com/?cid=11557307547305264890
p9
sVformatted_address
p10
V439 Powell St, San Francisco, CA 94102, United States
p11
sVid
p12
V3c2bcdab7000a51f8336bce79b1035030e3c95bc
p13
sVopening_hours
p14
(dp15
Vweekday_text
p16
(lp17
VMonday: 6:30 AM \u2013 10:00 PM
p18
aVTuesday: 6:30 AM \u2013 10:00 PM
p19
aVWednesday: 6:30 AM \u2013 10:00 PM
p20
aVThursday: 6:30 AM \u2013 10:00 PM
p21
aVFriday: 6:30 AM \u2013 10:00 PM
p22
aVSaturday: 6:30 AM \u2013 10:00 PM
p23
aVSunday: 6:30 AM \u2013 10:00 PM
p24
asVopen_now
p25
I01
sVperiods
p26
(lp27
(dp28
Vclose
p29
(dp30
Vday
p31
I0
sVtime
p32
V2200
p33
ssVopen
p34
(dp35
Vday
p36
I0
sVtime
p37
V0630
p38
ssa(dp39
Vclose
p40
(dp41
Vday
p42
I1
sVtime
p43
V2200
p44
ssVopen
p45
(dp46
Vday
p47
I1
sVtime
p48
V0630
p49
ssa(dp50
Vclose
p51
(dp52
Vday
p53
I2
sVtime
p54
V2200
p55
ssVopen
p56
(dp57
Vday
p58
I2
sVtime
p59
V0630
p60
ssa(dp61
Vclose
p62
(dp63
Vday
p64
I3
sVtime
p65
V2200
p66
ssVopen
p67
(dp68
Vday
p69
I3
sVtime
p70
V0630
p71
ssa(dp72
Vclose
p73
(dp74
Vday
p75
I4
sVtime
p76
V2200
p77
ssVopen
p78
(dp79
Vday
p80
I4
sVtime
p81
V0630
p82
ssa(dp83
Vclose
p84
(dp85
Vday
p86
I5
sVtime
p87
V2200
p88
ssVopen
p89
(dp90
Vday
p91
I5
sVtime
p92
V0630
p93
ssa(dp94
Vclose
p95
(dp96
Vday
p97
I6
sVtime
p98
V2200
p99
ssVopen
p100
(dp101
Vday
p102
I6
sVtime
p103
V0630
p104
ssassVvicinity
p105
V439 Powell Street, San Francisco
p106
sVscope
p107
VGOOGLE
p108
sVwebsite
p109
Vhttp://www.searsfinefood.com/
p110
sVutc_offset
p111
I-420
sVuser_ratings_total
p112
I212
sVphotos
p113
(lp114
(dp115
Vphoto_reference
p116
VCmRdAAAAaoIqnVtE8IWLU34XIZGBYepY0Tx5oHtMHxK0mgQYsIs0gRC2c1EV4TlgqBsGCoPPuQ2b0JBn3U0hisUyIoB2Gkqs2zf08LeTXKcz8LCJzI6qDLrvxQ7FNbzoovI18cS2EhBN9xqRnh7TAx83dAVQTszRGhTe96kx7-8Fyt_WoHzf6XWp_hbebQ
p117
sVwidth
p118
I2448
sVhtml_attributions
p119
(lp120
V<a href="https://maps.google.com/maps/contrib/106170335079428053302/photos">Corrie Davidson</a>
p121
asVheight
p122
I3264
sa(dp123
Vphoto_reference
p124
VCmRdAAAA9e8Wv53usEQVw1R7OFNCF68byMl-Wav8KpqYp032Nfz6aEJOZpXWGWit7e81hgdLZo4jxW5IQ9PSYioqwZEncymSNjJj_p_kot2HBJp9KhKjPR_GBzze2-KNVf-ve4ZSEhBb4YdiBzXF4mhvbHEiXLZHGhQdqW-dzXsXV_RXEhaz5dysOHDblw
p125
sVwidth
p126
I3264
sVhtml_attributions
p127
(lp128
V<a href="https://maps.google.com/maps/contrib/106170335079428053302/photos">Corrie Davidson</a>
p129
asVheight
p130
I2448
sa(dp131
Vphoto_reference
p132
VCmRdAAAABkWiYG-oJDu3SGZfRU3DMQsSQoihtnHepMjQZleeLNIOQ2HUL11lp_kFEPJ9bcHOlbfQ8QQ4ZYAamlHWEPo8HW9IAhN9NqZj7T6nvSVZcTijqPptw7IYYtBBhq4yKM6QEhC5btSZU8SveVJzK9JaeFDhGhTlFt1WJqaPvcduQDpcdtzJseMxEw
p133
sVwidth
p134
I1152
sVhtml_attributions
p135
(lp136
V<a href="https://maps.google.com/maps/contrib/104908431756212890221/photos">Jay E. Jenkins</a>
p137
asVheight
p138
I2048
sa(dp139
Vphoto_reference
p140
VCmRdAAAAFA1pqQ81PbvX34e0K_EFq9s13m-WEOAfxfwLFIIDJL1nHmmWL-ObhwOZdfY2KE2qZJMoHn0t7voUYG-Gm-ZCoVJnAKeqzQETxa44dN8c5-s8d07GBA22EKV3mZdf5kcbEhDq1YLQwaJCmbI_Z2u-8MS9GhSePtdVJ1-aQ1x-qzlrWayyoX0xPQ
p141
sVwidth
p142
I1152
sVhtml_attributions
p143
(lp144
V<a href="https://maps.google.com/maps/contrib/113400233753564666590/photos">Leonard Zhao</a>
p145
asVheight
p146
I648
sa(dp147
Vphoto_reference
p148
VCmRdAAAAxKc7Qf0AHS6HGGaqeiUE7eAerssr4J0UwuOlbMr9sZGaVtgkjkbe3luzddMn1wQ2r2o3g_Bhy_PUXlV-dCQhb1ZZOVL-10iyFIUnsw7V1G2H7I2PV7K7L3YlKEHQ_2k-EhCyw9TcWq1i2zdqgKhUAVnTGhRzfN13zKnswZaOVmmX1sQVRQgw9Q
p149
sVwidth
p150
I543
sVhtml_attributions
p151
(lp152
V<a href="https://maps.google.com/maps/contrib/100740310469672444192/photos">Sears Fine Food</a>
p153
asVheight
p154
I405
sa(dp155
Vphoto_reference
p156
VCmRdAAAABYPlT2vz5PvV6i7oDKaKXHYQxobk9NyaEZARchVvV1WfBGU2zo92sWbey9WoH6aGp-AfT2nHyjNJqnhHG2_TgaisoTjtyx77e9_MRBTP-3WLWAXjWb3_wt2WO6Adz9mDEhAncr4c20WptRd5-NHpI7tdGhQNo_1fNNNVWuw9Umo3Ez99yfz30A
p157
sVwidth
p158
I3264
sVhtml_attributions
p159
(lp160
V<a href="https://maps.google.com/maps/contrib/106170335079428053302/photos">Corrie Davidson</a>
p161
asVheight
p162
I2448
sa(dp163
Vphoto_reference
p164
VCmRdAAAAhWsJW2ciFDiZtljCRk-f56enmmzs20pDHVoyr3zWBN45dHS29SGcS_-bWbn9B07VyRbxctcEZhBfsDb2K4IAbtuj4bvrSLMN0VUyrZR4S1uSaqvyt7brgypjFtMkp6B1EhCr7yJ8QTTT8L_1mTrCp8NpGhTjMJ0gTux4i0q6-nBqwWeLEM0Y0w
p165
sVwidth
p166
I3264
sVhtml_attributions
p167
(lp168
V<a href="https://maps.google.com/maps/contrib/106170335079428053302/photos">Corrie Davidson</a>
p169
asVheight
p170
I2448
sa(dp171
Vphoto_reference
p172
VCmRdAAAAOJ4PnByYDqP16mqXx9RGs8sx3bvUYeOA3vctSW_gjmoijIvSgovMXDfz8c7WcGfAszEzmReLAFfLZ0g2vlwyxaZr_HWAPXmdT0Smq9l4sy8beXCY_Td7e9VFVu-wMZH0EhAf9q3IUoxEqtWtGjLXlKnSGhSVlZWLeoUraFxiLp2jBsJz1q2SZA
p173
sVwidth
p174
I4000
sVhtml_attributions
p175
(lp176
V<a href="https://maps.google.com/maps/contrib/103902302738556386265/photos">Craig Howell</a>
p177
asVheight
p178
I3000
sa(dp179
Vphoto_reference
p180
VCmRdAAAAzwTnxvGFCol2zvy8-Cgdba-CErlCcR3BN_SdOYEnSm6MGhvAbj7eF3Egk1bmqVM0CWjaQbmoCeXUErzOBpE8ff1PnM92FRYtWr1FOAf_dEAQGqhzNNy1z9r_6M6KhZ9NEhAZnRO1ta2NlIwmv0VQXn4OGhQCg_4jme2MAUjCZ3cV20oHzeqMBg
p181
sVwidth
p182
I1265
sVhtml_attributions
p183
(lp184
V<a href="https://maps.google.com/maps/contrib/101413910070163733438/photos">Kei Kawai</a>
p185
asVheight
p186
I949
sa(dp187
Vphoto_reference
p188
VCmRdAAAAnZ_tmjE6jpXJe5hV2J7r9rwEqXdzxQdshyP_suq-UNGJcYT6UXsYhLYCEZHQJsP_c1j7NLPlHN9r6PXk_KQKhWzHqtuDZlRDXVi-WDuLF8xZnl42SqX9Lf2mTy_iFkzxEhD56LOSwr87etAiG4XFEblqGhSWP9PnzL0Np-RQts7HAZWk3EcGQA
p189
sVwidth
p190
I3264
sVhtml_attributions
p191
(lp192
V<a href="https://maps.google.com/maps/contrib/106170335079428053302/photos">Corrie Davidson</a>
p193
asVheight
p194
I2448
sasVtypes
p195
(lp196
Vstore
p197
aVbar
p198
aVrestaurant
p199
aVfood
p200
aVpoint_of_interest
p201
aVestablishment
p202
asVicon
p203
Vhttps://maps.gstatic.com/mapfiles/place_api/icons/restaurant-71.png
p204
sVname
p205
VSears Fine Food
p206
sVgeometry
p207
(dp208
Vaccess_points
p209
(lp210
(dp211
Vtravel_modes
p212
(lp213
VDRIVING
p214
aVBICYCLING
p215
aVWALKING
p216
aVTRANSIT
p217
asVlocation
p218
(dp219
Vlat
p220
cdecimal
Decimal
p221
(S'37.7888306'
tRp222
sVlng
p223
g221
(S'-122.4085407'
tRp224
ssasVlocation
p225
(dp226
Vlat
p227
g221
(S'37.78881279999999'
tRp228
sVlng
p229
g221
(S'-122.4086975'
tRp230
sssVadr_address
p231
V<span class="street-address">439 Powell St</span>, <span class="locality">San Francisco</span>, <span class="region">CA</span> <span class="postal-code">94102-1503</span>, <span class="country-name">United States</span>
p232
sVinternational_phone_number
p233
V+1 415-986-0700
p234
sVreviews
p235
(lp236
(dp237
Vrating
p238
I5
sVaspects
p239
(lp240
(dp241
Vrating
p242
I3
sVtype
p243
Voverall
p244
sasVprofile_photo_url
p245
V//lh6.googleusercontent.com/-FBEcQCGyT8o/AAAAAAAAAAI/AAAAAAAAAfQ/g2uvjKc9S1k/photo.jpg
p246
sVlanguage
p247
Ven
p248
sVtext
p249
VSarah, our waitress was professional, quick and kind. Everything from the eggs benedict to the steak and eggs, pancakes, french toast and the spinach omelet was delicious. Great hashbrowns and perfectly crispy bacon. Yummmmmmm. Definitely visit this spot! You might see a line but they'll seat you quickly.
p250
sVauthor_name
p251
VShab Sachedina
p252
sVauthor_url
p253
Vhttps://plus.google.com/117956249127573740254
p254
sVtime
p255
I1458404073
sa(dp256
Vrating
p257
I4
sVaspects
p258
(lp259
(dp260
Vrating
p261
I2
sVtype
p262
Voverall
p263
sasVlanguage
p264
Ven
p265
sVtext
p266
VFirst time for breakfast which was wonderful. Really friendly service, food was outstanding and portions were generous. Well worth a stop!!!\u000a
p267
sVauthor_name
p268
VJimmy Nolan
p269
sVauthor_url
p270
Vhttps://plus.google.com/104620003063714006802
p271
sVtime
p272
I1461348210
sa(dp273
Vrating
p274
I5
sVaspects
p275
(lp276
(dp277
Vrating
p278
I3
sVtype
p279
Voverall
p280
sasVprofile_photo_url
p281
V//lh4.googleusercontent.com/-Li6ADZvs6qM/AAAAAAAAAAI/AAAAAAAAAEk/cEmT15vwqCU/photo.jpg
p282
sVlanguage
p283
Ven
p284
sVtext
p285
VBest French toast I've ever had. This place was busy but the host keeps everything and everyone organized. The waitresses are quick and good. Nothing but good comments about this place!
p286
sVauthor_name
p287
VStephanie H
p288
sVauthor_url
p289
Vhttps://plus.google.com/113238864009627245740
p290
sVtime
p291
I1451276241
sa(dp292
Vrating
p293
I4
sVaspects
p294
(lp295
(dp296
Vrating
p297
I2
sVtype
p298
Voverall
p299
sasVprofile_photo_url
p300
V//lh3.googleusercontent.com/-3EzhMKNHzew/AAAAAAAAAAI/AAAAAAAAm74/ONNjQ2qW8w0/photo.jpg
p301
sVlanguage
p302
Ven
p303
sVtext
p304
VAlways a winner in Union Square.  Good burgers and sandwiches. The crab chowder is good too. Service can be spotty. Nice throwback eatery. 
p305
sVauthor_name
p306
VMario Sanchez
p307
sVauthor_url
p308
Vhttps://plus.google.com/110802818877809580769
p309
sVtime
p310
I1459892391
sa(dp311
Vrating
p312
I5
sVaspects
p313
(lp314
(dp315
Vrating
p316
I3
sVtype
p317
Voverall
p318
sasVlanguage
p319
Ven
p320
sVtext
p321
VWe go to Sears for breakfast just about every time we're in San Francisco. The pancakes are terrific. I can't speak to anything else on the menu because we go there for the pancakes. Even with a line out the door you get in fairly fast as it doesn't take much time to make pancakes! The place is a SF institution. Sears is fun, the food is good, the atmosphere is enjoyable. We'll be back.
p322
sVauthor_name
p323
VMia Tedone
p324
sVauthor_url
p325
Vhttps://plus.google.com/110251398414521245604
p326
sVtime
p327
I1447453960
sasVformatted_phone_number
p328
V(415) 986-0700
p329
sVaddress_components
p330
(lp331
(dp332
Vlong_name
p333
V439
p334
sVtypes
p335
(lp336
Vstreet_number
p337
asVshort_name
p338
V439
p339
sa(dp340
Vlong_name
p341
VPowell Street
p342
sVtypes
p343
(lp344
Vroute
p345
asVshort_name
p346
VPowell St
p347
sa(dp348
Vlong_name
p349
VSan Francisco
p350
sVtypes
p351
(lp352
Vlocality
p353
aVpolitical
p354
asVshort_name
p355
VSF
p356
sa(dp357
Vlong_name
p358
VCalifornia
p359
sVtypes
p360
(lp361
Vadministrative_area_level_1
p362
aVpolitical
p363
asVshort_name
p364
VCA
p365
sa(dp366
Vlong_name
p367
VUnited States
p368
sVtypes
p369
(lp370
Vcountry
p371
aVpolitical
p372
asVshort_name
p373
VUS
p374
sa(dp375
Vlong_name
p376
V94102
p377
sVtypes
p378
(lp379
Vpostal_code
p380
asVshort_name
p381
V94102
p382
sa(dp383
Vlong_name
p384
V1503
p385
sVtypes
p386
(lp387
Vpostal_code_suffix
p388
asVshort_name
p389
V1503
p390
sas.