(dp1
Vrating
p2
cdecimal
Decimal
p3
(S'4.3'
tRp4
sVreference
p5
VCmRfAAAAepRRhGfvGdDrqpRRa6DBPVOVTKwnz2eAyat2EQ_8_nz3iEEhshhw3aDiTAqukNLCZHrQ5Ny0eWlbgUMBJQ2ElPWsmt8d-ooeRk2JqDxPRCmlef1_7dQa9fdRanF1PmhzEhBwbqSuY7nzlBwCKO_75wUsGhR8SseBEhLWl2aFsLXyjdes0mSt3Q
p6
sVprice_level
p7
I2
sVplace_id
p8
VChIJDS_j2Tp-j4ARx1SqQlnrP4U
p9
sVurl
p10
Vhttps://maps.google.com/?cid=9601651699180262599
p11
sVformatted_address
p12
V2128 Folsom St, San Francisco, CA 94110, United States
p13
sVid
p14
V4e8be962fb7e1e15bf4eb63de5d3bfa4b9364a2b
p15
sVopening_hours
p16
(dp17
Vweekday_text
p18
(lp19
VMonday: 7:30 AM \u2013 4:00 PM
p20
aVTuesday: 7:30 AM \u2013 4:00 PM
p21
aVWednesday: 7:30 AM \u2013 4:00 PM
p22
aVThursday: 7:30 AM \u2013 4:00 PM
p23
aVFriday: 7:30 AM \u2013 4:00 PM
p24
aVSaturday: 9:00 AM \u2013 4:00 PM
p25
aVSunday: 9:00 AM \u2013 4:00 PM
p26
asVopen_now
p27
I01
sVperiods
p28
(lp29
(dp30
Vclose
p31
(dp32
Vday
p33
I0
sVtime
p34
V1600
p35
ssVopen
p36
(dp37
Vday
p38
I0
sVtime
p39
V0900
p40
ssa(dp41
Vclose
p42
(dp43
Vday
p44
I1
sVtime
p45
V1600
p46
ssVopen
p47
(dp48
Vday
p49
I1
sVtime
p50
V0730
p51
ssa(dp52
Vclose
p53
(dp54
Vday
p55
I2
sVtime
p56
V1600
p57
ssVopen
p58
(dp59
Vday
p60
I2
sVtime
p61
V0730
p62
ssa(dp63
Vclose
p64
(dp65
Vday
p66
I3
sVtime
p67
V1600
p68
ssVopen
p69
(dp70
Vday
p71
I3
sVtime
p72
V0730
p73
ssa(dp74
Vclose
p75
(dp76
Vday
p77
I4
sVtime
p78
V1600
p79
ssVopen
p80
(dp81
Vday
p82
I4
sVtime
p83
V0730
p84
ssa(dp85
Vclose
p86
(dp87
Vday
p88
I5
sVtime
p89
V1600
p90
ssVopen
p91
(dp92
Vday
p93
I5
sVtime
p94
V0730
p95
ssa(dp96
Vclose
p97
(dp98
Vday
p99
I6
sVtime
p100
V1600
p101
ssVopen
p102
(dp103
Vday
p104
I6
sVtime
p105
V0900
p106
ssassVvicinity
p107
V2128 Folsom Street, San Francisco
p108
sVscope
p109
VGOOGLE
p110
sVwebsite
p111
Vhttp://stablecafe.com/
p112
sVutc_offset
p113
I-420
sVuser_ratings_total
p114
I90
sVphotos
p115
(lp116
(dp117
Vphoto_reference
p118
VCmRdAAAAWTE7QDV31TmeZ4irfh9gQ3TEXRH_Gm2qo950dIleEfFSzWCquXtCKj_rq4Io1xR9X-o6KqytzJocd5VHMc-t8fljsW0HqsErFq4O4UZhwDS6VPeGMHWvgUB90o85vjWQEhCfKouaC6Xqejjr-ogXEQZVGhTTaNVfQfPHRESFnpsafIfMw27cLw
p119
sVwidth
p120
I2048
sVhtml_attributions
p121
(lp122
V<a href="https://maps.google.com/maps/contrib/104111246635874032234/photos">ZAGAT</a>
p123
asVheight
p124
I1406
sa(dp125
Vphoto_reference
p126
VCmRdAAAADfYV8NRGVXmvWm98OBAiAlUrwexMMNpi95c-OCFgxMxzSk4HK_eE5bBQXtwdUPqLfmAyrhN1vAtixewODAtrUwx9cAg0_haxyzWxQ9be3Y8tnbTehcIiPqnYOzC7jlP1EhBR8jkAxes-8-pi_rZGdUJTGhQOKxFttWDREt8ClS02HWdPVW-7Sw
p127
sVwidth
p128
I2048
sVhtml_attributions
p129
(lp130
V<a href="https://maps.google.com/maps/contrib/104111246635874032234/photos">ZAGAT</a>
p131
asVheight
p132
I1365
sa(dp133
Vphoto_reference
p134
VCmRdAAAAz_buwen-sVOXtNg3VfU4MCjiRg5sODT4Dvkuhig3BzJQjV6M4BYdFiAsFuExQauHoFvHQTzqjnZMWYRQucweQdfKJ2PEh9D1M_GfmkFsbfp9U-SRAyk9miPBTNcdW8Z1EhDhyrKp0zbmNJs72fVjytUUGhTCbdH-rVol7v-U1AL_568zdOJ0Zg
p135
sVwidth
p136
I2048
sVhtml_attributions
p137
(lp138
V<a href="https://maps.google.com/maps/contrib/104111246635874032234/photos">ZAGAT</a>
p139
asVheight
p140
I1365
sa(dp141
Vphoto_reference
p142
VCmRdAAAAuYAkT830skImkxpEAWBqJnu0_Mrd9tf3f4Tf0JDkDUmRc5Rg0A3h2HRm6LeZjfeZrQhu0yjqJM48rmU_s_6ImKDtVdCwzqWxq6c_MJ6f76eg4MP00WfHL-uIujPdU3eaEhDQbOZTeL1C-sOd81k8j7q9GhTzwhx9VTOxhHns80-9S5M-FeG3WA
p143
sVwidth
p144
I2176
sVhtml_attributions
p145
(lp146
V<a href="https://maps.google.com/maps/contrib/111107191255143707404/photos">Vera DeVera</a>
p147
asVheight
p148
I2176
sa(dp149
Vphoto_reference
p150
VCmRdAAAAROKyI36t22GmxY-yNGNnplJYqAFX9jQQUylFnSB8oysiwA2_btQHDKCu6-xLcJF_19Ywly-kcb47peqHZgCMHO6WHugT7iZBhOy7eCFXhtz-F6l2cGPWE9hdDSXGneOmEhD0mNrp0CspyohBKF6jiQD1GhSAldHMcf4aeMZdg9dGZgTo8kdkIA
p151
sVwidth
p152
I1296
sVhtml_attributions
p153
(lp154
V<a href="https://maps.google.com/maps/contrib/115181284336253070220/photos">Walkerthree SFO</a>
p155
asVheight
p156
I972
sa(dp157
Vphoto_reference
p158
VCmRdAAAAs26L41FkytThOSzuP0MOZMfMx3E7dMtIlYBofQHPVbYWg4cJJDRHyq0Bj-v-uPY79DzPQTUBa2zudtdhbEUXWJySKonfWMHG32Mp57Kk5QxX1LqeGaDoQMOKdQQ5i4yKEhB6OiLDkWFGf2l_83KbaqSLGhSlr-AhwCbAVqjGDk9OidhrQHI6_Q
p159
sVwidth
p160
I2176
sVhtml_attributions
p161
(lp162
V<a href="https://maps.google.com/maps/contrib/111107191255143707404/photos">Vera DeVera</a>
p163
asVheight
p164
I2176
sa(dp165
Vphoto_reference
p166
VCmRdAAAA_fEEUfvYK--kgLXMIPikvTivziiQ3R_bFP8nMGZzFSrfpdLM2L_lnN6mlqKnc7rk4pLFlMRVTBjw5N1oSlFRH5iU6mzXGsclq2psJKtlP_ub6OyK1EC0ndQubpm85IE7EhA69Q9RjhVMHomOejzD9P7KGhShV3S60wh1Qs2pZoWMZU-qzeeJbg
p167
sVwidth
p168
I2048
sVhtml_attributions
p169
(lp170
V<a href="https://maps.google.com/maps/contrib/104111246635874032234/photos">ZAGAT</a>
p171
asVheight
p172
I1365
sa(dp173
Vphoto_reference
p174
VCmRdAAAAt_0QS9ZCK-kqORbwdS5Q5uO2D1pWNpjU_9qMldnUy0wHmKupfVQ7YLlPtf_kAn65yQOmc__k_I9o9R3SoLHs8QV5SmvD1O5uzd9kWMmZLIw40X5ip0C7IRuwZx4bk8bjEhCXmlkyuYAHBqTq-ky-kg0jGhQZ1a5voDTAVw46dDhZArIzkCTC_Q
p175
sVwidth
p176
I2176
sVhtml_attributions
p177
(lp178
V<a href="https://maps.google.com/maps/contrib/111107191255143707404/photos">Vera DeVera</a>
p179
asVheight
p180
I2176
sa(dp181
Vphoto_reference
p182
VCmRdAAAAQ0NZkHbWyO9ZBm2WD0EIiRIrUAYbg6-0lu70tdc2KFJcHwVhD0I9sI7vQYuB0Ev457WQHWrFzPgDI0RXP8Pg0L6z0scgy4URKq928l4xK92nTF6h54iMZ6gnbjSHXcghEhBmh5XgVJ_45FZkwa342UTjGhQFZlIcJGw385tLm2hESQ7lgzclJg
p183
sVwidth
p184
I1068
sVhtml_attributions
p185
(lp186
V<a href="https://maps.google.com/maps/contrib/102335685918235886605/photos">Marie Roksund</a>
p187
asVheight
p188
I1068
sa(dp189
Vphoto_reference
p190
VCmRdAAAAomgFga7qrJwszsX3ZKVhm4D05AcxPe-RrqXA5s5aYnBVJD_HM8VQA1t1enmzAf_nGmLlolPeSpH3Q29Ikb4Mu3H1UUWm7hOBqiw0ZpF5Cg5lo9js5W5bVLc4O66UITyMEhBEhYseolKUXttG7RyD_0_lGhSzug66K8w0QE2w4PxbXNynIou__w
p191
sVwidth
p192
I3264
sVhtml_attributions
p193
(lp194
V<a href="https://maps.google.com/maps/contrib/116679112607206161151/photos">Deanna Orsot</a>
p195
asVheight
p196
I2448
sasVtypes
p197
(lp198
Vcafe
p199
aVmeal_takeaway
p200
aVrestaurant
p201
aVfood
p202
aVstore
p203
aVpoint_of_interest
p204
aVestablishment
p205
asVicon
p206
Vhttps://maps.gstatic.com/mapfiles/place_api/icons/cafe-71.png
p207
sVname
p208
VStable Cafe
p209
sVgeometry
p210
(dp211
Vaccess_points
p212
(lp213
(dp214
Vtravel_modes
p215
(lp216
VDRIVING
p217
aVBICYCLING
p218
aVWALKING
p219
aVTRANSIT
p220
asVlocation
p221
(dp222
Vlat
p223
g3
(S'37.7632578'
tRp224
sVlng
p225
g3
(S'-122.4151503'
tRp226
ssasVlocation
p227
(dp228
Vlat
p229
g3
(S'37.76323670000001'
tRp230
sVlng
p231
g3
(S'-122.4154832'
tRp232
sssVadr_address
p233
V<span class="street-address">2128 Folsom St</span>, <span class="locality">San Francisco</span>, <span class="region">CA</span> <span class="postal-code">94110</span>, <span class="country-name">United States</span>
p234
sVinternational_phone_number
p235
V+1 415-552-1199
p236
sVreviews
p237
(lp238
(dp239
Vrating
p240
I5
sVaspects
p241
(lp242
(dp243
Vrating
p244
I3
sVtype
p245
Voverall
p246
sasVprofile_photo_url
p247
V//lh3.googleusercontent.com/-WDgu4BQFFPA/AAAAAAAAAAI/AAAAAAAANn4/doXenStzz0g/photo.jpg
p248
sVlanguage
p249
Ven
p250
sVtext
p251
VStable Cafe has one of SF's most beautiful backyards. You also find a succulent store in the backyard (Lila B Design), which I think started out as only temporary but seems to have stayed (luckily). \u000aAmong many other delicious things they serve delicious agua fresca.
p252
sVauthor_name
p253
VMara Lehmann
p254
sVauthor_url
p255
Vhttps://plus.google.com/113815969058400857722
p256
sVtime
p257
I1460651253
sa(dp258
Vrating
p259
I5
sVaspects
p260
(lp261
(dp262
Vrating
p263
I3
sVtype
p264
Voverall
p265
sasVprofile_photo_url
p266
V//lh6.googleusercontent.com/-6SgktBiZNRY/AAAAAAAAAAI/AAAAAAAAAEE/mx0G-hd5Df4/photo.jpg
p267
sVlanguage
p268
Ven
p269
sVtext
p270
VQuaint, well appointed, terrific food design and very attentive, friendly staff.  
p271
sVauthor_name
p272
VBo Putnam
p273
sVauthor_url
p274
Vhttps://plus.google.com/106755619318865988632
p275
sVtime
p276
I1459783984
sa(dp277
Vrating
p278
I5
sVaspects
p279
(lp280
(dp281
Vrating
p282
I3
sVtype
p283
Voverall
p284
sasVprofile_photo_url
p285
V//lh5.googleusercontent.com/-3Fzv5NmdAJk/AAAAAAAAAAI/AAAAAAAApKk/RVH0QDiWOpg/photo.jpg
p286
sVlanguage
p287
Ven
p288
sVtext
p289
VGreat atmosphere, friendly staff, and plenty of seating with good wifi.
p290
sVauthor_name
p291
VDavid Auerbach
p292
sVauthor_url
p293
Vhttps://plus.google.com/114669461051157804946
p294
sVtime
p295
I1459331042
sa(dp296
Vrating
p297
I1
sVaspects
p298
(lp299
(dp300
Vrating
p301
I0
sVtype
p302
Voverall
p303
sasVlanguage
p304
Ven
p305
sVtext
p306
VWent in to grab a coffee and some lunch, encountered a coffee barista thats worse than a methhead having a bad day. While waiting in line to place an order, the employee became frustrated and started shouting that his previous customer hadn't picked up his coffee. He complained it was getting cold. \u000a\u000aUnfortunately, I was in the wrong place at the wrong time as he thought it was mine, though I hadn't placed my order. I motioned to him that it wasn't mine and I explained I hadn't placed an order yet.\u000a\u000aWhile talking with the polite cashier, He hovered inches from my face listening to the order. I ordered a cappuccino, and he slammed to cold latte in-front of me and said "THERE YOU GO!!". I casually told the cashier I was looking for a cappuccino and a sandwich to go, and he dumped it out.\u000a\u000aIn his frustration he made a cappuccino in a regular cup "not to go". I asked him for it "to go". He told me I could drink my coffee and when I wanted it "to go", I could come back, get in line, wait, and get the remainder poured into a to-go cup. I explained that wasn't what I'd like to do, I'd really just like my correct order "to-go".  He made faces at me, and I asked for his manager. \u000a\u000aHe refused to get his manager.\u000a\u000aUpon leaving I asked again with a different employee for the manager, as I left he was shouting across the restaurant "WHAT YOU WONT EVEN TALK TO ME!?!?!?" and followed me down the street to complain at me.\u000a\u000aThis guy was on some serious drugs, the manage (Francisco) offered me a free lunch on him for the trouble.\u000a\u000aI don't recommend going here if you're looking for a chill atmosphere, this barista was hostile.\u000a
p307
sVauthor_name
p308
VRoss Colby
p309
sVauthor_url
p310
Vhttps://plus.google.com/107801757610860106329
p311
sVtime
p312
I1438742802
sa(dp313
Vrating
p314
I4
sVaspects
p315
(lp316
(dp317
Vrating
p318
I2
sVtype
p319
Voverall
p320
sasVprofile_photo_url
p321
V//lh4.googleusercontent.com/-jN1WmhlTB_Q/AAAAAAAAAAI/AAAAAAAAAak/pYU0RhGiR9E/photo.jpg
p322
sVlanguage
p323
Ven
p324
sVtext
p325
VA nice brunch spot with outdoor garden seating and a casual vibe.  Coffee and food were good and food came to us quickly.  You order at the counter and then the bring it to you.
p326
sVauthor_name
p327
VRyan Patterson
p328
sVauthor_url
p329
Vhttps://plus.google.com/111826649322447194884
p330
sVtime
p331
I1435339757
sasVformatted_phone_number
p332
V(415) 552-1199
p333
sVaddress_components
p334
(lp335
(dp336
Vlong_name
p337
V2128
p338
sVtypes
p339
(lp340
Vstreet_number
p341
asVshort_name
p342
V2128
p343
sa(dp344
Vlong_name
p345
VFolsom Street
p346
sVtypes
p347
(lp348
Vroute
p349
asVshort_name
p350
VFolsom St
p351
sa(dp352
Vlong_name
p353
VSan Francisco
p354
sVtypes
p355
(lp356
Vlocality
p357
aVpolitical
p358
asVshort_name
p359
VSF
p360
sa(dp361
Vlong_name
p362
VCalifornia
p363
sVtypes
p364
(lp365
Vadministrative_area_level_1
p366
aVpolitical
p367
asVshort_name
p368
VCA
p369
sa(dp370
Vlong_name
p371
VUnited States
p372
sVtypes
p373
(lp374
Vcountry
p375
aVpolitical
p376
asVshort_name
p377
VUS
p378
sa(dp379
Vlong_name
p380
V94110
p381
sVtypes
p382
(lp383
Vpostal_code
p384
asVshort_name
p385
V94110
p386
sas.