(dp1
Vrating
p2
cdecimal
Decimal
p3
(S'4.5'
tRp4
sVreference
p5
VCnRoAAAAF66eV2IV2x-ZrasseOiK6VNH9M-onE8tAdT6hZA9rGXlpu5PLxkmX-kqeG9Q1iM19Ben4p3I2TApYVYlT0UuP2v_sYOtD0inpAQXqX5u-0iLSQMEvCXNrER5m4y1nwEZehhJMxY44URHamg8PBAgvhIQMf_DJknofil1tPgk_5HCThoUXXZ_bS-7nOphdckwwdO_4xBs4zM
p6
sVplace_id
p7
VChIJQ7kGpLmAhYARKeCe2pDobWk
p8
sVurl
p9
Vhttps://maps.google.com/?cid=7596983855284674601
p10
sVformatted_address
p11
V1529 Fillmore St, San Francisco, CA 94115, United States
p12
sVid
p13
Vc47d6b8d3f99a3bfbf5d8f2735d3dd46ee679501
p14
sVopening_hours
p15
(dp16
Vweekday_text
p17
(lp18
VMonday: 5:30 \u2013 10:00 PM
p19
aVTuesday: 5:30 \u2013 10:00 PM
p20
aVWednesday: 5:30 \u2013 10:00 PM
p21
aVThursday: 5:30 \u2013 10:00 PM
p22
aVFriday: 5:30 \u2013 11:00 PM
p23
aVSaturday: 5:30 \u2013 11:00 PM
p24
aVSunday: 5:30 \u2013 10:00 PM
p25
asVopen_now
p26
I00
sVperiods
p27
(lp28
(dp29
Vclose
p30
(dp31
Vday
p32
I0
sVtime
p33
V2200
p34
ssVopen
p35
(dp36
Vday
p37
I0
sVtime
p38
V1730
p39
ssa(dp40
Vclose
p41
(dp42
Vday
p43
I1
sVtime
p44
V2200
p45
ssVopen
p46
(dp47
Vday
p48
I1
sVtime
p49
V1730
p50
ssa(dp51
Vclose
p52
(dp53
Vday
p54
I2
sVtime
p55
V2200
p56
ssVopen
p57
(dp58
Vday
p59
I2
sVtime
p60
V1730
p61
ssa(dp62
Vclose
p63
(dp64
Vday
p65
I3
sVtime
p66
V2200
p67
ssVopen
p68
(dp69
Vday
p70
I3
sVtime
p71
V1730
p72
ssa(dp73
Vclose
p74
(dp75
Vday
p76
I4
sVtime
p77
V2200
p78
ssVopen
p79
(dp80
Vday
p81
I4
sVtime
p82
V1730
p83
ssa(dp84
Vclose
p85
(dp86
Vday
p87
I5
sVtime
p88
V2300
p89
ssVopen
p90
(dp91
Vday
p92
I5
sVtime
p93
V1730
p94
ssa(dp95
Vclose
p96
(dp97
Vday
p98
I6
sVtime
p99
V2300
p100
ssVopen
p101
(dp102
Vday
p103
I6
sVtime
p104
V1730
p105
ssassVvicinity
p106
V1529 Fillmore Street, San Francisco
p107
sVscope
p108
VGOOGLE
p109
sVwebsite
p110
Vhttp://statebirdsf.com/
p111
sVutc_offset
p112
I-420
sVuser_ratings_total
p113
I182
sVphotos
p114
(lp115
(dp116
Vphoto_reference
p117
VCmRdAAAAjL7z8iPJENcpbRyweTWEgJxuTaHhVViFw-YFDO96kPSfveGqop9RGGpe_sQJblvDLAAtB4TIIAW8G7IcKMW5ZXMnsflEw7bZLcLb2LYVp7bP61iBaljDvXFnZmq-Jc11EhDdtnXugFpZ192D-AA440T-GhSYSPq4rZktQEuvxgu7sW8KJl0yAw
p118
sVwidth
p119
I972
sVhtml_attributions
p120
(lp121
V<a href="https://maps.google.com/maps/contrib/107552387286560569649/photos">Walkerone SFO</a>
p122
asVheight
p123
I1296
sa(dp124
Vphoto_reference
p125
VCmRdAAAAcWXF_CeeczxWLd-aituh_FSHC_JXFXNaOFxWRCVtr8itLLidyCsoLcx9Q5_NkC7mFZMajxuwkH98MD6Qd3RaGnC_j1qzhvkbdER8_9H-lNYrJWCbBndHuSTPm6x9ceI7EhAeZHxuGb1WvarPEc9yQf9eGhQzTA5o4s8IbzwS0Ou9W3S4e9OsSA
p126
sVwidth
p127
I4320
sVhtml_attributions
p128
(lp129
V<a href="https://maps.google.com/maps/contrib/100864918851588063967/photos">Tina C</a>
p130
asVheight
p131
I2432
sa(dp132
Vphoto_reference
p133
VCmRdAAAAmJn1qloGU-0RiXN_A7E_ezsjJgE7K35NoUwCtOUyHhEl-Po0M2kVcUrRmUINIpqFLGyeqprgDtaeOB2QSHn-LBRZEAIn1XoqfQHYJQMHigcRfMb1z6LV-DCOeUkqtg6PEhBIqyjd_BF3lqFKtVJeLPhYGhSrD_6gZfOZphMGAU0PyUbOFTgqwg
p134
sVwidth
p135
I2048
sVhtml_attributions
p136
(lp137
V<a href="https://maps.google.com/maps/contrib/104111246635874032234/photos">ZAGAT</a>
p138
asVheight
p139
I1500
sa(dp140
Vphoto_reference
p141
VCoQBdwAAAOjUIeaKz6a1cbLfpvdVfD7IqUoqfUCRN79rlZsWT5hItIdx3NGpCvkibIDWT44yXDkJ6_0XLh_Lu8_y52p5kpZ3lvYi8EuiCtKUJEceBvEN-iQjP5uaBzYVXG76pgBFmi74GNIhO18ZNk0JaBCFBYpOJV5dHhi9ai9IzR7qnvkPEhADdG5uYzlpvvmTxwP6SRDVGhRBysXLD9D4CkJLD41u55aSjKRsrQ
p142
sVwidth
p143
I4032
sVhtml_attributions
p144
(lp145
V<a href="https://maps.google.com/maps/contrib/113256681836649808083/photos">Keira Chu</a>
p146
asVheight
p147
I3024
sa(dp148
Vphoto_reference
p149
VCmRdAAAA1D1eiWZTPtois6W4rHq-SAuuDjMGNdSuIKG7HfX9qo5Mjvk25g3UVGAfbIX0brwLTZ1FErB056zPhsjUjJx39HlrLLhOxMzqxCvH_OEdn7_1ouNIBAPcGc_RrTe9B7XREhCrmpHwt-v4luI42u_zONUFGhQNPzEvj7NSdhJjM4chPa8PchDxsw
p150
sVwidth
p151
I4032
sVhtml_attributions
p152
(lp153
V<a href="https://maps.google.com/maps/contrib/106903374799675501301/photos">Anthony Vattathil</a>
p154
asVheight
p155
I3024
sa(dp156
Vphoto_reference
p157
VCmRdAAAAokNZc9fssNeh8ssOtyHYOWDh-VDkBNf-SFMr1ItQpZQUM3RCrK447snElNS6g-s3mvAd3cwo_Azzw8dezulcPq-J--kQnbXEK-KoSjLSs_OpPhm5G5sUF-i6Fwt8InpAEhCnSBHEsYHJ6hmIUG6xAujaGhQ23KRzsS12UHsjr6PlkOSRVr0fDQ
p158
sVwidth
p159
I816
sVhtml_attributions
p160
(lp161
V<a href="https://maps.google.com/maps/contrib/101358104383402401977/photos">Scott Giambastiani</a>
p162
asVheight
p163
I612
sa(dp164
Vphoto_reference
p165
VCmRdAAAAZSGE8E_5xf2qmC7Mu5mAuQNlDANF7YRDWBGSjWpvgtjPd0ZQNiuwWOe2x0o-6bPrihcorSTpvFXWKTLawgGUMakUGVW5ggX9MezI49E683zuxGj87C70PLvJVN09_tMEEhADbEQZgVjkj7uazKK4gb9IGhTuy93h3a1vvUxEC4rHwwvr3jpy8g
p166
sVwidth
p167
I4925
sVhtml_attributions
p168
(lp169
V<a href="https://maps.google.com/maps/contrib/104169834615322065620/photos">Felix Chu</a>
p170
asVheight
p171
I3283
sa(dp172
Vphoto_reference
p173
VCmRdAAAAIunlc2n5DvN4TwEgWSKvw_eDxkhZlSEnkKDdA8s9Xi16z4etoWVcsUKqFgSC4Wii8YaqUYpeIqGHPR9SSqXxOkFxkoFSHLsbys1AMcqtByj4my53j8G_nEcMKzC3aTuXEhBvWoFTkmAYRrKb8f8mQ6_YGhRi7vItsKR5d1riIzmGN-YMpBsPxA
p174
sVwidth
p175
I4320
sVhtml_attributions
p176
(lp177
V<a href="https://maps.google.com/maps/contrib/100864918851588063967/photos">Tina C</a>
p178
asVheight
p179
I2432
sa(dp180
Vphoto_reference
p181
VCmRdAAAAkj84fh1yaUjou-GPbUZ1JirGbqAFSN6kJPmjn4n1fxi8QfBlApUw3bJLgwjIVC0pK3pBc0NDSaFdFebkqMm0GD7PvYZCVE3Ei6bewlh_XnsojmR5ou5iVMk1Riyzdbf6EhClTZDmkL6SasOV3SvfsABnGhTsHQa1LGS789LrHrXtr-ORE0tr-A
p182
sVwidth
p183
I2048
sVhtml_attributions
p184
(lp185
V<a href="https://maps.google.com/maps/contrib/104111246635874032234/photos">ZAGAT</a>
p186
asVheight
p187
I1500
sa(dp188
Vphoto_reference
p189
VCmRdAAAA1TkXLLQlViu41ciphpVm4d1Idhfdl222xnHUiDxRJjL7gJ2Qhn446RFyJiPfuJuC8Yh830O9D16ZEIabbSsHvbHKXFTfK6OOEK8a20CskxjFgjhQ9zVWVwt85KhmOZTeEhA2nSOxeMIiZhrvtnMyxbbsGhQ-YcRUjcEPcA7jlibVMqSqsNnHag
p190
sVwidth
p191
I4320
sVhtml_attributions
p192
(lp193
V<a href="https://maps.google.com/maps/contrib/100864918851588063967/photos">Tina C</a>
p194
asVheight
p195
I2432
sasVtypes
p196
(lp197
Vrestaurant
p198
aVfood
p199
aVpoint_of_interest
p200
aVestablishment
p201
asVicon
p202
Vhttps://maps.gstatic.com/mapfiles/place_api/icons/restaurant-71.png
p203
sVname
p204
VState Bird Provisions
p205
sVgeometry
p206
(dp207
Vaccess_points
p208
(lp209
(dp210
Vtravel_modes
p211
(lp212
VDRIVING
p213
aVBICYCLING
p214
aVWALKING
p215
aVTRANSIT
p216
asVlocation
p217
(dp218
Vlat
p219
g3
(S'37.783723'
tRp220
sVlng
p221
g3
(S'-122.4328271'
tRp222
ssasVlocation
p223
(dp224
Vlat
p225
g3
(S'37.7837301'
tRp226
sVlng
p227
g3
(S'-122.4329552'
tRp228
sssVadr_address
p229
V<span class="street-address">1529 Fillmore St</span>, <span class="locality">San Francisco</span>, <span class="region">CA</span> <span class="postal-code">94115</span>, <span class="country-name">United States</span>
p230
sVinternational_phone_number
p231
V+1 415-795-1272
p232
sVreviews
p233
(lp234
(dp235
Vrating
p236
I4
sVaspects
p237
(lp238
(dp239
Vrating
p240
I2
sVtype
p241
Voverall
p242
sasVprofile_photo_url
p243
V//lh4.googleusercontent.com/-lvide3gR9ns/AAAAAAAAAAI/AAAAAAAAABQ/4mXxyOuhIak/photo.jpg
p244
sVlanguage
p245
Ven
p246
sVtext
p247
VDelicious food - truly amazing.  I love that they have a different menu every time you visit, and I loved all the plates that came to my table.  It was a great experience and really fun to look forward to.  We booked a 9 pm Monday night and it was such a treat.  \u000a\u000aGreat wind list, tasty bites, and a fun atmosphere.
p248
sVauthor_name
p249
VMario Flanagan
p250
sVauthor_url
p251
Vhttps://plus.google.com/102722005845987909220
p252
sVtime
p253
I1460524901
sa(dp254
Vrating
p255
I3
sVaspects
p256
(lp257
(dp258
Vrating
p259
I1
sVtype
p260
Voverall
p261
sasVprofile_photo_url
p262
V//lh6.googleusercontent.com/-Z-4caLHZKUU/AAAAAAAAAAI/AAAAAAAAj_Y/xXzRT0A7-_g/photo.jpg
p263
sVlanguage
p264
Ven
p265
sVtext
p266
VFriendly service, great atmosphere.\u000aFood was good and well done, interesting experimental things to try, but nothing was amazing to me.  Things were on the salty end and it would have been nice to have some plain bread or salad to cut the salt.  
p267
sVauthor_name
p268
VConnie Kwan
p269
sVauthor_url
p270
Vhttps://plus.google.com/114300914220727227358
p271
sVtime
p272
I1459194252
sa(dp273
Vrating
p274
I5
sVaspects
p275
(lp276
(dp277
Vrating
p278
I3
sVtype
p279
Voverall
p280
sasVprofile_photo_url
p281
V//lh6.googleusercontent.com/-CX9uHIXBlbI/AAAAAAAAAAI/AAAAAAAAAEY/yUmcuK9iIB8/photo.jpg
p282
sVlanguage
p283
Ven
p284
sVtext
p285
VIf you can get a reservation, you're all set. They can be quite hard to come by unless you're ok with eating at 10pm or don't mind waiting for 2+ hours. \u000a\u000aLove that the dishes are served dim sum style. As the waiter pushes the cart up to your table or walks up with a tray of dishes, you can't wait to see what they have to offer! All the dishes are so unique and done exceptionally well. \u000a\u000aThis is a good place to dine if you're an adventurous eater. The staff is super friendly and does an awesome job. Definitely recommend trying at least once in your lifetime.
p286
sVauthor_name
p287
Veddy loren
p288
sVauthor_url
p289
Vhttps://plus.google.com/106802548382697999460
p290
sVtime
p291
I1455741793
sa(dp292
Vrating
p293
I3
sVaspects
p294
(lp295
(dp296
Vrating
p297
I1
sVtype
p298
Voverall
p299
sasVprofile_photo_url
p300
V//lh3.googleusercontent.com/-2K8qXQyvFOQ/AAAAAAAAAAI/AAAAAAAAABk/onM8gb-pAK4/photo.jpg
p301
sVlanguage
p302
Ven
p303
sVtext
p304
VI waited so long to try this place. I made reservations for a party of 4 because I wanted to try everything. I was super excited and high expectation but it didn't meet it. I am not saying it wasn't good but it wasn't great. I really wanted to love it. My friends and I order about 18 dishes. Most dishes that came to us warm, some slightly on the cooler side. The only dish that came nice and hot was their dumpling. Which the dumpling was the best savory item we got that night. I also really like the kim chi fried rice but everything else was just okay.
p305
sVauthor_name
p306
VMario Banda
p307
sVauthor_url
p308
Vhttps://plus.google.com/111219194353817653511
p309
sVtime
p310
I1460081585
sa(dp311
Vrating
p312
I5
sVaspects
p313
(lp314
(dp315
Vrating
p316
I3
sVtype
p317
Voverall
p318
sasVprofile_photo_url
p319
V//lh5.googleusercontent.com/-bwhIn_ka59c/AAAAAAAAAAI/AAAAAAAAAI4/KPVWCLj4-bY/photo.jpg
p320
sVlanguage
p321
Ven
p322
sVtext
p323
VFirst time here was before they were nominated (and won) the James Beard Award.... before they became world famous.... before it became almost impossible to get a reservation. Solid 5 stars then for food, service, ambiance. Now in April 2016, after another 6 times dining here in the past 2 years, each and every time is still a solid 5 star experience!
p324
sVauthor_name
p325
VKeira Chu
p326
sVauthor_url
p327
Vhttps://plus.google.com/113256681836649808083
p328
sVtime
p329
I1461081793
sasVformatted_phone_number
p330
V(415) 795-1272
p331
sVaddress_components
p332
(lp333
(dp334
Vlong_name
p335
V1529
p336
sVtypes
p337
(lp338
Vstreet_number
p339
asVshort_name
p340
V1529
p341
sa(dp342
Vlong_name
p343
VFillmore Street
p344
sVtypes
p345
(lp346
Vroute
p347
asVshort_name
p348
VFillmore St
p349
sa(dp350
Vlong_name
p351
VSan Francisco
p352
sVtypes
p353
(lp354
Vlocality
p355
aVpolitical
p356
asVshort_name
p357
VSF
p358
sa(dp359
Vlong_name
p360
VCalifornia
p361
sVtypes
p362
(lp363
Vadministrative_area_level_1
p364
aVpolitical
p365
asVshort_name
p366
VCA
p367
sa(dp368
Vlong_name
p369
VUnited States
p370
sVtypes
p371
(lp372
Vcountry
p373
aVpolitical
p374
asVshort_name
p375
VUS
p376
sa(dp377
Vlong_name
p378
V94115
p379
sVtypes
p380
(lp381
Vpostal_code
p382
asVshort_name
p383
V94115
p384
sas.