(dp1
Vrating
p2
cdecimal
Decimal
p3
(S'4.5'
tRp4
sVreference
p5
VCoQBdgAAAK1FIBG0cHkdoWm5gl9y6jyJb9dD8RZumD7L3-CsiJ-9zkzj2HR5l78Vvmeelrb6WkNaafIYoeNd8vu4MwVyEjTUrr5OodFxhy3gwls-jQtFFmOmiNLy0mx7owusPN6qS24paesKMBJZDhzZr2udtx8scR-1JUc-yvx1yAHvDcjiEhDzkxk278kBUD1L0I1MhoYgGhTIgoL-X9FjjgJcrdig_1mu9vpfzQ
p6
sVplace_id
p7
VChIJ695bZdKThYARKGtcr2TDVYw
p8
sVurl
p9
Vhttps://maps.google.com/?cid=10112203375536532264
p10
sVformatted_address
p11
V1 Marine Way, Stinson Beach, CA 94970, United States
p12
sVid
p13
Ve7ef6444e9673ac28e1c93a74936444c027fdcae
p14
sVopening_hours
p15
(dp16
Vweekday_text
p17
(lp18
VMonday: 11:00 AM \u2013 7:00 PM
p19
aVTuesday: 11:00 AM \u2013 7:00 PM
p20
aVWednesday: 11:00 AM \u2013 7:00 PM
p21
aVThursday: 11:00 AM \u2013 7:00 PM
p22
aVFriday: 11:00 AM \u2013 7:00 PM
p23
aVSaturday: 11:00 AM \u2013 7:00 PM
p24
aVSunday: 11:00 AM \u2013 7:00 PM
p25
asVopen_now
p26
I00
sVperiods
p27
(lp28
(dp29
Vclose
p30
(dp31
Vday
p32
I0
sVtime
p33
V1900
p34
ssVopen
p35
(dp36
Vday
p37
I0
sVtime
p38
V1100
p39
ssa(dp40
Vclose
p41
(dp42
Vday
p43
I1
sVtime
p44
V1900
p45
ssVopen
p46
(dp47
Vday
p48
I1
sVtime
p49
V1100
p50
ssa(dp51
Vclose
p52
(dp53
Vday
p54
I2
sVtime
p55
V1900
p56
ssVopen
p57
(dp58
Vday
p59
I2
sVtime
p60
V1100
p61
ssa(dp62
Vclose
p63
(dp64
Vday
p65
I3
sVtime
p66
V1900
p67
ssVopen
p68
(dp69
Vday
p70
I3
sVtime
p71
V1100
p72
ssa(dp73
Vclose
p74
(dp75
Vday
p76
I4
sVtime
p77
V1900
p78
ssVopen
p79
(dp80
Vday
p81
I4
sVtime
p82
V1100
p83
ssa(dp84
Vclose
p85
(dp86
Vday
p87
I5
sVtime
p88
V1900
p89
ssVopen
p90
(dp91
Vday
p92
I5
sVtime
p93
V1100
p94
ssa(dp95
Vclose
p96
(dp97
Vday
p98
I6
sVtime
p99
V1900
p100
ssVopen
p101
(dp102
Vday
p103
I6
sVtime
p104
V1100
p105
ssassVvicinity
p106
V1 Marine Way, Stinson Beach
p107
sVscope
p108
VGOOGLE
p109
sVwebsite
p110
Vhttp://www.sandpiperstinsonbeach.com/
p111
sVutc_offset
p112
I-420
sVuser_ratings_total
p113
I9
sVphotos
p114
(lp115
(dp116
Vphoto_reference
p117
VCmRdAAAA7RyaZt7v1uLqkr7T4Kkget9EK5s5FH-widkS1HDzwCGZuVh_b_u24YISHtejPNte5MXo2J5XTQ9hi3zHJd4uRi7YvBIGL_HDdMl-KGlxa3AnDmj7khYhKfV-5-3nDaJIEhAL5PL01LdjYX_F1iSGj97DGhToRoz-T-zIEMfLa_OrB0XU0_5GTQ
p118
sVwidth
p119
I1600
sVhtml_attributions
p120
(lp121
V<a href="https://maps.google.com/maps/contrib/110375764044273038888/photos">The Sandpiper Lodging at the Beach</a>
p122
asVheight
p123
I1200
sasVtypes
p124
(lp125
Vlodging
p126
aVpoint_of_interest
p127
aVestablishment
p128
asVicon
p129
Vhttps://maps.gstatic.com/mapfiles/place_api/icons/lodging-71.png
p130
sVname
p131
VThe Sandpiper Lodging at the Beach
p132
sVgeometry
p133
(dp134
Vaccess_points
p135
(lp136
(dp137
Vtravel_modes
p138
(lp139
VDRIVING
p140
aVBICYCLING
p141
aVWALKING
p142
aVTRANSIT
p143
asVlocation
p144
(dp145
Vlat
p146
g3
(S'37.8975891'
tRp147
sVlng
p148
g3
(S'-122.6385541'
tRp149
ssasVlocation
p150
(dp151
Vlat
p152
g3
(S'37.8974867'
tRp153
sVlng
p154
g3
(S'-122.63844'
tRp155
sssVadr_address
p156
V<span class="street-address">1 Marine Way</span>, <span class="locality">Stinson Beach</span>, <span class="region">CA</span> <span class="postal-code">94970</span>, <span class="country-name">United States</span>
p157
sVinternational_phone_number
p158
V+1 415-868-1632
p159
sVreviews
p160
(lp161
(dp162
Vrating
p163
I5
sVaspects
p164
(lp165
(dp166
Vrating
p167
I3
sVtype
p168
Voverall
p169
sasVlanguage
p170
Ven
p171
sVtext
p172
VThis place is awesome. First, the room was super clean. I loved the fireplace heater. There was a microwave and fridge-even had ice cubes into the freezer. Nice touch and attention to detail!  It was perfect- from the room itself to the location. You can walk to the beach, walk to restaurants, walk to the market for water and liquor. Easy access to Mt Tamalpais and Muir Woods. The best part of my trip. Highly recommended! I'll be back here again. 
p173
sVauthor_name
p174
VStephanie Shaddon
p175
sVauthor_url
p176
Vhttps://plus.google.com/114104612666357343897
p177
sVtime
p178
I1455948669
sa(dp179
Vrating
p180
I5
sVaspects
p181
(lp182
(dp183
Vrating
p184
I3
sVtype
p185
Voverall
p186
sasVprofile_photo_url
p187
V//lh6.googleusercontent.com/-8Vit8orOr88/AAAAAAAAAAI/AAAAAAAAABU/5tcM87CvkqQ/photo.jpg
p188
sVlanguage
p189
Ven
p190
sVtext
p191
VGreat place.  The employees were very friendly and the rooms were nice.  And the walk to the beach was perfect.  The grounds are beautiful, too.
p192
sVauthor_name
p193
VCameron McCown
p194
sVauthor_url
p195
Vhttps://plus.google.com/103736960016845350063
p196
sVtime
p197
I1452440079
sa(dp198
Vrating
p199
I5
sVaspects
p200
(lp201
(dp202
Vrating
p203
I3
sVtype
p204
Voverall
p205
sasVprofile_photo_url
p206
V//lh6.googleusercontent.com/-XMW7kg1uFOk/AAAAAAAAAAI/AAAAAAAAbMw/p64l0N7SEjo/photo.jpg
p207
sVlanguage
p208
Ven
p209
sVtext
p210
VGreat place.  We loved the electric "fireplace" heater and the flora planted around the grounds.
p211
sVauthor_name
p212
VRobin McCown
p213
sVauthor_url
p214
Vhttps://plus.google.com/104785222222344398375
p215
sVtime
p216
I1452440154
sa(dp217
Vrating
p218
I5
sVaspects
p219
(lp220
(dp221
Vrating
p222
I3
sVtype
p223
Voverall
p224
sasVlanguage
p225
Ven
p226
sVtext
p227
VComfortable and clean, friendly and helpful staff.  Thoughtful touches... we brought wine but didnt think about a bottle opener or glasses, those were provided in the room, along with a cutting board and knife.  There is a private garden surrounded by flowers for guests.  A short walk to the beach, local restaurants, art gallery, local market.  Stinson Beach is a eclectic, surfer, artsy, small community.  It is charming and well kept, but not luxurious.  The Sandpiper Inn is a reflection of its community.  A very relaxed environment, perfect place to unwind.
p228
sVauthor_name
p229
VKatrina Thomas
p230
sVauthor_url
p231
Vhttps://plus.google.com/114407572115907593840
p232
sVtime
p233
I1374256651
sa(dp234
Vrating
p235
I3
sVaspects
p236
(lp237
(dp238
Vrating
p239
I1
sVtype
p240
Voverall
p241
sasVlanguage
p242
Ven
p243
sVtext
p244
VThe lodging options at Stinson beach are very limited as in all the beaches in this part of the state. It is pretty pricey for what you get but is clean and cozy. A homey feel which to me is probably not 5 star standard.
p245
sVauthor_name
p246
Vleslie runfola
p247
sVauthor_url
p248
Vhttps://plus.google.com/102608687689069578444
p249
sVtime
p250
I1336704884
sasVformatted_phone_number
p251
V(415) 868-1632
p252
sVaddress_components
p253
(lp254
(dp255
Vlong_name
p256
V1
sVtypes
p257
(lp258
Vstreet_number
p259
asVshort_name
p260
V1
sa(dp261
Vlong_name
p262
VMarine Way
p263
sVtypes
p264
(lp265
Vroute
p266
asVshort_name
p267
VMarine Way
p268
sa(dp269
Vlong_name
p270
VStinson Beach
p271
sVtypes
p272
(lp273
Vlocality
p274
aVpolitical
p275
asVshort_name
p276
VStinson Beach
p277
sa(dp278
Vlong_name
p279
VCalifornia
p280
sVtypes
p281
(lp282
Vadministrative_area_level_1
p283
aVpolitical
p284
asVshort_name
p285
VCA
p286
sa(dp287
Vlong_name
p288
VUnited States
p289
sVtypes
p290
(lp291
Vcountry
p292
aVpolitical
p293
asVshort_name
p294
VUS
p295
sa(dp296
Vlong_name
p297
V94970
p298
sVtypes
p299
(lp300
Vpostal_code
p301
asVshort_name
p302
V94970
p303
sas.