(dp1
Vrating
p2
cdecimal
Decimal
p3
(S'4.7'
tRp4
sVreference
p5
VCnRnAAAAHA0Rmbpa6tA2Qs-VgCtvDr4Y1nbBQsxUNkLD84j9RqSN9N6ls_iQooyFFXiPKJUzueeaCFpoksrPk6X7Gx8QLBI9CI6ojSOFKODPcsTASFx99jEgVnunWdF3cEZg3ziWXHYITQW_hoglDHrgsIKRChIQ4_k0tiFbAy45F90mRFWZ0BoUQ1Fc7li-lRL0DTpfSrUvAiXoCmA
p6
sVplace_id
p7
VChIJlR5fQ_F7hYARO9bet3eMP3s
p8
sVurl
p9
Vhttps://maps.google.com/?cid=8880971436011738683
p10
sVformatted_address
p11
V2501 Grizzly Peak Blvd, Orinda, CA 94563, United States
p12
sVid
p13
V1d4afa6b2238af775d953e8ddcd8089c3c27f9b3
p14
sVopening_hours
p15
(dp16
Vweekday_text
p17
(lp18
VMonday: 5:00 AM \u2013 10:00 PM
p19
aVTuesday: 5:00 AM \u2013 10:00 PM
p20
aVWednesday: 5:00 AM \u2013 10:00 PM
p21
aVThursday: 5:00 AM \u2013 10:00 PM
p22
aVFriday: 5:00 AM \u2013 10:00 PM
p23
aVSaturday: 5:00 AM \u2013 10:00 PM
p24
aVSunday: 5:00 AM \u2013 10:00 PM
p25
asVopen_now
p26
I01
sVperiods
p27
(lp28
(dp29
Vclose
p30
(dp31
Vday
p32
I0
sVtime
p33
V2200
p34
ssVopen
p35
(dp36
Vday
p37
I0
sVtime
p38
V0500
p39
ssa(dp40
Vclose
p41
(dp42
Vday
p43
I1
sVtime
p44
V2200
p45
ssVopen
p46
(dp47
Vday
p48
I1
sVtime
p49
V0500
p50
ssa(dp51
Vclose
p52
(dp53
Vday
p54
I2
sVtime
p55
V2200
p56
ssVopen
p57
(dp58
Vday
p59
I2
sVtime
p60
V0500
p61
ssa(dp62
Vclose
p63
(dp64
Vday
p65
I3
sVtime
p66
V2200
p67
ssVopen
p68
(dp69
Vday
p70
I3
sVtime
p71
V0500
p72
ssa(dp73
Vclose
p74
(dp75
Vday
p76
I4
sVtime
p77
V2200
p78
ssVopen
p79
(dp80
Vday
p81
I4
sVtime
p82
V0500
p83
ssa(dp84
Vclose
p85
(dp86
Vday
p87
I5
sVtime
p88
V2200
p89
ssVopen
p90
(dp91
Vday
p92
I5
sVtime
p93
V0500
p94
ssa(dp95
Vclose
p96
(dp97
Vday
p98
I6
sVtime
p99
V2200
p100
ssVopen
p101
(dp102
Vday
p103
I6
sVtime
p104
V0500
p105
ssassVvicinity
p106
V2501 Grizzly Peak Boulevard, Orinda
p107
sVscope
p108
VGOOGLE
p109
sVwebsite
p110
Vhttp://www.ebparks.org/parks/tilden
p111
sVutc_offset
p112
I-420
sVuser_ratings_total
p113
I139
sVphotos
p114
(lp115
(dp116
Vphoto_reference
p117
VCmRdAAAAVc2pVJZGkkapYXPj-qm4xRwkQZHPCc8cqKDFMs_uuDUVuigHe8nkbWPzznv_nUR1ToHQdgAsE9skYcLY5h5OumgMlm2h4k9TbzGiHEKuydRV5HKUHv_W-8-DEmW36s0rEhA0Kd6RqdMLopk32sZI2VFmGhS7Lq31lMnqTBP51Wz3_QhOxvwOrw
p118
sVwidth
p119
I1440
sVhtml_attributions
p120
(lp121
V<a href="https://maps.google.com/maps/contrib/100245642009825108659/photos">Antonio Martinez</a>
p122
asVheight
p123
I736
sa(dp124
Vphoto_reference
p125
VCmRdAAAAAwRJwRKHo1G5BfWKAuNIz8R2h0xGWgEkF9NBEnu9cELYkqP3wmldUEeuTJXAkY43qAMgfDD-5nVnu4iGIGJ5LBEf0tif1Pxgwjlu8_mIZ4wyiYgfu3Gug15yQnrwMyMAEhAVtXvPxB0ogY8lF4c9czywGhSUGEzuXWohfjzeXkUlqaesF2CV3g
p126
sVwidth
p127
I3264
sVhtml_attributions
p128
(lp129
V<a href="https://maps.google.com/maps/contrib/107858092873137244623/photos">Chad Katoff</a>
p130
asVheight
p131
I2448
sa(dp132
Vphoto_reference
p133
VCmRdAAAADC38wNY_R2WpelhNFI6--98uhc_JbUn7Kg0J6xosYUdgr6GDdFkxXFy8C-pWTgDpCtcNLGW6FZS5_Qy63-odV7Hgak5Lwo6jbsZI5ssV7Oa-8yNtWGO_qPKcggDMOQ9oEhBc4vVRu-btMH2UXlifjd_hGhQ9IRRsOWhTaCeWzmYypOLLCFJ20g
p134
sVwidth
p135
I1926
sVhtml_attributions
p136
(lp137
V<a href="https://maps.google.com/maps/contrib/104472554783881039027/photos">typo graphica</a>
p138
asVheight
p139
I1589
sa(dp140
Vphoto_reference
p141
VCmRdAAAAiP5RA9IcLF2exLRNuUqhEf2kp9KY-Yp-YMD8QPjHLUQ3DafDHEyHo_-dnb0CgIVzJcPACzgEbIWdbipJThY1xp_GauKyn8JormrqSQph0Ox4hWkMmkhIQ2pDfCJ-1Fw_EhBmaD9nffK7o1wUuLVkvivNGhSv-VFu7UVveJWOUWhhX8rZuDWqUw
p142
sVwidth
p143
I2048
sVhtml_attributions
p144
(lp145
V<a href="https://maps.google.com/maps/contrib/102690091571148307715/photos">Amy Meyer</a>
p146
asVheight
p147
I1536
sa(dp148
Vphoto_reference
p149
VCmRdAAAAS9Ewj9FVLSVpvPF469c1BhQ38CoOmdTk5hjeKTErxv_Lo5bn1uKRZF5H1jkhu3cRzjn6QdzhfChDXUiFvPXyODKNrLzsCbVmHrfmnL67zThl00-cD6an45yH49DU5tkSEhDn89mzGPAB4IPq_-KUPibrGhSr7bLtkUB5n5YlCchYH000KLkqYg
p150
sVwidth
p151
I7022
sVhtml_attributions
p152
(lp153
V<a href="https://maps.google.com/maps/contrib/105144910913956002979/photos">Malachi Leopold</a>
p154
asVheight
p155
I3194
sa(dp156
Vphoto_reference
p157
VCmRdAAAAdEmvfXAeNzrIgNUKfViM_1RW7q22MqfrW6YIMBrcpsUThMD07cEY9Bc4WMJBu7IbOdwtYhF6qsAi5Jzv2DgaJaDUBXSX_TbN5gB5Ysc8JZ0Vs82g5jLDv1L393U0zuc7EhDWci0dACjVS8xrp8enRm4ZGhRg7epXebJkk4sBQ0YUM4gjo4a3tw
p158
sVwidth
p159
I3456
sVhtml_attributions
p160
(lp161
V<a href="https://maps.google.com/maps/contrib/110367633307887929870/photos">Don Putnam</a>
p162
asVheight
p163
I2304
sa(dp164
Vphoto_reference
p165
VCoQBdwAAANZMVYBlvFN7uI9DSj6ZiqkvQNWr_uB8pdpsEOBiI2LMkCa5T-kUPMY5ubJJ7YXPGFNAWch6kxGGN218EsXs7tfQ_BQqpW4NMN-OYT2ZhvkG5CXWHYnhNetvIvPvhsUoMg0nQ5Ir9fLAE_DVkhHl2QHTCHRIMXs-m-DcPY8KypNXEhCaKSVjlDNqiGV531ZhfzzPGhRFR7VfJsHwRceU8FVBLADZ_Z8PeA
p166
sVwidth
p167
I3264
sVhtml_attributions
p168
(lp169
V<a href="https://maps.google.com/maps/contrib/117747346875656140927/photos">Lex Oudijk</a>
p170
asVheight
p171
I2448
sa(dp172
Vphoto_reference
p173
VCmRdAAAA-5KnbzxNCGmroPGXSsiMsMfD5wSxrcVsEqcJ1Yqp6pESppPumcDb74g1KLXe89Iyp0II0gPgZMnkNVhAhCOJi73ygkg19H5RbD1UajCTWKAZwVTktgc3aLYYqcHo3io2EhCGWvhugRArfu8eIOB_WuPkGhQ4GS-JM9n1YXEfj_enJXa_VaUHMA
p174
sVwidth
p175
I2448
sVhtml_attributions
p176
(lp177
V<a href="https://maps.google.com/maps/contrib/105144910913956002979/photos">Malachi Leopold</a>
p178
asVheight
p179
I2448
sa(dp180
Vphoto_reference
p181
VCmRdAAAA7RsXQg3IPB4EwuD6_IqFFpi2v_cQyYw-pnC4Tq0BG4Iep0q7Bp-_JTk3_ImNdKNTUK9cy7abHcRXoWDZsVYPe9_Wtgzj7f9m39Wa3gckjk-uMbAWRvzgtViqgPRqNk56EhDo5SIiZUVY0KjJqJE1rhNwGhQj2FwlwACGjKizzfrrFOFQO7jnKg
p182
sVwidth
p183
I3206
sVhtml_attributions
p184
(lp185
V<a href="https://maps.google.com/maps/contrib/104472554783881039027/photos">typo graphica</a>
p186
asVheight
p187
I4990
sa(dp188
Vphoto_reference
p189
VCmRdAAAASrOuxfvKSnVBOVCAVweeVKX6cPY5YJkB6sMeF7ZE6Okao0viCy8IAPlGHi5oBDYw6gVFkkgn1a115zgW7Y8eJj9UC36Z1Bmcs67CJ3gZG1PaZXM9NWMowVx1kNRSBl26EhBBa1LrNAP3PMc75kPZbi1KGhRhheSEvzV93l4zFF_LkcyCTqjUpg
p190
sVwidth
p191
I3264
sVhtml_attributions
p192
(lp193
V<a href="https://maps.google.com/maps/contrib/107858092873137244623/photos">Chad Katoff</a>
p194
asVheight
p195
I2448
sasVtypes
p196
(lp197
Vpark
p198
aVpoint_of_interest
p199
aVestablishment
p200
asVicon
p201
Vhttps://maps.gstatic.com/mapfiles/place_api/icons/generic_recreational-71.png
p202
sVname
p203
VTilden Regional Park
p204
sVgeometry
p205
(dp206
Vlocation
p207
(dp208
Vlat
p209
g3
(S'37.89276700000001'
tRp210
sVlng
p211
g3
(S'-122.242451'
tRp212
sssVadr_address
p213
V<span class="street-address">2501 Grizzly Peak Blvd</span>, <span class="locality">Orinda</span>, <span class="region">CA</span> <span class="postal-code">94563</span>, <span class="country-name">United States</span>
p214
sVinternational_phone_number
p215
V+1 510-544-2747
p216
sVreviews
p217
(lp218
(dp219
Vrating
p220
I3
sVaspects
p221
(lp222
(dp223
Vrating
p224
I1
sVtype
p225
Voverall
p226
sasVprofile_photo_url
p227
V//lh6.googleusercontent.com/-7Fo29fHi8jk/AAAAAAAAAAI/AAAAAAAARso/mC-YO7czLVw/photo.jpg
p228
sVlanguage
p229
Ven
p230
sVtext
p231
VVery nice park in general.  Excellent views of SF, Golden Gate, & Bay Bridges.  Go all the way to the top for views of the Carquinez Straights too.  The park is big so people tend to spread out to some extent.  Parking can be a bit of a struggle on the nicest days when there are lots of visitors.  Lots of trails to hike but only a few really nice ones.  Too hot in the summer and trails can get muddy when it rains.  I have not hiked too many of the trails yet.  My favorite to date is up Wildcat Peak and back down Laurel Canyon to Pine Tree trail.  Steam Train is always a great little pleasure especially for the young ones.
p232
sVauthor_name
p233
VGary Nishida
p234
sVauthor_url
p235
Vhttps://plus.google.com/104086036244546896481
p236
sVtime
p237
I1457727603
sa(dp238
Vrating
p239
I5
sVaspects
p240
(lp241
(dp242
Vrating
p243
I3
sVtype
p244
Voverall
p245
sasVprofile_photo_url
p246
V//lh4.googleusercontent.com/-1Z_3eAbokZs/AAAAAAAAAAI/AAAAAAAAKYw/ozEm68r5Gf8/photo.jpg
p247
sVlanguage
p248
Ven
p249
sVtext
p250
VGreat adventure with the kids. Check out the Little Farm and feed veggies to the cows. Head into the nature center and learn about owls. Stop at the merry-go-round, steam train, then exist on Grizzly Peak and stop at the huge log for the best view of The Bay you'll ever see.
p251
sVauthor_name
p252
VBen Snyder
p253
sVauthor_url
p254
Vhttps://plus.google.com/114266569535737199021
p255
sVtime
p256
I1456715280
sa(dp257
Vrating
p258
I5
sVaspects
p259
(lp260
(dp261
Vrating
p262
I3
sVtype
p263
Voverall
p264
sasVprofile_photo_url
p265
V//lh6.googleusercontent.com/-QvkeGiaYUEQ/AAAAAAAAAAI/AAAAAAAAByY/THINDd95DMo/photo.jpg
p266
sVlanguage
p267
Ven
p268
sVtext
p269
VBeautiful local park with fantastic scenery and loads of hiking trails. Love the mini steam trains. 
p270
sVauthor_name
p271
VXavier Lee
p272
sVauthor_url
p273
Vhttps://plus.google.com/103674981195457842493
p274
sVtime
p275
I1458782478
sa(dp276
Vrating
p277
I4
sVaspects
p278
(lp279
(dp280
Vrating
p281
I2
sVtype
p282
Voverall
p283
sasVprofile_photo_url
p284
V//lh3.googleusercontent.com/-TM1J0TDZHZY/AAAAAAAAAAI/AAAAAAAACTQ/-AZpu156E0g/photo.jpg
p285
sVlanguage
p286
Ven
p287
sVtext
p288
VWhat hasn't already been said about this park? Well, if you come for some night hiking, be prepared to hunt a little for trailheads (especially if you're navigating via Google Maps), since the app doesn't accurately take you to them. With the park relatively small, it's easy to get your bearings and find your way.
p289
sVauthor_name
p290
VAaron Leong
p291
sVauthor_url
p292
Vhttps://plus.google.com/100381802016786753776
p293
sVtime
p294
I1455142385
sa(dp295
Vrating
p296
I5
sVaspects
p297
(lp298
(dp299
Vrating
p300
I3
sVtype
p301
Voverall
p302
sasVprofile_photo_url
p303
V//lh5.googleusercontent.com/-_BtlIwKI6Iw/AAAAAAAAAAI/AAAAAAAAXAo/vOUAs5d-1Lg/photo.jpg
p304
sVlanguage
p305
Ven
p306
sVtext
p307
VThis park has great hiking trails. There is a lot of good scenery and the microclimate around this park is pretty good for hiking most of the year.
p308
sVauthor_name
p309
VZachary Kaufman
p310
sVauthor_url
p311
Vhttps://plus.google.com/105666745434072442306
p312
sVtime
p313
I1458153152
sasVformatted_phone_number
p314
V(510) 544-2747
p315
sVaddress_components
p316
(lp317
(dp318
Vlong_name
p319
V2501
p320
sVtypes
p321
(lp322
Vstreet_number
p323
asVshort_name
p324
V2501
p325
sa(dp326
Vlong_name
p327
VGrizzly Peak Boulevard
p328
sVtypes
p329
(lp330
Vroute
p331
asVshort_name
p332
VGrizzly Peak Blvd
p333
sa(dp334
Vlong_name
p335
VOrinda
p336
sVtypes
p337
(lp338
Vlocality
p339
aVpolitical
p340
asVshort_name
p341
VOrinda
p342
sa(dp343
Vlong_name
p344
VCalifornia
p345
sVtypes
p346
(lp347
Vadministrative_area_level_1
p348
aVpolitical
p349
asVshort_name
p350
VCA
p351
sa(dp352
Vlong_name
p353
VUnited States
p354
sVtypes
p355
(lp356
Vcountry
p357
aVpolitical
p358
asVshort_name
p359
VUS
p360
sa(dp361
Vlong_name
p362
V94563
p363
sVtypes
p364
(lp365
Vpostal_code
p366
asVshort_name
p367
V94563
p368
sas.