(dp1
Vrating
p2
cdecimal
Decimal
p3
(S'3.9'
tRp4
sVreference
p5
VCnRuAAAAfcyU-rdfp2JBjTZp7Nt1E9NH3AzxKdlCBzUIQYzNPaiMa4xFGe5TCihc1eeBHBHx-GJIxOJopPUgbNAHEOieL_cchMQ3ThZ8GBZdxvy0U3oxV78P7qyc_1b9G9VeV76Dlr21c0kEIK0eX_NkYvMLphIQKjuRZYIEsmw7FSNnMN10aRoU2buBanCJYBnuaC0NWtvACCdVjnU
p6
sVplace_id
p7
VChIJL9WkTpjPhYARqrPmOrlsSG8
p8
sVurl
p9
Vhttps://maps.google.com/?cid=8018778679346115498
p10
sVformatted_address
p11
V12938 Sir Francis Drake Blvd, Inverness, CA 94937, United States
p12
sVid
p13
V66b1d35bed8ceab5547ee40bad42e266a88d2510
p14
sVopening_hours
p15
(dp16
Vweekday_text
p17
(lp18
VMonday: 8:00 AM \u2013 9:00 PM
p19
aVTuesday: 8:00 AM \u2013 9:00 PM
p20
aVWednesday: 8:00 AM \u2013 9:00 PM
p21
aVThursday: 8:00 AM \u2013 9:00 PM
p22
aVFriday: 8:00 AM \u2013 9:00 PM
p23
aVSaturday: 8:00 AM \u2013 9:00 PM
p24
aVSunday: 8:00 AM \u2013 9:00 PM
p25
asVopen_now
p26
I01
sVperiods
p27
(lp28
(dp29
Vclose
p30
(dp31
Vday
p32
I0
sVtime
p33
V2100
p34
ssVopen
p35
(dp36
Vday
p37
I0
sVtime
p38
V0800
p39
ssa(dp40
Vclose
p41
(dp42
Vday
p43
I1
sVtime
p44
V2100
p45
ssVopen
p46
(dp47
Vday
p48
I1
sVtime
p49
V0800
p50
ssa(dp51
Vclose
p52
(dp53
Vday
p54
I2
sVtime
p55
V2100
p56
ssVopen
p57
(dp58
Vday
p59
I2
sVtime
p60
V0800
p61
ssa(dp62
Vclose
p63
(dp64
Vday
p65
I3
sVtime
p66
V2100
p67
ssVopen
p68
(dp69
Vday
p70
I3
sVtime
p71
V0800
p72
ssa(dp73
Vclose
p74
(dp75
Vday
p76
I4
sVtime
p77
V2100
p78
ssVopen
p79
(dp80
Vday
p81
I4
sVtime
p82
V0800
p83
ssa(dp84
Vclose
p85
(dp86
Vday
p87
I5
sVtime
p88
V2100
p89
ssVopen
p90
(dp91
Vday
p92
I5
sVtime
p93
V0800
p94
ssa(dp95
Vclose
p96
(dp97
Vday
p98
I6
sVtime
p99
V2100
p100
ssVopen
p101
(dp102
Vday
p103
I6
sVtime
p104
V0800
p105
ssassVvicinity
p106
V12938 Sir Francis Drake Boulevard, Inverness
p107
sVscope
p108
VGOOGLE
p109
sVwebsite
p110
Vhttp://www.tomalesbayresort.com/
p111
sVutc_offset
p112
I-420
sVuser_ratings_total
p113
I11
sVphotos
p114
(lp115
(dp116
Vphoto_reference
p117
VCmRdAAAA-tJ1-QSUgZb8tGhAzZFjXRL1sv3GFD0wMN96x7GiLA9T6YmjslCJ4UzYsxs9fzz04X2zoKOfrAHexj0jMFoUfnpHn8I73ATsPSdLYaoHuylJdSYW3D0ycJ_h4rX_IAJZEhAeCaZFq8ulumWq-vc-xFlUGhQIPB-RW5nyZXWnQjKORhZgdahzcg
p118
sVwidth
p119
I2048
sVhtml_attributions
p120
(lp121
V<a href="https://maps.google.com/maps/contrib/113304481924118061776/photos">Tomales Bay Resort &amp; Marina</a>
p122
asVheight
p123
I1365
sa(dp124
Vphoto_reference
p125
VCmRdAAAAEG0bu6bm5ZSDBJkuSN19IaBdydi0ZAvc7PjvxlQYQv6REhZIY49LflWCLABXlIxO6c6c2hKvmXYxGcELq3xdnY79rGjbqB_M4dtaPU86DiLHcZjB_C3QfXw1AjtpSrIwEhD855EhsqdgVRVrBm-ktlhFGhTeFfpNRNUAPci9nTofwG8p3lH2Pw
p126
sVwidth
p127
I2048
sVhtml_attributions
p128
(lp129
V<a href="https://maps.google.com/maps/contrib/113304481924118061776/photos">Tomales Bay Resort &amp; Marina</a>
p130
asVheight
p131
I1365
sa(dp132
Vphoto_reference
p133
VCmRdAAAA-Jb6jYq78Fs-92R_bK-nHGa0JANnsH2ZaKFNLZ7M0VolqsFhHrehxGFwTrvvsHjy0Agu1kBKWpm-rszCmeu5Ot1PZfnQeRwhDeQ0N7mbKFStvSULOqgWIsuDjM_QWCR_EhDc2rRyxFnWdhqCenBHTyarGhRM1op7F-N3uG_t2iA25VGla21fqw
p134
sVwidth
p135
I2048
sVhtml_attributions
p136
(lp137
V<a href="https://maps.google.com/maps/contrib/113304481924118061776/photos">Tomales Bay Resort &amp; Marina</a>
p138
asVheight
p139
I1365
sa(dp140
Vphoto_reference
p141
VCmRdAAAAT-UDHmkqQFC9IZEJ49ufUgPpehWKoZtSqHBxJEWOCOm2N2qlDDAoAKT5vsLi7JSFmOIemIfF6Ctc5OhZinNMYfprbNfrzSRKqKTdtmmnlK3h1r2kpGC2iurk4zQsLGTHEhA2sfNs2ylUWF3j1SKuBRZfGhRs14U-1wUP7XJT56_GWZU3y27Fvg
p142
sVwidth
p143
I1365
sVhtml_attributions
p144
(lp145
V<a href="https://maps.google.com/maps/contrib/113304481924118061776/photos">Tomales Bay Resort &amp; Marina</a>
p146
asVheight
p147
I2048
sa(dp148
Vphoto_reference
p149
VCmRdAAAAS_Mzo4OKQrAE2b1zjNsYagtJzKvQjBOW10FdqmCJdul54SoyjAx0myzCSvJh_h_-cvEgFQJ_T-H4Ez3KOh4qQu08nRExp7QB7CkgY5Et-mLx57ZoHfvbhK2cV3sjys_gEhBMPNmb7lb-OBF_kY7NYFDaGhRGb2_KF-946ufcrJSNDzFViA8K_Q
p150
sVwidth
p151
I1365
sVhtml_attributions
p152
(lp153
V<a href="https://maps.google.com/maps/contrib/113304481924118061776/photos">Tomales Bay Resort &amp; Marina</a>
p154
asVheight
p155
I2048
sa(dp156
Vphoto_reference
p157
VCmRdAAAALeWBmg85MLlNs242v16D67VNvkkGJ0soQBzsJ071YBu8NbBzI-P3XV_Fxu9Giqt2EzoE-VGAzPEPFTg06hAW-2iGZQR-4lUWKw_l-34V5Z6JWFABKBHQF9y8UsP1k8ifEhD5sC6NhVTGb1Gd9Hg2tVo0GhQcCi0sBEYpDXeLWMQUPtNLfrcNhw
p158
sVwidth
p159
I2048
sVhtml_attributions
p160
(lp161
V<a href="https://maps.google.com/maps/contrib/113304481924118061776/photos">Tomales Bay Resort &amp; Marina</a>
p162
asVheight
p163
I1365
sa(dp164
Vphoto_reference
p165
VCmRdAAAAsdWgg1iBZAWgu2csf6amcm-mzIATpOsctCgdZe1d_7o2PunjbyIhhdv2q6OhAIxLMu-vPgH1FQHCPj-nGjBqviTD0DSQnjh8ieLsB91vAn8Mi5rVOPCkgyPzQjMzBVcbEhCiydG6ku9g6FPLI4t8AhwJGhRfN7eISwwKHr3wgdWP3C4783Ab8w
p166
sVwidth
p167
I2048
sVhtml_attributions
p168
(lp169
V<a href="https://maps.google.com/maps/contrib/113304481924118061776/photos">Tomales Bay Resort &amp; Marina</a>
p170
asVheight
p171
I1365
sasVtypes
p172
(lp173
Vlodging
p174
aVpoint_of_interest
p175
aVestablishment
p176
asVicon
p177
Vhttps://maps.gstatic.com/mapfiles/place_api/icons/lodging-71.png
p178
sVname
p179
VTomales Bay Resort & Marina
p180
sVgeometry
p181
(dp182
Vaccess_points
p183
(lp184
(dp185
Vtravel_modes
p186
(lp187
VDRIVING
p188
aVBICYCLING
p189
aVWALKING
p190
aVTRANSIT
p191
asVlocation
p192
(dp193
Vlat
p194
g3
(S'38.1069365'
tRp195
sVlng
p196
g3
(S'-122.8630841'
tRp197
ssasVlocation
p198
(dp199
Vlat
p200
g3
(S'38.1070379'
tRp201
sVlng
p202
g3
(S'-122.8628638'
tRp203
sssVadr_address
p204
V<span class="street-address">12938 Sir Francis Drake Blvd</span>, <span class="locality">Inverness</span>, <span class="region">CA</span> <span class="postal-code">94937</span>, <span class="country-name">United States</span>
p205
sVinternational_phone_number
p206
V+1 415-669-1389
p207
sVreviews
p208
(lp209
(dp210
Vrating
p211
I4
sVaspects
p212
(lp213
(dp214
Vrating
p215
I2
sVtype
p216
Voverall
p217
sasVprofile_photo_url
p218
V//lh4.googleusercontent.com/-vk3FxhvrxUE/AAAAAAAAAAI/AAAAAAAAD0g/vSNAZJd0EUs/photo.jpg
p219
sVlanguage
p220
Ven
p221
sVtext
p222
VIt was one of the few if not only place that allowed dog and was possible to stay for only one night. Was nice and clean. Breakfast was given on checkin in a paper bag (cerial, milk, juice, aplle).
p223
sVauthor_name
p224
VRain Keskula
p225
sVauthor_url
p226
Vhttps://plus.google.com/101018469233185421525
p227
sVtime
p228
I1456117550
sa(dp229
Vrating
p230
I5
sVaspects
p231
(lp232
(dp233
Vrating
p234
I3
sVtype
p235
Voverall
p236
sasVlanguage
p237
Ven
p238
sVtext
p239
VNice clean rooms, comfortable beds, and friendly service. Our room had a mini-fridge, microwave, and coffeemaker. They had coffee,tea, hot cocoa, and oatmeal packets in the room. The bathroom was fully stocked with towels along with complimentary lotion, soap, and shampoo. In the office snack packs were available for breakfast, they included- fresh fruit, milk, cereal, and juice.
p240
sVauthor_name
p241
VKatrina Stengel
p242
sVauthor_url
p243
Vhttps://plus.google.com/105472657978062043293
p244
sVtime
p245
I1431984474
sa(dp246
Vrating
p247
I4
sVaspects
p248
(lp249
(dp250
Vrating
p251
I2
sVtype
p252
Voverall
p253
sasVlanguage
p254
Ven
p255
sVtext
p256
VPerfect stop along the way.  Nice view along the bay.  Rooms are clean, staff is very polite.  No restaurant on site, however eating places are within a couple of miles. 
p257
sVauthor_name
p258
VDavid Abernathy
p259
sVauthor_url
p260
Vhttps://plus.google.com/112093945345288889515
p261
sVtime
p262
I1403151201
sa(dp263
Vrating
p264
I5
sVaspects
p265
(lp266
(dp267
Vrating
p268
I3
sVtype
p269
Voverall
p270
sasVlanguage
p271
Ven
p272
sVtext
p273
V$125 to stay there for 1 night on 11/11/12 --- the best deal for the best view in Tomales Bay.The bay is just 40 yards from our room #17 (cool room with 2 sets of door, you can go out from either side), you can even walk by the shore and see the bayview sunrise/sunset (but you have to get there at the right time) --- it is totally out of our expectation !the office open 9am-9pm --- because we had to leave early, so the lady putthe breakfast in paper bag and gave us in the evening, very thoughtful service.
p274
sVauthor_name
p275
VArthur Lin
p276
sVauthor_url
p277
Vhttps://plus.google.com/107586728397979619934
p278
sVtime
p279
I1353093606
sa(dp280
Vrating
p281
I4
sVaspects
p282
(lp283
(dp284
Vrating
p285
I2
sVtype
p286
Voverall
p287
sasVprofile_photo_url
p288
V//lh3.googleusercontent.com/-EImuCu2UnhQ/AAAAAAAAAAI/AAAAAAACB2s/tYfkfeNXFJ8/photo.jpg
p289
sVlanguage
p290
Ven
p291
sVtext
p292
VStayed in a room we could walk out on the boat launch. Being on the water made for a beautiful view to wake up too.
p293
sVauthor_name
p294
VHarry Criswell
p295
sVauthor_url
p296
Vhttps://plus.google.com/112179584610812522215
p297
sVtime
p298
I1423894414
sasVformatted_phone_number
p299
V(415) 669-1389
p300
sVaddress_components
p301
(lp302
(dp303
Vlong_name
p304
V12938
p305
sVtypes
p306
(lp307
Vstreet_number
p308
asVshort_name
p309
V12938
p310
sa(dp311
Vlong_name
p312
VSir Francis Drake Boulevard
p313
sVtypes
p314
(lp315
Vroute
p316
asVshort_name
p317
VSir Francis Drake Blvd
p318
sa(dp319
Vlong_name
p320
VInverness
p321
sVtypes
p322
(lp323
Vlocality
p324
aVpolitical
p325
asVshort_name
p326
VInverness
p327
sa(dp328
Vlong_name
p329
VCalifornia
p330
sVtypes
p331
(lp332
Vadministrative_area_level_1
p333
aVpolitical
p334
asVshort_name
p335
VCA
p336
sa(dp337
Vlong_name
p338
VUnited States
p339
sVtypes
p340
(lp341
Vcountry
p342
aVpolitical
p343
asVshort_name
p344
VUS
p345
sa(dp346
Vlong_name
p347
V94937
p348
sVtypes
p349
(lp350
Vpostal_code
p351
asVshort_name
p352
V94937
p353
sas.