(dp1
Vrating
p2
cdecimal
Decimal
p3
(S'4.4'
tRp4
sVreference
p5
VCnRwAAAA_1LIMJUkZnR7vsOlSmJQd30Ykb6x8PdAJMwkuFY77F5Tr1bp7U5RtkUBrP6a69Jc8vIH1hsk2sbWJ0JgD4D5J8Ub0Q_SK9vOKuyyAw_pS6xLYa3VJxUrgCKdysb5Bz08Ut7xClf4wAP4lb541_uSvBIQHFhJATclRAkOHCMJTNTdyxoUTsUPvS9L0w0xx6ws2xHBkcE7q_Q
p6
sVprice_level
p7
I2
sVplace_id
p8
VChIJD-7c9fSAhYARO7hy4de6RBY
p9
sVurl
p10
Vhttps://maps.google.com/?cid=1604612803613866043
p11
sVformatted_address
p12
V1042 Kearny St, San Francisco, CA 94133, United States
p13
sVid
p14
V6ec4b0a25a19523e4bebf12e19aac235ae6ebdc7
p15
sVopening_hours
p16
(dp17
Vweekday_text
p18
(lp19
VMonday: Closed
p20
aVTuesday: 5:00 \u2013 10:30 PM
p21
aVWednesday: 5:00 \u2013 10:30 PM
p22
aVThursday: 5:00 \u2013 10:30 PM
p23
aVFriday: 5:00 \u2013 10:30 PM
p24
aVSaturday: 5:00 \u2013 10:30 PM
p25
aVSunday: 4:00 \u2013 9:30 PM
p26
asVopen_now
p27
I01
sVperiods
p28
(lp29
(dp30
Vclose
p31
(dp32
Vday
p33
I0
sVtime
p34
V2130
p35
ssVopen
p36
(dp37
Vday
p38
I0
sVtime
p39
V1600
p40
ssa(dp41
Vclose
p42
(dp43
Vday
p44
I2
sVtime
p45
V2230
p46
ssVopen
p47
(dp48
Vday
p49
I2
sVtime
p50
V1700
p51
ssa(dp52
Vclose
p53
(dp54
Vday
p55
I3
sVtime
p56
V2230
p57
ssVopen
p58
(dp59
Vday
p60
I3
sVtime
p61
V1700
p62
ssa(dp63
Vclose
p64
(dp65
Vday
p66
I4
sVtime
p67
V2230
p68
ssVopen
p69
(dp70
Vday
p71
I4
sVtime
p72
V1700
p73
ssa(dp74
Vclose
p75
(dp76
Vday
p77
I5
sVtime
p78
V2230
p79
ssVopen
p80
(dp81
Vday
p82
I5
sVtime
p83
V1700
p84
ssa(dp85
Vclose
p86
(dp87
Vday
p88
I6
sVtime
p89
V2230
p90
ssVopen
p91
(dp92
Vday
p93
I6
sVtime
p94
V1700
p95
ssassVvicinity
p96
V1042 Kearny Street, San Francisco
p97
sVscope
p98
VGOOGLE
p99
sVwebsite
p100
Vhttp://tommasos.com/
p101
sVutc_offset
p102
I-420
sVuser_ratings_total
p103
I143
sVphotos
p104
(lp105
(dp106
Vphoto_reference
p107
VCmRdAAAAe2JSZ3R_isZFycqWTY-ABOt3aaNR_mVcnK_rmqNM4nTnNfSeX43PMYhvus4jHp9HyLtVHzzEqQ1GIJ8e4WZg7wyFJJKUAzg7Rm-BhndADGZBE5_jM5k9uQh4n_60-bc-EhAVYCe17jD09H_BtBsCTMlXGhSHTBcd4FPsqyHfHgP-9wDMRTFk6g
p108
sVwidth
p109
I1836
sVhtml_attributions
p110
(lp111
V<a href="https://maps.google.com/maps/contrib/112912621733959793584/photos">P-A Despatis-Dupont</a>
p112
asVheight
p113
I3264
sa(dp114
Vphoto_reference
p115
VCmRdAAAArP4E468TYCWT6oZ-LKA7htzrHTkVgmCgMh1pWXokO5S7cv-z5SkjBDojtTEmqmgjVADOL1ow1Rm0tE4pF7cUWcCXZa1ptuOIPdJDSA21SHFH_PqUgv1rY2HnhQjXao2LEhCGIXCBy0-8bzRs06KMI9SRGhQBavEKMDwv-X_S93NkzZvZ8gDSVg
p116
sVwidth
p117
I2048
sVhtml_attributions
p118
(lp119
V<a href="https://maps.google.com/maps/contrib/100350636713868998513/photos">Yoon Min Huh</a>
p120
asVheight
p121
I1152
sa(dp122
Vphoto_reference
p123
VCmRdAAAAesuwl8UsISP9fYdfFVsWG3VSHVgpa71otaXf4GdKsos4bXUoCvPtOKnF5YYIHHFUIuSTuwRdAfWSOeY6DnEqnrs4K3qrLL83HYEVIjg09W2WtMKlbFV3vmHvr9qSANPmEhDTNpq0dMpTqNcbjgAm3___GhSjZTDLwxDsuMmWMbyCrrTTNLnk7A
p124
sVwidth
p125
I2048
sVhtml_attributions
p126
(lp127
V<a href="https://maps.google.com/maps/contrib/100350636713868998513/photos">Yoon Min Huh</a>
p128
asVheight
p129
I1152
sa(dp130
Vphoto_reference
p131
VCoQBcwAAAN-9uM-JlQ-J76CaSswQoFmv4yj5580SziYJNjQm69S2YEpAJUxUBAOOCTWSb1icbRrR_5MKwoRzcY90b648CpmijShrS87BHX4hKMX6sFZIO0R03hG32kRguxDHbDs1kfAhIXxBKn_8eYXKh-wcZ4q73t0h6ufoxRJpCg3LF-uBEhCjDDuJ4CQ_h6BPCfs1Y2kLGhQHxpw4GNIiIRf5uh3O3xaz6CTlgQ
p132
sVwidth
p133
I5312
sVhtml_attributions
p134
(lp135
V<a href="https://maps.google.com/maps/contrib/111645151610685811801/photos">Rai Downey</a>
p136
asVheight
p137
I2988
sa(dp138
Vphoto_reference
p139
VCmRdAAAAtVfQAPdqOV0guFefg6Uub580DlctcWTrPphvnbVm26286YJAkoiKS2-aG2RiaH7WcBduYEdGmJ2aodO-wkPiTrpPIsc0BNUUltoFCJUZFH9nfXQckxCKuXdt2SiSR0NdEhCOSyTM3gbPafvn-OLRdff0GhS6bwGRpY4ME7aUUI4-gbQCejV4ZA
p140
sVwidth
p141
I3040
sVhtml_attributions
p142
(lp143
V<a href="https://maps.google.com/maps/contrib/113347899897408892022/photos">Yang Wang</a>
p144
asVheight
p145
I4096
sa(dp146
Vphoto_reference
p147
VCmRdAAAAFlPSbX40mFhPYwpfhQQLdLsRNoksCF4CPiUQhsfJjGo8Ze8eOA-knLwUxH6zGiqoLvoXSbtx4WmDdWbR6TRImbBfqVaIkbfCLO0wQf358pxDLEXdVn8dffDwiaY00XUEEhB17A5n_OsAjQYAAX7pMJ1SGhQKAxBpZPLFqtvbwdUWPbBjkOkimg
p148
sVwidth
p149
I2048
sVhtml_attributions
p150
(lp151
V<a href="https://maps.google.com/maps/contrib/100350636713868998513/photos">Yoon Min Huh</a>
p152
asVheight
p153
I1152
sa(dp154
Vphoto_reference
p155
VCmRdAAAACx33GQeDFMagsBSsRNVcc5TXxJkHiYZXAhQqYpu9dERPuhR3gjS5U3I8rX0Rc7DBNqjUYuHkHif83apdo3mjFQiJ9lGETnaPen-V3JX7xn4Ht7Sn6N6bQVe5wY-KLczcEhAs3kIeicido8d9exmaZWSSGhRhuQHG61ZBXSDi6NzRwd_QhEd6JA
p156
sVwidth
p157
I3040
sVhtml_attributions
p158
(lp159
V<a href="https://maps.google.com/maps/contrib/113347899897408892022/photos">Yang Wang</a>
p160
asVheight
p161
I4096
sa(dp162
Vphoto_reference
p163
VCmRcAAAA7rql2Gu687awpoOJJxXPnDgXuhDfsRemHiQvoCTLXtz2pWADEhOetJjGR273QL0cc2XGncIIWbl3SfCAP_nKU9mCDpK8rgxnqjpJJn5FspaxaHXpTCindlMvfZe7nZHNEhCcAOO24XQR8SYRUvtNs9H2GhSpLNigIOEnkuPa4f0vIzqUL5M4zA
p164
sVwidth
p165
I200
sVhtml_attributions
p166
(lp167
V<a href="https://maps.google.com/maps/contrib/100809854628682992311/photos">Tommaso&#39;s Ristorante Italiano</a>
p168
asVheight
p169
I90
sasVtypes
p170
(lp171
Vrestaurant
p172
aVfood
p173
aVpoint_of_interest
p174
aVestablishment
p175
asVicon
p176
Vhttps://maps.gstatic.com/mapfiles/place_api/icons/restaurant-71.png
p177
sVname
p178
VTommaso's Ristorante Italiano
p179
sVgeometry
p180
(dp181
Vaccess_points
p182
(lp183
(dp184
Vtravel_modes
p185
(lp186
VDRIVING
p187
aVBICYCLING
p188
aVWALKING
p189
aVTRANSIT
p190
asVlocation
p191
(dp192
Vlat
p193
g3
(S'37.7977675'
tRp194
sVlng
p195
g3
(S'-122.405482'
tRp196
ssasVlocation
p197
(dp198
Vlat
p199
g3
(S'37.7977983'
tRp200
sVlng
p201
g3
(S'-122.4052437'
tRp202
sssVadr_address
p203
V<span class="street-address">1042 Kearny St</span>, <span class="locality">San Francisco</span>, <span class="region">CA</span> <span class="postal-code">94133</span>, <span class="country-name">United States</span>
p204
sVinternational_phone_number
p205
V+1 415-398-9696
p206
sVreviews
p207
(lp208
(dp209
Vrating
p210
I3
sVaspects
p211
(lp212
(dp213
Vrating
p214
I1
sVtype
p215
Voverall
p216
sasVprofile_photo_url
p217
V//lh4.googleusercontent.com/-dfRFzJ0ZMRU/AAAAAAAAAAI/AAAAAAAAAiM/ew_Fr0mepuw/photo.jpg
p218
sVlanguage
p219
Ven
p220
sVtext
p221
VThe reason why I'm giving Tomasso a 3-star was because everything you expected from a restaurant was achieved here.\u000a\u000aThankfully, the restaurant wasn't busy so we were seated immediately. In regards to the atmosphere of the restaurant, I like how the lighting was dimmed and how they have booths which was where we decided to sit.\u000a\u000aFor drinks, we ordered a Sauvignon blanc which I wasn't really a fan just because I lean more towards sweet wine and this particular wine left an undesirable after taste for me.\u000a\u000aAfter getting our drinks, we had Caesar salad. I honestly don't know why we got salad. It tasted like salad so there's really not much to write about it.\u000a\u000aFinishing our appetizers, we dove in to our main entree which was a large mushroom & Italian sausage pizza. By the way, if there's only two of you, get the small pizza. It took about 10 minutes for our pizza to get to our table. I would say the pizza was all right. It was a tad bit soggy and difficult to eat.\u000a\u000aWould I give this place another chance? I would, I'd love to try their pasta.
p222
sVauthor_name
p223
VAj Cartas
p224
sVauthor_url
p225
Vhttps://plus.google.com/110703158319043680789
p226
sVtime
p227
I1458189687
sa(dp228
Vrating
p229
I3
sVaspects
p230
(lp231
(dp232
Vrating
p233
I1
sVtype
p234
Voverall
p235
sasVprofile_photo_url
p236
V//lh3.googleusercontent.com/-64EdKpZU0Ag/AAAAAAAAAAI/AAAAAAABz0w/7rthuWq0wH4/photo.jpg
p237
sVlanguage
p238
Ven
p239
sVtext
p240
VAmbivalent about this place, I ordered lasagna. On the plus side - the pasta was obviously freshly made and was wonderful. Lasagna is something I order fairly often and have made maybe ten times. I've had it with varying amounts of vegetables and meat. This was a MEAT sauce. It was good, but not what I would have ordered if I had known.\u000a\u000aThe bread was very fresh, but not very warm. The lasagna was not that warm either. Odd.\u000a\u000aService was attentive, but not particularly remarkable. Shrug. 
p241
sVauthor_name
p242
VSerena Uible
p243
sVauthor_url
p244
Vhttps://plus.google.com/106725150319974342947
p245
sVtime
p246
I1453769127
sa(dp247
Vrating
p248
I5
sVaspects
p249
(lp250
(dp251
Vrating
p252
I3
sVtype
p253
Voverall
p254
sasVprofile_photo_url
p255
V//lh4.googleusercontent.com/-9Bn0wJL1Ez0/AAAAAAAAAAI/AAAAAAAAAnA/QVOR_kTfa9I/photo.jpg
p256
sVlanguage
p257
Ven
p258
sVtext
p259
VFun atmosphere, great staff and even better food. Tried the half spaghetti and ravioli with meatballs. Loved every bite. 
p260
sVauthor_name
p261
VRai Downey
p262
sVauthor_url
p263
Vhttps://plus.google.com/111645151610685811801
p264
sVtime
p265
I1457972916
sa(dp266
Vrating
p267
I5
sVaspects
p268
(lp269
(dp270
Vrating
p271
I3
sVtype
p272
Voverall
p273
sasVlanguage
p274
Ven
p275
sVtext
p276
VEast Coast Food Lovers\u000a\u000aAmazing food!! Calamari, Vongole, and stuffed manicotti with meatballs, AMAZING!! little mom and pop must go to shop! If your a wine drinker, the Pino Noir was delicious, must go! 
p277
sVauthor_name
p278
Vbianca velazquez
p279
sVauthor_url
p280
Vhttps://plus.google.com/110206826870865186399
p281
sVtime
p282
I1455420006
sa(dp283
Vrating
p284
I5
sVaspects
p285
(lp286
(dp287
Vrating
p288
I3
sVtype
p289
Voverall
p290
sasVlanguage
p291
Ven
p292
sVtext
p293
VBEST ITALIAN I EVER HAD IN MY LIFE!!\u000a\u000aThe Delux Combo Pizza had a rich blend of the toppings and the Lasagna simply melted in my mouth! \u000aMakes you want to come back to SF just for this place alone. \u000a\u000aOnly flaw is the wait. Tables are limited. We arrived at 5pm on Sat. and since the place had just filled up we had to wait for 40 minutes. The entrance is small so basically it is filled with people standing around. 
p294
sVauthor_name
p295
VYoon Min Huh
p296
sVauthor_url
p297
Vhttps://plus.google.com/100350636713868998513
p298
sVtime
p299
I1453219729
sasVformatted_phone_number
p300
V(415) 398-9696
p301
sVaddress_components
p302
(lp303
(dp304
Vlong_name
p305
V1042
p306
sVtypes
p307
(lp308
Vstreet_number
p309
asVshort_name
p310
V1042
p311
sa(dp312
Vlong_name
p313
VKearny Street
p314
sVtypes
p315
(lp316
Vroute
p317
asVshort_name
p318
VKearny St
p319
sa(dp320
Vlong_name
p321
VSan Francisco
p322
sVtypes
p323
(lp324
Vlocality
p325
aVpolitical
p326
asVshort_name
p327
VSF
p328
sa(dp329
Vlong_name
p330
VCalifornia
p331
sVtypes
p332
(lp333
Vadministrative_area_level_1
p334
aVpolitical
p335
asVshort_name
p336
VCA
p337
sa(dp338
Vlong_name
p339
VUnited States
p340
sVtypes
p341
(lp342
Vcountry
p343
aVpolitical
p344
asVshort_name
p345
VUS
p346
sa(dp347
Vlong_name
p348
V94133
p349
sVtypes
p350
(lp351
Vpostal_code
p352
asVshort_name
p353
V94133
p354
sas.