(dp1
Vrating
p2
cdecimal
Decimal
p3
(S'4.4'
tRp4
sVreference
p5
VCnRrAAAA4w8U7MwaFjClsTGsQjiuwVujAiMBW5llvG5DowQ7wh9boqY-PKgeq-83VjcKbp8Lr1Wr22AdEntMI3GsH-27plyR5ImkoaWuHZ75HwKSqyul0IERHjm60S5qvudqiLUS_dpNu6qHezSvGQSeE7uNcxIQcnqrCdlRgd1-6BmkRMz-YRoUJRAKvOil86bLYgu6F1nla3WTp9I
p6
sVprice_level
p7
I2
sVplace_id
p8
VChIJHXHcEvGAhYARQPuHNN78s78
p9
sVurl
p10
Vhttps://maps.google.com/?cid=13813662513369709376
p11
sVformatted_address
p12
V1570 Stockton St, San Francisco, CA 94133, United States
p13
sVid
p14
V91604668b26e9fd4695bc0d07616a56be0fe64be
p15
sVopening_hours
p16
(dp17
Vweekday_text
p18
(lp19
VMonday: 12:00 \u2013 10:00 PM
p20
aVTuesday: Closed
p21
aVWednesday: 12:00 \u2013 11:00 PM
p22
aVThursday: 12:00 \u2013 11:00 PM
p23
aVFriday: 12:00 \u2013 11:00 PM
p24
aVSaturday: 12:00 \u2013 11:00 PM
p25
aVSunday: 12:00 \u2013 11:00 PM
p26
asVopen_now
p27
I01
sVperiods
p28
(lp29
(dp30
Vclose
p31
(dp32
Vday
p33
I0
sVtime
p34
V2300
p35
ssVopen
p36
(dp37
Vday
p38
I0
sVtime
p39
V1200
p40
ssa(dp41
Vclose
p42
(dp43
Vday
p44
I1
sVtime
p45
V2200
p46
ssVopen
p47
(dp48
Vday
p49
I1
sVtime
p50
V1200
p51
ssa(dp52
Vclose
p53
(dp54
Vday
p55
I3
sVtime
p56
V2300
p57
ssVopen
p58
(dp59
Vday
p60
I3
sVtime
p61
V1200
p62
ssa(dp63
Vclose
p64
(dp65
Vday
p66
I4
sVtime
p67
V2300
p68
ssVopen
p69
(dp70
Vday
p71
I4
sVtime
p72
V1200
p73
ssa(dp74
Vclose
p75
(dp76
Vday
p77
I5
sVtime
p78
V2300
p79
ssVopen
p80
(dp81
Vday
p82
I5
sVtime
p83
V1200
p84
ssa(dp85
Vclose
p86
(dp87
Vday
p88
I6
sVtime
p89
V2300
p90
ssVopen
p91
(dp92
Vday
p93
I6
sVtime
p94
V1200
p95
ssassVvicinity
p96
V1570 Stockton Street, San Francisco
p97
sVscope
p98
VGOOGLE
p99
sVwebsite
p100
Vhttp://www.tonyspizzanapoletana.com/
p101
sVutc_offset
p102
I-420
sVuser_ratings_total
p103
I526
sVphotos
p104
(lp105
(dp106
Vphoto_reference
p107
VCmRdAAAAFHlhqu7gWSXv0ecooc6NCM1fR0OzpOOVKvv0lNQhN2PJC4gTp7UsXg777U6r68pTDTLnle4WxbqyzguDBAlnMai70S0JWRZ7p54vXlsFnNyJyc3fYuLP_KGcUV7W9i--EhCs5RTnbjFGS9iyr-vDazPoGhSHoaG37ypWZXEhsYT8vaH5HQmd4w
p108
sVwidth
p109
I4128
sVhtml_attributions
p110
(lp111
V<a href="https://maps.google.com/maps/contrib/107721404123505875377/photos">albert lee</a>
p112
asVheight
p113
I2322
sa(dp114
Vphoto_reference
p115
VCmRdAAAAysPmKeU6v10FfLr7iVVsb19gvsf2Vgtb8q_Zek_5kWda5lfCaHS95u4J_U6xjOFHqrz2ojImzXvxCq2hd51SeaabrJ3_TimOjRKdbW_ftubjS_D7e_vczMyF7uq8UiJAEhCDvmv8YV_SIQf26ySs4311GhQ38KpziPkRhLDRZ0V_w3EzhWaW2w
p116
sVwidth
p117
I960
sVhtml_attributions
p118
(lp119
V<a href="https://maps.google.com/maps/contrib/117591544990941385418/photos">Adriano Gonella</a>
p120
asVheight
p121
I720
sa(dp122
Vphoto_reference
p123
VCmRdAAAAtxEj1P2eWs50hhCaGH-Tf1HlAf0FlTxXrs63lrfJo6CzFF_6CjBAFaEmkZkBwy3JQrUmkmxvr0buojjTVvFvYRLGtAh3zLIJcJdOYqnb5EyyZBZCi4PFWBTZccAhy2SGEhAhNsjmvIk49FzvH7lJhk-2GhRMHneOc7P6KVHkYCnC4fAFcGu4kQ
p124
sVwidth
p125
I4128
sVhtml_attributions
p126
(lp127
V<a href="https://maps.google.com/maps/contrib/107721404123505875377/photos">albert lee</a>
p128
asVheight
p129
I2322
sa(dp130
Vphoto_reference
p131
VCmRdAAAAV6os78ZYS5j4cYRsl3W-yQbhmbojfzGPoDGZ7acedLqZXnQ3Tj8EDTJywnRL_1jJaWsniJ4pBBJcrcZhp3CqiRwKlUbYXVH-vkzaTRvxK9oNpzkfIBwGiTPfBUKlfeL6EhDfg-yx1QHaGpXrE2Z20dxYGhRcTsnWLTs2XHbdXZMx5syHTpIrpw
p132
sVwidth
p133
I960
sVhtml_attributions
p134
(lp135
V<a href="https://maps.google.com/maps/contrib/117591544990941385418/photos">Adriano Gonella</a>
p136
asVheight
p137
I720
sa(dp138
Vphoto_reference
p139
VCmRdAAAAy3507bc6ITbb0F50NH9BJGXdyZOvhkmFuYJCyBXBWS5Zw3yc8eefPJHd0gMScUT9dU-q9BdJLi9KBySVmgYCzTaTXbuBiE_QXyaBK9x7cv5x8SJXl4qIvjaYNi4D-sG0EhBoVjySMqVct2ECr38XKdEOGhRt2lOtW5GqadBtQ9HjekEJJ4DH_g
p140
sVwidth
p141
I864
sVhtml_attributions
p142
(lp143
V<a href="https://maps.google.com/maps/contrib/112290036157514625500/photos">Robert J Garcia</a>
p144
asVheight
p145
I1296
sa(dp146
Vphoto_reference
p147
VCmRdAAAAGPXhZFzD_iR-Iml15DkQILkUDkmPJA1-MTdExIFa1TOWsCcZprftm9eFkRjuhV72TYOC_uEyxOIWXTSlFYZbexGmI4DTIO3yrp_RWXZbMZUZASF2A3N8gg9uHRVDCjPxEhDeLXR92lnd99UQbch7WC1aGhTDk7zJs2ax718Df3MoJDUjnWNT9g
p148
sVwidth
p149
I2048
sVhtml_attributions
p150
(lp151
V<a href="https://maps.google.com/maps/contrib/109747793098916934740/photos">Ricardo Blanco</a>
p152
asVheight
p153
I1536
sa(dp154
Vphoto_reference
p155
VCmRdAAAAKEJLCPyqywug5hLXQzRyhgB4drAX6MqRpflhI9CorH__TiT43XFwHIMOt0EZtThX9jvDhM1Febi3934_2UZeIgd0kG0I8D9JqFtdHjYy3vol3-aOxv_bEB0SV-wUZy_UEhCNGYtl4_MN3XW4eocPvOouGhS2W21aMk3AbaX7WWA64wMDrd_0GA
p156
sVwidth
p157
I2048
sVhtml_attributions
p158
(lp159
V<a href="https://maps.google.com/maps/contrib/109747793098916934740/photos">Ricardo Blanco</a>
p160
asVheight
p161
I1536
sa(dp162
Vphoto_reference
p163
VCmRdAAAADaoyD85GgS3s29D3zlDCOaPEUB_fJA2Z_HZSc31tede2Iq2a09BNl3tPI8SujImh330NCVS6Ka7TCey5rsrKzBHi_d9FoUeZ1sDtLWybjHPv00g-zW1ByLGO_JHIpbvcEhCTuSt4FlO6Q4eeqV6e9zh1GhTkrQQpN2hfq9K4DHuGlrru67eHAQ
p164
sVwidth
p165
I2448
sVhtml_attributions
p166
(lp167
V<a href="https://maps.google.com/maps/contrib/102912428359137260377/photos">Mallika Modalali</a>
p168
asVheight
p169
I3264
sa(dp170
Vphoto_reference
p171
VCmRdAAAAweeBF3dSb9BCYx8Bjszp-l4CoFtmqfB_gc0nBEc9959AdPZY1Xkcu_yKF9D3GI0M_YdJ-dDBMtSzDv-DhSY5ZzqxNV6ICX2JBkEfAOXm5NlzHpqfZnPbrqHEOQFjxPk8EhAM4VGX4jUB2l0_Hb8b4ixsGhQt25ar-auJYoh4XK820_FGAA76pg
p172
sVwidth
p173
I4320
sVhtml_attributions
p174
(lp175
V<a href="https://maps.google.com/maps/contrib/112102344016203897729/photos">David Fiorenza</a>
p176
asVheight
p177
I2432
sa(dp178
Vphoto_reference
p179
VCmRdAAAAsa6OTChpaIY08X8Huit632iMG2PtkgpgjGJooAlRVgkNtzNrVgmNjQL2y2OhR6qNgGPJ1FY7I8IjlT9PhG6eXroMZnOnVE47eyoZBnJnV_VfeiuzR8JXCjgWLJOJjRAKEhDTzqUGQXDzJB8wAFQx9_XzGhQOhEurukt2Il8LOTA_z9rKMu53-A
p180
sVwidth
p181
I2048
sVhtml_attributions
p182
(lp183
V<a href="https://maps.google.com/maps/contrib/111085852685867296039/photos">Andrea Longinotti</a>
p184
asVheight
p185
I1159
sasVtypes
p186
(lp187
Vrestaurant
p188
aVfood
p189
aVpoint_of_interest
p190
aVestablishment
p191
asVicon
p192
Vhttps://maps.gstatic.com/mapfiles/place_api/icons/restaurant-71.png
p193
sVname
p194
VTony's Pizza Napoletana
p195
sVgeometry
p196
(dp197
Vaccess_points
p198
(lp199
(dp200
Vtravel_modes
p201
(lp202
VDRIVING
p203
aVBICYCLING
p204
aVWALKING
p205
aVTRANSIT
p206
asVlocation
p207
(dp208
Vlat
p209
g3
(S'37.8002899'
tRp210
sVlng
p211
g3
(S'-122.4091859'
tRp212
ssasVlocation
p213
(dp214
Vlat
p215
g3
(S'37.8003257'
tRp216
sVlng
p217
g3
(S'-122.408985'
tRp218
sssVadr_address
p219
V<span class="street-address">1570 Stockton St</span>, <span class="locality">San Francisco</span>, <span class="region">CA</span> <span class="postal-code">94133-3306</span>, <span class="country-name">United States</span>
p220
sVinternational_phone_number
p221
V+1 415-835-9888
p222
sVreviews
p223
(lp224
(dp225
Vrating
p226
I5
sVaspects
p227
(lp228
(dp229
Vrating
p230
I3
sVtype
p231
Voverall
p232
sasVprofile_photo_url
p233
V//lh3.googleusercontent.com/-yi5iwoHR5rs/AAAAAAAAAAI/AAAAAAAA2mY/yRwbgO_FH2o/photo.jpg
p234
sVlanguage
p235
Ven
p236
sVtext
p237
VThe best pizza I've ever come across. I always go with the Tartufo pizza, it never disappoints! Be sure to get there early to put your name on the list. It's usually a 2 hour wait when I go (Friday or Saturday night) but for this pizza it is absolutely worth the wait. Grab a drink at the bar! The  staff are wonderful. 
p238
sVauthor_name
p239
VCourtney Cockerill
p240
sVauthor_url
p241
Vhttps://plus.google.com/110536844924597392063
p242
sVtime
p243
I1461525467
sa(dp244
Vrating
p245
I4
sVaspects
p246
(lp247
(dp248
Vrating
p249
I2
sVtype
p250
Voverall
p251
sasVlanguage
p252
Ven
p253
sVtext
p254
VGot there before they opened and got the table we wanted.  Food took longer than we thought it should, as the table next to us ordered after us and got two dishes before we got our appetizer.  Margarita pizza was excellent,  calamari was excellent.  A kids Mac and cheese would feed four kids, very cheesy.  Worth the price and even though we did not have to wait, I wood have for the food.
p255
sVauthor_name
p256
VDoug Cabana
p257
sVauthor_url
p258
Vhttps://plus.google.com/104649687512207852334
p259
sVtime
p260
I1456624654
sa(dp261
Vrating
p262
I3
sVaspects
p263
(lp264
(dp265
Vrating
p266
I1
sVtype
p267
Voverall
p268
sasVprofile_photo_url
p269
V//lh6.googleusercontent.com/-7JZypqvcdOg/AAAAAAAAAAI/AAAAAAAAABQ/IWApydeg92o/photo.jpg
p270
sVlanguage
p271
Ven
p272
sVtext
p273
VCame here on a Friday around 1:30 and it was already pretty packed. We waited about 20 mins to be seated, and they do require that your entire party is present before you can get a table. We ate in the front near the bar and the atmosphere was pretty nice. We decided to order the New Yorker, which was definitely the right decision. With two cheeses, two types of sausage, and pepperoni, it had all the components for a great tasting pizza. I will say that unless you're ordering other food along with it, this only feeds 3 people, and thats if you don't want more than 2 slices per person. Overall I had a great experience here. Although it's not the BEST pizza I've ever had it was pretty authentic and is worth a try!
p274
sVauthor_name
p275
VMelvin Doss
p276
sVauthor_url
p277
Vhttps://plus.google.com/111422643286816073594
p278
sVtime
p279
I1460097925
sa(dp280
Vrating
p281
I3
sVaspects
p282
(lp283
(dp284
Vrating
p285
I1
sVtype
p286
Voverall
p287
sasVprofile_photo_url
p288
V//lh3.googleusercontent.com/-IpjK8_NjFdU/AAAAAAAAAAI/AAAAAAAAD4I/j3iprn8Ia7M/photo.jpg
p289
sVlanguage
p290
Ven
p291
sVtext
p292
VThe food was actually  surprisingly good.  A heart attack  special. . .  Double pepperoni.  Lots of grease but it's expected.  Flavor is awesome,  crust is very thin,  doesn't support the weight of the toppings,  but even the crust has good flavor. The tea is a black currant  and if you don't like the passion flowers Foo Foo teas don't order it, it is very strong and we'll personally  I hated it.  Simple black lipton tea would have been fine.  \u000a\u000aBiggest complaint I have on this restaurant is  the help - waitress  was super busy  but after knocking the back of my chair about 3 times as she passed I started to get pissed but she only stopped by one time and didn't  refill  our drinks (sprite and water)  until I flagged her down.  \u000a\u000aMake reservations ahead of time  as the place fills up fast. \u000a
p293
sVauthor_name
p294
VGregg Hierholzer
p295
sVauthor_url
p296
Vhttps://plus.google.com/102557999240767414465
p297
sVtime
p298
I1455908908
sa(dp299
Vrating
p300
I4
sVaspects
p301
(lp302
(dp303
Vrating
p304
I2
sVtype
p305
Voverall
p306
sasVprofile_photo_url
p307
V//lh4.googleusercontent.com/-Bx_qIAN9RjU/AAAAAAAAAAI/AAAAAAAAABA/n-tQfPDacgg/photo.jpg
p308
sVlanguage
p309
Ven
p310
sVtext
p311
VReally wonderful pastas, pizzas and Italian style desserts. Pace yourself, as you will get the urge to over order. Be the tortoise, not the hare, as all the courses are worthy. My favorites: the meat ball, the balsamic reduction pizza with prosciutto and an amazing tiramisu. One of the best Italian wine cellars: try their sparkling wines.
p312
sVauthor_name
p313
VDavid Prieto
p314
sVauthor_url
p315
Vhttps://plus.google.com/111383289011015960356
p316
sVtime
p317
I1459147407
sasVformatted_phone_number
p318
V(415) 835-9888
p319
sVaddress_components
p320
(lp321
(dp322
Vlong_name
p323
V1570
p324
sVtypes
p325
(lp326
Vstreet_number
p327
asVshort_name
p328
V1570
p329
sa(dp330
Vlong_name
p331
VStockton Street
p332
sVtypes
p333
(lp334
Vroute
p335
asVshort_name
p336
VStockton St
p337
sa(dp338
Vlong_name
p339
VSan Francisco
p340
sVtypes
p341
(lp342
Vlocality
p343
aVpolitical
p344
asVshort_name
p345
VSF
p346
sa(dp347
Vlong_name
p348
VCalifornia
p349
sVtypes
p350
(lp351
Vadministrative_area_level_1
p352
aVpolitical
p353
asVshort_name
p354
VCA
p355
sa(dp356
Vlong_name
p357
VUnited States
p358
sVtypes
p359
(lp360
Vcountry
p361
aVpolitical
p362
asVshort_name
p363
VUS
p364
sa(dp365
Vlong_name
p366
V94133
p367
sVtypes
p368
(lp369
Vpostal_code
p370
asVshort_name
p371
V94133
p372
sa(dp373
Vlong_name
p374
V3306
p375
sVtypes
p376
(lp377
Vpostal_code_suffix
p378
asVshort_name
p379
V3306
p380
sas.