(dp1
Vwebsite
p2
Vhttp://www.torrid.com/
p3
sVutc_offset
p4
I-420
sVuser_ratings_total
p5
I1
sVname
p6
VTorrid
p7
sVreference
p8
VCmRaAAAALX3UGcDJqrnN4syIrslv5ksr6fPIBymqjahg-HmW5CvqIM_SoAMkxDG1QdASNFsaBHJO0vVy5_LNdSKkadKguzG88pGlZ58pJkDKVQ6wK7Gm85OiCwD7T5jPd4vupD53EhCE9wn-2fdv4lI-gyZduTOEGhSqy8M41oYf7uq-ZORMjt8pDRNHKQ
p9
sVprice_level
p10
I2
sVgeometry
p11
(dp12
Vlocation
p13
(dp14
Vlat
p15
cdecimal
Decimal
p16
(S'37.7281631'
tRp17
sVlng
p18
g16
(S'-122.4768443'
tRp19
sssVadr_address
p20
V<span class="street-address">3251 20th Ave</span>, <span class="locality">San Francisco</span>, <span class="region">CA</span> <span class="postal-code">94132</span>, <span class="country-name">United States</span>
p21
sVplace_id
p22
VChIJP5NLubt9j4ARhCgzc0idfvM
p23
sVinternational_phone_number
p24
V+1 415-665-1165
p25
sVvicinity
p26
V3251 20th Avenue, San Francisco
p27
sVreviews
p28
(lp29
(dp30
Vrating
p31
I4
sVaspects
p32
(lp33
(dp34
Vrating
p35
I2
sVtype
p36
Voverall
p37
sasVprofile_photo_url
p38
V//lh5.googleusercontent.com/-wlpRASqeR5A/AAAAAAAAAAI/AAAAAAAAAdA/Pj1A_3GlraI/photo.jpg
p39
sVlanguage
p40
Ven
p41
sVtext
p42
V
sVauthor_name
p43
VVeronica Lopez
p44
sVauthor_url
p45
Vhttps://plus.google.com/117132585198474619151
p46
sVtime
p47
I1459573396
sasVformatted_phone_number
p48
V(415) 665-1165
p49
sVscope
p50
VGOOGLE
p51
sVurl
p52
Vhttps://maps.google.com/?cid=17545634132777969796
p53
sVopening_hours
p54
(dp55
Vweekday_text
p56
(lp57
VMonday: 10:00 AM \u2013 9:00 PM
p58
aVTuesday: 10:00 AM \u2013 9:00 PM
p59
aVWednesday: 10:00 AM \u2013 9:00 PM
p60
aVThursday: 10:00 AM \u2013 9:00 PM
p61
aVFriday: 10:00 AM \u2013 9:00 PM
p62
aVSaturday: 10:00 AM \u2013 9:00 PM
p63
aVSunday: 11:00 AM \u2013 6:00 PM
p64
asVopen_now
p65
I01
sVperiods
p66
(lp67
(dp68
Vclose
p69
(dp70
Vday
p71
I0
sVtime
p72
V1800
p73
ssVopen
p74
(dp75
Vday
p76
I0
sVtime
p77
V1100
p78
ssa(dp79
Vclose
p80
(dp81
Vday
p82
I1
sVtime
p83
V2100
p84
ssVopen
p85
(dp86
Vday
p87
I1
sVtime
p88
V1000
p89
ssa(dp90
Vclose
p91
(dp92
Vday
p93
I2
sVtime
p94
V2100
p95
ssVopen
p96
(dp97
Vday
p98
I2
sVtime
p99
V1000
p100
ssa(dp101
Vclose
p102
(dp103
Vday
p104
I3
sVtime
p105
V2100
p106
ssVopen
p107
(dp108
Vday
p109
I3
sVtime
p110
V1000
p111
ssa(dp112
Vclose
p113
(dp114
Vday
p115
I4
sVtime
p116
V2100
p117
ssVopen
p118
(dp119
Vday
p120
I4
sVtime
p121
V1000
p122
ssa(dp123
Vclose
p124
(dp125
Vday
p126
I5
sVtime
p127
V2100
p128
ssVopen
p129
(dp130
Vday
p131
I5
sVtime
p132
V1000
p133
ssa(dp134
Vclose
p135
(dp136
Vday
p137
I6
sVtime
p138
V2100
p139
ssVopen
p140
(dp141
Vday
p142
I6
sVtime
p143
V1000
p144
ssassVaddress_components
p145
(lp146
(dp147
Vlong_name
p148
V3251
p149
sVtypes
p150
(lp151
Vstreet_number
p152
asVshort_name
p153
V3251
p154
sa(dp155
Vlong_name
p156
V20th Avenue
p157
sVtypes
p158
(lp159
Vroute
p160
asVshort_name
p161
V20th Ave
p162
sa(dp163
Vlong_name
p164
VSan Francisco
p165
sVtypes
p166
(lp167
Vlocality
p168
aVpolitical
p169
asVshort_name
p170
VSF
p171
sa(dp172
Vlong_name
p173
VCalifornia
p174
sVtypes
p175
(lp176
Vadministrative_area_level_1
p177
aVpolitical
p178
asVshort_name
p179
VCA
p180
sa(dp181
Vlong_name
p182
VUnited States
p183
sVtypes
p184
(lp185
Vcountry
p186
aVpolitical
p187
asVshort_name
p188
VUS
p189
sa(dp190
Vlong_name
p191
V94132
p192
sVtypes
p193
(lp194
Vpostal_code
p195
asVshort_name
p196
V94132
p197
sasVformatted_address
p198
V3251 20th Ave, San Francisco, CA 94132, United States
p199
sVid
p200
V16e9b2db68ac69a93f322ac0635637e32e80e219
p201
sVtypes
p202
(lp203
Vshoe_store
p204
aVclothing_store
p205
aVstore
p206
aVpoint_of_interest
p207
aVestablishment
p208
asVicon
p209
Vhttps://maps.gstatic.com/mapfiles/place_api/icons/shopping-71.png
p210
s.