(dp1
Vrating
p2
cdecimal
Decimal
p3
(S'4.2'
tRp4
sVreference
p5
VCnRoAAAAeVv_7h0IYDusUUzZ_U9Nre2s2JiqJMwIhUWwLf0d-pwQTISb619VwbS3Qv8tJ7XFLc38KrfvTdNMQqAJFkEf6vTe_yi8lwxYIRIO7e0XjoWCIVMUgKKz0l34N28sHx6gstcqiDgxXMNtsvgnuk55ehIQpkjiOuzhTVm4r1S3C9v9xxoUFa7EemT1Jx8HJK8jfTfOWGsAjBw
p6
sVprice_level
p7
I2
sVplace_id
p8
VChIJ_Ziygyd-j4ARtbbdtBPdarg
p9
sVurl
p10
Vhttps://maps.google.com/?cid=13288676727218615989
p11
sVformatted_address
p12
V210 11th St, San Francisco, CA 94103, United States
p13
sVid
p14
V984d6a19cbc6b13277d5c89b7b41c6fdcf37f3b7
p15
sVvicinity
p16
V210 11th Street, San Francisco
p17
sVscope
p18
VGOOGLE
p19
sVwebsite
p20
Vhttp://www.unapizza.com/
p21
sVutc_offset
p22
I-420
sVuser_ratings_total
p23
I100
sVphotos
p24
(lp25
(dp26
Vphoto_reference
p27
VCmRdAAAAOhytbvfGS8XZLH8K0iXARFxEfb1GVqQ84AqMgyTpt4t_Nqib9_RkmWiFmkn4O0OB1xQd97veqIGXP7Lcs9NmQpRSZaoVSmW2CtxJipbaCObomA9gtLw3x8swybQaTdYkEhDMB3dzh886rWS1XpLpj4_CGhQVz8A7fJMKnjaolMgxGnzPVWnO_Q
p28
sVwidth
p29
I780
sVhtml_attributions
p30
(lp31
V<a href="https://maps.google.com/maps/contrib/102076972870442174336/photos">Una Pizza Napoletana</a>
p32
asVheight
p33
I780
sa(dp34
Vphoto_reference
p35
VCmRdAAAAqw07AllzYHIJ_Zp-Yv4DytwG5UdyKcI9chzHjSntFyFM8rnqUQ4smcnVLID-YXlTjYi0KkSWFxuv1oXaH1RYZwLKlzoia9unNch9qQLl0m37j5I7Z1_pCFURxyAfuKoTEhADnDBUWvQA7W45YbB-RQygGhSHUCgcqM4Z4prju93yJy_io1EIEg
p36
sVwidth
p37
I2048
sVhtml_attributions
p38
(lp39
V<a href="https://maps.google.com/maps/contrib/104111246635874032234/photos">ZAGAT</a>
p40
asVheight
p41
I1365
sa(dp42
Vphoto_reference
p43
VCoQBdwAAALMLo564jFpVyOEQtsg1efrxAWIqJW1sF7D_6aRhq7eO__T6Jb7b_9tcKUHQsOvRVtsgBwgNf5RFdfoIKGfk5Ogy3V1SgNgcefcsgZ4Tr25uHZ4JAno8b-2gTvDw6jScqKR-mbeZ-UZVUxuytfTbTsHXp8_jD3QZMr8vM6zq8GDLEhDsigOkb3arN5JRZLbNknotGhS6m3KCygriVuHAl4AfRwtQ7axHow
p44
sVwidth
p45
I4032
sVhtml_attributions
p46
(lp47
V<a href="https://maps.google.com/maps/contrib/117111418505014074680/photos">Michael Lewis</a>
p48
asVheight
p49
I3024
sa(dp50
Vphoto_reference
p51
VCmRdAAAAUeCqNumstS5bZ8x0-Z_4yQVzLUH97ro-hEzp7_GW1--dDpRpDmEH-E_7xDSkp58GENXmI7NepbVA1j3V9RzmlXj8U8_D_z0p_daAUf0_L6WepwKr7lY_LSq-zVODLXrzEhDJXeKog6mJI4LQMZ0WoKxBGhRmdU8aNBHAJl7atSL1nzBQN0bLJA
p52
sVwidth
p53
I3264
sVhtml_attributions
p54
(lp55
V<a href="https://maps.google.com/maps/contrib/106777676979412544759/photos">Carol L</a>
p56
asVheight
p57
I2448
sa(dp58
Vphoto_reference
p59
VCmRdAAAAR4SEMjee9Hsb0ihEIyXoNBLyEFXxj1Q509NR968bVneHHZWJqxX2bNUMGt8dj_1apUD0o7rN5K69qk4qSmgEfuMPkyNdfTKc0q2UYMlxqdGP8z1H4fQuRXAyUOw3txcAEhCAGg-m62k4QPNQWamViZQsGhSGlXWqRUJJnaizrkdsG5TVE3rkWw
p60
sVwidth
p61
I2048
sVhtml_attributions
p62
(lp63
V<a href="https://maps.google.com/maps/contrib/104111246635874032234/photos">ZAGAT</a>
p64
asVheight
p65
I1365
sa(dp66
Vphoto_reference
p67
VCmRdAAAAaZGcPi6MATzbmo1PYiljOxJZRbI_rpdixSkQQ32wFw8zUZoWKb1PZI8e0CPmqsGSzbAcJXWfCGVPAawirnU7aBfAP8X_8Z0IPRLbXyz4GrsnQUaWBcrBP9bjRPkQaf0yEhCBpBRVEkvLPPd5OJJxac85GhReNoOwvJMSoqKrDEGtMO0FGg1jtA
p68
sVwidth
p69
I2048
sVhtml_attributions
p70
(lp71
V<a href="https://maps.google.com/maps/contrib/104111246635874032234/photos">ZAGAT</a>
p72
asVheight
p73
I1365
sa(dp74
Vphoto_reference
p75
VCmRdAAAA1VvZHpW-0l23Bd16G36kuYC2KQ4tLJ2wD6QtpfjDZuWuHZ2frtyzyaex3BXnuUS-Pd-kxunYwOaELVL43VLxFk6NcQSGccBXD_Bq43CegEEdAukBiZ5splK_2_n17FtsEhCVIj-QZg9fgZDPjelSYs6TGhQ5cetlx5oRBbXugQHYtht-wSG8Xg
p76
sVwidth
p77
I5520
sVhtml_attributions
p78
(lp79
V<a href="https://maps.google.com/maps/contrib/114245364069473282836/photos">Ziyan C</a>
p80
asVheight
p81
I4140
sa(dp82
Vphoto_reference
p83
VCmRdAAAAJ4lao19Hbb5SLycw06b2NlfUK2oqf0s8ThW5VX1b-3Fm12uJEAFwd4aaJ_36pIFLKICT0BkhZcjkyUvJzlJsyFNar0ckg8Jypf1ghswPkyz4eoExNL2Qqm4qGsF7gL6bEhARZ1KLcoqUY29iKrJU0BfpGhTaYTbZXWseeuDOtbKz25gL979tbQ
p84
sVwidth
p85
I2048
sVhtml_attributions
p86
(lp87
V<a href="https://maps.google.com/maps/contrib/104111246635874032234/photos">ZAGAT</a>
p88
asVheight
p89
I1365
sa(dp90
Vphoto_reference
p91
VCmRdAAAAghG863AJoAvR9y4fJm-duXicu7ObH7BXdiHEhZm-PSoY5HvDgvC6wyYeiTP4rG8dSuc05F8fTK8G_g_HoS6Er7kKd5rv8XH7c57p0MlO4WhP7fC4aHdeG9l1osSjo4yUEhAHA9Qmqu79LTJc6oh138anGhRGOyddmReoJMbTr37vbmkmWYfxLw
p92
sVwidth
p93
I2048
sVhtml_attributions
p94
(lp95
V<a href="https://maps.google.com/maps/contrib/104111246635874032234/photos">ZAGAT</a>
p96
asVheight
p97
I1365
sa(dp98
Vphoto_reference
p99
VCmRdAAAA5Yc-M8iK17F75s8TyMTf7ECdFH41hZhE5gTMricJvkk0vO7QX_gJ9bIwV_8rEtCSCba5OaxYJ-CxKLDYphlf2ohuWgSoWC9K1kapa0GmJOXhtxQ88D6M9sIWTiazWvWcEhCvllceDPf81YpB9Xkd5F_sGhScFSofqK4Cf07k3cEKzBpgNq51LA
p100
sVwidth
p101
I960
sVhtml_attributions
p102
(lp103
V<a href="https://maps.google.com/maps/contrib/102076972870442174336/photos">Una Pizza Napoletana</a>
p104
asVheight
p105
I960
sasVtypes
p106
(lp107
Vrestaurant
p108
aVfood
p109
aVpoint_of_interest
p110
aVestablishment
p111
asVicon
p112
Vhttps://maps.gstatic.com/mapfiles/place_api/icons/restaurant-71.png
p113
sVname
p114
VUna Pizza Napoletana
p115
sVgeometry
p116
(dp117
Vaccess_points
p118
(lp119
(dp120
Vtravel_modes
p121
(lp122
VDRIVING
p123
aVBICYCLING
p124
aVWALKING
p125
aVTRANSIT
p126
asVlocation
p127
(dp128
Vlat
p129
g3
(S'37.7729893'
tRp130
sVlng
p131
g3
(S'-122.4154499'
tRp132
ssasVlocation
p133
(dp134
Vlat
p135
g3
(S'37.7724035'
tRp136
sVlng
p137
g3
(S'-122.4154535'
tRp138
sssVadr_address
p139
V<span class="street-address">210 11th St</span>, <span class="locality">San Francisco</span>, <span class="region">CA</span> <span class="postal-code">94103</span>, <span class="country-name">United States</span>
p140
sVinternational_phone_number
p141
V+1 415-861-3444
p142
sVreviews
p143
(lp144
(dp145
Vrating
p146
I5
sVaspects
p147
(lp148
(dp149
Vrating
p150
I3
sVtype
p151
Voverall
p152
sasVprofile_photo_url
p153
V//lh5.googleusercontent.com/-45sf9_BOVGU/AAAAAAAAAAI/AAAAAAAAAEE/I0QJxEas4yA/photo.jpg
p154
sVlanguage
p155
Ven
p156
sVtext
p157
VJust a great pizza restaurant. Only a few classic pizzas to choose from, great, fresh ingredient, made right in front of you. Good service and wine selection. A bit pricey.
p158
sVauthor_name
p159
VMichael Lewis
p160
sVauthor_url
p161
Vhttps://plus.google.com/117111418505014074680
p162
sVtime
p163
I1458585602
sa(dp164
Vrating
p165
I3
sVaspects
p166
(lp167
(dp168
Vrating
p169
I1
sVtype
p170
Voverall
p171
sasVprofile_photo_url
p172
V//lh6.googleusercontent.com/-I-QKkJ6bmMQ/AAAAAAAAAAI/AAAAAAAAEEg/Pk7tkBUlQFY/photo.jpg
p173
sVlanguage
p174
Ven
p175
sVtext
p176
VPizza was perfectly executed with a perfect crust, but it lacked punch. \u000a\u000aVery skimpy toppings leaving a 3" border. \u000a\u000aIn my opinion it is over rated and over priced. 
p177
sVauthor_name
p178
VLynne Rhyan
p179
sVauthor_url
p180
Vhttps://plus.google.com/112538582727324723415
p181
sVtime
p182
I1456882956
sa(dp183
Vrating
p184
I5
sVaspects
p185
(lp186
(dp187
Vrating
p188
I3
sVtype
p189
Voverall
p190
sasVprofile_photo_url
p191
V//lh5.googleusercontent.com/-egHkmtw8OAI/AAAAAAAAAAI/AAAAAAAAIfQ/wdpoSX84rlA/photo.jpg
p192
sVlanguage
p193
Ven
p194
sVtext
p195
VAs an Italian or an American (or both) we probably think we all know pizza well, but this is the most unique crust we've ever had. So wonderful, and worthy of it being the only item on the menu. I love people that specialize in one thing, and the specialization here has truly paid off. Bravo!
p196
sVauthor_name
p197
VSteven Wood
p198
sVauthor_url
p199
Vhttps://plus.google.com/102079523103501167636
p200
sVtime
p201
I1452436093
sa(dp202
Vrating
p203
I3
sVaspects
p204
(lp205
(dp206
Vrating
p207
I1
sVtype
p208
Voverall
p209
sasVprofile_photo_url
p210
V//lh5.googleusercontent.com/-dJoJ28nJLC8/AAAAAAAAAAI/AAAAAAAASzw/A8OY_FXnWro/photo.jpg
p211
sVlanguage
p212
Ven
p213
sVtext
p214
VThere is a lot hype that surrounded this pizza spot, but I think it's lost it's mystique. There's no reservations so expect a wait. The inside is very bare and simple; an open kitchen with a pizza oven in the middle. The pizza? It's ok; Not bad but not worth going out of your way or waiting for.
p215
sVauthor_name
p216
VYvette Ngo
p217
sVauthor_url
p218
Vhttps://plus.google.com/104287900749560866993
p219
sVtime
p220
I1448529572
sa(dp221
Vrating
p222
I5
sVaspects
p223
(lp224
(dp225
Vrating
p226
I3
sVtype
p227
Voverall
p228
sasVprofile_photo_url
p229
V//lh3.googleusercontent.com/-Q0d7TotmspI/AAAAAAAAAAI/AAAAAAAABJM/GOY4csIr-Hw/photo.jpg
p230
sVlanguage
p231
Ven
p232
sVtext
p233
VThis truly is as good as it gets. Very few tables and even less menu options. This place focuses on one thing, and they're nailing it. The ingredients are fantastic, and you can really taste what each of them contributes to the pizza, but the best part is, hands down, the crust. It is perfection.
p234
sVauthor_name
p235
VMeredith Levin
p236
sVauthor_url
p237
Vhttps://plus.google.com/106565308558083577893
p238
sVtime
p239
I1448855307
sasVformatted_phone_number
p240
V(415) 861-3444
p241
sVaddress_components
p242
(lp243
(dp244
Vlong_name
p245
V210
p246
sVtypes
p247
(lp248
Vstreet_number
p249
asVshort_name
p250
V210
p251
sa(dp252
Vlong_name
p253
V11th Street
p254
sVtypes
p255
(lp256
Vroute
p257
asVshort_name
p258
V11th St
p259
sa(dp260
Vlong_name
p261
VSan Francisco
p262
sVtypes
p263
(lp264
Vlocality
p265
aVpolitical
p266
asVshort_name
p267
VSF
p268
sa(dp269
Vlong_name
p270
VCalifornia
p271
sVtypes
p272
(lp273
Vadministrative_area_level_1
p274
aVpolitical
p275
asVshort_name
p276
VCA
p277
sa(dp278
Vlong_name
p279
VUnited States
p280
sVtypes
p281
(lp282
Vcountry
p283
aVpolitical
p284
asVshort_name
p285
VUS
p286
sa(dp287
Vlong_name
p288
V94103
p289
sVtypes
p290
(lp291
Vpostal_code
p292
asVshort_name
p293
V94103
p294
sas.