(dp1
Vrating
p2
cdecimal
Decimal
p3
(S'4.2'
tRp4
sVreference
p5
VCnRhAAAAiga0egFtIem3f3ogb1mYBNX4eZFE9_8ImT1YI9TjkVE_AhBvw-o_sIUN193LPEgGdYUUmAOpQxljjAnIiSfQHahGrLgKNT3yBrYGeGldIJ6eZEcz6EXT4vSeiy_tMtiA8hmBT7JsopuQoR1xBNjLBhIQaSlk0cqgLlLeqovfz-fZ2hoUxSZ8HnE1iF2NxIMHAOkMua_E81Q
p6
sVprice_level
p7
I2
sVplace_id
p8
VChIJ___I0jB-j4ARgAaAClz2pl8
p9
sVurl
p10
Vhttps://maps.google.com/?cid=6892467154910709376
p11
sVformatted_address
p12
V2814 19th St, San Francisco, CA 94110, United States
p13
sVid
p14
V1e711cd55c4925091ccd4446351be5be8accef26
p15
sVopening_hours
p16
(dp17
Vweekday_text
p18
(lp19
VMonday: Closed
p20
aVTuesday: 5:30 \u2013 9:00 PM
p21
aVWednesday: 11:30 AM \u2013 2:15 PM, 5:30 \u2013 9:00 PM
p22
aVThursday: 11:30 AM \u2013 2:15 PM, 5:30 \u2013 9:00 PM
p23
aVFriday: 10:00 AM \u2013 2:15 PM, 5:30 \u2013 10:00 PM
p24
aVSaturday: 9:00 AM \u2013 3:00 PM, 5:30 \u2013 10:00 PM
p25
aVSunday: 9:00 AM \u2013 3:00 PM
p26
asVopen_now
p27
I01
sVperiods
p28
(lp29
(dp30
Vclose
p31
(dp32
Vday
p33
I0
sVtime
p34
V1500
p35
ssVopen
p36
(dp37
Vday
p38
I0
sVtime
p39
V0900
p40
ssa(dp41
Vclose
p42
(dp43
Vday
p44
I2
sVtime
p45
V2100
p46
ssVopen
p47
(dp48
Vday
p49
I2
sVtime
p50
V1730
p51
ssa(dp52
Vclose
p53
(dp54
Vday
p55
I3
sVtime
p56
V1415
p57
ssVopen
p58
(dp59
Vday
p60
I3
sVtime
p61
V1130
p62
ssa(dp63
Vclose
p64
(dp65
Vday
p66
I3
sVtime
p67
V2100
p68
ssVopen
p69
(dp70
Vday
p71
I3
sVtime
p72
V1730
p73
ssa(dp74
Vclose
p75
(dp76
Vday
p77
I4
sVtime
p78
V1415
p79
ssVopen
p80
(dp81
Vday
p82
I4
sVtime
p83
V1130
p84
ssa(dp85
Vclose
p86
(dp87
Vday
p88
I4
sVtime
p89
V2100
p90
ssVopen
p91
(dp92
Vday
p93
I4
sVtime
p94
V1730
p95
ssa(dp96
Vclose
p97
(dp98
Vday
p99
I5
sVtime
p100
V1415
p101
ssVopen
p102
(dp103
Vday
p104
I5
sVtime
p105
V1000
p106
ssa(dp107
Vclose
p108
(dp109
Vday
p110
I5
sVtime
p111
V2200
p112
ssVopen
p113
(dp114
Vday
p115
I5
sVtime
p116
V1730
p117
ssa(dp118
Vclose
p119
(dp120
Vday
p121
I6
sVtime
p122
V1500
p123
ssVopen
p124
(dp125
Vday
p126
I6
sVtime
p127
V0900
p128
ssa(dp129
Vclose
p130
(dp131
Vday
p132
I6
sVtime
p133
V2200
p134
ssVopen
p135
(dp136
Vday
p137
I6
sVtime
p138
V1730
p139
ssassVvicinity
p140
V2814 19th Street, San Francisco
p141
sVscope
p142
VGOOGLE
p143
sVwebsite
p144
Vhttp://universalcafe.net/
p145
sVutc_offset
p146
I-420
sVuser_ratings_total
p147
I273
sVphotos
p148
(lp149
(dp150
Vphoto_reference
p151
VCoQBdwAAAFNNIfFlQWOkZ0h6NDTpZEVI-pHNO2BKCiEix5jZkD7VWNQfUYYz62DsLoLFFoCleDSb1qtJWQrVUNH2GjIKgV0tmNLP6UVa8isD7mHKh_sk5KfcepcRf_xPcdYvPclexy7b9N3hu6o6y5UOq2IG_Duhukq1qdq-5UciyMyfSlKqEhAuk7mrxgpxTGjqZFP1BnV6GhTQeynYkuMoBxdTb9FKiIuwOT_teg
p152
sVwidth
p153
I3315
sVhtml_attributions
p154
(lp155
V<a href="https://maps.google.com/maps/contrib/104111246635874032234/photos">ZAGAT</a>
p156
asVheight
p157
I2556
sa(dp158
Vphoto_reference
p159
VCmRdAAAADBO6lrXJHhkrexJqnauux3BOH9WTeOgIY3j-El-K8QSc6MbH-jyll7rBC3Oi96SFQuLbDCYu8a1yDB7m7glRhMsKuiE3bvbIYEPQ595sgMlJvOJxgDSLG-nMMCVYIDfDEhCBGYDRcLPzim8EaIEWtm8lGhTVECARuJxDc2b8zjKRZbx_zc5h9g
p160
sVwidth
p161
I2048
sVhtml_attributions
p162
(lp163
V<a href="https://maps.google.com/maps/contrib/101684759371052236980/photos">Don V</a>
p164
asVheight
p165
I1536
sa(dp166
Vphoto_reference
p167
VCoQBdwAAAL75tCYs7A4u3xUXTykeSg66ar_z5B6Jxtx97aE0wghirem1cBQfV_q2-li84cW9pcZVS2BO-EaV3AL6jY5DFk3SNAQte4d9ijSTIsv-viCuv1oQ701a9pccJWv4FEcCwVz29SOLmx15h_otgVfVp5Y0SpSXgOgu6-dWTPqDpkRkEhCvwU6AupcsSB8l0F7yH0J6GhSVwFYeLSrhMUr6OJMh2m4NIHhaZg
p168
sVwidth
p169
I5044
sVhtml_attributions
p170
(lp171
V<a href="https://maps.google.com/maps/contrib/104111246635874032234/photos">ZAGAT</a>
p172
asVheight
p173
I3674
sa(dp174
Vphoto_reference
p175
VCmRdAAAASWRiRkQbD9ga0V9t1PW2NpN3jPQcku5DvQ4a_QdsLDRTZ4iR7STu-B29Ptw7ZVx7S9KD3U8qSzx7mkJNOHQJM-vOKebn70_hcKAEVlohRbSM-YLQk18Z1IvzqBRCgJY1EhCuzcsIAxXslna6exmcxP2aGhSfMjA-F8V8VVWWu2HAdxZ29YRpQg
p176
sVwidth
p177
I1080
sVhtml_attributions
p178
(lp179
V<a href="https://maps.google.com/maps/contrib/115158736894519801798/photos">Luc Vincent</a>
p180
asVheight
p181
I608
sa(dp182
Vphoto_reference
p183
VCmRdAAAATnRTnS2a6KguZAu7bhs6plhPEmRlBgKCDmQhHjoWSeUUF9vluZ24ol0fT8muj_t_sHWynCJmE9kRdld4P59UIPLeVEPfTz7lT0ou19U4spo_85OoonSwmnOHz4cEvIT5EhAhTuOf8Up1nfUZAf1ZoE9jGhTzrz8Zg0V8dvCzWrr3Lxb-7uCOzQ
p184
sVwidth
p185
I1080
sVhtml_attributions
p186
(lp187
V<a href="https://maps.google.com/maps/contrib/115158736894519801798/photos">Luc Vincent</a>
p188
asVheight
p189
I608
sa(dp190
Vphoto_reference
p191
VCmRdAAAAQleObK5hcZe8NHVYAZAl1Ln7mFKTqW6ve6W49yHTT85IKE-i5R7AkoLz6derW0_7UMREMYJh1ik_pRR0HoPhEAafNrCoC8BNBwK2IsHW4BO6vCkzEre9f_B3w1hrA6TUEhCLxDXO7OeFeUhppsbZVDZcGhSQBayOuwyirZ8BLUMeqxsSylTIhA
p192
sVwidth
p193
I1080
sVhtml_attributions
p194
(lp195
V<a href="https://maps.google.com/maps/contrib/115158736894519801798/photos">Luc Vincent</a>
p196
asVheight
p197
I608
sa(dp198
Vphoto_reference
p199
VCmRdAAAA8lCrvx7Om0eznTsTN98DEwuJBpvflHaAt6Jo2chQFhsuh1ka590T3OKaqI8B6D55Z6f2xINih-y7RWay9_OVcEHYKeiKy9jBIS95NFiHGHcj02ESD_Q6XOvSMgLTGVazEhD1PUeNOHzdnFzlrerKy7qWGhRilS-mHTzzSDM4j3xRBLXJig2KYw
p200
sVwidth
p201
I608
sVhtml_attributions
p202
(lp203
V<a href="https://maps.google.com/maps/contrib/100290800291376084201/photos">Marguerite de Fayet</a>
p204
asVheight
p205
I1080
sa(dp206
Vphoto_reference
p207
VCmRdAAAA-f-pAjHSKUwBLy0q7korSjb5FUvVgDfCtKYgNVtniWaNmvk94Az_lNij3TJqq2IxTKyapEBee6Lz6A2eR3Dh70w6sMAhH4qXninqDh7nA7IWEmK6Z6V4KSkjFkoIUlhuEhAY_WY9LCs5fZLUo5Y55v8GGhQLZ-sZ_nQiR9EHDmkZW7YsYy3TYg
p208
sVwidth
p209
I2048
sVhtml_attributions
p210
(lp211
V<a href="https://maps.google.com/maps/contrib/101684759371052236980/photos">Don V</a>
p212
asVheight
p213
I1536
sa(dp214
Vphoto_reference
p215
VCoQBdwAAAGMwDtdPU1akGOX0OK3lVtOaBgwwLGAHx0OygN1VY6OazHANEkz1KoiwaPpxhcPjcmPALdklYZjUYyfdnW9WSUyFm7afDx2FM8MfpTTwt2m0OOV5r2iNCAXk9V_m3JkGFE1XjmdI1QgflYKnHG-f51x4HC7FPEKAAdz66SlKFCQVEhBLtx1hsw2-ACOAhgDM816PGhTZhTHWDkJ8zGt4W9GyNygehJWlhg
p216
sVwidth
p217
I3901
sVhtml_attributions
p218
(lp219
V<a href="https://maps.google.com/maps/contrib/104111246635874032234/photos">ZAGAT</a>
p220
asVheight
p221
I3800
sa(dp222
Vphoto_reference
p223
VCmRdAAAAYFq3gGrNoqpNZvH91wYTB7W78RhKQNLhy0ZqUYaOKr5LnRUigjbpAjq6EKSPFSGQtZUGfmD7pWBYyK8IzloweewjlWkdw6CqofjhVqPbXpua6CyGQxzacgBba70Qx1R3EhAAZsuY73SXq9LBeEsSLxiDGhREfWQWk2tXf_KMeXG0vmGhpAQaIg
p224
sVwidth
p225
I1296
sVhtml_attributions
p226
(lp227
V<a href="https://maps.google.com/maps/contrib/115584845914183643191/photos">Jade Wang</a>
p228
asVheight
p229
I972
sasVtypes
p230
(lp231
Vcafe
p232
aVrestaurant
p233
aVfood
p234
aVpoint_of_interest
p235
aVestablishment
p236
asVicon
p237
Vhttps://maps.gstatic.com/mapfiles/place_api/icons/restaurant-71.png
p238
sVname
p239
VUniversal Cafe
p240
sVgeometry
p241
(dp242
Vaccess_points
p243
(lp244
(dp245
Vtravel_modes
p246
(lp247
VDRIVING
p248
aVBICYCLING
p249
aVWALKING
p250
aVTRANSIT
p251
asVlocation
p252
(dp253
Vlat
p254
g3
(S'37.76045879999999'
tRp255
sVlng
p256
g3
(S'-122.410548'
tRp257
ssasVlocation
p258
(dp259
Vlat
p260
g3
(S'37.76061979999999'
tRp261
sVlng
p262
g3
(S'-122.4105624'
tRp263
sssVadr_address
p264
V<span class="street-address">2814 19th St</span>, <span class="locality">San Francisco</span>, <span class="region">CA</span> <span class="postal-code">94110-2018</span>, <span class="country-name">United States</span>
p265
sVinternational_phone_number
p266
V+1 415-821-4608
p267
sVreviews
p268
(lp269
(dp270
Vrating
p271
I5
sVaspects
p272
(lp273
(dp274
Vrating
p275
I3
sVtype
p276
Voverall
p277
sasVprofile_photo_url
p278
V//lh5.googleusercontent.com/-gOM-vTd2QOo/AAAAAAAAAAI/AAAAAAAAE68/Tf-DXGiUQ44/photo.jpg
p279
sVlanguage
p280
Ven
p281
sVtext
p282
VBest brunch in the city. Seasonal daily menus with consistent solid execution. Can't go wrong but definitely try the coffee cake if it hasn't already run out.
p283
sVauthor_name
p284
VMia Mora
p285
sVauthor_url
p286
Vhttps://plus.google.com/100238572725713776314
p287
sVtime
p288
I1460309445
sa(dp289
Vrating
p290
I4
sVaspects
p291
(lp292
(dp293
Vrating
p294
I2
sVtype
p295
Voverall
p296
sasVprofile_photo_url
p297
V//lh5.googleusercontent.com/-E8VQBqYtrhM/AAAAAAAAAAI/AAAAAAAAJi0/W7YVrmcOs4g/photo.jpg
p298
sVlanguage
p299
Ven
p300
sVtext
p301
VYet another tasty brunch spot in San Francisco. Be prepared for a bit of a wait. This is one of few spots with outdoor seating that also gets plenty of sun. Being situated in the mission/potrero helps too since the weather is usually the warmest of the whole city. If you are in love with breakfast sandwiches, then the House-Made Sourdough English Muffin is for you. The french toast is also a trademark of this restaurant and don't forget to get yourself a side order of the toasted banana bread.
p302
sVauthor_name
p303
VMolly Shelestak
p304
sVauthor_url
p305
Vhttps://plus.google.com/112591623530300982449
p306
sVtime
p307
I1455840451
sa(dp308
Vrating
p309
I4
sVaspects
p310
(lp311
(dp312
Vrating
p313
I2
sVtype
p314
Voverall
p315
sasVprofile_photo_url
p316
V//lh5.googleusercontent.com/-hm7w-p8E4no/AAAAAAAAAAI/AAAAAAAApgg/p7NTWyCccwQ/photo.jpg
p317
sVlanguage
p318
Ven
p319
sVtext
p320
VGreat brunch. There's usually a bit of a wait. However if you're flexible on where you want to sit - you can be in, in around 30 mins. \u000a\u000aOrder the soft scramble. It's so satisfying. \u000a\u000aThe Bloody Mary is made with sake and a bunch of awesome accoutrement. \u000a\u000aThe polenta and shrimp is wildly decadent. But also delicious. \u000a\u000aThe breakfast sandwich is yummy and a slightly elevated version of the breakfast classic. Comes with a refreshing little salad. 
p321
sVauthor_name
p322
VShanee Ben-Zur
p323
sVauthor_url
p324
Vhttps://plus.google.com/106931136794710176464
p325
sVtime
p326
I1454127547
sa(dp327
Vrating
p328
I5
sVaspects
p329
(lp330
(dp331
Vrating
p332
I3
sVtype
p333
Voverall
p334
sasVprofile_photo_url
p335
V//lh4.googleusercontent.com/-cSSmAfcq6ds/AAAAAAAAAAI/AAAAAAAAD_o/Ho0rSt7UqgY/photo.jpg
p336
sVlanguage
p337
Ven
p338
sVtext
p339
VI write this review hesitantly because I don't want this place to become more popular than it already is. Of course I want the owners to do well, but since it's around the corner from our house, I would love to for it to remain a neighborhood secret and hangout. Shhhhhh.\u000a\u000aIn all seriousness though, this place is amazing. We have only eaten brunch here (still need to come back for dinner) and each time have left wanting to come back. This weekend, we actually went twice! \u000a\u000aMichael, the face of Universal, is usually seating people and is always cordial in the morning. Coffee is also self-serve while you wait, so don't hesitate to pour a cup. You can usually grab a seat outside if it's cold and you will probably have to wait around 20 minutes for an inside table.\u000a\u000aSome highlights include: \u000a(menu changes with the seasons, so this is based on winter 2015/16)\u000a\u000aSoft scramble, flat iron steak, breakfast sandwich and the chicken sandwich are absolutely incredible. The bacon is also very tasty, so don't be ashamed to order a side of it.\u000a\u000aCaution: this may become your new favorite spot.
p340
sVauthor_name
p341
VAndrew Michaels
p342
sVauthor_url
p343
Vhttps://plus.google.com/103056749735848668078
p344
sVtime
p345
I1451975284
sa(dp346
Vrating
p347
I5
sVaspects
p348
(lp349
(dp350
Vrating
p351
I3
sVtype
p352
Voverall
p353
sasVprofile_photo_url
p354
V//lh5.googleusercontent.com/--XCOzNAWoao/AAAAAAAAAAI/AAAAAAAApZk/Xz2uoVT4QKM/photo.jpg
p355
sVlanguage
p356
Ven
p357
sVtext
p358
VHad brunch here on a Sunday. Has outdoor and indoor seating. If you like a good brunch come by and get the poached eggs plate. Very good. 
p359
sVauthor_name
p360
VRyan Paredez
p361
sVauthor_url
p362
Vhttps://plus.google.com/100569678115145725371
p363
sVtime
p364
I1440033757
sasVformatted_phone_number
p365
V(415) 821-4608
p366
sVaddress_components
p367
(lp368
(dp369
Vlong_name
p370
V2814
p371
sVtypes
p372
(lp373
Vstreet_number
p374
asVshort_name
p375
V2814
p376
sa(dp377
Vlong_name
p378
V19th Street
p379
sVtypes
p380
(lp381
Vroute
p382
asVshort_name
p383
V19th St
p384
sa(dp385
Vlong_name
p386
VSan Francisco
p387
sVtypes
p388
(lp389
Vlocality
p390
aVpolitical
p391
asVshort_name
p392
VSF
p393
sa(dp394
Vlong_name
p395
VCalifornia
p396
sVtypes
p397
(lp398
Vadministrative_area_level_1
p399
aVpolitical
p400
asVshort_name
p401
VCA
p402
sa(dp403
Vlong_name
p404
VUnited States
p405
sVtypes
p406
(lp407
Vcountry
p408
aVpolitical
p409
asVshort_name
p410
VUS
p411
sa(dp412
Vlong_name
p413
V94110
p414
sVtypes
p415
(lp416
Vpostal_code
p417
asVshort_name
p418
V94110
p419
sa(dp420
Vlong_name
p421
V2018
p422
sVtypes
p423
(lp424
Vpostal_code_suffix
p425
asVshort_name
p426
V2018
p427
sas.