(dp1
Vrating
p2
cdecimal
Decimal
p3
(S'4.7'
tRp4
sVreference
p5
VCmRYAAAAp-z_KVSeCu2ns2OhaP87Gfu3EqoRJSlCtAhf0rcIbb_ji1QYFRx2vuV3k-MFUBNw9X5VhRNAO8_hh3Ddd7LfIuXwVk2gZpT85031dqOQ3cDtz2qu7Xw4KrtC9yOhPn-xEhBzSnIm9nS5mvudA7OrvLGvGhQWfy3Ox3ANm17OedN36Y7IWvX5Fg
p6
sVprice_level
p7
I2
sVplace_id
p8
VChIJP0gMtKyjj4ARZUDVtINsnm4
p9
sVurl
p10
Vhttps://maps.google.com/?cid=7970927703422746725
p11
sVformatted_address
p12
V2022 Broadway St, Redwood City, CA 94063, United States
p13
sVid
p14
Vc79fe2ce98b6aee666829ef596d0b09e5e37b778
p15
sVopening_hours
p16
(dp17
Vweekday_text
p18
(lp19
VMonday: Closed
p20
aVTuesday: 11:00 AM \u2013 10:00 PM
p21
aVWednesday: 11:00 AM \u2013 10:00 PM
p22
aVThursday: 11:00 AM \u2013 10:00 PM
p23
aVFriday: 11:00 AM \u2013 10:00 PM
p24
aVSaturday: 11:00 AM \u2013 10:00 PM
p25
aVSunday: Closed
p26
asVopen_now
p27
I00
sVperiods
p28
(lp29
(dp30
Vclose
p31
(dp32
Vday
p33
I2
sVtime
p34
V2200
p35
ssVopen
p36
(dp37
Vday
p38
I2
sVtime
p39
V1100
p40
ssa(dp41
Vclose
p42
(dp43
Vday
p44
I3
sVtime
p45
V2200
p46
ssVopen
p47
(dp48
Vday
p49
I3
sVtime
p50
V1100
p51
ssa(dp52
Vclose
p53
(dp54
Vday
p55
I4
sVtime
p56
V2200
p57
ssVopen
p58
(dp59
Vday
p60
I4
sVtime
p61
V1100
p62
ssa(dp63
Vclose
p64
(dp65
Vday
p66
I5
sVtime
p67
V2200
p68
ssVopen
p69
(dp70
Vday
p71
I5
sVtime
p72
V1100
p73
ssa(dp74
Vclose
p75
(dp76
Vday
p77
I6
sVtime
p78
V2200
p79
ssVopen
p80
(dp81
Vday
p82
I6
sVtime
p83
V1100
p84
ssassVvicinity
p85
V2022 Broadway Street, Redwood City
p86
sVscope
p87
VGOOGLE
p88
sVwebsite
p89
Vhttp://www.vestarwc.com/
p90
sVutc_offset
p91
I-420
sVuser_ratings_total
p92
I80
sVphotos
p93
(lp94
(dp95
Vphoto_reference
p96
VCmRdAAAACLbYBfvwRZ_2Cmcgg8-_VQE4UMnx6PrlKPA0lIFZGC-W-Eozujpkje2p94ie6Fs_TKCUW1wMhaS4D37eibH3w6t7uMOKpY7pQQPgAeWqcnExwJiObHqyU8xDAphXIoTkEhD8CMZ31cva2TnKrg2BOqy1GhTskyu4g31VFmVnDkIh97tptjbQYw
p97
sVwidth
p98
I4608
sVhtml_attributions
p99
(lp100
V<a href="https://maps.google.com/maps/contrib/108320224573839197933/photos">Randy F.</a>
p101
asVheight
p102
I3456
sa(dp103
Vphoto_reference
p104
VCmRdAAAA3KiTD3TEMwWZF9oA9L23nXQh2zb5K7Q8hgd4Jos4b4tG6dIDqWueteCYjvwYHMb6aAT8kSnxEQsVlbtBxh2xE6jgYoXlqKE8Z1duP0kut_tQvIj17A8oHyghhSEQohywEhAZCIJbDJphqV1oWM3Q5NzNGhSJ8Fk0TOiFRczY_usB4MytaHPYHQ
p105
sVwidth
p106
I960
sVhtml_attributions
p107
(lp108
V<a href="https://maps.google.com/maps/contrib/117591544990941385418/photos">Adriano Gonella</a>
p109
asVheight
p110
I720
sa(dp111
Vphoto_reference
p112
VCoQBcwAAAJCkyR6JTaLndLmkjFmjIzcV_aLt23OnMMXHwLv0q0UuMjRuzyJKWUMkpgyqNuazc-3oG8gEy42GoZTQtW5VWS_B4vEpFC66e6iDQOWEQu05GxyEfPS86fMGX8EjexMOGqSSy9-50QObEo4i8lE5g_sWYhHk04s2Uh4OkEFmZuSuEhCjGRiqTID_lrZ-UOK-IwlFGhRKkT1cbmvTJUhgT1LxaNbtq16NsQ
p113
sVwidth
p114
I3264
sVhtml_attributions
p115
(lp116
V<a href="https://maps.google.com/maps/contrib/115007106676359042744/photos">Jackie Lai</a>
p117
asVheight
p118
I2448
sa(dp119
Vphoto_reference
p120
VCmRdAAAAQrOFPlHD97VJlfJLbXg5gqTn_4VoWHf0nF7psX3N_6A8d0TYChfQuaTOZ443hsk9O32A1ogHdzktNChIEKWkXaVTc5i6SVYfmHMBg79LQN30pVU1pTYoIljJAblNNwZxEhDw2D0UcDpp0yandLMJMl1-GhQ6S1SDfXc6rRTCiw8cav157vOqJw
p121
sVwidth
p122
I612
sVhtml_attributions
p123
(lp124
V<a href="https://maps.google.com/maps/contrib/114573741431427145428/photos">Vesta</a>
p125
asVheight
p126
I612
sa(dp127
Vphoto_reference
p128
VCmRdAAAAsg7gdtClmGvI1Gw7rRDLD-LSF2iE5_DUkwocUosfKq7g9pDZ6pUoId4HbAiex9lloxJ6FHF7yAKB_YPEZtw8DeRP1f6OqzkYKfYqXb9UNG4HWd5B1ubISmsZEebDbFvaEhCup4RI-megtlGTif5ySWvpGhSrB6WFM0vGGtkPTidiiXDQdjeeog
p129
sVwidth
p130
I960
sVhtml_attributions
p131
(lp132
V<a href="https://maps.google.com/maps/contrib/117591544990941385418/photos">Adriano Gonella</a>
p133
asVheight
p134
I720
sa(dp135
Vphoto_reference
p136
VCmRdAAAA_BiuMyeK3cdl8-gUD1HPUjYa36M_H67sOLs0N0Jh7A7XrgraYg4ffaGr6PgSX-09WRlIXywRe5W4foYyBNlp_imv6v9h-Er_4NXVuN00t0so_bWvAbhvTVuQGA4N5sCMEhA6hHvTRIPQThsOFCQpCFkwGhQKWl-DSp9dmn5pAMM6NXp2fTVouw
p137
sVwidth
p138
I960
sVhtml_attributions
p139
(lp140
V<a href="https://maps.google.com/maps/contrib/117591544990941385418/photos">Adriano Gonella</a>
p141
asVheight
p142
I720
sa(dp143
Vphoto_reference
p144
VCmRdAAAAdxemFYkspEYsiboOaI3XEO0eyc9UTeQbwDusORh4jhRk6A8bvzrsvt3DINgAQo9cCKVUO6d2C5gPuoBXXmtFum1XtZOiZi-2cYrocukmfFhCynYHPkeGowSxpPiGyaelEhDj4MUUMYTR9dJQ7QengYs5GhRbmDmZExZk05vlizGfMRHxOFpU_g
p145
sVwidth
p146
I800
sVhtml_attributions
p147
(lp148
V<a href="https://maps.google.com/maps/contrib/116858675111526704008/photos">Thad Hughes</a>
p149
asVheight
p150
I592
sa(dp151
Vphoto_reference
p152
VCmRdAAAA1dCTGnoeSSkPCygMZ229A7uo_n7gBv44RXH4EvtOGxPYmwPVQbe-Z79xUJVlUULDJR2Yyx_C2jGNu6r3IBc6eq0kLS6qwm9CNiD53-exUrZQ5C2uQpciCfdm2aPfowKBEhDOuZ6ygXceyRPxtcFDXVsXGhQLvVMSbaOZGHJ4N3lg5Yg6oX5XPA
p153
sVwidth
p154
I1600
sVhtml_attributions
p155
(lp156
V<a href="https://maps.google.com/maps/contrib/114573741431427145428/photos">Vesta</a>
p157
asVheight
p158
I1196
sa(dp159
Vphoto_reference
p160
VCmRdAAAAoQMvmJNdVCzmlT27TNM_HzCa8q5UJboujRVQwzZewUPhQpIiwtDlKbbQ3etezOaHyE46ctvS1hr4RuMeiVVJO1uP71CyuX3FjkicUYPhDv28V2gUHB8nWYFBDBsVnWjhEhDsW2O4UQnJrgtcHLc8vsLIGhSJKIbb9Lfnl4xpEAm_BFuoTAPSrw
p161
sVwidth
p162
I4608
sVhtml_attributions
p163
(lp164
V<a href="https://maps.google.com/maps/contrib/108320224573839197933/photos">Randy F.</a>
p165
asVheight
p166
I3456
sa(dp167
Vphoto_reference
p168
VCoQBdwAAAJVkF0aEd-hK6_1caBRghlo4gVqPB2LDnGz3o-jasJapRMESJpJyqV6nTS74QCJqNLHSEIJAG-U93mFUtdv0t8RMOtOkEa3TKqQkX1ifd86oYOEobS38KOSicqe906XDsEmiDUjq7UFLSJ2aLbDEgw2gnGrfzN-DevliYGn8z0sGEhCatwlmDPJeSkRLZQA7PwcZGhS8NY7xW-Fx5_YjEjCh8JlBFLTETQ
p169
sVwidth
p170
I3024
sVhtml_attributions
p171
(lp172
V<a href="https://maps.google.com/maps/contrib/100737853824054469536/photos">Jack Menzel</a>
p173
asVheight
p174
I4032
sasVtypes
p175
(lp176
Vrestaurant
p177
aVfood
p178
aVpoint_of_interest
p179
aVestablishment
p180
asVicon
p181
Vhttps://maps.gstatic.com/mapfiles/place_api/icons/restaurant-71.png
p182
sVname
p183
VVesta
p184
sVgeometry
p185
(dp186
Vaccess_points
p187
(lp188
(dp189
Vtravel_modes
p190
(lp191
VDRIVING
p192
aVBICYCLING
p193
aVWALKING
p194
aVTRANSIT
p195
asVlocation
p196
(dp197
Vlat
p198
g3
(S'37.48660599999999'
tRp199
sVlng
p200
g3
(S'-122.2267687'
tRp201
ssasVlocation
p202
(dp203
Vlat
p204
g3
(S'37.4867684'
tRp205
sVlng
p206
g3
(S'-122.2267781'
tRp207
sssVadr_address
p208
V<span class="street-address">2022 Broadway St</span>, <span class="locality">Redwood City</span>, <span class="region">CA</span> <span class="postal-code">94063</span>, <span class="country-name">United States</span>
p209
sVinternational_phone_number
p210
V+1 650-362-5052
p211
sVreviews
p212
(lp213
(dp214
Vrating
p215
I4
sVaspects
p216
(lp217
(dp218
Vrating
p219
I2
sVtype
p220
Voverall
p221
sasVprofile_photo_url
p222
V//lh5.googleusercontent.com/-RUvLSiMzCYw/AAAAAAAAAAI/AAAAAAABiOE/70Ih57NFf-k/photo.jpg
p223
sVlanguage
p224
Ven
p225
sVtext
p226
VThis place is great! We eat here all the time. The appetizer small plates are all high quality and we generally order one of them, a salad, and a pizza for two. It's always really delicious. 
p227
sVauthor_name
p228
VJon-Michael Durkin
p229
sVauthor_url
p230
Vhttps://plus.google.com/114730438134482505914
p231
sVtime
p232
I1459647002
sa(dp233
Vrating
p234
I5
sVaspects
p235
(lp236
(dp237
Vrating
p238
I3
sVtype
p239
Voverall
p240
sasVprofile_photo_url
p241
V//lh3.googleusercontent.com/-RQIdo-ahmr4/AAAAAAAAAAI/AAAAAAAACxA/Kz05u8fr360/photo.jpg
p242
sVlanguage
p243
Ven
p244
sVtext
p245
VIf you like thin crust, Vesta is a great option.  They have innovative pies with topping combos that may not be traditional, but hit the spot.  Enjoyed every mouthful.  Crusts were perfect.  Pear and burrata cheese was consumed way too fast and left us wanting more.  Outdoor seating is pet friendly.  Perfect sunny day venue.  Wait staff were knowledgable and very friendly. 
p246
sVauthor_name
p247
VDavid Fleck
p248
sVauthor_url
p249
Vhttps://plus.google.com/114523827569695713264
p250
sVtime
p251
I1455488138
sa(dp252
Vrating
p253
I5
sVaspects
p254
(lp255
(dp256
Vrating
p257
I3
sVtype
p258
Voverall
p259
sasVprofile_photo_url
p260
V//lh5.googleusercontent.com/--0KYbpXg0so/AAAAAAAAAAI/AAAAAAAAAKE/0O2zq4ZQWkk/photo.jpg
p261
sVlanguage
p262
Ven
p263
sVtext
p264
VBest Pizza I've had. Incredible flavor, great choice and well trained staff make this place my favorite restaurant in the bay area. 
p265
sVauthor_name
p266
VKory Butler
p267
sVauthor_url
p268
Vhttps://plus.google.com/107839329744337737476
p269
sVtime
p270
I1457894602
sa(dp271
Vrating
p272
I5
sVaspects
p273
(lp274
(dp275
Vrating
p276
I3
sVtype
p277
Voverall
p278
sasVprofile_photo_url
p279
V//lh4.googleusercontent.com/-xC9ZS8lWEo4/AAAAAAAAAAI/AAAAAAABPf8/Sz6LBwGICUE/photo.jpg
p280
sVlanguage
p281
Ven
p282
sVtext
p283
VAwesome pizza and great appetizers. I have been here for a couple times and every time I was very satisfied! Make a reservation first otherwise you'll need to wait for a while. 
p284
sVauthor_name
p285
VJeff Chen
p286
sVauthor_url
p287
Vhttps://plus.google.com/103648585433924811161
p288
sVtime
p289
I1453512458
sa(dp290
Vrating
p291
I5
sVaspects
p292
(lp293
(dp294
Vrating
p295
I3
sVtype
p296
Voverall
p297
sasVprofile_photo_url
p298
V//lh3.googleusercontent.com/-cEsSpTTmfKU/AAAAAAAAAAI/AAAAAAAAITU/qVjfojtQ55o/photo.jpg
p299
sVlanguage
p300
Ven
p301
sVtext
p302
VI tried Vesta recently with my family, and managed to get a table on the patio on a Friday evening even without a reservation (though we did arrive somewhat early).  The food was delicious -- better than any place I've tried in Redwood City, with the possible exception of John Bentley's.  The small plates were particularly excellent, though I thought the thin-crust pizza was also very good.  Service was friendly and helpful but not intrusive.  I highly recommend the restaurant, and am excited to go back when I get a chance.  
p303
sVauthor_name
p304
VDarren Baker
p305
sVauthor_url
p306
Vhttps://plus.google.com/114975089313784174790
p307
sVtime
p308
I1436982353
sasVformatted_phone_number
p309
V(650) 362-5052
p310
sVaddress_components
p311
(lp312
(dp313
Vlong_name
p314
V2022
p315
sVtypes
p316
(lp317
Vstreet_number
p318
asVshort_name
p319
V2022
p320
sa(dp321
Vlong_name
p322
VBroadway Street
p323
sVtypes
p324
(lp325
Vroute
p326
asVshort_name
p327
VBroadway St
p328
sa(dp329
Vlong_name
p330
VRedwood City
p331
sVtypes
p332
(lp333
Vlocality
p334
aVpolitical
p335
asVshort_name
p336
VRedwood City
p337
sa(dp338
Vlong_name
p339
VCalifornia
p340
sVtypes
p341
(lp342
Vadministrative_area_level_1
p343
aVpolitical
p344
asVshort_name
p345
VCA
p346
sa(dp347
Vlong_name
p348
VUnited States
p349
sVtypes
p350
(lp351
Vcountry
p352
aVpolitical
p353
asVshort_name
p354
VUS
p355
sa(dp356
Vlong_name
p357
V94063
p358
sVtypes
p359
(lp360
Vpostal_code
p361
asVshort_name
p362
V94063
p363
sas.