(dp1
Vrating
p2
cdecimal
Decimal
p3
(S'4.2'
tRp4
sVreference
p5
VCnRkAAAAtgm-hV1_ivWy6JzaMFZ0BCc3x_YoMj1eahoLKaV0D9P3kmHzgxMK2lvsmWp4CgdjQixzlrmlovBI2TgtyNyXcjnhUCxcnHQjXSo1uLtptL-YKG9849zdLuawSNjiFhp1XG7k4thy9ca8w8dwSPUo4BIQwrAK2TOeibkF8Gxfh3BJGBoUPzPExjxbqos4Fno3SGgQe10A_Z4
p6
sVprice_level
p7
I2
sVplace_id
p8
VChIJ6x0WHCyfj4AREfNcpraaJ4s
p9
sVurl
p10
Vhttps://maps.google.com/?cid=10027153204629533457
p11
sVformatted_address
p12
V969 Edgewater Blvd, Foster City, CA 94404, United States
p13
sVid
p14
Ve7fface813dc05246fa77d552ac6c486d44d6f35
p15
sVopening_hours
p16
(dp17
Vweekday_text
p18
(lp19
VMonday: 11:30 AM \u2013 9:00 PM
p20
aVTuesday: 11:30 AM \u2013 9:00 PM
p21
aVWednesday: 11:30 AM \u2013 9:00 PM
p22
aVThursday: 11:30 AM \u2013 9:00 PM
p23
aVFriday: 11:30 AM \u2013 9:00 PM
p24
aVSaturday: 11:30 AM \u2013 9:00 PM
p25
aVSunday: 11:30 AM \u2013 9:00 PM
p26
asVopen_now
p27
I01
sVperiods
p28
(lp29
(dp30
Vclose
p31
(dp32
Vday
p33
I0
sVtime
p34
V2100
p35
ssVopen
p36
(dp37
Vday
p38
I0
sVtime
p39
V1130
p40
ssa(dp41
Vclose
p42
(dp43
Vday
p44
I1
sVtime
p45
V2100
p46
ssVopen
p47
(dp48
Vday
p49
I1
sVtime
p50
V1130
p51
ssa(dp52
Vclose
p53
(dp54
Vday
p55
I2
sVtime
p56
V2100
p57
ssVopen
p58
(dp59
Vday
p60
I2
sVtime
p61
V1130
p62
ssa(dp63
Vclose
p64
(dp65
Vday
p66
I3
sVtime
p67
V2100
p68
ssVopen
p69
(dp70
Vday
p71
I3
sVtime
p72
V1130
p73
ssa(dp74
Vclose
p75
(dp76
Vday
p77
I4
sVtime
p78
V2100
p79
ssVopen
p80
(dp81
Vday
p82
I4
sVtime
p83
V1130
p84
ssa(dp85
Vclose
p86
(dp87
Vday
p88
I5
sVtime
p89
V2100
p90
ssVopen
p91
(dp92
Vday
p93
I5
sVtime
p94
V1130
p95
ssa(dp96
Vclose
p97
(dp98
Vday
p99
I6
sVtime
p100
V2100
p101
ssVopen
p102
(dp103
Vday
p104
I6
sVtime
p105
V1130
p106
ssassVvicinity
p107
V969 Edgewater Boulevard, Foster City
p108
sVscope
p109
VGOOGLE
p110
sVwebsite
p111
Vhttp://www.waterfrontpizza.com/
p112
sVutc_offset
p113
I-420
sVuser_ratings_total
p114
I106
sVphotos
p115
(lp116
(dp117
Vphoto_reference
p118
VCmRdAAAA0P5j6wLdoFiNYZ7ekGUJMcF6b_iFjhPr-K2Z7VGTDYfy0ZSqNT-2EhLl1IWUdDtDQS2KpteYU3eoE2_nOYrQEzpCuYwbilVBEfjRHk8acCMOu4tnmqEzfyBj_TqdcN9EEhCKbzZZvDE5IbKEfVh2Kqm5GhRUvZdWQLrG3nKg5Ke4vl9nBXIvrw
p119
sVwidth
p120
I3200
sVhtml_attributions
p121
(lp122
V<a href="https://maps.google.com/maps/contrib/113296553558440750483/photos">Mohammad Khatib</a>
p123
asVheight
p124
I2368
sa(dp125
Vphoto_reference
p126
VCmRdAAAA_7_nB1D8Z0eynVlk9gzG3GpVpfs8W3kXv8NeFLGBx_G5o02smOKpQHshwWtAdvXcD8Hu5PaPVc0wRO-rgM2Pkhx-Tbd3fkm4p2nNpGrgZjHG1FZk9ARfiYlIPCnY4BgLEhBSgot9TvEWVuBKP9RnsibpGhRglG3Z_iKlGgzJl3yPJpIq7yk8Iw
p127
sVwidth
p128
I2448
sVhtml_attributions
p129
(lp130
V<a href="https://maps.google.com/maps/contrib/118066699705591980256/photos">Koji</a>
p131
asVheight
p132
I2448
sa(dp133
Vphoto_reference
p134
VCmRdAAAAb1bRx4Bv5K-0nr3GLIX3erMf1RIt4nUjDlvheojpu-8BpFrnYQ76IpWGoTWt2W5RMkp4-LwJK4GRppXHt-sp7Ehq_RqkvpKShU09JUWlskH887vXDKSWchyHT_vtVfOREhBFxN-EMQU81pk9vGp3AkpBGhTicPRKIVaKcOkS9FkY_WQSy5nhPg
p135
sVwidth
p136
I2048
sVhtml_attributions
p137
(lp138
V<a href="https://maps.google.com/maps/contrib/105091844295821266148/photos">Karan Khurana</a>
p139
asVheight
p140
I1536
sa(dp141
Vphoto_reference
p142
VCmRdAAAAvOY62T_SRIJvdNZDPwygM63tblUBg-sFGP0jxzoAEQaYS-9WMYzRmSHPKke39X1ezx7JuL3bVEUJq7RIKB8-IjpI1QgaitQeK4FUDBg3LDsCAtJkdzb-75_KEKC2LGeuEhCwT7iFJexhgiI-yWEg0HllGhQgsZmeav1RC3HfjcEwPBsbIbR7_w
p143
sVwidth
p144
I1008
sVhtml_attributions
p145
(lp146
V<a href="https://maps.google.com/maps/contrib/113467042004823574452/photos">mehmet akgul</a>
p147
asVheight
p148
I756
sa(dp149
Vphoto_reference
p150
VCmRdAAAA-HzRIqZqX4O187KW5MR_54Wi63GI7BLr9CQms50bwh1r4tPBajLmz54RuiWPv0yxhgkze1CsahmGAXHiRGdlDo8FYE-WPcqpdePuB05y1wwntpk6s1Watbv6pONNCx9IEhB3BdM1NZaBI5fTc-WFIl5VGhSllmuiamhxZZRdxWcoqtBub7PX1w
p151
sVwidth
p152
I600
sVhtml_attributions
p153
(lp154
V<a href="https://maps.google.com/maps/contrib/105091844295821266148/photos">Karan Khurana</a>
p155
asVheight
p156
I800
sa(dp157
Vphoto_reference
p158
VCmRdAAAAQdeWxjOxACq9w5My6SnuXdJaJ3rukEr62IP_HprhO4V2jpDt0E_JJy3-ur2AgMxhf1krFYF3ZcSirP1TSzPySjRsN5q62rSN3gYszdBxO2iw_E1vqpTI6kGoChdu6Y1dEhD_paEnglFSnEdZw8K3on7UGhR76Zw5F-JM9Zycz-CxhtV1CKJ6zw
p159
sVwidth
p160
I3200
sVhtml_attributions
p161
(lp162
V<a href="https://maps.google.com/maps/contrib/113296553558440750483/photos">Mohammad Khatib</a>
p163
asVheight
p164
I2368
sa(dp165
Vphoto_reference
p166
VCmRdAAAA6kn7N0OPRuv9Fc10nkFNS2XolZNLln0f9o-aIvx9xfepZmwwh1pEjm4hPOxjjq2vm7IdxXbpANcDfQnEzVTQVzNQ-Bnk61hUJY_9hUBeLWtoxELf7JFZwJAodQtwgwgiEhAk2Pvq8n4nfrkD9TcZyQlkGhQG-X9etSM62t9qip0gevbQRROahg
p167
sVwidth
p168
I3264
sVhtml_attributions
p169
(lp170
V<a href="https://maps.google.com/maps/contrib/112399975817203963681/photos">Nafira Waili</a>
p171
asVheight
p172
I2448
sa(dp173
Vphoto_reference
p174
VCmRdAAAAxtv39C7R10a-4RfmryaN5E1zrpjUbjJfX3SaMEttAJilDOPitjBSYZXjWS2mhZrT6hza886KGYjXi3aqCdflcMaZyMoULiPHpcH91r9ocRMoudFVgAwVFjdQCfTOWMz_EhC8USk8rcP6qy0oHo95u_xgGhQa33Hs5nCviMVyNkX-SnFaO-vnYg
p175
sVwidth
p176
I4096
sVhtml_attributions
p177
(lp178
V<a href="https://maps.google.com/maps/contrib/113296553558440750483/photos">Mohammad Khatib</a>
p179
asVheight
p180
I3040
sa(dp181
Vphoto_reference
p182
VCmRdAAAAx7EKo9XyQLbNNcIjQgG_PRjDXvvzJhya9MsTj4kwlIBBkAqm36mbr569sFHnL3I2T0TGgBOCcJBEpWbwAn6pUeVbEA9-6aAglGY4ufSd3GGQQd8Mxn89BxkZkdIck9-3EhD7fjK64btyhvLsLw1h-Zk_GhQ2OIddmgU4iODYfVMFEXda24OjbA
p183
sVwidth
p184
I1280
sVhtml_attributions
p185
(lp186
V<a href="https://maps.google.com/maps/contrib/108436964161350362478/photos">Mery Kery</a>
p187
asVheight
p188
I960
sa(dp189
Vphoto_reference
p190
VCmRdAAAAJ29mVF74ndvn6U43YCGVqHxOLaYjPwKpnTa1KtAx8b0v1hgN3SBll3l1GS4vKhY4uIrOpNTS1tnaLBxRWBAC27rQJIMxqZrOCyCBDBU_qyvPHY2dx0nF9cupCoWvGbqeEhAxp1vpKvKqZxFDiSQcnMinGhSkyGkwWQPPaoJb7EpjIi9cgBJW2Q
p191
sVwidth
p192
I2048
sVhtml_attributions
p193
(lp194
V<a href="https://maps.google.com/maps/contrib/105091844295821266148/photos">Karan Khurana</a>
p195
asVheight
p196
I1536
sasVtypes
p197
(lp198
Vrestaurant
p199
aVfood
p200
aVpoint_of_interest
p201
aVestablishment
p202
asVicon
p203
Vhttps://maps.gstatic.com/mapfiles/place_api/icons/restaurant-71.png
p204
sVname
p205
VWaterfront Pizza
p206
sVgeometry
p207
(dp208
Vaccess_points
p209
(lp210
(dp211
Vtravel_modes
p212
(lp213
VDRIVING
p214
aVBICYCLING
p215
aVWALKING
p216
aVTRANSIT
p217
asVlocation
p218
(dp219
Vlat
p220
g3
(S'37.5441531'
tRp221
sVlng
p222
g3
(S'-122.271712'
tRp223
ssasVlocation
p224
(dp225
Vlat
p226
g3
(S'37.5441753'
tRp227
sVlng
p228
g3
(S'-122.2706049'
tRp229
sssVadr_address
p230
V<span class="street-address">969 Edgewater Blvd</span>, <span class="locality">Foster City</span>, <span class="region">CA</span> <span class="postal-code">94404-3760</span>, <span class="country-name">United States</span>
p231
sVinternational_phone_number
p232
V+1 650-573-6634
p233
sVreviews
p234
(lp235
(dp236
Vrating
p237
I4
sVaspects
p238
(lp239
(dp240
Vrating
p241
I2
sVtype
p242
Voverall
p243
sasVprofile_photo_url
p244
V//lh5.googleusercontent.com/-xQn5OIoM7Bo/AAAAAAAAAAI/AAAAAAAAj80/0Fy8fJw9i38/photo.jpg
p245
sVlanguage
p246
Ven
p247
sVtext
p248
VThe staff threw me a lot of attitude because I had the temerity to show up at their opening time. Jeez. But the food is pretty darn tootin'. Try the zatar pizza, babaganoush, tabouli, and kofta kabab with rice. Portions are pretty generous, be warned!
p249
sVauthor_name
p250
VAnirudh Ra
p251
sVauthor_url
p252
Vhttps://plus.google.com/111786806010512113362
p253
sVtime
p254
I1452450897
sa(dp255
Vrating
p256
I4
sVaspects
p257
(lp258
(dp259
Vrating
p260
I2
sVtype
p261
Voverall
p262
sasVprofile_photo_url
p263
V//lh6.googleusercontent.com/-yyTCEKIIjGQ/AAAAAAAAAAI/AAAAAAAAAiQ/evSZmfCCYH4/photo.jpg
p264
sVlanguage
p265
Ven
p266
sVtext
p267
VLike the food! Loveeeee the view! Come here for the view. It's kind of a do it yourself restaurant. They have hookah so that's awesome but sometimes you may not get service with the biggest smile. That's ok, as it isn't a high end restaurant but it nice to get smile here and there :) This place gets packed during good weather and summer/spring nights. They are only open until 10..... I wish it could be later. Boys.... There are always pretty girls here in between families..... Not sure why but they come here FYI! :)
p268
sVauthor_name
p269
VElena Kalova
p270
sVauthor_url
p271
Vhttps://plus.google.com/102635577141556705753
p272
sVtime
p273
I1450558572
sa(dp274
Vrating
p275
I5
sVaspects
p276
(lp277
(dp278
Vrating
p279
I3
sVtype
p280
Voverall
p281
sasVprofile_photo_url
p282
V//lh5.googleusercontent.com/-AkvT-uxJH8w/AAAAAAAAAAI/AAAAAAAAA6g/5pMyajNPyog/photo.jpg
p283
sVlanguage
p284
Ven
p285
sVtext
p286
VAmazin place where you can relax and njoy the lake view. Food is great here and the service is really quick..
p287
sVauthor_name
p288
VAbhinav Agwan
p289
sVauthor_url
p290
Vhttps://plus.google.com/103139070455310229344
p291
sVtime
p292
I1453597735
sa(dp293
Vrating
p294
I3
sVaspects
p295
(lp296
(dp297
Vrating
p298
I1
sVtype
p299
Voverall
p300
sasVprofile_photo_url
p301
V//lh3.googleusercontent.com/-bj-wG-38UQY/AAAAAAAAAAI/AAAAAAAAAAA/oHE9zZiOLbs/photo.jpg
p302
sVlanguage
p303
Ven
p304
sVtext
p305
VUsed to love coming to this place but the service has gone down hill. The views are amazing and they offer hookah as well. The pizzas are good but the rest of the food is quite average. Do get thr zatar pizza if you're here. Reslly good even though its veg. \u000a\u000aThe service is slow and the servers don't seem interested in the job. Disappointing really as it used to be fun to come here. 
p306
sVauthor_name
p307
VKaran Khurana
p308
sVauthor_url
p309
Vhttps://plus.google.com/105091844295821266148
p310
sVtime
p311
I1449196604
sa(dp312
Vrating
p313
I5
sVaspects
p314
(lp315
(dp316
Vrating
p317
I3
sVtype
p318
Voverall
p319
sasVprofile_photo_url
p320
V//lh6.googleusercontent.com/-zNkEiLPL4d0/AAAAAAAAAAI/AAAAAAAAAKE/rdlq2goCzNg/photo.jpg
p321
sVlanguage
p322
Ven
p323
sVtext
p324
VMy favorite dishes at Waterfront pizza are surprisingly not the pizzas! They're delicious, but i love coming here for the kefta kebab! Great place for work lunches as there are several items that you can share or if you're really hungry-hog all to yourself!
p325
sVauthor_name
p326
VJonathan Kong
p327
sVauthor_url
p328
Vhttps://plus.google.com/103034549821459532424
p329
sVtime
p330
I1454956047
sasVformatted_phone_number
p331
V(650) 573-6634
p332
sVaddress_components
p333
(lp334
(dp335
Vlong_name
p336
V969
p337
sVtypes
p338
(lp339
Vstreet_number
p340
asVshort_name
p341
V969
p342
sa(dp343
Vlong_name
p344
VEdgewater Boulevard
p345
sVtypes
p346
(lp347
Vroute
p348
asVshort_name
p349
VEdgewater Blvd
p350
sa(dp351
Vlong_name
p352
VFoster City
p353
sVtypes
p354
(lp355
Vlocality
p356
aVpolitical
p357
asVshort_name
p358
VFoster City
p359
sa(dp360
Vlong_name
p361
VCalifornia
p362
sVtypes
p363
(lp364
Vadministrative_area_level_1
p365
aVpolitical
p366
asVshort_name
p367
VCA
p368
sa(dp369
Vlong_name
p370
VUnited States
p371
sVtypes
p372
(lp373
Vcountry
p374
aVpolitical
p375
asVshort_name
p376
VUS
p377
sa(dp378
Vlong_name
p379
V94404
p380
sVtypes
p381
(lp382
Vpostal_code
p383
asVshort_name
p384
V94404
p385
sa(dp386
Vlong_name
p387
V3760
p388
sVtypes
p389
(lp390
Vpostal_code_suffix
p391
asVshort_name
p392
V3760
p393
sas.