(dp1
Vrating
p2
cdecimal
Decimal
p3
(S'4.1'
tRp4
sVreference
p5
VCmRcAAAAiqIQEWKwMTC5Z_58pJaBEt_Na57Av5eDsRyHlkjOTzGUrJaG_FuLKPOXonpnCd7VIstg73XTEWStkEq3IMXEZ9Cu3b7-lIYhGsPrsx3SzWNmjACAdm4VZrfwrm4KqVqhEhB4CQnLfRzU9xf_7k7cbkbXGhTBRlQBWf_ax2HYHIKjn6LXOGWuAA
p6
sVplace_id
p7
VChIJr29cEGOAhYARGODjlpUST5A
p8
sVurl
p9
Vhttps://maps.google.com/?cid=10398550498312708120
p10
sVformatted_address
p11
V83 1st St, San Francisco, CA 94105, United States
p12
sVid
p13
V7e7cd7485d613f2d437864d2a17d9227827b5969
p14
sVopening_hours
p15
(dp16
Vweekday_text
p17
(lp18
VMonday: 2:00 PM \u2013 12:00 AM
p19
aVTuesday: 2:00 PM \u2013 12:00 AM
p20
aVWednesday: 2:00 PM \u2013 2:00 AM
p21
aVThursday: 2:00 PM \u2013 2:00 AM
p22
aVFriday: 12:00 PM \u2013 2:00 AM
p23
aVSaturday: 8:00 PM \u2013 12:00 AM
p24
aVSunday: Closed
p25
asVopen_now
p26
I00
sVperiods
p27
(lp28
(dp29
Vclose
p30
(dp31
Vday
p32
I2
sVtime
p33
V0000
p34
ssVopen
p35
(dp36
Vday
p37
I1
sVtime
p38
V1400
p39
ssa(dp40
Vclose
p41
(dp42
Vday
p43
I3
sVtime
p44
V0000
p45
ssVopen
p46
(dp47
Vday
p48
I2
sVtime
p49
V1400
p50
ssa(dp51
Vclose
p52
(dp53
Vday
p54
I4
sVtime
p55
V0200
p56
ssVopen
p57
(dp58
Vday
p59
I3
sVtime
p60
V1400
p61
ssa(dp62
Vclose
p63
(dp64
Vday
p65
I5
sVtime
p66
V0200
p67
ssVopen
p68
(dp69
Vday
p70
I4
sVtime
p71
V1400
p72
ssa(dp73
Vclose
p74
(dp75
Vday
p76
I6
sVtime
p77
V0200
p78
ssVopen
p79
(dp80
Vday
p81
I5
sVtime
p82
V1200
p83
ssa(dp84
Vclose
p85
(dp86
Vday
p87
I0
sVtime
p88
V0000
p89
ssVopen
p90
(dp91
Vday
p92
I6
sVtime
p93
V2000
p94
ssassVvicinity
p95
V83 1st Street, San Francisco
p96
sVscope
p97
VGOOGLE
p98
sVwebsite
p99
Vhttp://www.83proof.com/
p100
sVutc_offset
p101
I-420
sVuser_ratings_total
p102
I83
sVphotos
p103
(lp104
(dp105
Vphoto_reference
p106
VCmRdAAAAlx-Mvu08QqBOWATYdONvL2fFT7uJY7cwJnXig28mYnSXCVFHFQcg2Xa1v6v24pj2DuM9hdOq59il3j_fNVqOVr7Bnl_NMyLGVnqprjgyfXD5IcRCmMpJQiOxvNqzOqNVEhAl51GCvW0tnIRHDfwyHWApGhSAiVTlVMUr78WvCx3eeiZ_uM5-Eg
p107
sVwidth
p108
I450
sVhtml_attributions
p109
(lp110
V<a href="https://maps.google.com/maps/contrib/116328804023202742137/photos">83 Proof</a>
p111
asVheight
p112
I350
sa(dp113
Vphoto_reference
p114
VCmRdAAAAPU8grXdNAyHsFY6MsAvwa61m7dpL1Gg6LfIgY1c06MIVmox4MrjdlpRPlA2r0xBFz50dalz6SGWYPg84H752jhiXC7iLWrkDgSJyobzJDy0Do4CcaYdpvRFzRD3zXBX-EhC6_-i04mOeHA31R5-HJmfUGhQpi3DEC5U7VCR5wuox7L2ma1D_Dg
p115
sVwidth
p116
I450
sVhtml_attributions
p117
(lp118
V<a href="https://maps.google.com/maps/contrib/116328804023202742137/photos">83 Proof</a>
p119
asVheight
p120
I350
sa(dp121
Vphoto_reference
p122
VCmRdAAAAdVv3iuCUxo3zGfSN3b-nAa8lvWJxxEFCKzL4U6fzyXVvIWwvYc_5-_qLNcAsyoCQCssT6IqsaNvsxoRMbxUMY4dw9-uZ58koCX767GPYMIYS4nTLYh6hlJrTGHnaHke7EhDCzT7bGyJqiS0EqKksJzaWGhQB3ySyAbvj2ZJHwvdyRSC0IaBckQ
p123
sVwidth
p124
I2988
sVhtml_attributions
p125
(lp126
V<a href="https://maps.google.com/maps/contrib/106274270599727426487/photos">Kristle Malone</a>
p127
asVheight
p128
I5312
sa(dp129
Vphoto_reference
p130
VCmRdAAAACBAF_bY9pWXyGLaRKWyBrx4n8suRV2_-JwzGIEoaeRVmYz87-D_E-QaNddlq6kNRa2AWcOrBiwl1aOXIwcg-07_u8NmaqWwSeWw3g_Y_BBhY4zR7Fzhj_Yc_tRtGED14EhDoUXBPTICbGAJ20PCG-iFIGhRiWnF__WlDkqutlNsMV8VHGhd-cw
p131
sVwidth
p132
I1280
sVhtml_attributions
p133
(lp134
V<a href="https://maps.google.com/maps/contrib/106092059978053108669/photos">Cezar Pereza</a>
p135
asVheight
p136
I960
sasVtypes
p137
(lp138
Vbar
p139
aVrestaurant
p140
aVfood
p141
aVpoint_of_interest
p142
aVestablishment
p143
asVicon
p144
Vhttps://maps.gstatic.com/mapfiles/place_api/icons/bar-71.png
p145
sVname
p146
V83 Proof
p147
sVgeometry
p148
(dp149
Vaccess_points
p150
(lp151
(dp152
Vtravel_modes
p153
(lp154
VDRIVING
p155
aVBICYCLING
p156
aVWALKING
p157
aVTRANSIT
p158
asVlocation
p159
(dp160
Vlat
p161
g3
(S'37.7898675'
tRp162
sVlng
p163
g3
(S'-122.3976909'
tRp164
ssasVlocation
p165
(dp166
Vlat
p167
g3
(S'37.7900567'
tRp168
sVlng
p169
g3
(S'-122.3977007'
tRp170
sssVadr_address
p171
V<span class="street-address">83 1st St</span>, <span class="locality">San Francisco</span>, <span class="region">CA</span> <span class="postal-code">94105</span>, <span class="country-name">United States</span>
p172
sVinternational_phone_number
p173
V+1 415-554-5555
p174
sVreviews
p175
(lp176
(dp177
Vrating
p178
I3
sVaspects
p179
(lp180
(dp181
Vrating
p182
I1
sVtype
p183
Voverall
p184
sasVprofile_photo_url
p185
V//lh4.googleusercontent.com/-dfRFzJ0ZMRU/AAAAAAAAAAI/AAAAAAAAAiM/ew_Fr0mepuw/photo.jpg
p186
sVlanguage
p187
Ven
p188
sVtext
p189
VI came here with a couple of friends after work on a Friday. I was reading some of these reviews and noticed that one of the main concern was finding this place. Honestly, we just guessed when we saw a bar with a lot of people inside and assumed it was 83 Proof.\u000a\u000aThe place was rather small with an upstairs space to hang around. Unfortunately, there was an event going on so we couldn't go upstairs.\u000a\u000aI got a mint mojito and I would say that it was decent. Our bartenders were fine during the first 30 minutes but when we were closing the tab, it took them a while to get my friend's card back and almost thought they lost it.\u000a\u000aWould I come back here again? Maybe...
p190
sVauthor_name
p191
VAj Cartas
p192
sVauthor_url
p193
Vhttps://plus.google.com/110703158319043680789
p194
sVtime
p195
I1458350283
sa(dp196
Vrating
p197
I5
sVaspects
p198
(lp199
(dp200
Vrating
p201
I3
sVtype
p202
Voverall
p203
sasVprofile_photo_url
p204
V//lh4.googleusercontent.com/-uCxhcg4TYAM/AAAAAAAAAAI/AAAAAAABE2Q/CfXbrFaH19U/photo.jpg
p205
sVlanguage
p206
Ven
p207
sVtext
p208
VSUCH a great place for a drink. And since it's not one of the ones that's always written about, it's not as crowded or as expensive. Get a Clover Club!
p209
sVauthor_name
p210
VPei-Hsuen Liao
p211
sVauthor_url
p212
Vhttps://plus.google.com/117761372912076113101
p213
sVtime
p214
I1459367846
sa(dp215
Vrating
p216
I4
sVaspects
p217
(lp218
(dp219
Vrating
p220
I2
sVtype
p221
Voverall
p222
sasVprofile_photo_url
p223
V//lh5.googleusercontent.com/-45sf9_BOVGU/AAAAAAAAAAI/AAAAAAAAAEE/I0QJxEas4yA/photo.jpg
p224
sVlanguage
p225
Ven
p226
sVtext
p227
VNice cocktail bar. Do a great old fashioned. After work on a Thursday or Friday this place gets slammed and is basically standing room only. 
p228
sVauthor_name
p229
VMichael Lewis
p230
sVauthor_url
p231
Vhttps://plus.google.com/117111418505014074680
p232
sVtime
p233
I1456759758
sa(dp234
Vrating
p235
I5
sVaspects
p236
(lp237
(dp238
Vrating
p239
I3
sVtype
p240
Voverall
p241
sasVprofile_photo_url
p242
V//lh6.googleusercontent.com/-9aXBjp4a0VU/AAAAAAAAAAI/AAAAAAAAAAA/11qRlYdiov0/photo.jpg
p243
sVlanguage
p244
Ven
p245
sVtext
p246
VReliable bar with really good service and fun bartenders. Can get crowded during happy hour
p247
sVauthor_name
p248
VBianca Rodrigues
p249
sVauthor_url
p250
Vhttps://plus.google.com/108333674739519714015
p251
sVtime
p252
I1446584641
sa(dp253
Vrating
p254
I4
sVaspects
p255
(lp256
(dp257
Vrating
p258
I2
sVtype
p259
Voverall
p260
sasVprofile_photo_url
p261
V//lh6.googleusercontent.com/-50nphDAUp70/AAAAAAAAAAI/AAAAAAAABiA/1WOfjfcx6E4/photo.jpg
p262
sVlanguage
p263
Ven
p264
sVtext
p265
VCrowded but a good post work bar
p266
sVauthor_name
p267
VHerschel Patel
p268
sVauthor_url
p269
Vhttps://plus.google.com/111998667122941087097
p270
sVtime
p271
I1457106658
sasVformatted_phone_number
p272
V(415) 554-5555
p273
sVaddress_components
p274
(lp275
(dp276
Vlong_name
p277
V83
p278
sVtypes
p279
(lp280
Vstreet_number
p281
asVshort_name
p282
V83
p283
sa(dp284
Vlong_name
p285
V1st Street
p286
sVtypes
p287
(lp288
Vroute
p289
asVshort_name
p290
V1st St
p291
sa(dp292
Vlong_name
p293
VSan Francisco
p294
sVtypes
p295
(lp296
Vlocality
p297
aVpolitical
p298
asVshort_name
p299
VSF
p300
sa(dp301
Vlong_name
p302
VCalifornia
p303
sVtypes
p304
(lp305
Vadministrative_area_level_1
p306
aVpolitical
p307
asVshort_name
p308
VCA
p309
sa(dp310
Vlong_name
p311
VUnited States
p312
sVtypes
p313
(lp314
Vcountry
p315
aVpolitical
p316
asVshort_name
p317
VUS
p318
sa(dp319
Vlong_name
p320
V94105
p321
sVtypes
p322
(lp323
Vpostal_code
p324
asVshort_name
p325
V94105
p326
sas.