(dp1
Vrating
p2
cdecimal
Decimal
p3
(S'4.3'
tRp4
sVreference
p5
VCmRZAAAA-wfgUf7aDLForb9iPtDQaJXYBoXH0wzXZxhEr4svuAOfEGalhDZ7chraBaQjKbKnKovHqJMC0QqcvO2q0f54qAUmT-mplpNlaKWepy7LqzRBpJbseiRoc2Yqq8xOqQVMEhAgqJOlSUhb_yplPbW-7ndMGhRb7zGZtljI2yNpz7NfMcy1va8vpQ
p6
sVprice_level
p7
I2
sVplace_id
p8
VChIJ88G-quuAhYAR7bj0Yhr8gwI
p9
sVurl
p10
Vhttps://maps.google.com/?cid=181265600284506349
p11
sVformatted_address
p12
V1754 Polk St, San Francisco, CA 94109, United States
p13
sVid
p14
V0e54e5b75892289d1cc65e0b98cf3172dcf5aaa1
p15
sVopening_hours
p16
(dp17
Vweekday_text
p18
(lp19
VMonday: 5:00 PM \u2013 2:00 AM
p20
aVTuesday: 5:00 PM \u2013 2:00 AM
p21
aVWednesday: 5:00 PM \u2013 2:00 AM
p22
aVThursday: 5:00 PM \u2013 2:00 AM
p23
aVFriday: 5:00 PM \u2013 2:00 AM
p24
aVSaturday: 5:00 PM \u2013 2:00 AM
p25
aVSunday: 5:00 PM \u2013 2:00 AM
p26
asVopen_now
p27
I00
sVperiods
p28
(lp29
(dp30
Vclose
p31
(dp32
Vday
p33
I1
sVtime
p34
V0200
p35
ssVopen
p36
(dp37
Vday
p38
I0
sVtime
p39
V1700
p40
ssa(dp41
Vclose
p42
(dp43
Vday
p44
I2
sVtime
p45
V0200
p46
ssVopen
p47
(dp48
Vday
p49
I1
sVtime
p50
V1700
p51
ssa(dp52
Vclose
p53
(dp54
Vday
p55
I3
sVtime
p56
V0200
p57
ssVopen
p58
(dp59
Vday
p60
I2
sVtime
p61
V1700
p62
ssa(dp63
Vclose
p64
(dp65
Vday
p66
I4
sVtime
p67
V0200
p68
ssVopen
p69
(dp70
Vday
p71
I3
sVtime
p72
V1700
p73
ssa(dp74
Vclose
p75
(dp76
Vday
p77
I5
sVtime
p78
V0200
p79
ssVopen
p80
(dp81
Vday
p82
I4
sVtime
p83
V1700
p84
ssa(dp85
Vclose
p86
(dp87
Vday
p88
I6
sVtime
p89
V0200
p90
ssVopen
p91
(dp92
Vday
p93
I5
sVtime
p94
V1700
p95
ssa(dp96
Vclose
p97
(dp98
Vday
p99
I0
sVtime
p100
V0200
p101
ssVopen
p102
(dp103
Vday
p104
I6
sVtime
p105
V1700
p106
ssassVvicinity
p107
V1754 Polk Street, San Francisco
p108
sVscope
p109
VGOOGLE
p110
sVwebsite
p111
Vhttp://www.ameliewinebar.com
p112
sVutc_offset
p113
I-420
sVuser_ratings_total
p114
I84
sVphotos
p115
(lp116
(dp117
Vphoto_reference
p118
VCmRdAAAAgVyHotdHa155SB7JhDUs0QRYHZjZHTfhiooouH1oVDFxtO13bK-OLbcz-4cPMOx_VvVh6W1EpqzgNeLLyXNooN3ogn226TqWhyuaRgortF-OrSfEt4EeH0BemiDZIAk5EhDg0pk7L9xzgAovZMAHwJ74GhR9Ya5sn-qOcDN5Snj_Ed6uBsQMEQ
p119
sVwidth
p120
I717
sVhtml_attributions
p121
(lp122
V<a href="https://maps.google.com/maps/contrib/117480809039916387263/photos">Amelie</a>
p123
asVheight
p124
I479
sa(dp125
Vphoto_reference
p126
VCmRdAAAA5FASx42EaJxbYBpjY1W02SYJTYQLcw8se3PgwuknRYElJsSEF-uifhFvyIBnkMC4leIdBGy6pBPoL2fkFS9helo-i2OtnTv7gsXxOpUolFqP936iKadipA9FtrJhBZBeEhBnUyVZZqnyNmkViPqyQ9iuGhSTYwZvM8FQyBe1h1ZtHe4N8TLWqg
p127
sVwidth
p128
I480
sVhtml_attributions
p129
(lp130
V<a href="https://maps.google.com/maps/contrib/107069657208835769440/photos">Markus Siebeneick</a>
p131
asVheight
p132
I640
sasVtypes
p133
(lp134
Vliquor_store
p135
aVstore
p136
aVrestaurant
p137
aVfood
p138
aVbar
p139
aVpoint_of_interest
p140
aVestablishment
p141
asVicon
p142
Vhttps://maps.gstatic.com/mapfiles/place_api/icons/bar-71.png
p143
sVname
p144
VAmelie
p145
sVgeometry
p146
(dp147
Vaccess_points
p148
(lp149
(dp150
Vtravel_modes
p151
(lp152
VDRIVING
p153
aVBICYCLING
p154
aVWALKING
p155
aVTRANSIT
p156
asVlocation
p157
(dp158
Vlat
p159
g3
(S'37.7930604'
tRp160
sVlng
p161
g3
(S'-122.4212217'
tRp162
ssasVlocation
p163
(dp164
Vlat
p165
g3
(S'37.7930855'
tRp166
sVlng
p167
g3
(S'-122.4210271'
tRp168
sssVadr_address
p169
V<span class="street-address">1754 Polk St</span>, <span class="locality">San Francisco</span>, <span class="region">CA</span> <span class="postal-code">94109</span>, <span class="country-name">United States</span>
p170
sVinternational_phone_number
p171
V+1 415-292-6916
p172
sVreviews
p173
(lp174
(dp175
Vrating
p176
I5
sVaspects
p177
(lp178
(dp179
Vrating
p180
I3
sVtype
p181
Voverall
p182
sasVprofile_photo_url
p183
V//lh6.googleusercontent.com/-YoBQqLAgpaM/AAAAAAAAAAI/AAAAAAAAEcs/mIsPk2hsCzA/photo.jpg
p184
sVlanguage
p185
Ven
p186
sVtext
p187
VGreat hhr charchuterie & cheese plates with wine, great friendly service. Moderate price
p188
sVauthor_name
p189
VCasandra Higuera
p190
sVauthor_url
p191
Vhttps://plus.google.com/107934326820018171886
p192
sVtime
p193
I1460609459
sa(dp194
Vrating
p195
I5
sVaspects
p196
(lp197
(dp198
Vrating
p199
I3
sVtype
p200
Voverall
p201
sasVprofile_photo_url
p202
V//lh6.googleusercontent.com/-sOnHTknyxAY/AAAAAAAAAAI/AAAAAAAAAHI/pL15LDr_sOk/photo.jpg
p203
sVlanguage
p204
Ven
p205
sVtext
p206
VGreat date spot, lovely ambience. Wide selections of wine and awesome charcuterie platter!
p207
sVauthor_name
p208
VMandy Hong
p209
sVauthor_url
p210
Vhttps://plus.google.com/107995314493094682353
p211
sVtime
p212
I1459715384
sa(dp213
Vrating
p214
I5
sVaspects
p215
(lp216
(dp217
Vrating
p218
I3
sVtype
p219
Voverall
p220
sasVprofile_photo_url
p221
V//lh4.googleusercontent.com/-wGeTrcvDITs/AAAAAAAAAAI/AAAAAAAAAdU/EjzdSRiR9yo/photo.jpg
p222
sVlanguage
p223
Ven
p224
sVtext
p225
VA favorite of mine in NY, I finally got to visit the West Coast location! Love it, love it, love it.  Great music, lovely atmosphere, and of course, fabulous wine!
p226
sVauthor_name
p227
VAlex Holton
p228
sVauthor_url
p229
Vhttps://plus.google.com/114372235084252504226
p230
sVtime
p231
I1453725304
sa(dp232
Vrating
p233
I4
sVaspects
p234
(lp235
(dp236
Vrating
p237
I2
sVtype
p238
Voverall
p239
sasVprofile_photo_url
p240
V//lh5.googleusercontent.com/-6f9-F274upY/AAAAAAAAAAI/AAAAAAABDbc/cfUh9Uqc3RM/photo.jpg
p241
sVlanguage
p242
Ven
p243
sVtext
p244
VUsed to be my favorite girls night out spot but it's gotten way too busy on Friday to Sunday nights! They have a good selection of wines and I love getting the baked goat cheese with pistachio and their charcuterie platter to snack on! It's also a very popular date spot! 
p245
sVauthor_name
p246
VLinda Yang
p247
sVauthor_url
p248
Vhttps://plus.google.com/101193167021387222257
p249
sVtime
p250
I1449289388
sa(dp251
Vrating
p252
I4
sVaspects
p253
(lp254
(dp255
Vrating
p256
I2
sVtype
p257
Voverall
p258
sasVprofile_photo_url
p259
V//lh6.googleusercontent.com/-qT6AdgbIlDI/AAAAAAAAAAI/AAAAAAAACgo/fipC9Opiho4/photo.jpg
p260
sVlanguage
p261
Ven
p262
sVtext
p263
VAwesome little wine bar. The atmosphere is fun and their wine selection is pretty amazing. My favorite part was the fact that we got to create our own wine flight by telling the bartender the type of wines we typically like. Everything he poured us was absolutely delightful!
p264
sVauthor_name
p265
VJen Chou
p266
sVauthor_url
p267
Vhttps://plus.google.com/118151908384320563438
p268
sVtime
p269
I1430509940
sasVformatted_phone_number
p270
V(415) 292-6916
p271
sVaddress_components
p272
(lp273
(dp274
Vlong_name
p275
V1754
p276
sVtypes
p277
(lp278
Vstreet_number
p279
asVshort_name
p280
V1754
p281
sa(dp282
Vlong_name
p283
VPolk Street
p284
sVtypes
p285
(lp286
Vroute
p287
asVshort_name
p288
VPolk St
p289
sa(dp290
Vlong_name
p291
VSan Francisco
p292
sVtypes
p293
(lp294
Vlocality
p295
aVpolitical
p296
asVshort_name
p297
VSF
p298
sa(dp299
Vlong_name
p300
VCalifornia
p301
sVtypes
p302
(lp303
Vadministrative_area_level_1
p304
aVpolitical
p305
asVshort_name
p306
VCA
p307
sa(dp308
Vlong_name
p309
VUnited States
p310
sVtypes
p311
(lp312
Vcountry
p313
aVpolitical
p314
asVshort_name
p315
VUS
p316
sa(dp317
Vlong_name
p318
V94109
p319
sVtypes
p320
(lp321
Vpostal_code
p322
asVshort_name
p323
V94109
p324
sas.