(dp1
Vwebsite
p2
Vhttp://www.nps.gov/safr
p3
sVrating
p4
cdecimal
Decimal
p5
(S'4.4'
tRp6
sVutc_offset
p7
I-420
sVuser_ratings_total
p8
I38
sVname
p9
VAquatic Park
p10
sVreference
p11
VCmRgAAAA84Dk8Ef2wM6nhPPiPA0zlAsHofMhDMdkfVE8tJwQeiShE3VwDd_CoQToQFqiGhFWhNZOM85_0FEflKJK6QdcCSIN0Z1mZwdmj2GBPt5hyZCrSeG4bfuYCeHS0s8pVWiYEhDFGSuEiAxysnGtfa-42g-tGhQ3MjhCHN8L73aCpiKpSfHvd5TecA
p12
sVphotos
p13
(lp14
(dp15
Vphoto_reference
p16
VCmRdAAAAOzKNPPxa9JHQ9ho6Tj_kJhz-OFtbgqxEucPiJRouERVPWaAYCyEK16aShgo7bP7COffHNCrP2DdYKY1B4z09ytwA9xgEDAb0ZIueXmTlVEwBvGy_XwCSJMDI1_cHb3a7EhBE9LuveICaCR-Aqk8WPl_5GhQUegps9mSN3qxuKKB5XpUX6qyM0w
p17
sVwidth
p18
I8206
sVhtml_attributions
p19
(lp20
V<a href="https://maps.google.com/maps/contrib/100912096424244711155/photos">Ryan Pierce</a>
p21
asVheight
p22
I4103
sa(dp23
Vphoto_reference
p24
VCmRdAAAACKIb94mR4rV9ILjxp1Pj3jftvUipE1aNf0Vv0B8F6MdseyZi0ol3DkymjlerC_oYsao-v9ioslyqEYD-bPQWY29KZqOOAfFY6Wui6QTOcrauW8D1DOQByVtXSTM4L2VMEhDUB6cBIjyDTR0hE3Z19lRiGhTJGjCsf9vT1UCUu1J-MXd2df8fDA
p25
sVwidth
p26
I3024
sVhtml_attributions
p27
(lp28
V<a href="https://maps.google.com/maps/contrib/104355593233077388089/photos">Anthony Turducken DelRosario</a>
p29
asVheight
p30
I4032
sa(dp31
Vphoto_reference
p32
VCmRdAAAAP0w5U75cWuKQUWEPed3JDgEzxM5JxXbyJW90NfTXe_cJwVe2h2JVq-HECTQqXisXhRvper4RK9PeFIMlQLleGGqVD79GzlGbs_7Atn8gkpqjqdj0RDopKoWHCoU97VgbEhCiE8pxsEWPFAVN9Nqb8jeyGhQR_6MP1vOC7yWeaIhXDGa5BRT_Gw
p33
sVwidth
p34
I4160
sVhtml_attributions
p35
(lp36
V<a href="https://maps.google.com/maps/contrib/107626393842015324131/photos">Justin Crandall</a>
p37
asVheight
p38
I2340
sa(dp39
Vphoto_reference
p40
VCmRdAAAA2BjqvLULVk-dO6FBNE4D3ywDgQbDPyaN-7m8RrU_KRwHEya4F5YeOafng0yfDfryq043BiqhwCHw_IBOdrgfmwcS-E5-4GL-X5ebowobPPqCaWX1qX-zLXfcInXu1KYKEhDaV0jwR4vTAmaKHgl1PFDmGhQ1E9xR_5O5P41RlAK9k_ZGwFBhgQ
p41
sVwidth
p42
I4912
sVhtml_attributions
p43
(lp44
V<a href="https://maps.google.com/maps/contrib/104855070332312420509/photos">Arnel Capacio</a>
p45
asVheight
p46
I2760
sa(dp47
Vphoto_reference
p48
VCmRdAAAAuDhg7YMln1vPVdUFj1XZfCujF7uMe6lpjh7Ww81EpYJTWxYjb4zVf2QhiTzxqpxyeSqcDCtXCmEuKSjqOF6jm7PxlO2xOpTKe00BEPxzt_OjDBbgCwznVURRwecWOCDrEhAFARYkrMWj0-7kPcrA1Ab6GhRR4HT3kc-xb5NppU6Xi165PwNF0A
p49
sVwidth
p50
I960
sVhtml_attributions
p51
(lp52
V<a href="https://maps.google.com/maps/contrib/116362999740563393435/photos">Paola Del Razo</a>
p53
asVheight
p54
I540
sa(dp55
Vphoto_reference
p56
VCmRdAAAAPzBcHr9Jawx6wcuk9S2467SUOsCvGWLX3MxEd2tLNknfKOVTCEX0TQ_YFNzSk0n642Gd9hmCtbA-zGeYo8lwr1MBNNV2bpckmmXwTrSa7dxp9b0u8OXN5wgFBy0_otbLEhCunuE1oFgWict9ewjobeeSGhRVCEV_005XmnQy05rMt4-Mi_VfEw
p57
sVwidth
p58
I2160
sVhtml_attributions
p59
(lp60
V<a href="https://maps.google.com/maps/contrib/101949342979422143170/photos">shao queens</a>
p61
asVheight
p62
I3840
sa(dp63
Vphoto_reference
p64
VCoQBcwAAAOSfTIeTIyDsgNl5-V86fsXBrLKnZrRnmH36IvVuTKa1pjGh3mszb2s_UdZM-q-xi0OZbLemdQA2R_sNKrkNh-mHNCnbUIcjhH9oC_bhISY1sQqZLaTeQ9Mw-6WzPP1BESvi1gf_XIidvrExqoG10qSwSdWsJ0JMeEhAdU-YNgxwEhClX9SLuKDt7AmMikhuQaF9GhTSy_wWQv64FpSxYf-Scwu2mkW6dw
p65
sVwidth
p66
I3264
sVhtml_attributions
p67
(lp68
V<a href="https://maps.google.com/maps/contrib/112298765612461738375/photos">Rajvi Mehta</a>
p69
asVheight
p70
I1836
sa(dp71
Vphoto_reference
p72
VCoQBdwAAAMlShcGDWtCLipcBq4cK7GISBwdnvRY4X0kf1TQgxz4jhWBdU_LFu-WAPMl0MWRrRJdxPw4wnzjgvtbAYxZw5Bano73r1QvyVeQST2rJ1tvZ8Vbr42rEizgKOsEG-W8-CT1IUjDYT8ojb6c9SNln4-5VAA55Sv9ZPz3gxMhZIeZeEhD0wt3UvFsy0t_2Hiq3tIqbGhQL_lNuRVG5BFydGGgF2rHGNePweA
p73
sVwidth
p74
I2988
sVhtml_attributions
p75
(lp76
V<a href="https://maps.google.com/maps/contrib/115620251101971300517/photos">ab denizel</a>
p77
asVheight
p78
I5312
sa(dp79
Vphoto_reference
p80
VCmRdAAAAGZrpd40o38ixEbll9Rj4sSfMa6_zWYJDra_hDgoitfcKAx7oZ4vWiccmVE4rSBjuZ0RDTirZNW_niajyVEJPMx-p94SztxeXFOBtLWU1pr0dcE4HGUL2b3y5VSuMEyroEhApyI7sRH2QVsxM2y6ZKBiiGhSDizOhrKTJd4hY23QIJgmWDyp-zQ
p81
sVwidth
p82
I4912
sVhtml_attributions
p83
(lp84
V<a href="https://maps.google.com/maps/contrib/104855070332312420509/photos">Arnel Capacio</a>
p85
asVheight
p86
I2760
sa(dp87
Vphoto_reference
p88
VCmRdAAAA5i2QIT_xgF8s1TyDZniYZph4ve1QT5t0sjWntalnwoMmsInKvO2pw_4ZWkqrpAL8flEmNoS_cns8SZ7qGnz-15_tBcfVKE9XdVQde6YgFsi24CGZ9qVmIFsjiaANAj1yEhAq1Zj5QlsaqL03xousEwFsGhR1Rp7benSC1LD7nUY-MiTuQf-gtg
p89
sVwidth
p90
I3840
sVhtml_attributions
p91
(lp92
V<a href="https://maps.google.com/maps/contrib/101949342979422143170/photos">shao queens</a>
p93
asVheight
p94
I2160
sasVgeometry
p95
(dp96
Vlocation
p97
(dp98
Vlat
p99
g5
(S'37.8078379'
tRp100
sVlng
p101
g5
(S'-122.424275'
tRp102
sssVadr_address
p103
V<span class="street-address">499 Jefferson St</span>, <span class="locality">San Francisco</span>, <span class="region">CA</span> <span class="postal-code">94109</span>, <span class="country-name">United States</span>
p104
sVplace_id
p105
VChIJQ09tqOGAhYARinfjX2EOfaM
p106
sVinternational_phone_number
p107
V+1 415-447-5000
p108
sVvicinity
p109
V499 Jefferson Street, San Francisco
p110
sVreviews
p111
(lp112
(dp113
Vrating
p114
I5
sVaspects
p115
(lp116
(dp117
Vrating
p118
I3
sVtype
p119
Voverall
p120
sasVlanguage
p121
Ven
p122
sVtext
p123
VAn outstanding National Park! Several historic ships and an interesting visitor center. Walking the pier is free, boarding the ships costs $5.
p124
sVauthor_name
p125
VPeter Reque
p126
sVauthor_url
p127
Vhttps://plus.google.com/115218625478639559860
p128
sVtime
p129
I1457467043
sa(dp130
Vrating
p131
I5
sVaspects
p132
(lp133
(dp134
Vrating
p135
I3
sVtype
p136
Voverall
p137
sasVprofile_photo_url
p138
V//lh4.googleusercontent.com/-RdPFcwyw3DE/AAAAAAAAAAI/AAAAAAAAyTg/9P0U4uaiglg/photo.jpg
p139
sVlanguage
p140
Ven
p141
sVtext
p142
VCool views of the bridge from afar! Nice to sit and soak the waters edge in. 
p143
sVauthor_name
p144
VGarrett Stoffel
p145
sVauthor_url
p146
Vhttps://plus.google.com/100721809444812135241
p147
sVtime
p148
I1453181962
sa(dp149
Vrating
p150
I5
sVaspects
p151
(lp152
(dp153
Vrating
p154
I3
sVtype
p155
Voverall
p156
sasVprofile_photo_url
p157
V//lh5.googleusercontent.com/-qeksEIBcOOI/AAAAAAAAAAI/AAAAAAAACW4/fKQOXMWIsHo/photo.jpg
p158
sVlanguage
p159
Ven
p160
sVtext
p161
VLove this park great for visitors and locals to hangout. Just bring a picnic basket, hat, sunglass and you're good. You can see Alcatraz aka The Rock. Parking can be difficult as dead end street ends here too. 
p162
sVauthor_name
p163
Valbert lee
p164
sVauthor_url
p165
Vhttps://plus.google.com/107721404123505875377
p166
sVtime
p167
I1441664016
sa(dp168
Vrating
p169
I5
sVaspects
p170
(lp171
(dp172
Vrating
p173
I3
sVtype
p174
Voverall
p175
sasVprofile_photo_url
p176
V//lh5.googleusercontent.com/-ZqxVNkmPc1k/AAAAAAAAAAI/AAAAAAAADOI/5wiXyIRDrjc/photo.jpg
p177
sVlanguage
p178
Ven
p179
sVtext
p180
VWhen the weather is nice, the view is beautiful. 
p181
sVauthor_name
p182
VYvonne Wu
p183
sVauthor_url
p184
Vhttps://plus.google.com/117443246092873849204
p185
sVtime
p186
I1458848268
sa(dp187
Vrating
p188
I4
sVaspects
p189
(lp190
(dp191
Vrating
p192
I2
sVtype
p193
Voverall
p194
sasVprofile_photo_url
p195
V//lh6.googleusercontent.com/-owaUE_NoxM8/AAAAAAAAAAI/AAAAAAAAA98/L641WzOYNRs/photo.jpg
p196
sVlanguage
p197
Ven
p198
sVtext
p199
VGorgeous views and nice facilities.  I love going here!
p200
sVauthor_name
p201
VJason Lawrence
p202
sVauthor_url
p203
Vhttps://plus.google.com/117077787237560587984
p204
sVtime
p205
I1452719504
sasVformatted_phone_number
p206
V(415) 447-5000
p207
sVurl
p208
Vhttps://maps.google.com/?cid=11780588011654444938
p209
sVscope
p210
VGOOGLE
p211
sVaddress_components
p212
(lp213
(dp214
Vlong_name
p215
V499
p216
sVtypes
p217
(lp218
Vstreet_number
p219
asVshort_name
p220
V499
p221
sa(dp222
Vlong_name
p223
VJefferson Street
p224
sVtypes
p225
(lp226
Vroute
p227
asVshort_name
p228
VJefferson St
p229
sa(dp230
Vlong_name
p231
VSan Francisco
p232
sVtypes
p233
(lp234
Vlocality
p235
aVpolitical
p236
asVshort_name
p237
VSF
p238
sa(dp239
Vlong_name
p240
VCalifornia
p241
sVtypes
p242
(lp243
Vadministrative_area_level_1
p244
aVpolitical
p245
asVshort_name
p246
VCA
p247
sa(dp248
Vlong_name
p249
VUnited States
p250
sVtypes
p251
(lp252
Vcountry
p253
aVpolitical
p254
asVshort_name
p255
VUS
p256
sa(dp257
Vlong_name
p258
V94109
p259
sVtypes
p260
(lp261
Vpostal_code
p262
asVshort_name
p263
V94109
p264
sasVformatted_address
p265
V499 Jefferson St, San Francisco, CA 94109, United States
p266
sVid
p267
Vc0a8624b326ec4d9325d4b74d853317cb8c082bc
p268
sVtypes
p269
(lp270
Vpark
p271
aVamusement_park
p272
aVpoint_of_interest
p273
aVestablishment
p274
asVicon
p275
Vhttps://maps.gstatic.com/mapfiles/place_api/icons/generic_recreational-71.png
p276
s.