(dp1
Vrating
p2
cdecimal
Decimal
p3
(S'4.5'
tRp4
sVreference
p5
VCpQBjAAAAMnBu4c4G-Qnn9h67Y2DsLm7KJ0bljzh9uGCbsrNL30Kx8-WPm2n2oMjBUKDWZyNaq9Cs1piGZyP3FLveFkPa7MMqZmNPiuVq1vun-TGRjS9O3-5jah8M_nBaDsUkeQRIA4EpSOOtfqiVkr31DbX8HVgeqXlnONq02t1gCq9GZZVtUJXrQux_rufrlyQFJvEnRIQnBCpfI18JFBkjuQQ9hQSIRoUwOp79Siah6T8o7xB9Ld4zsLXkTY
p6
sVplace_id
p7
VChIJSyGZhgV_j4AR8gsKMwaE38c
p8
sVurl
p9
Vhttps://maps.google.com/?cid=14402375295515102194
p10
sVformatted_address
p11
V4618 3rd St, San Francisco, CA 94124, United States
p12
sVid
p13
V4fc9c20dd65f9fcd0544f1d8773e8638d6d1d30f
p14
sVopening_hours
p15
(dp16
Vweekday_text
p17
(lp18
VMonday: 8:00 AM \u2013 4:00 PM
p19
aVTuesday: 8:00 AM \u2013 4:00 PM
p20
aVWednesday: 8:00 AM \u2013 4:00 PM
p21
aVThursday: 8:00 AM \u2013 4:00 PM
p22
aVFriday: 8:00 AM \u2013 4:00 PM
p23
aVSaturday: 8:00 AM \u2013 4:00 PM
p24
aVSunday: 8:00 AM \u2013 4:00 PM
p25
asVopen_now
p26
I00
sVperiods
p27
(lp28
(dp29
Vclose
p30
(dp31
Vday
p32
I0
sVtime
p33
V1600
p34
ssVopen
p35
(dp36
Vday
p37
I0
sVtime
p38
V0800
p39
ssa(dp40
Vclose
p41
(dp42
Vday
p43
I1
sVtime
p44
V1600
p45
ssVopen
p46
(dp47
Vday
p48
I1
sVtime
p49
V0800
p50
ssa(dp51
Vclose
p52
(dp53
Vday
p54
I2
sVtime
p55
V1600
p56
ssVopen
p57
(dp58
Vday
p59
I2
sVtime
p60
V0800
p61
ssa(dp62
Vclose
p63
(dp64
Vday
p65
I3
sVtime
p66
V1600
p67
ssVopen
p68
(dp69
Vday
p70
I3
sVtime
p71
V0800
p72
ssa(dp73
Vclose
p74
(dp75
Vday
p76
I4
sVtime
p77
V1600
p78
ssVopen
p79
(dp80
Vday
p81
I4
sVtime
p82
V0800
p83
ssa(dp84
Vclose
p85
(dp86
Vday
p87
I5
sVtime
p88
V1600
p89
ssVopen
p90
(dp91
Vday
p92
I5
sVtime
p93
V0800
p94
ssa(dp95
Vclose
p96
(dp97
Vday
p98
I6
sVtime
p99
V1600
p100
ssVopen
p101
(dp102
Vday
p103
I6
sVtime
p104
V0800
p105
ssassVvicinity
p106
V4618 3rd Street, San Francisco
p107
sVscope
p108
VGOOGLE
p109
sVwebsite
p110
Vhttp://auntieaprils.net/
p111
sVutc_offset
p112
I-420
sVuser_ratings_total
p113
I43
sVphotos
p114
(lp115
(dp116
Vphoto_reference
p117
VCmRdAAAAwSzOWKe9VHjyTsujUzyS4LBgF-ARzJQ3wfOIWUvNsc1D_-Kgdh2V3Ngqv4Fufh8t2De_mVrbhYaxpOAJmfJ1Z3_yu7PhlrxK1GjMQ_Kq41X3k3jjFQJq0VXc6HV2x7A3EhDSPGfXkKKYiYz25zjmm1D9GhQGdoVMKhEPxngaOVOw0pHrYkzeXw
p118
sVwidth
p119
I2048
sVhtml_attributions
p120
(lp121
V<a href="https://maps.google.com/maps/contrib/104111246635874032234/photos">ZAGAT</a>
p122
asVheight
p123
I1365
sa(dp124
Vphoto_reference
p125
VCoQBdwAAAGm5ygtziXbTzz4nh1Ab_YC79pgI6deRmW9eF-mNsnCf7He3pEuWq5vLZCCte32bmOqznjbH9eK8zt8BJ-uUMuxTLW-8uHMEHBTT5Wjb_23fuIBeyfXuhbMOR6BI5tTtfhTT0BE9nr1zgRVWvOqvl7XyR7v-HxqglfkBSIDTZS26EhDqus6ne7kvCk3gJ070pz7kGhTF2NFsY47G65dXrgrCXCSI-VRO3w
p126
sVwidth
p127
I5312
sVhtml_attributions
p128
(lp129
V<a href="https://maps.google.com/maps/contrib/101069182868880227540/photos">Salvador Yepez</a>
p130
asVheight
p131
I2988
sa(dp132
Vphoto_reference
p133
VCmRdAAAAjryVkYw63sUbI7I4E6gBmY6pxs3F2SLa4hD7i1lqwS9wyffZL1yzIAvwg--VLoLXgKwQ1kxRxO9JQleeAXqat-W9wxkk3V89EwoJUJFSvsSHyVuL_SLvZG15lSv12r8bEhAIDeGO5PSeKNvpr_ZE25pEGhS-9gEGz4g0Rrnzou_VLeQ0Jf647w
p134
sVwidth
p135
I2048
sVhtml_attributions
p136
(lp137
V<a href="https://maps.google.com/maps/contrib/104111246635874032234/photos">ZAGAT</a>
p138
asVheight
p139
I1365
sa(dp140
Vphoto_reference
p141
VCmRdAAAA_L7kzOtLdWHTEiJvzUmSif5pgZVo_GuSRbNVaQ8eIMzu_mv9JuKlGG43FAUzY-MZ7kXhz9NRDbxWvFcckvaCSXB2FAOUnWalv-xjJ-Pa2eqSZbVqyQazK8O0vQsVvHdAEhCcEle_H1IB_9VzMVXPwvuNGhRw12hsywktRX5AzorQeAaTuMZTTg
p142
sVwidth
p143
I800
sVhtml_attributions
p144
(lp145
V<a href="https://maps.google.com/maps/contrib/106022779914765274065/photos">Auntie April&#39;s Chicken, Waffles, &amp; Soul Food Restaurant</a>
p146
asVheight
p147
I423
sa(dp148
Vphoto_reference
p149
VCmRdAAAAV35XFG89SEdD11BSE2Heay6WEnc7n8gywMqozNT_g6exf4TgvOPJwZRJ8a4a6s1JrNNRcv-012xJRcYLofz_KB0t1OTs--VWF92zeFYQ2YycfohLr3JS_uyz9S2BspOAEhA9c6UektCibuMogXy5Id9kGhTUgryObUd-0pI-Mzx2c17q2FCp2A
p150
sVwidth
p151
I2048
sVhtml_attributions
p152
(lp153
V<a href="https://maps.google.com/maps/contrib/104111246635874032234/photos">ZAGAT</a>
p154
asVheight
p155
I1365
sa(dp156
Vphoto_reference
p157
VCmRdAAAA0oQvUd7t6oZfSud63WvGMCiJXhI3K68O__CaBi_G_4EVdp9bd528LGoDpI-w1UWfmwlt4HeuELPt1luFtSs_Jg66MoXoCGQjwLGHsDNtvyJ9YXs8y6MHxXGtZNIPq3hGEhBW0AkP6QqA1O4LGCdGPcJSGhSRsRE09q1BEmFjnm-BX3SltqhOHw
p158
sVwidth
p159
I2048
sVhtml_attributions
p160
(lp161
V<a href="https://maps.google.com/maps/contrib/106022779914765274065/photos">Auntie April&#39;s Chicken, Waffles, &amp; Soul Food Restaurant</a>
p162
asVheight
p163
I1536
sa(dp164
Vphoto_reference
p165
VCmRdAAAAuIb3wg7OX6wC5iBt8RiJpJ4Z9PH_rlPeU8MXYH0Qw23MHmw4VpXcQL-FR-AQFykXmtBRPuUrC_g5eGTMueQLILP0BP0k9HDXJy-5Gf--ktnASAC7EIr90PTdTP-Hbt3YEhAw0lM3TJ4usUzR9Cb5an6_GhSI8UFTqW1P2gGTQZo5pP66h1m0Gg
p166
sVwidth
p167
I800
sVhtml_attributions
p168
(lp169
V<a href="https://maps.google.com/maps/contrib/106022779914765274065/photos">Auntie April&#39;s Chicken, Waffles, &amp; Soul Food Restaurant</a>
p170
asVheight
p171
I600
sa(dp172
Vphoto_reference
p173
VCmRdAAAAxHYiP-k1fUcErijQ8zgk4aU3-Y7E4_RVxGL36fU5FplIWv0glGZlfvYH6SM6oHlyaDIcKz-Hk2J69Xb1hP5G79N9r1m_sadLfcqpvVSzWb4s-2t5WjuF6s-TR17LlfovEhAt9So1D2HSelOvUGFTXbl6GhTSBOqusC7hB5SBt2_TbvMxovP9lQ
p174
sVwidth
p175
I788
sVhtml_attributions
p176
(lp177
V<a href="https://maps.google.com/maps/contrib/106022779914765274065/photos">Auntie April&#39;s Chicken, Waffles, &amp; Soul Food Restaurant</a>
p178
asVheight
p179
I375
sa(dp180
Vphoto_reference
p181
VCmRdAAAAKZQFIKHx6xaOtDt5BzYDyG4WHsP4ZUyyBgm7xtyloPbqUsgwoP-yUSZ4kZkVDZUhUZkzuRqqw92DzDwZvZeHJJvSJ4iyy5m2jKK7s6NAz6_3l-_SEzK7xxlnkyDw5cSrEhAQCNT5B2kRMBJSz6MF6VS9GhSwkQ4yUEbfuhJ7KMLPH8GEwkoFMQ
p182
sVwidth
p183
I600
sVhtml_attributions
p184
(lp185
V<a href="https://maps.google.com/maps/contrib/106022779914765274065/photos">Auntie April&#39;s Chicken, Waffles, &amp; Soul Food Restaurant</a>
p186
asVheight
p187
I494
sa(dp188
Vphoto_reference
p189
VCmRdAAAAPZZZFFrGx2rqwJbFGrGIW3sc9sEUr7Z6Q2PcvJEU2H370Y4jcgxudAyaydsNWTAQc9Y5ITriM-MITFfyKoxXAoYZtSnCSCsd--vdBAk1on8ldbh2R2Iutx9WbRL7woj-EhCg-ZtdqIFcZvdG1nfzwZh2GhRDnj49U_9RgCR93ovV2w61BhOzSg
p190
sVwidth
p191
I800
sVhtml_attributions
p192
(lp193
V<a href="https://maps.google.com/maps/contrib/106022779914765274065/photos">Auntie April&#39;s Chicken, Waffles, &amp; Soul Food Restaurant</a>
p194
asVheight
p195
I600
sasVtypes
p196
(lp197
Vrestaurant
p198
aVfood
p199
aVpoint_of_interest
p200
aVestablishment
p201
asVicon
p202
Vhttps://maps.gstatic.com/mapfiles/place_api/icons/restaurant-71.png
p203
sVname
p204
VAuntie April's Chicken, Waffles, & Soul Food Restaurant
p205
sVgeometry
p206
(dp207
Vaccess_points
p208
(lp209
(dp210
Vtravel_modes
p211
(lp212
VDRIVING
p213
aVBICYCLING
p214
aVWALKING
p215
aVTRANSIT
p216
asVlocation
p217
(dp218
Vlat
p219
g3
(S'37.73610559999999'
tRp220
sVlng
p221
g3
(S'-122.3903309'
tRp222
ssasVlocation
p223
(dp224
Vlat
p225
g3
(S'37.7361328'
tRp226
sVlng
p227
g3
(S'-122.3904508'
tRp228
sssVadr_address
p229
V<span class="street-address">4618 3rd St</span>, <span class="locality">San Francisco</span>, <span class="region">CA</span> <span class="postal-code">94124</span>, <span class="country-name">United States</span>
p230
sVinternational_phone_number
p231
V+1 415-643-4983
p232
sVreviews
p233
(lp234
(dp235
Vrating
p236
I5
sVaspects
p237
(lp238
(dp239
Vrating
p240
I3
sVtype
p241
Voverall
p242
sasVprofile_photo_url
p243
V//lh5.googleusercontent.com/-MxExUwEPHPk/AAAAAAAAAAI/AAAAAAAAAPs/WwmmbYHy-KA/photo.jpg
p244
sVlanguage
p245
Ven
p246
sVtext
p247
VMake sure you have plenty of room for these chicken and waffles-- so delicious, so much food!
p248
sVauthor_name
p249
VAnjelica Irizarry
p250
sVauthor_url
p251
Vhttps://plus.google.com/109022038467037160062
p252
sVtime
p253
I1460130114
sa(dp254
Vrating
p255
I5
sVaspects
p256
(lp257
(dp258
Vrating
p259
I3
sVtype
p260
Voverall
p261
sasVprofile_photo_url
p262
V//lh6.googleusercontent.com/-MtOqe2nacrU/AAAAAAAAAAI/AAAAAAAAADg/XW60dfmhISo/photo.jpg
p263
sVlanguage
p264
Ven
p265
sVtext
p266
VDelicious food and great service both times I ate there. Would definitely go back! 
p267
sVauthor_name
p268
VRyan O'Malley
p269
sVauthor_url
p270
Vhttps://plus.google.com/112929435154768256241
p271
sVtime
p272
I1457119143
sa(dp273
Vrating
p274
I5
sVaspects
p275
(lp276
(dp277
Vrating
p278
I3
sVtype
p279
Voverall
p280
sasVprofile_photo_url
p281
V//lh6.googleusercontent.com/-K535eLu0Ug8/AAAAAAAAAAI/AAAAAAAAAFU/sV24KQC28_U/photo.jpg
p282
sVlanguage
p283
Ven
p284
sVtext
p285
VThis is some of the tastiest food and friendliest service I've had in a long time. We tried the chicken and waffles (leg and thigh with the cinnamon waffle), shrimp po boy, mac & cheese, and macaroni salad. Everything was excellent, especially washed down with some sweet tea. We will definitely be back to see Auntie April again soon!
p286
sVauthor_name
p287
VMcKenzie Mortensen
p288
sVauthor_url
p289
Vhttps://plus.google.com/107443651728561263575
p290
sVtime
p291
I1428704160
sa(dp292
Vrating
p293
I5
sVaspects
p294
(lp295
(dp296
Vrating
p297
I3
sVtype
p298
Voverall
p299
sasVlanguage
p300
Ven
p301
sVtext
p302
VI never ate there but my Chinese friend said is hella good. As good as the one by lake merit in the Town.
p303
sVauthor_name
p304
VDeeDee Caston
p305
sVauthor_url
p306
Vhttps://plus.google.com/112613923321759502041
p307
sVtime
p308
I1436800851
sa(dp309
Vrating
p310
I5
sVaspects
p311
(lp312
(dp313
Vrating
p314
I3
sVtype
p315
Voverall
p316
sasVlanguage
p317
Ven
p318
sVtext
p319
VOn my way to the airport and found out the flight was delayed. Googled restaurants and had to try it. Chicken & Waffle or very good, felling better about my delay.
p320
sVauthor_name
p321
VLynette Jackson
p322
sVauthor_url
p323
Vhttps://plus.google.com/106539532809742499080
p324
sVtime
p325
I1437497729
sasVformatted_phone_number
p326
V(415) 643-4983
p327
sVaddress_components
p328
(lp329
(dp330
Vlong_name
p331
V4618
p332
sVtypes
p333
(lp334
Vstreet_number
p335
asVshort_name
p336
V4618
p337
sa(dp338
Vlong_name
p339
V3rd Street
p340
sVtypes
p341
(lp342
Vroute
p343
asVshort_name
p344
V3rd St
p345
sa(dp346
Vlong_name
p347
VSan Francisco
p348
sVtypes
p349
(lp350
Vlocality
p351
aVpolitical
p352
asVshort_name
p353
VSF
p354
sa(dp355
Vlong_name
p356
VCalifornia
p357
sVtypes
p358
(lp359
Vadministrative_area_level_1
p360
aVpolitical
p361
asVshort_name
p362
VCA
p363
sa(dp364
Vlong_name
p365
VUnited States
p366
sVtypes
p367
(lp368
Vcountry
p369
aVpolitical
p370
asVshort_name
p371
VUS
p372
sa(dp373
Vlong_name
p374
V94124
p375
sVtypes
p376
(lp377
Vpostal_code
p378
asVshort_name
p379
V94124
p380
sas.