(dp1
Vrating
p2
cdecimal
Decimal
p3
(S'4.5'
tRp4
sVreference
p5
VCmRbAAAAj7o9TOGT1F165uFBC-gO5nelo4snxSVXkweY4IGMbDaWRjc2iIM8vOatKbGtD0ZhC5X2dLSJT93JQ3z2i66xMNdPnpLhEbnoZx_21rZItaO5j86auPUawFyOL2ud-mS6EhBB2QzAmTJRLJI5jOBkry1VGhSVugtyajN1ipXMmyp_HY3wXsmamQ
p6
sVprice_level
p7
I2
sVplace_id
p8
VChIJjdERDQWFhYARvpaghgB3HQ4
p9
sVurl
p10
Vhttps://maps.google.com/?cid=1017099934997976766
p11
sVformatted_address
p12
V2656 Bridgeway, Sausalito, CA 94965, United States
p13
sVid
p14
V1641d3a97986761e8147bb827a965c1571d4bd69
p15
sVopening_hours
p16
(dp17
Vweekday_text
p18
(lp19
VMonday: 11:00 AM \u2013 3:00 PM, 5:00 \u2013 9:30 PM
p20
aVTuesday: 11:00 AM \u2013 3:00 PM, 5:00 \u2013 9:30 PM
p21
aVWednesday: 11:00 AM \u2013 3:00 PM, 5:00 \u2013 9:30 PM
p22
aVThursday: 11:00 AM \u2013 3:00 PM, 5:00 \u2013 9:30 PM
p23
aVFriday: 11:00 AM \u2013 3:00 PM, 5:00 \u2013 9:30 PM
p24
aVSaturday: 11:00 AM \u2013 3:00 PM, 5:00 \u2013 9:30 PM
p25
aVSunday: Closed
p26
asVopen_now
p27
I01
sVperiods
p28
(lp29
(dp30
Vclose
p31
(dp32
Vday
p33
I1
sVtime
p34
V1500
p35
ssVopen
p36
(dp37
Vday
p38
I1
sVtime
p39
V1100
p40
ssa(dp41
Vclose
p42
(dp43
Vday
p44
I1
sVtime
p45
V2130
p46
ssVopen
p47
(dp48
Vday
p49
I1
sVtime
p50
V1700
p51
ssa(dp52
Vclose
p53
(dp54
Vday
p55
I2
sVtime
p56
V1500
p57
ssVopen
p58
(dp59
Vday
p60
I2
sVtime
p61
V1100
p62
ssa(dp63
Vclose
p64
(dp65
Vday
p66
I2
sVtime
p67
V2130
p68
ssVopen
p69
(dp70
Vday
p71
I2
sVtime
p72
V1700
p73
ssa(dp74
Vclose
p75
(dp76
Vday
p77
I3
sVtime
p78
V1500
p79
ssVopen
p80
(dp81
Vday
p82
I3
sVtime
p83
V1100
p84
ssa(dp85
Vclose
p86
(dp87
Vday
p88
I3
sVtime
p89
V2130
p90
ssVopen
p91
(dp92
Vday
p93
I3
sVtime
p94
V1700
p95
ssa(dp96
Vclose
p97
(dp98
Vday
p99
I4
sVtime
p100
V1500
p101
ssVopen
p102
(dp103
Vday
p104
I4
sVtime
p105
V1100
p106
ssa(dp107
Vclose
p108
(dp109
Vday
p110
I4
sVtime
p111
V2130
p112
ssVopen
p113
(dp114
Vday
p115
I4
sVtime
p116
V1700
p117
ssa(dp118
Vclose
p119
(dp120
Vday
p121
I5
sVtime
p122
V1500
p123
ssVopen
p124
(dp125
Vday
p126
I5
sVtime
p127
V1100
p128
ssa(dp129
Vclose
p130
(dp131
Vday
p132
I5
sVtime
p133
V2130
p134
ssVopen
p135
(dp136
Vday
p137
I5
sVtime
p138
V1700
p139
ssa(dp140
Vclose
p141
(dp142
Vday
p143
I6
sVtime
p144
V1500
p145
ssVopen
p146
(dp147
Vday
p148
I6
sVtime
p149
V1100
p150
ssa(dp151
Vclose
p152
(dp153
Vday
p154
I6
sVtime
p155
V2130
p156
ssVopen
p157
(dp158
Vday
p159
I6
sVtime
p160
V1700
p161
ssassVvicinity
p162
V2656 Bridgeway, Sausalito
p163
sVscope
p164
VGOOGLE
p165
sVwebsite
p166
Vhttp://www.enjoyavatars.com/
p167
sVutc_offset
p168
I-420
sVuser_ratings_total
p169
I109
sVphotos
p170
(lp171
(dp172
Vphoto_reference
p173
VCoQBdwAAANQQK84W3oiK80IN3Yte4V-Gj5i8OZ4fpX2nWK99Pg6FqHEAJrlO5qZRwkNVkSz_dfvztPB9cQbqfNu1jhSVzj_vJLKQRDg9zChI1AdOIE_mk9J0BbXBgWvrMNSsH1MfbeeS6CBNVRnBI9oDAPYRtm5wxZHuKf06-JFrLJX-kupqEhAGVy0_7V_elCOLHbUijUeVGhQiB3P8Jc9yFkPnKAmTpL96l1hVeg
p174
sVwidth
p175
I2448
sVhtml_attributions
p176
(lp177
V<a href="https://maps.google.com/maps/contrib/105584261972801512174/photos">Simon Natanel</a>
p178
asVheight
p179
I3264
sa(dp180
Vphoto_reference
p181
VCmRdAAAADTMrm_zlBfQAyaXGWMXpsFRG6XnUHggnBR4NPDOwY8ue2NExZW46TDX0kzQ7_sKrE2ilB0ieBzvKoNG1NrANEfh_IpyeRJpi62beq9jSk4kV3nNSlJ1vjyvcUThgLi6CEhAd5IzSAZgLgKyd0Y5tlRJpGhRJU-mrKLAq7HW_mnYnTHPZGb-0sg
p182
sVwidth
p183
I4032
sVhtml_attributions
p184
(lp185
V<a href="https://maps.google.com/maps/contrib/101936526652175807883/photos">Srikanth Kolli</a>
p186
asVheight
p187
I3024
sa(dp188
Vphoto_reference
p189
VCoQBcwAAABz71V8GY-5r8c9cSH5HoY2IMDCvQ21_0oVLRhW7uTq86jPRrMVbGJRKNkEL8oaZxfyLrNRdudbWyyimeTJ7FTOLwT9ETYkBQyF2x2VwrQUUSY2CPTNwUZ039Kd5-Yjwh4tB9yUr_NreDiizRZNr3C-3YyINe4PScD9JVm4jnJwtEhAQuG1_S0D6IHuCw7ym7lFIGhTKT4qVb-vCkjiskL_uEW84tjJYqQ
p190
sVwidth
p191
I3024
sVhtml_attributions
p192
(lp193
V<a href="https://maps.google.com/maps/contrib/114956961338718058011/photos">Asaph Levinger</a>
p194
asVheight
p195
I4032
sa(dp196
Vphoto_reference
p197
VCmRdAAAAK3CBAZvfOW_pSgjC0crRBY88C-T4l1eYDbw9mttRPsBlJ-_Z-OoqYr5CTwu0SB4fOPUU4MAT7X9JuKbd_pghwEdVDQiTO7O4rJMhSLHSeJWLNBqCOsjjoywSSYkKjESVEhD4-bjmMcMOpVugQ6u3lbAGGhTn8X_ZkltWe-3ZTLo-TwIVL_psHA
p198
sVwidth
p199
I2368
sVhtml_attributions
p200
(lp201
V<a href="https://maps.google.com/maps/contrib/106305702840814141846/photos">Anne Hansen</a>
p202
asVheight
p203
I3200
sasVtypes
p204
(lp205
Vcafe
p206
aVrestaurant
p207
aVfood
p208
aVpoint_of_interest
p209
aVestablishment
p210
asVicon
p211
Vhttps://maps.gstatic.com/mapfiles/place_api/icons/restaurant-71.png
p212
sVname
p213
VAvatar's
p214
sVgeometry
p215
(dp216
Vaccess_points
p217
(lp218
(dp219
Vtravel_modes
p220
(lp221
VDRIVING
p222
aVBICYCLING
p223
aVWALKING
p224
aVTRANSIT
p225
asVlocation
p226
(dp227
Vlat
p228
g3
(S'37.8682749'
tRp229
sVlng
p230
g3
(S'-122.5022446'
tRp231
ssasVlocation
p232
(dp233
Vlat
p234
g3
(S'37.8685356'
tRp235
sVlng
p236
g3
(S'-122.5017978'
tRp237
sssVadr_address
p238
V<span class="street-address">2656 Bridgeway</span>, <span class="locality">Sausalito</span>, <span class="region">CA</span> <span class="postal-code">94965</span>, <span class="country-name">United States</span>
p239
sVinternational_phone_number
p240
V+1 415-332-8083
p241
sVreviews
p242
(lp243
(dp244
Vrating
p245
I5
sVaspects
p246
(lp247
(dp248
Vrating
p249
I3
sVtype
p250
Voverall
p251
sasVprofile_photo_url
p252
V//lh4.googleusercontent.com/-JKZyhpzWf1I/AAAAAAAAAAI/AAAAAAAAaTk/I6ssr2HD69Q/photo.jpg
p253
sVlanguage
p254
Ven
p255
sVtext
p256
VOne of the most amazing restaurants I have been to in the Bay Area! Good location, extremely courteous and friendly staff and even better food! The owner is an amazing person who custom made a spicy dish (this was my second order for the evening by the way!) for me. Everything here is delicious and I'll be definitely visiting this place more often!
p257
sVauthor_name
p258
VSnehal Shah
p259
sVauthor_url
p260
Vhttps://plus.google.com/105737550792157483043
p261
sVtime
p262
I1461305542
sa(dp263
Vrating
p264
I5
sVaspects
p265
(lp266
(dp267
Vrating
p268
I3
sVtype
p269
Voverall
p270
sasVlanguage
p271
Ven
p272
sVtext
p273
VWhen researching places to eat near the Golden Gate, my fiance came upon Avatar's.  We, both, love Indian food and the previous reviews piqued our interest.  When we arrived, Avatar greeted us and promised a culinary adventure.  After ascertaining our food likes/dislikes, and my fiance's dietary needs, he delivered the best meal we had since arriving.  My fiance loved his personal story.  We have nothing like this in Kentucky and are definitely missing out on something wonderful.  We will return to San Francisco, and to Avatar's, without a doubt.
p274
sVauthor_name
p275
VDrew Ehr
p276
sVauthor_url
p277
Vhttps://plus.google.com/118380840029321079731
p278
sVtime
p279
I1459911246
sa(dp280
Vrating
p281
I5
sVaspects
p282
(lp283
(dp284
Vrating
p285
I3
sVtype
p286
Voverall
p287
sasVprofile_photo_url
p288
V//lh4.googleusercontent.com/-eWYouom95X4/AAAAAAAAAAI/AAAAAAAACFU/chaHy59Sg4w/photo.jpg
p289
sVlanguage
p290
Ven
p291
sVtext
p292
VLoved the food and the experience! Told the owner proteins and spice levels and he chose for us. Crab and pumpkin enchiladas, chicken with Indian spice rub, and jerk chicken salad, all delicious. Save room for the dessert too!!
p293
sVauthor_name
p294
VAnne Hansen
p295
sVauthor_url
p296
Vhttps://plus.google.com/106305702840814141846
p297
sVtime
p298
I1456264974
sa(dp299
Vrating
p300
I5
sVaspects
p301
(lp302
(dp303
Vrating
p304
I3
sVtype
p305
Voverall
p306
sasVprofile_photo_url
p307
V//lh4.googleusercontent.com/--j-vJPPtlmw/AAAAAAAAAAI/AAAAAAAAE9w/AKs65QXYxQY/photo.jpg
p308
sVlanguage
p309
Ven
p310
sVtext
p311
VGood location, the food was excellent, and the family running it is so engaging and friendly, you wish every restaurant was that way.  They will actually take the time and speak to you about your preferences and tolerances, and tailor a meal to you that's not even on the menu.  I'm looking forward to the next time we are there.
p312
sVauthor_name
p313
VJason Kent
p314
sVauthor_url
p315
Vhttps://plus.google.com/110880461843623250194
p316
sVtime
p317
I1457889504
sa(dp318
Vrating
p319
I5
sVaspects
p320
(lp321
(dp322
Vrating
p323
I3
sVtype
p324
Voverall
p325
sasVprofile_photo_url
p326
V//lh5.googleusercontent.com/-3DYOj57ku-k/AAAAAAAAAAI/AAAAAAAAAAA/BAhc37QLAzw/photo.jpg
p327
sVlanguage
p328
Ven
p329
sVtext
p330
VAvatar is a small magical restaurant that infuses quality, natural and healing spices in all of their foods. There is no dairy, sugar or gluten in this restaurant. The food is spectacular, I had the pumpkin crab enchiladas, somosas, and their incredible dessert. If I lived near here, I would make Avatar a weekly habit. Please eat here, get to know the owner and staff, and do your body and palate the favor of this beautiful food.
p331
sVauthor_name
p332
VSusan Cook
p333
sVauthor_url
p334
Vhttps://plus.google.com/118137558755762575304
p335
sVtime
p336
I1454450306
sasVformatted_phone_number
p337
V(415) 332-8083
p338
sVaddress_components
p339
(lp340
(dp341
Vlong_name
p342
V2656
p343
sVtypes
p344
(lp345
Vstreet_number
p346
asVshort_name
p347
V2656
p348
sa(dp349
Vlong_name
p350
VBridgeway
p351
sVtypes
p352
(lp353
Vroute
p354
asVshort_name
p355
VBridgeway
p356
sa(dp357
Vlong_name
p358
VSausalito
p359
sVtypes
p360
(lp361
Vlocality
p362
aVpolitical
p363
asVshort_name
p364
VSausalito
p365
sa(dp366
Vlong_name
p367
VCalifornia
p368
sVtypes
p369
(lp370
Vadministrative_area_level_1
p371
aVpolitical
p372
asVshort_name
p373
VCA
p374
sa(dp375
Vlong_name
p376
VUnited States
p377
sVtypes
p378
(lp379
Vcountry
p380
aVpolitical
p381
asVshort_name
p382
VUS
p383
sa(dp384
Vlong_name
p385
V94965
p386
sVtypes
p387
(lp388
Vpostal_code
p389
asVshort_name
p390
V94965
p391
sas.