(dp1
Vwebsite
p2
Vhttp://www.avenue.com/
p3
sVutc_offset
p4
I-420
sVuser_ratings_total
p5
I2
sVname
p6
VAvenue
p7
sVreference
p8
VCmRZAAAA1IiEv61XntRsP51-he_XbQ1Medz7PlIRJ3hf5Gfu_yXUzXA8U49QD3fvmWwPXj4MxRfW82jd-yYusQuCQzBTCQDBsDA8meGtou_V92ox2r4Jv9iv_qSdi_LHKe6lxFpkEhDNGqPKQkVbjIIdmP0fxI0EGhRyVSTn34qVFR5suKoVCzzv0kQR4w
p9
sVprice_level
p10
I2
sVgeometry
p11
(dp12
Vaccess_points
p13
(lp14
(dp15
Vtravel_modes
p16
(lp17
VDRIVING
p18
aVBICYCLING
p19
aVWALKING
p20
aVTRANSIT
p21
asVlocation
p22
(dp23
Vlat
p24
cdecimal
Decimal
p25
(S'37.9743555'
tRp26
sVlng
p27
g25
(S'-122.038869'
tRp28
ssasVlocation
p29
(dp30
Vlat
p31
g25
(S'37.9748664'
tRp32
sVlng
p33
g25
(S'-122.0392575'
tRp34
sssVadr_address
p35
V<span class="street-address">1809 Willow Pass Rd</span>, <span class="locality">Concord</span>, <span class="region">CA</span> <span class="postal-code">94520</span>, <span class="country-name">United States</span>
p36
sVplace_id
p37
VChIJhw93A9hmhYARPsNerJ_46nk
p38
sVinternational_phone_number
p39
V+1 925-825-2022
p40
sVvicinity
p41
V1809 Willow Pass Road, Concord
p42
sVreviews
p43
(lp44
(dp45
Vrating
p46
I1
sVaspects
p47
(lp48
(dp49
Vrating
p50
I0
sVtype
p51
Voverall
p52
sasVprofile_photo_url
p53
V//lh6.googleusercontent.com/-HpjsXeCSwec/AAAAAAAAAAI/AAAAAAAAAQE/Gy_IOlVMh0I/photo.jpg
p54
sVlanguage
p55
Ven
p56
sVtext
p57
VThis is seriously one of the most ghetto stores I have ever shopped in my entire life. This place makes Walmart in East Oakland look classy, and they give better service. I have been to this shop a few times and always have a similar experience. The associates are always gossiping really loud, not giving proper customer service ever. Today takes the cake. It sounded like she was the manager, but she was complaining how she gives the best service and everyone else was incompetent. Also that her boss was doing a background check on her after 1.5 years of service, and she was practicing what she would say when he asks her about theft from her immediate previous employer. I seriously stepped into the Jerry Springer show. Also another woman was helping me on the register and walked away while I was talking to her to clear my fitting room instead of ringing me up. Serious, this place is on epic levels of wrong. Sadly this isn't a one time occurrence, their clothes aren't that cute, and I use this place for emergency shopping. Corporate, I would fire everyone here and shut this place down.  Facepalm, epic fail. At least I called both of the associates out and told then their behavior wasn't acceptable. Then gave the manager a tip that this is an at will employment state and they can fire you, even without the background check and whatever she tries to say to them. Atrocious!
p58
sVauthor_name
p59
VLindsay Clegg
p60
sVauthor_url
p61
Vhttps://plus.google.com/116774199357311230659
p62
sVtime
p63
I1396221496
sa(dp64
Vrating
p65
I5
sVaspects
p66
(lp67
(dp68
Vrating
p69
I3
sVtype
p70
Voverall
p71
sasVlanguage
p72
Ven
p73
sVtext
p74
VExcellent staff they were polite, courteous and very helpful.
p75
sVauthor_name
p76
Vselina Reyes
p77
sVauthor_url
p78
Vhttps://plus.google.com/105750265861775873071
p79
sVtime
p80
I1361255610
sasVformatted_phone_number
p81
V(925) 825-2022
p82
sVscope
p83
VGOOGLE
p84
sVurl
p85
Vhttps://maps.google.com/?cid=8785107387814953790
p86
sVopening_hours
p87
(dp88
Vweekday_text
p89
(lp90
VMonday: 10:00 AM \u2013 9:00 PM
p91
aVTuesday: 10:00 AM \u2013 9:00 PM
p92
aVWednesday: 10:00 AM \u2013 9:00 PM
p93
aVThursday: 10:00 AM \u2013 9:00 PM
p94
aVFriday: 10:00 AM \u2013 9:00 PM
p95
aVSaturday: 10:00 AM \u2013 8:00 PM
p96
aVSunday: 11:00 AM \u2013 6:00 PM
p97
asVopen_now
p98
I01
sVperiods
p99
(lp100
(dp101
Vclose
p102
(dp103
Vday
p104
I0
sVtime
p105
V1800
p106
ssVopen
p107
(dp108
Vday
p109
I0
sVtime
p110
V1100
p111
ssa(dp112
Vclose
p113
(dp114
Vday
p115
I1
sVtime
p116
V2100
p117
ssVopen
p118
(dp119
Vday
p120
I1
sVtime
p121
V1000
p122
ssa(dp123
Vclose
p124
(dp125
Vday
p126
I2
sVtime
p127
V2100
p128
ssVopen
p129
(dp130
Vday
p131
I2
sVtime
p132
V1000
p133
ssa(dp134
Vclose
p135
(dp136
Vday
p137
I3
sVtime
p138
V2100
p139
ssVopen
p140
(dp141
Vday
p142
I3
sVtime
p143
V1000
p144
ssa(dp145
Vclose
p146
(dp147
Vday
p148
I4
sVtime
p149
V2100
p150
ssVopen
p151
(dp152
Vday
p153
I4
sVtime
p154
V1000
p155
ssa(dp156
Vclose
p157
(dp158
Vday
p159
I5
sVtime
p160
V2100
p161
ssVopen
p162
(dp163
Vday
p164
I5
sVtime
p165
V1000
p166
ssa(dp167
Vclose
p168
(dp169
Vday
p170
I6
sVtime
p171
V2000
p172
ssVopen
p173
(dp174
Vday
p175
I6
sVtime
p176
V1000
p177
ssassVaddress_components
p178
(lp179
(dp180
Vlong_name
p181
V1809
p182
sVtypes
p183
(lp184
Vstreet_number
p185
asVshort_name
p186
V1809
p187
sa(dp188
Vlong_name
p189
VWillow Pass Road
p190
sVtypes
p191
(lp192
Vroute
p193
asVshort_name
p194
VWillow Pass Rd
p195
sa(dp196
Vlong_name
p197
VConcord
p198
sVtypes
p199
(lp200
Vlocality
p201
aVpolitical
p202
asVshort_name
p203
VConcord
p204
sa(dp205
Vlong_name
p206
VCalifornia
p207
sVtypes
p208
(lp209
Vadministrative_area_level_1
p210
aVpolitical
p211
asVshort_name
p212
VCA
p213
sa(dp214
Vlong_name
p215
VUnited States
p216
sVtypes
p217
(lp218
Vcountry
p219
aVpolitical
p220
asVshort_name
p221
VUS
p222
sa(dp223
Vlong_name
p224
V94520
p225
sVtypes
p226
(lp227
Vpostal_code
p228
asVshort_name
p229
V94520
p230
sasVformatted_address
p231
V1809 Willow Pass Rd, Concord, CA 94520, United States
p232
sVid
p233
V4e7f13d098f414d5793b92b6dfb9d6d705f6c7b4
p234
sVtypes
p235
(lp236
Vclothing_store
p237
aVstore
p238
aVpoint_of_interest
p239
aVestablishment
p240
asVicon
p241
Vhttps://maps.gstatic.com/mapfiles/place_api/icons/shopping-71.png
p242
s.