(dp1
Vrating
p2
cdecimal
Decimal
p3
(S'3.8'
tRp4
sVreference
p5
VCmRfAAAA4DU6bOdJ6MOhK4pGXVEpXVuLT1wrYAlglBJphteEir58xgyKw6UhpV3UljFuG4laoRc-3lwTZtTrP9Ez_dR7ZxCXtM1sJe0zPLe0iJrhAYeR27koWA5B_anxSShILOCFEhDjfWHy3gzgW-KkqMe6WuWKGhQfVFbNP8kG6kjhDU6FC3wsjs3EgA
p6
sVprice_level
p7
I2
sVplace_id
p8
VChIJYXn3mdCAhYAR97Hkb3wD660
p9
sVurl
p10
Vhttps://maps.google.com/?cid=12532114221076623863
p11
sVformatted_address
p12
V3199 Fillmore St, San Francisco, CA 94123, United States
p13
sVid
p14
V0f9224e511f3bb651ab5baf604d89dcef070c5cb
p15
sVopening_hours
p16
(dp17
Vweekday_text
p18
(lp19
VMonday: 11:30 AM \u2013 11:00 PM
p20
aVTuesday: 11:30 AM \u2013 11:00 PM
p21
aVWednesday: 11:30 AM \u2013 11:00 PM
p22
aVThursday: 11:30 AM \u2013 11:00 PM
p23
aVFriday: 11:30 AM \u2013 11:00 PM
p24
aVSaturday: 9:00 AM \u2013 11:00 PM
p25
aVSunday: 9:00 AM \u2013 10:00 PM
p26
asVopen_now
p27
I01
sVperiods
p28
(lp29
(dp30
Vclose
p31
(dp32
Vday
p33
I0
sVtime
p34
V2200
p35
ssVopen
p36
(dp37
Vday
p38
I0
sVtime
p39
V0900
p40
ssa(dp41
Vclose
p42
(dp43
Vday
p44
I1
sVtime
p45
V2300
p46
ssVopen
p47
(dp48
Vday
p49
I1
sVtime
p50
V1130
p51
ssa(dp52
Vclose
p53
(dp54
Vday
p55
I2
sVtime
p56
V2300
p57
ssVopen
p58
(dp59
Vday
p60
I2
sVtime
p61
V1130
p62
ssa(dp63
Vclose
p64
(dp65
Vday
p66
I3
sVtime
p67
V2300
p68
ssVopen
p69
(dp70
Vday
p71
I3
sVtime
p72
V1130
p73
ssa(dp74
Vclose
p75
(dp76
Vday
p77
I4
sVtime
p78
V2300
p79
ssVopen
p80
(dp81
Vday
p82
I4
sVtime
p83
V1130
p84
ssa(dp85
Vclose
p86
(dp87
Vday
p88
I5
sVtime
p89
V2300
p90
ssVopen
p91
(dp92
Vday
p93
I5
sVtime
p94
V1130
p95
ssa(dp96
Vclose
p97
(dp98
Vday
p99
I6
sVtime
p100
V2300
p101
ssVopen
p102
(dp103
Vday
p104
I6
sVtime
p105
V0900
p106
ssassVvicinity
p107
V3199 Fillmore Street, San Francisco
p108
sVscope
p109
VGOOGLE
p110
sVwebsite
p111
Vhttp://www.balboacafe.com/
p112
sVutc_offset
p113
I-420
sVuser_ratings_total
p114
I93
sVphotos
p115
(lp116
(dp117
Vphoto_reference
p118
VCmRdAAAAdjmqJC0qfBRsjID_sJWk7k-uqOq_SojnD4BDwi393YuN_yJAeVXwnvhBb50yxRVtFeZFH7njI50E0f9aUgUjibHMpjVUViAp_YdZCZCEblD29CSXLJYGTsSg9yjau9QcEhBc8DoyP3Zr1nKK5Bx62jyFGhQCAd7SExoWFymARTr8QI1CqDf0cg
p119
sVwidth
p120
I1152
sVhtml_attributions
p121
(lp122
V<a href="https://maps.google.com/maps/contrib/113400233753564666590/photos">Leonard Zhao</a>
p123
asVheight
p124
I648
sa(dp125
Vphoto_reference
p126
VCmRdAAAAd1Su-kMeidMku40_fV3F-Fo6l9y8FI6Uv-1aTwtCpdjuEYjf_iIz6RkRVLOnhsjriAM5YQaRCMfWUOuZB7TjnECmuLVcqNO7OL2fFBTEdKjGs68fqB0JGJiV2tYp_IzcEhCknTyjBx0Quw6sK3eU6FgcGhTf-NYicIWvyd2F5-pkw5dFCD4gDQ
p127
sVwidth
p128
I780
sVhtml_attributions
p129
(lp130
V<a href="https://maps.google.com/maps/contrib/103814185907459281911/photos">Caeli Abeyta</a>
p131
asVheight
p132
I960
sa(dp133
Vphoto_reference
p134
VCmRdAAAA-8X1MxhZaMMvUAdVtydkt5H9rG6geZ35OhQttDP1hiDnXHTeBDi74oOwL6caPAcdb0b_xQNbGALAZZwVRAQilH5-l9DgyM54m4KgK4lKndC21sICzKCvp7gMgRkNtlEOEhATdjijtAY8f4Uhhid5KqqAGhSbampMBCoXr0imeUAjw4fSf9KpKg
p135
sVwidth
p136
I1152
sVhtml_attributions
p137
(lp138
V<a href="https://maps.google.com/maps/contrib/113400233753564666590/photos">Leonard Zhao</a>
p139
asVheight
p140
I648
sa(dp141
Vphoto_reference
p142
VCmRdAAAA8oxJ1-76ZA20lIzr_ALnQgkeNaqBrFVzBd-0XWNgkQxjtI86sYpJpA-4uvoaVT_asAOlunpHe9lCYTPw0aiJWHItxQlIVFklfFc_FWYxAExKmrpQ2o8kWtodIUJHArEhEhAZyNhOBpjsaOu_JAhwvEqgGhQ-xbzPaQu0YzCchzHz9DEXlCogfQ
p143
sVwidth
p144
I768
sVhtml_attributions
p145
(lp146
V<a href="https://maps.google.com/maps/contrib/116003871527965502628/photos">Erik Martinez</a>
p147
asVheight
p148
I1024
sasVtypes
p149
(lp150
Vcafe
p151
aVbar
p152
aVrestaurant
p153
aVfood
p154
aVpoint_of_interest
p155
aVestablishment
p156
asVicon
p157
Vhttps://maps.gstatic.com/mapfiles/place_api/icons/cafe-71.png
p158
sVname
p159
VBalboa Cafe
p160
sVgeometry
p161
(dp162
Vaccess_points
p163
(lp164
(dp165
Vtravel_modes
p166
(lp167
VDRIVING
p168
aVBICYCLING
p169
aVWALKING
p170
aVTRANSIT
p171
asVlocation
p172
(dp173
Vlat
p174
g3
(S'37.7988435'
tRp175
sVlng
p176
g3
(S'-122.435892'
tRp177
ssasVlocation
p178
(dp179
Vlat
p180
g3
(S'37.7988162'
tRp181
sVlng
p182
g3
(S'-122.4361023'
tRp183
sssVadr_address
p184
V<span class="street-address">3199 Fillmore St</span>, <span class="locality">San Francisco</span>, <span class="region">CA</span> <span class="postal-code">94123</span>, <span class="country-name">United States</span>
p185
sVinternational_phone_number
p186
V+1 415-921-3944
p187
sVreviews
p188
(lp189
(dp190
Vrating
p191
I5
sVaspects
p192
(lp193
(dp194
Vrating
p195
I3
sVtype
p196
Voverall
p197
sasVprofile_photo_url
p198
V//lh6.googleusercontent.com/-DUqcEJDHuOY/AAAAAAAAAAI/AAAAAAAABY0/feXSekeP3UM/photo.jpg
p199
sVlanguage
p200
Ven
p201
sVtext
p202
VThe best place to have a drink or meal. Great service, great food and drink, great patrons. A great place to be social and meet new people. An SF institution.
p203
sVauthor_name
p204
VJoe Buty
p205
sVauthor_url
p206
Vhttps://plus.google.com/116412722200715491290
p207
sVtime
p208
I1455956865
sa(dp209
Vrating
p210
I3
sVaspects
p211
(lp212
(dp213
Vrating
p214
I1
sVtype
p215
Voverall
p216
sasVprofile_photo_url
p217
V//lh5.googleusercontent.com/-U328-mqFCsM/AAAAAAAAAAI/AAAAAAAAbjI/SwYP92W47h4/photo.jpg
p218
sVlanguage
p219
Ven
p220
sVtext
p221
VWent here Friday Night for a few after dinner cocktails. Place was packed. Problem was my girlfriend was 1 of 6 girls in the whole place. There seemed to be like 100 dudes there. Not sure if this is unique to this bar or SF in general. Drinks were nothing special but the bartenders wear these white lab coats and are very attentive.  
p222
sVauthor_name
p223
VQui Phan
p224
sVauthor_url
p225
Vhttps://plus.google.com/101186662632136196578
p226
sVtime
p227
I1459014802
sa(dp228
Vrating
p229
I5
sVaspects
p230
(lp231
(dp232
Vrating
p233
I3
sVtype
p234
Voverall
p235
sasVprofile_photo_url
p236
V//lh6.googleusercontent.com/-xEOjTeMsJ94/AAAAAAAAAAI/AAAAAAAAABc/qqPp_sQH48w/photo.jpg
p237
sVlanguage
p238
Ven
p239
sVtext
p240
VCool new cocktail great food attentive staff
p241
sVauthor_name
p242
Vfred janvrin
p243
sVauthor_url
p244
Vhttps://plus.google.com/104325897144242679443
p245
sVtime
p246
I1459379175
sa(dp247
Vrating
p248
I5
sVaspects
p249
(lp250
(dp251
Vrating
p252
I3
sVtype
p253
Voverall
p254
sasVprofile_photo_url
p255
V//lh6.googleusercontent.com/-w28SQbBSdFQ/AAAAAAAAAAI/AAAAAAAAAQo/ryITPCz0blc/photo.jpg
p256
sVlanguage
p257
Ven
p258
sVtext
p259
VThis is my favorite bar in SF. It has a busy and exciting atmosphere and is a good place to meet people. The drinks are good.
p260
sVauthor_name
p261
VRyan
p262
sVauthor_url
p263
Vhttps://plus.google.com/108549679936117684521
p264
sVtime
p265
I1449038914
sa(dp266
Vrating
p267
I4
sVaspects
p268
(lp269
(dp270
Vrating
p271
I2
sVtype
p272
Voverall
p273
sasVprofile_photo_url
p274
V//lh3.googleusercontent.com/-_PEFfi5jFbk/AAAAAAAAAAI/AAAAAAAAAEU/NnY1B7VhPH0/photo.jpg
p275
sVlanguage
p276
Ven
p277
sVtext
p278
VBright and busy bar that's also an excellent place to bring your ladyfriend. Snacks are a little pricey but delicious, so don't be a meanie and treat yourself. The bar may only get four stars from me but the staff get five. Knowledgable, friendly and attentive. Local or visitor, you'll enjoy this place.
p279
sVauthor_name
p280
VWag Schofield
p281
sVauthor_url
p282
Vhttps://plus.google.com/106908920359411849200
p283
sVtime
p284
I1437582878
sasVformatted_phone_number
p285
V(415) 921-3944
p286
sVaddress_components
p287
(lp288
(dp289
Vlong_name
p290
V3199
p291
sVtypes
p292
(lp293
Vstreet_number
p294
asVshort_name
p295
V3199
p296
sa(dp297
Vlong_name
p298
VFillmore Street
p299
sVtypes
p300
(lp301
Vroute
p302
asVshort_name
p303
VFillmore St
p304
sa(dp305
Vlong_name
p306
VSan Francisco
p307
sVtypes
p308
(lp309
Vlocality
p310
aVpolitical
p311
asVshort_name
p312
VSF
p313
sa(dp314
Vlong_name
p315
VCalifornia
p316
sVtypes
p317
(lp318
Vadministrative_area_level_1
p319
aVpolitical
p320
asVshort_name
p321
VCA
p322
sa(dp323
Vlong_name
p324
VUnited States
p325
sVtypes
p326
(lp327
Vcountry
p328
aVpolitical
p329
asVshort_name
p330
VUS
p331
sa(dp332
Vlong_name
p333
V94123
p334
sVtypes
p335
(lp336
Vpostal_code
p337
asVshort_name
p338
V94123
p339
sas.