(dp1
Vwebsite
p2
Vhttp://www.bebe.com/
p3
sVutc_offset
p4
I-420
sVuser_ratings_total
p5
I4
sVname
p6
Vbebe Bay Street
p7
sVreference
p8
VCnRiAAAAyeMyqn-CZ4PRCsQOy-W7W8anslKLjPYZ28o8VWfUXY_JMpP_s0E7u-78FVt3xouCC8pyWqxkW58p1cyU_YJVoXPvTLn1Oqq3iMm9o1rwIMeMsp5oykP8yMf7jEEV6pgRquCSNnsFIlOSCY1sBo7zLBIQEeZJdCVdlsRGaLA18xvs6RoU_rqO4OdSfHGMuFd4kVulmchMKB4
p9
sVprice_level
p10
I3
sVgeometry
p11
(dp12
Vlocation
p13
(dp14
Vlat
p15
cdecimal
Decimal
p16
(S'37.8354084'
tRp17
sVlng
p18
g16
(S'-122.2919952'
tRp19
sssVadr_address
p20
V5654 Bay St., <span class="locality">Emeryville</span>, <span class="region">CA</span> <span class="postal-code">94608</span>, <span class="country-name">United States</span>
p21
sVplace_id
p22
VChIJx1wl3UN-hYARYu9AJY90uUA
p23
sVinternational_phone_number
p24
V+1 510-652-8080
p25
sVvicinity
p26
V5654 Bay St., Emeryville
p27
sVreviews
p28
(lp29
(dp30
Vrating
p31
I4
sVaspects
p32
(lp33
(dp34
Vrating
p35
I2
sVtype
p36
Voverall
p37
sasVprofile_photo_url
p38
V//lh3.googleusercontent.com/-BxMe5P12qGc/AAAAAAAAAAI/AAAAAAAAADk/7FD4AMjAQrQ/photo.jpg
p39
sVlanguage
p40
Ven
p41
sVtext
p42
VOMG I love this BEBE store. I come here for my birthday dresses, they have good sales all the time. So I can find something cute and affordable. The girls there are super nice and are always trying to help me. I hate that I always leave the store spending over 200$ :( 
p43
sVauthor_name
p44
VJessica Tru
p45
sVauthor_url
p46
Vhttps://plus.google.com/104476571019985690728
p47
sVtime
p48
I1355683916
sa(dp49
Vrating
p50
I4
sVaspects
p51
(lp52
(dp53
Vrating
p54
I2
sVtype
p55
Voverall
p56
sasVlanguage
p57
Ven
p58
sVtext
p59
VSo, I really love Bebe's style and the prices aren't bad either, but I wish they would designe with more of an eye for the average women figure. Their sizes are so small, you almost have to be a size4-7 to even wear most of their merchandise. \u000a\u000aBut when I do find a shirt, dress or jacket, I absolutely love it. And their clothes last a really long time, so it's worth the money. 
p60
sVauthor_name
p61
VLatoya Sales
p62
sVauthor_url
p63
Vhttps://plus.google.com/106895823890519017300
p64
sVtime
p65
I1355699962
sa(dp66
Vrating
p67
I4
sVaspects
p68
(lp69
(dp70
Vrating
p71
I2
sVtype
p72
Voverall
p73
sasVprofile_photo_url
p74
V//lh6.googleusercontent.com/-89CUGZqwt7M/AAAAAAAAAAI/AAAAAAAAF4g/VaMKU8Gciyw/photo.jpg
p75
sVlanguage
p76
Ven
p77
sVtext
p78
Vthis bebe's is way too small but the service is great 
p79
sVauthor_name
p80
VBrooks Hopkins
p81
sVauthor_url
p82
Vhttps://plus.google.com/102056632108148980110
p83
sVtime
p84
I1362339927
sa(dp85
Vrating
p86
I5
sVaspects
p87
(lp88
(dp89
Vrating
p90
I3
sVtype
p91
Voverall
p92
sasVprofile_photo_url
p93
V//lh5.googleusercontent.com/-D-_9BPE47m8/AAAAAAAAAAI/AAAAAAAAAA0/_GF-cWoRGVg/photo.jpg
p94
sVlanguage
p95
Ven
p96
sVtext
p97
V
sVauthor_name
p98
VKevineshia Island
p99
sVauthor_url
p100
Vhttps://plus.google.com/110334709963784944840
p101
sVtime
p102
I1455472213
sasVformatted_phone_number
p103
V(510) 652-8080
p104
sVscope
p105
VGOOGLE
p106
sVurl
p107
Vhttps://maps.google.com/?cid=4663887047273017186
p108
sVopening_hours
p109
(dp110
Vweekday_text
p111
(lp112
VMonday: 10:00 AM \u2013 8:00 PM
p113
aVTuesday: 10:00 AM \u2013 8:00 PM
p114
aVWednesday: 10:00 AM \u2013 8:00 PM
p115
aVThursday: 10:00 AM \u2013 9:00 PM
p116
aVFriday: 10:00 AM \u2013 9:00 PM
p117
aVSaturday: 10:00 AM \u2013 9:00 PM
p118
aVSunday: 11:00 AM \u2013 6:00 PM
p119
asVopen_now
p120
I01
sVperiods
p121
(lp122
(dp123
Vclose
p124
(dp125
Vday
p126
I0
sVtime
p127
V1800
p128
ssVopen
p129
(dp130
Vday
p131
I0
sVtime
p132
V1100
p133
ssa(dp134
Vclose
p135
(dp136
Vday
p137
I1
sVtime
p138
V2000
p139
ssVopen
p140
(dp141
Vday
p142
I1
sVtime
p143
V1000
p144
ssa(dp145
Vclose
p146
(dp147
Vday
p148
I2
sVtime
p149
V2000
p150
ssVopen
p151
(dp152
Vday
p153
I2
sVtime
p154
V1000
p155
ssa(dp156
Vclose
p157
(dp158
Vday
p159
I3
sVtime
p160
V2000
p161
ssVopen
p162
(dp163
Vday
p164
I3
sVtime
p165
V1000
p166
ssa(dp167
Vclose
p168
(dp169
Vday
p170
I4
sVtime
p171
V2100
p172
ssVopen
p173
(dp174
Vday
p175
I4
sVtime
p176
V1000
p177
ssa(dp178
Vclose
p179
(dp180
Vday
p181
I5
sVtime
p182
V2100
p183
ssVopen
p184
(dp185
Vday
p186
I5
sVtime
p187
V1000
p188
ssa(dp189
Vclose
p190
(dp191
Vday
p192
I6
sVtime
p193
V2100
p194
ssVopen
p195
(dp196
Vday
p197
I6
sVtime
p198
V1000
p199
ssassVaddress_components
p200
(lp201
(dp202
Vlong_name
p203
VEmeryville
p204
sVtypes
p205
(lp206
Vlocality
p207
aVpolitical
p208
asVshort_name
p209
VEmeryville
p210
sa(dp211
Vlong_name
p212
VCalifornia
p213
sVtypes
p214
(lp215
Vadministrative_area_level_1
p216
aVpolitical
p217
asVshort_name
p218
VCA
p219
sa(dp220
Vlong_name
p221
VUnited States
p222
sVtypes
p223
(lp224
Vcountry
p225
aVpolitical
p226
asVshort_name
p227
VUS
p228
sa(dp229
Vlong_name
p230
V94608
p231
sVtypes
p232
(lp233
Vpostal_code
p234
asVshort_name
p235
V94608
p236
sasVformatted_address
p237
V5654 Bay St., Emeryville, CA 94608, United States
p238
sVid
p239
Vebec9482ecb0ba2ba868596bb07af8d9b3147776
p240
sVtypes
p241
(lp242
Vclothing_store
p243
aVstore
p244
aVpoint_of_interest
p245
aVestablishment
p246
asVicon
p247
Vhttps://maps.gstatic.com/mapfiles/place_api/icons/shopping-71.png
p248
s.