(dp1
Vrating
p2
cdecimal
Decimal
p3
(S'4.1'
tRp4
sVreference
p5
VCnRoAAAAFBVKScMAOT6AfHv9I_maJu3mHf02NtmoLzvjPMgoj9vu0QUomp-GUgCQauKmIDJCKDLRjYdlaCN2zQuxoU32fbaEF8Bmnf9EuryFboSHA6SWyq92OFuG0eFWm8PvqWqfMH3JhDkP-mQcDN0Y5Q5ZExIQaYViGf8930zX4yz-Cken0RoUdsBwn7CGaqQwEI9Ss3IrJUEw-IQ
p6
sVprice_level
p7
I1
sVplace_id
p8
VChIJj1AKlzt-j4ARCHHWunlrEcw
p9
sVurl
p10
Vhttps://maps.google.com/?cid=14704652428911210760
p11
sVformatted_address
p12
V806 S Van Ness Ave, San Francisco, CA 94110, United States
p13
sVid
p14
V84bd52e6d7cf1b3fe6202a60707444bb1c3455b3
p15
sVopening_hours
p16
(dp17
Vweekday_text
p18
(lp19
VMonday: 4:00 PM \u2013 2:00 AM
p20
aVTuesday: 4:00 PM \u2013 2:00 AM
p21
aVWednesday: 4:00 PM \u2013 2:00 AM
p22
aVThursday: 4:00 PM \u2013 2:00 AM
p23
aVFriday: 2:00 PM \u2013 2:00 AM
p24
aVSaturday: 2:00 PM \u2013 2:00 AM
p25
aVSunday: 2:00 PM \u2013 2:00 AM
p26
asVopen_now
p27
I00
sVperiods
p28
(lp29
(dp30
Vclose
p31
(dp32
Vday
p33
I1
sVtime
p34
V0200
p35
ssVopen
p36
(dp37
Vday
p38
I0
sVtime
p39
V1400
p40
ssa(dp41
Vclose
p42
(dp43
Vday
p44
I2
sVtime
p45
V0200
p46
ssVopen
p47
(dp48
Vday
p49
I1
sVtime
p50
V1600
p51
ssa(dp52
Vclose
p53
(dp54
Vday
p55
I3
sVtime
p56
V0200
p57
ssVopen
p58
(dp59
Vday
p60
I2
sVtime
p61
V1600
p62
ssa(dp63
Vclose
p64
(dp65
Vday
p66
I4
sVtime
p67
V0200
p68
ssVopen
p69
(dp70
Vday
p71
I3
sVtime
p72
V1600
p73
ssa(dp74
Vclose
p75
(dp76
Vday
p77
I5
sVtime
p78
V0200
p79
ssVopen
p80
(dp81
Vday
p82
I4
sVtime
p83
V1600
p84
ssa(dp85
Vclose
p86
(dp87
Vday
p88
I6
sVtime
p89
V0200
p90
ssVopen
p91
(dp92
Vday
p93
I5
sVtime
p94
V1400
p95
ssa(dp96
Vclose
p97
(dp98
Vday
p99
I0
sVtime
p100
V0200
p101
ssVopen
p102
(dp103
Vday
p104
I6
sVtime
p105
V1400
p106
ssassVvicinity
p107
V806 South Van Ness Avenue, San Francisco
p108
sVscope
p109
VGOOGLE
p110
sVwebsite
p111
Vhttp://www.bendersbar.com/
p112
sVutc_offset
p113
I-420
sVuser_ratings_total
p114
I85
sVphotos
p115
(lp116
(dp117
Vphoto_reference
p118
VCoQBcwAAAK600c1nt14qrOCBx_sgSb_qnmQiEjrSJ9ly67DQlFbvWek4Ji3Xf3kaH7f12BO9JV7wSQCIcOYtuJ0Ud4pdoqpu7tVMbnnecalvr0wUqBU-7cZWJtDlyVISVw-4wAkpq4_nXCSjeHV8Exlg6uXfR7eLSrzMpTj9_yGlrNPJfEBEEhCiBbfp0RtxrnkvZGJF4-JKGhQd6vq5Nl6wcGz5ZwR9QCvoizPM1g
p119
sVwidth
p120
I1440
sVhtml_attributions
p121
(lp122
V<a href="https://maps.google.com/maps/contrib/102512482813360175082/photos">Nick Marti</a>
p123
asVheight
p124
I2560
sasVtypes
p125
(lp126
Vbar
p127
aVrestaurant
p128
aVfood
p129
aVpoint_of_interest
p130
aVestablishment
p131
asVicon
p132
Vhttps://maps.gstatic.com/mapfiles/place_api/icons/restaurant-71.png
p133
sVname
p134
VBender's Bar & Grill
p135
sVgeometry
p136
(dp137
Vaccess_points
p138
(lp139
(dp140
Vtravel_modes
p141
(lp142
VDRIVING
p143
aVBICYCLING
p144
aVWALKING
p145
aVTRANSIT
p146
asVlocation
p147
(dp148
Vlat
p149
g3
(S'37.7601852'
tRp150
sVlng
p151
g3
(S'-122.4170452'
tRp152
ssasVlocation
p153
(dp154
Vlat
p155
g3
(S'37.7601817'
tRp156
sVlng
p157
g3
(S'-122.4173055'
tRp158
sssVadr_address
p159
V<span class="street-address">806 S Van Ness Ave</span>, <span class="locality">San Francisco</span>, <span class="region">CA</span> <span class="postal-code">94110</span>, <span class="country-name">United States</span>
p160
sVinternational_phone_number
p161
V+1 415-824-1800
p162
sVreviews
p163
(lp164
(dp165
Vrating
p166
I5
sVaspects
p167
(lp168
(dp169
Vrating
p170
I3
sVtype
p171
Voverall
p172
sasVprofile_photo_url
p173
V//lh6.googleusercontent.com/-h9fARAScfX8/AAAAAAAAAAI/AAAAAAAAAts/pQ7ysDVyxbs/photo.jpg
p174
sVlanguage
p175
Ven
p176
sVtext
p177
VOne of my favourite places. The vibe in there was so euphoric. The wings were to die for #yolo\u000a
p178
sVauthor_name
p179
VVeronica Pinchin
p180
sVauthor_url
p181
Vhttps://plus.google.com/102851546953308386313
p182
sVtime
p183
I1459053482
sa(dp184
Vrating
p185
I1
sVaspects
p186
(lp187
(dp188
Vrating
p189
I0
sVtype
p190
Voverall
p191
sasVprofile_photo_url
p192
V//lh6.googleusercontent.com/-8FvN652M7do/AAAAAAAAAAI/AAAAAAAAD4g/1DaVGqkiHsk/photo.jpg
p193
sVlanguage
p194
Ven
p195
sVtext
p196
VBar tender with the tatoos wearing the beret and beater was extremely rude. I ordered a drink and out of nowhere he told me to shut the F*ck up and get out. The rest of my group was shocked by hos behavior. He was clearly racist. If you don't like white supremecist bars, you're best avoiding this place. 
p197
sVauthor_name
p198
VTony Caballero
p199
sVauthor_url
p200
Vhttps://plus.google.com/102183886612941764301
p201
sVtime
p202
I1443248000
sa(dp203
Vrating
p204
I3
sVaspects
p205
(lp206
(dp207
Vrating
p208
I1
sVtype
p209
Voverall
p210
sasVprofile_photo_url
p211
V//lh4.googleusercontent.com/--j-vJPPtlmw/AAAAAAAAAAI/AAAAAAAAE9w/AKs65QXYxQY/photo.jpg
p212
sVlanguage
p213
Ven
p214
sVtext
p215
VCurrier bar with bike racks for the messengers.  Mixed crowd and some karaoke on the night we were there.  Average atmosphere and drink prices, so nothing great really stood out.
p216
sVauthor_name
p217
VJason Kent
p218
sVauthor_url
p219
Vhttps://plus.google.com/110880461843623250194
p220
sVtime
p221
I1459528109
sa(dp222
Vrating
p223
I4
sVaspects
p224
(lp225
(dp226
Vrating
p227
I2
sVtype
p228
Voverall
p229
sasVprofile_photo_url
p230
V//lh6.googleusercontent.com/-xp8vr35ai-c/AAAAAAAAAAI/AAAAAAAAZQg/qp6pSkpN4ZM/photo.jpg
p231
sVlanguage
p232
Ven
p233
sVtext
p234
VWent here on a Sunday when they weren't serving food, but I was impressed with the atmosphere and beer selection. Would definitely check it out again.
p235
sVauthor_name
p236
VDon Dresser
p237
sVauthor_url
p238
Vhttps://plus.google.com/107676720650982804760
p239
sVtime
p240
I1438141330
sa(dp241
Vrating
p242
I4
sVaspects
p243
(lp244
(dp245
Vrating
p246
I2
sVtype
p247
Voverall
p248
sasVprofile_photo_url
p249
V//lh6.googleusercontent.com/-I3liN08lHiE/AAAAAAAAAAI/AAAAAAAAAOo/ZVuW8hEXhog/photo.jpg
p250
sVlanguage
p251
Ven
p252
sVtext
p253
VLove this dive bar in the Mission. Their backyard patio is great for a smoky evening or sunny day-drinking. The bartenders are nice, friendly and welcoming. The bar itself offers a good selection of beer, but what sets them apart is their delicious appetizers/ bar snacks - its great if you're a vegan/veggie - but if not, the food is just as delicious. 
p254
sVauthor_name
p255
VGentry Brown
p256
sVauthor_url
p257
Vhttps://plus.google.com/111614625950865506797
p258
sVtime
p259
I1412795825
sasVformatted_phone_number
p260
V(415) 824-1800
p261
sVaddress_components
p262
(lp263
(dp264
Vlong_name
p265
V806
p266
sVtypes
p267
(lp268
Vstreet_number
p269
asVshort_name
p270
V806
p271
sa(dp272
Vlong_name
p273
VSouth Van Ness Avenue
p274
sVtypes
p275
(lp276
Vroute
p277
asVshort_name
p278
VS Van Ness Ave
p279
sa(dp280
Vlong_name
p281
VSan Francisco
p282
sVtypes
p283
(lp284
Vlocality
p285
aVpolitical
p286
asVshort_name
p287
VSF
p288
sa(dp289
Vlong_name
p290
VCalifornia
p291
sVtypes
p292
(lp293
Vadministrative_area_level_1
p294
aVpolitical
p295
asVshort_name
p296
VCA
p297
sa(dp298
Vlong_name
p299
VUnited States
p300
sVtypes
p301
(lp302
Vcountry
p303
aVpolitical
p304
asVshort_name
p305
VUS
p306
sa(dp307
Vlong_name
p308
V94110
p309
sVtypes
p310
(lp311
Vpostal_code
p312
asVshort_name
p313
V94110
p314
sas.