(dp1
Vrating
p2
cdecimal
Decimal
p3
(S'4.6'
tRp4
sVreference
p5
VCmRYAAAA5OwbGeu1ynC1RASHpj0XW_Fy4SbjL_BLNA0tbNMBik3UglJQsGvaM6LUSjonRiI8sFoXBtTHpkHBFZZQD9J0XeAufZa9CRmqlskazs7uN0Nw4VPlEtFoAcNg3Zp8QPmqEhBZRjlNCAt-tGUykC69N2kfGhRkkR6mOnApF6TrIjYGWX_kPWSymg
p6
sVplace_id
p7
VChIJSToWqn2AhYAR1CuH2iGMvuo
p8
sVurl
p9
Vhttps://maps.google.com/?cid=16915111327478262740
p10
sVformatted_address
p11
V22 Hawthorne St, San Francisco, CA 94105, United States
p12
sVid
p13
Ve36646184af40508e8c102ba1042c7861b52a3e7
p14
sVopening_hours
p15
(dp16
Vweekday_text
p17
(lp18
VMonday: Closed
p19
aVTuesday: 6:00 \u2013 9:00 PM
p20
aVWednesday: 6:00 \u2013 9:00 PM
p21
aVThursday: 6:00 \u2013 9:00 PM
p22
aVFriday: 6:00 \u2013 9:00 PM
p23
aVSaturday: 6:00 \u2013 9:00 PM
p24
aVSunday: Closed
p25
asVopen_now
p26
I00
sVperiods
p27
(lp28
(dp29
Vclose
p30
(dp31
Vday
p32
I2
sVtime
p33
V2100
p34
ssVopen
p35
(dp36
Vday
p37
I2
sVtime
p38
V1800
p39
ssa(dp40
Vclose
p41
(dp42
Vday
p43
I3
sVtime
p44
V2100
p45
ssVopen
p46
(dp47
Vday
p48
I3
sVtime
p49
V1800
p50
ssa(dp51
Vclose
p52
(dp53
Vday
p54
I4
sVtime
p55
V2100
p56
ssVopen
p57
(dp58
Vday
p59
I4
sVtime
p60
V1800
p61
ssa(dp62
Vclose
p63
(dp64
Vday
p65
I5
sVtime
p66
V2100
p67
ssVopen
p68
(dp69
Vday
p70
I5
sVtime
p71
V1800
p72
ssa(dp73
Vclose
p74
(dp75
Vday
p76
I6
sVtime
p77
V2100
p78
ssVopen
p79
(dp80
Vday
p81
I6
sVtime
p82
V1800
p83
ssassVvicinity
p84
V22 Hawthorne Street, San Francisco
p85
sVscope
p86
VGOOGLE
p87
sVwebsite
p88
Vhttp://www.benusf.com/
p89
sVutc_offset
p90
I-420
sVuser_ratings_total
p91
I81
sVphotos
p92
(lp93
(dp94
Vphoto_reference
p95
VCmRdAAAA7ow7HEKon-m_ob0s6fQ0lOvXs5y5chEAIo4p3BphrP0s0LVRrsFOdqg3O3rZcZsW2Sa7rKKjsnLETdb5g9OrX49KMih4GXAEatPUuvS2D2A4n6EDVJW0VLTZaP-OjMnWEhC0HjMSE9CInHgbGMHyufQRGhScGnLlpqCrxa1JIUk6fSHK-Cy3Ww
p96
sVwidth
p97
I750
sVhtml_attributions
p98
(lp99
V<a href="https://maps.google.com/maps/contrib/103565644244028407440/photos">World&#39;s Leading Restaurants</a>
p100
asVheight
p101
I750
sa(dp102
Vphoto_reference
p103
VCmRdAAAACIEJJXHiFJ3sW9f2Q1zNwKZUBQndaumUYv4jVaviIVDL3LurrqJaGpQIcXAOpQkVo93GodMg4IYPN0dMhQjp24ujY_b8-a1e7wHmHT1tHVOuM2EClCUTBUgLurj0VEz2EhBUiOWuS2oWsKu3Iew9g2elGhR_WTTFNRGsYGdAK4NnUfjYs298HQ
p104
sVwidth
p105
I960
sVhtml_attributions
p106
(lp107
V<a href="https://maps.google.com/maps/contrib/115076861954284504726/photos">Anton Volkov</a>
p108
asVheight
p109
I540
sa(dp110
Vphoto_reference
p111
VCmRdAAAAWvIUaksrwpcYMjCDsHyn3OqdzJq8cquXNJsUXFoJb69WABUn8jiHTQ7Qq4yPO_zE4p1fmz903xI4se5E1oETab0z6YtSN6tjCYID07PTYUpazBdqW9or2JkkXT8uKSJoEhAHBb1m15qJWnEkSkUhAWfrGhToHsns-K7mHG3Va3jHymRuu1QjuQ
p112
sVwidth
p113
I5312
sVhtml_attributions
p114
(lp115
V<a href="https://maps.google.com/maps/contrib/116289653129569088798/photos">Derek Chan</a>
p116
asVheight
p117
I2988
sa(dp118
Vphoto_reference
p119
VCmRdAAAA774keyfzR2YoQquf27v30RhkmLU_0nlgA8EZGe50rO5h57oHTGX0Fo0l1P4GOr2z7ZhZNsu0b-VGciTWG_RkOZyJxnm4YS2lE5ApZ5s2ou70lbcvq_LKAjXjqpv04YC9EhAnoAbmurRoO4WVWHyUtQR0GhQ6sMXy3cAxfzth2_yHXtOB7jXz2A
p120
sVwidth
p121
I960
sVhtml_attributions
p122
(lp123
V<a href="https://maps.google.com/maps/contrib/115076861954284504726/photos">Anton Volkov</a>
p124
asVheight
p125
I720
sa(dp126
Vphoto_reference
p127
VCmRdAAAAmn3zGK7Fdp2Q9fKFPWU6S_mpGWWOgjy4ZcdplGhnjjgZqC15MkQDapFWBxFhSWs_B4k_Ler1pFa5h4yx0w4RVQW7McCWXTcIZebOfHl6vreac-3CpISNc9kRWz2W6fPtEhAcN1xpXJ-2Re0kMqKb2Mm3GhRmXZEqcgd0M06N_uUU_0QdyKMJ8A
p128
sVwidth
p129
I900
sVhtml_attributions
p130
(lp131
V<a href="https://maps.google.com/maps/contrib/103565644244028407440/photos">World&#39;s Leading Restaurants</a>
p132
asVheight
p133
I630
sa(dp134
Vphoto_reference
p135
VCmRdAAAAxVUdwPQro3Y4wxEC-X_V5-Ys2dGMfGyD0U8Ym-ygnvNznea3YtYP9RrrfqVLh5fCplOH9huX_I0j9UtjiT2fpOoBWdW7eCbnSAN-c8b_2i3k0wOEuVfFTI_bcapcBxImEhAjVp9sRkVBmbvbul9rCZcrGhT665FH51vB8EsW57KQF_TUK1L5Cw
p136
sVwidth
p137
I5312
sVhtml_attributions
p138
(lp139
V<a href="https://maps.google.com/maps/contrib/109268929184492148787/photos">Erick Tseng</a>
p140
asVheight
p141
I2988
sa(dp142
Vphoto_reference
p143
VCmRdAAAAPHAcLgc94tMaCPYlWnx42ffCoVmP6dRRYmHfUNFFxf8ccmOYred-7IBNN_oVayPEhy0eFbQGotFC4-6v92yv328FFZ2e0YTNEOMf-CW6GQMdzdIUWYVqLuXV_mnJVI56EhATJVCjM-bzeE1kgKyXK3VzGhQmp3iKHh1jKKVYsDAIvOWZ_w5BwA
p144
sVwidth
p145
I4608
sVhtml_attributions
p146
(lp147
V<a href="https://maps.google.com/maps/contrib/108320224573839197933/photos">Randy F.</a>
p148
asVheight
p149
I3456
sa(dp150
Vphoto_reference
p151
VCmRdAAAAIerpXiO_HoMgYJ5HYvMUGKSsVhEdVPJ_g4bhJuLVVrgfIrWA3Erdh-PD7_eRoOiMnOCMbM0f04laPtgsFwaFio-boWq8DWknwC-KQeJjSSvyF2BwyMKMufsb0NrxpOJ_EhCevM2SXd_M2AjPcvsOuBjNGhQvFypOUjudJe0k3NBSqpj1amviIw
p152
sVwidth
p153
I500
sVhtml_attributions
p154
(lp155
V<a href="https://maps.google.com/maps/contrib/103565644244028407440/photos">World&#39;s Leading Restaurants</a>
p156
asVheight
p157
I556
sa(dp158
Vphoto_reference
p159
VCmRdAAAA1W-IeoBdxRwGCNMr07YWiKqsWYyEvJA1xZ4SpKTLmUzqjjB8WWjMoL8FQ4x3tf3aIGcRhuMBkl34HWUJS4gPSbRZT6pSuT2acA1k7uHUu9_sZiPRiKLR6fThDLPvI9yKEhAfvgeIxQ554IaQetQnET5BGhQJ7ZYjGIhfJVnzbQu9xv6EedGHmw
p160
sVwidth
p161
I5472
sVhtml_attributions
p162
(lp163
V<a href="https://maps.google.com/maps/contrib/104169834615322065620/photos">Felix Chu</a>
p164
asVheight
p165
I3648
sa(dp166
Vphoto_reference
p167
VCmRdAAAA9PI-2twZvdjDqOlCrjRZykd6_PGOq7FftXL19_C9CrVqtytooazuOfPg2pp8vxD6APJu-VRvkZeNn4peNiFdA5GdetMLXiTRG2w0KZeTkLVLFBcBEWs6_xke58rfemduEhC-Zz0f8r0Eue_NOhBsQRsnGhRTWYxlc3cytVLiyxwSvPxkhsEqdQ
p168
sVwidth
p169
I1600
sVhtml_attributions
p170
(lp171
V<a href="https://maps.google.com/maps/contrib/101840590148844309820/photos">Ping Chen</a>
p172
asVheight
p173
I1067
sasVtypes
p174
(lp175
Vrestaurant
p176
aVfood
p177
aVpoint_of_interest
p178
aVestablishment
p179
asVicon
p180
Vhttps://maps.gstatic.com/mapfiles/place_api/icons/restaurant-71.png
p181
sVname
p182
VBenu
p183
sVgeometry
p184
(dp185
Vaccess_points
p186
(lp187
(dp188
Vtravel_modes
p189
(lp190
VDRIVING
p191
aVBICYCLING
p192
aVWALKING
p193
aVTRANSIT
p194
asVlocation
p195
(dp196
Vlat
p197
g3
(S'37.7855376'
tRp198
sVlng
p199
g3
(S'-122.3989273'
tRp200
ssasVlocation
p201
(dp202
Vlat
p203
g3
(S'37.78545200000001'
tRp204
sVlng
p205
g3
(S'-122.399036'
tRp206
sssVadr_address
p207
V<span class="street-address">22 Hawthorne St</span>, <span class="locality">San Francisco</span>, <span class="region">CA</span> <span class="postal-code">94105</span>, <span class="country-name">United States</span>
p208
sVinternational_phone_number
p209
V+1 415-685-4860
p210
sVreviews
p211
(lp212
(dp213
Vrating
p214
I5
sVaspects
p215
(lp216
(dp217
Vrating
p218
I3
sVtype
p219
Voverall
p220
sasVprofile_photo_url
p221
V//lh5.googleusercontent.com/-y4wrVCKC15E/AAAAAAAAAAI/AAAAAAAAFuU/yuoFVJYYx0I/photo.jpg
p222
sVlanguage
p223
Ven
p224
sVtext
p225
VOne of my favorite restaurant experiences in SF!  The meal was great from start to end.   The black truffle butter was so rich and tasty.
p226
sVauthor_name
p227
VFelix Chu
p228
sVauthor_url
p229
Vhttps://plus.google.com/104169834615322065620
p230
sVtime
p231
I1455599774
sa(dp232
Vrating
p233
I5
sVaspects
p234
(lp235
(dp236
Vrating
p237
I3
sVtype
p238
Voverall
p239
sasVlanguage
p240
Ven
p241
sVtext
p242
VI took my girlfriend there last Valentine's day, the experience was heaven sent. The food simply blew us away.I'm for sure booking us a table for this February.
p243
sVauthor_name
p244
VKelvin Frelot
p245
sVauthor_url
p246
Vhttps://plus.google.com/112865249789358992309
p247
sVtime
p248
I1454310646
sa(dp249
Vrating
p250
I4
sVaspects
p251
(lp252
(dp253
Vrating
p254
I2
sVtype
p255
Voverall
p256
sasVprofile_photo_url
p257
V//lh3.googleusercontent.com/-ndQIGdi6Y0Q/AAAAAAAAAAI/AAAAAAAAQBE/bOLLumCbCA8/photo.jpg
p258
sVlanguage
p259
Ven
p260
sVtext
p261
VDelicious but a bit overrated, especially after they received their 3rd Michelin star
p262
sVauthor_name
p263
VErick Tseng
p264
sVauthor_url
p265
Vhttps://plus.google.com/109268929184492148787
p266
sVtime
p267
I1447727039
sa(dp268
Vrating
p269
I5
sVaspects
p270
(lp271
(dp272
Vrating
p273
I3
sVtype
p274
Voverall
p275
sasVprofile_photo_url
p276
V//lh5.googleusercontent.com/-EPnJr4Zw7aM/AAAAAAAAAAI/AAAAAAAAARM/_yzd-f0dAVA/photo.jpg
p277
sVlanguage
p278
Ven
p279
sVtext
p280
VBenu is a great experience for those who are familiar with Asian cuisine and culture. Corey Lee takes the the familiar ingredients and transformed them with French style cooking. The steamed bun with black truffle totally blew me away.
p281
sVauthor_name
p282
VHakuei Huang
p283
sVauthor_url
p284
Vhttps://plus.google.com/117732050632309424256
p285
sVtime
p286
I1433093827
sa(dp287
Vrating
p288
I3
sVaspects
p289
(lp290
(dp291
Vrating
p292
I1
sVtype
p293
Voverall
p294
sasVlanguage
p295
Ven
p296
sVtext
p297
VIt didn't live up to my expectation that I would have for a 3 michelin star / over $250 per person tasting menu. The food just felt like collage journey of Korean, Japanese, Chinese, and then French/American cuisine, rather than creative dishes with influences from these cuisines. Some of the seafood dishes that included uni tempura or a grilled fish tasted too fishy too. Maybe my expectation or standards are higher, coming from New York and having dined at multiple michelin restaurants. This is certainly a good restaurant with good food, nice venue, and great service. Just not worth the price or the rating. 
p298
sVauthor_name
p299
VYouri Chung
p300
sVauthor_url
p301
Vhttps://plus.google.com/103161303130137671349
p302
sVtime
p303
I1431366349
sasVformatted_phone_number
p304
V(415) 685-4860
p305
sVaddress_components
p306
(lp307
(dp308
Vlong_name
p309
V22
p310
sVtypes
p311
(lp312
Vstreet_number
p313
asVshort_name
p314
V22
p315
sa(dp316
Vlong_name
p317
VHawthorne Street
p318
sVtypes
p319
(lp320
Vroute
p321
asVshort_name
p322
VHawthorne St
p323
sa(dp324
Vlong_name
p325
VSan Francisco
p326
sVtypes
p327
(lp328
Vlocality
p329
aVpolitical
p330
asVshort_name
p331
VSF
p332
sa(dp333
Vlong_name
p334
VCalifornia
p335
sVtypes
p336
(lp337
Vadministrative_area_level_1
p338
aVpolitical
p339
asVshort_name
p340
VCA
p341
sa(dp342
Vlong_name
p343
VUnited States
p344
sVtypes
p345
(lp346
Vcountry
p347
aVpolitical
p348
asVshort_name
p349
VUS
p350
sa(dp351
Vlong_name
p352
V94105
p353
sVtypes
p354
(lp355
Vpostal_code
p356
asVshort_name
p357
V94105
p358
sas.