(dp1
Vrating
p2
cdecimal
Decimal
p3
(S'4.2'
tRp4
sVreference
p5
VCmRXAAAAyq_jkfGibp2T5LTzFoQW5POaaia02F0mEqr3LHqCzpaep632XO_O9Of-sdkpi3qBXhuRMSaf2ywYn8dlHVjzNCqcr_caOY57xIKA2DYeVPP7EVlWmvi5Hfv-q_JMIfv1EhDCVrCJZDuuo-P8IF_mMKxnGhSLf9BBCPpluysHBCLe0IJ3pmai0w
p6
sVprice_level
p7
I3
sVplace_id
p8
VChIJDZ0ZOPWAhYARkZFd-uCioMs
p9
sVurl
p10
Vhttps://maps.google.com/?cid=14672906673129886097
p11
sVformatted_address
p12
V56 Gold St, San Francisco, CA 94133, United States
p13
sVid
p14
V4f6526bc991f3013004dcffb384c5ffae02bb9bd
p15
sVopening_hours
p16
(dp17
Vweekday_text
p18
(lp19
VMonday: 5:00 \u2013 11:00 PM
p20
aVTuesday: 5:00 \u2013 11:00 PM
p21
aVWednesday: 5:00 \u2013 11:00 PM
p22
aVThursday: 5:00 \u2013 11:00 PM
p23
aVFriday: 12:00 \u2013 11:00 PM
p24
aVSaturday: 12:00 \u2013 11:00 PM
p25
aVSunday: 10:00 AM \u2013 11:00 PM
p26
asVopen_now
p27
I00
sVperiods
p28
(lp29
(dp30
Vclose
p31
(dp32
Vday
p33
I0
sVtime
p34
V2300
p35
ssVopen
p36
(dp37
Vday
p38
I0
sVtime
p39
V1000
p40
ssa(dp41
Vclose
p42
(dp43
Vday
p44
I1
sVtime
p45
V2300
p46
ssVopen
p47
(dp48
Vday
p49
I1
sVtime
p50
V1700
p51
ssa(dp52
Vclose
p53
(dp54
Vday
p55
I2
sVtime
p56
V2300
p57
ssVopen
p58
(dp59
Vday
p60
I2
sVtime
p61
V1700
p62
ssa(dp63
Vclose
p64
(dp65
Vday
p66
I3
sVtime
p67
V2300
p68
ssVopen
p69
(dp70
Vday
p71
I3
sVtime
p72
V1700
p73
ssa(dp74
Vclose
p75
(dp76
Vday
p77
I4
sVtime
p78
V2300
p79
ssVopen
p80
(dp81
Vday
p82
I4
sVtime
p83
V1700
p84
ssa(dp85
Vclose
p86
(dp87
Vday
p88
I5
sVtime
p89
V2300
p90
ssVopen
p91
(dp92
Vday
p93
I5
sVtime
p94
V1200
p95
ssa(dp96
Vclose
p97
(dp98
Vday
p99
I6
sVtime
p100
V2300
p101
ssVopen
p102
(dp103
Vday
p104
I6
sVtime
p105
V1200
p106
ssassVvicinity
p107
V56 Gold Street, San Francisco
p108
sVscope
p109
VGOOGLE
p110
sVwebsite
p111
Vhttp://www.bixrestaurant.com/
p112
sVutc_offset
p113
I-420
sVuser_ratings_total
p114
I139
sVphotos
p115
(lp116
(dp117
Vphoto_reference
p118
VCoQBdwAAACqtMZp0-1Lpo0uE1z_mCdPqZQVN25obBt5mP22wcquuzjcpDEocfSwAKAuGeksHnXBFvqptXrR3JFghlqgNpPHOIoGLrUdiEw83mN5j64DaodA5oampRb9wq1PPeOF4nxemmfj_k1RCsTQKZAGC8W4StrpqfOtec5tHipOLXu3QEhDfMIqNgJE4EKL3rvw8w6wZGhRdD5c2IPJWLHr6c7fRMp2kAUhECg
p119
sVwidth
p120
I5312
sVhtml_attributions
p121
(lp122
V<a href="https://maps.google.com/maps/contrib/100802071901693467936/photos">Eman Eng</a>
p123
asVheight
p124
I2988
sa(dp125
Vphoto_reference
p126
VCmRdAAAA06VaZODwQiqDSh6m9AjQNTrkCH7J0lDIEtYGdZ4aWEDAjPM-DFdogRO61pZ4L0Ytx752NFaNVxlVsNRVSsK0BvE5JBEP4NylQF46bysQqakx1urRe2KUodBH44HOkfN9EhDYSnmvht4xXNu5EOl_Ewq8GhRFdxWgN8fqX4c2pFB6dR75chmUsw
p127
sVwidth
p128
I580
sVhtml_attributions
p129
(lp130
V<a href="https://maps.google.com/maps/contrib/105944764777575738185/photos">Bix</a>
p131
asVheight
p132
I340
sa(dp133
Vphoto_reference
p134
VCmRdAAAASFFp7c1VBUj5WHZl4nIkwYSHD9v-OzLjWXEgUr566S7ug71dlsSL-Axdi6axN9-CEDjnNZBWYFiPyAh2gBTbtMiIiPLOFdan-CEsLSTBXLSny88pPzNGbSQp4YniMIWZEhAJK7h3jhrSBO2h2s4thICSGhQLz8PBcrvJUNzm8IPgU-8eC3AKAw
p135
sVwidth
p136
I3264
sVhtml_attributions
p137
(lp138
V<a href="https://maps.google.com/maps/contrib/111717262311636103965/photos">John Gelb</a>
p139
asVheight
p140
I2448
sa(dp141
Vphoto_reference
p142
VCmRdAAAALa18BYLexsTGT8IovZyJlO3XacrhSyzPt2w4wM47T-MTxOGrdk9OUjPXZlz-hYrx526ndRcDuExT-XxjD663y8pkpRXciliOK3cgKR5sHl3LhXU1stGN2eNWD9LJtNxGEhCbaGzUX2pYh4Djf1lJnXaEGhRLSnA_nqAoVEs-OySdi3BkV0u2eQ
p143
sVwidth
p144
I580
sVhtml_attributions
p145
(lp146
V<a href="https://maps.google.com/maps/contrib/105944764777575738185/photos">Bix</a>
p147
asVheight
p148
I340
sa(dp149
Vphoto_reference
p150
VCmRdAAAAJU4Lrcdosd3hOHC5Is-BPJcEz3qMey8At-Oa9IEC1emdmgEQWMMnQCtbu7OeMjdqfrNdHWXYWk6APscR6ktZdWH4lSVWJiqe8UwAqUmSZV8el1ACJQUKsOyEkaKxDGTmEhCVFu5jv9hZU0_WP4GXv2e1GhS_4ul2i_6N_6o0PPKQ9dC4dgaRBQ
p151
sVwidth
p152
I3264
sVhtml_attributions
p153
(lp154
V<a href="https://maps.google.com/maps/contrib/112511741853540878134/photos">Yue Weng Mak</a>
p155
asVheight
p156
I2448
sa(dp157
Vphoto_reference
p158
VCoQBdwAAAPfzh6dzPyEgU3-QjXiKt2MrokyShSZ3mr70T1tW3KOP4gXuf-KwuS4ceXbsJY3FSYbSH6DEWEkTKyyuzkF4tEltuRsuesGuAU1wi84vRLc142MexMS_9flvSXuGM8a8QFKi5elRm_0cP6e1ob6HF1q-LL26TBFmBT9pghwP6omWEhC6vSKxVU5a09dppn7fDUY5GhQvSy9hjA3EIhADk2Y_pDUJ8Nbp8g
p159
sVwidth
p160
I2988
sVhtml_attributions
p161
(lp162
V<a href="https://maps.google.com/maps/contrib/100802071901693467936/photos">Eman Eng</a>
p163
asVheight
p164
I5312
sa(dp165
Vphoto_reference
p166
VCmRdAAAAWexLRqKZeKOdHgFFtpPyuaOLoIfcSCAZZqIhGUJEOu93Ytq9h3idi0k8bT_WDaGfYswGSUy_t_rotGMF5PtCfJ6sD-KxYZLGx1zTgU_AQISSgTHSdYnZTIUNQA5iK7syEhBFJdh1du260iCvUDb0ABDBGhQEdqH2Z8Vf_nLDsnCHQ7qIvrIenA
p167
sVwidth
p168
I580
sVhtml_attributions
p169
(lp170
V<a href="https://maps.google.com/maps/contrib/105944764777575738185/photos">Bix</a>
p171
asVheight
p172
I340
sa(dp173
Vphoto_reference
p174
VCmRdAAAAUcLL8-qwJVwtzYKoB9l5nljY4pExav_2l8-gl0cKQ9XMbyo0I8UlPSO1fitsM2j2ISQqzf1P-C0kcahCnm8tg-VNlH3Lg-iCTTx5krKAu-20Pr-w7HODkQCy07y_shwvEhBPOXCxOZOj_b4WleSMkjEeGhTp4xbtv1Y9K2OX49XCGDZLwwafCQ
p175
sVwidth
p176
I3264
sVhtml_attributions
p177
(lp178
V<a href="https://maps.google.com/maps/contrib/112511741853540878134/photos">Yue Weng Mak</a>
p179
asVheight
p180
I2448
sa(dp181
Vphoto_reference
p182
VCmRdAAAAaTp5xGK8et_AFMCy1nseEPBrpwVzTSnWb6A61DWzqsuLwBzQmhfZJRlem3SP8jsV1uogt2GpHzLQWxES30rM1g0x5uKRBzMkVfxxQc7gBZH-1xY1-S7zG2-LmP_irjKOEhAl1_dZ1d26hISrX7jWI92DGhRUgwGz0TLLhbuqsMg7wtwILQNU3A
p183
sVwidth
p184
I580
sVhtml_attributions
p185
(lp186
V<a href="https://maps.google.com/maps/contrib/105944764777575738185/photos">Bix</a>
p187
asVheight
p188
I340
sa(dp189
Vphoto_reference
p190
VCmRdAAAAO7xdYBtGi6MjVilJ4E8mYlhvxDXwPvau2nVA9sIzBMxhJtaJ6sR86HyR1zTmwYQzX0MsbD7BScu8IJndIYAqcXGdFpKcXl_Nx-MiUREQmaEwmc6Bv033Z3A5RtrwaOR4EhB1E60rrRtkvjegORHSS3u1GhSQ191EpuM_IdQc87vE77ZFQcvxxQ
p191
sVwidth
p192
I384
sVhtml_attributions
p193
(lp194
V<a href="https://maps.google.com/maps/contrib/105944764777575738185/photos">Bix</a>
p195
asVheight
p196
I384
sasVtypes
p197
(lp198
Vnight_club
p199
aVbar
p200
aVrestaurant
p201
aVfood
p202
aVpoint_of_interest
p203
aVestablishment
p204
asVicon
p205
Vhttps://maps.gstatic.com/mapfiles/place_api/icons/restaurant-71.png
p206
sVname
p207
VBix
p208
sVgeometry
p209
(dp210
Vaccess_points
p211
(lp212
(dp213
Vtravel_modes
p214
(lp215
VDRIVING
p216
aVBICYCLING
p217
aVWALKING
p218
aVTRANSIT
p219
asVlocation
p220
(dp221
Vlat
p222
g3
(S'37.7967745'
tRp223
sVlng
p224
g3
(S'-122.4029065'
tRp225
ssasVlocation
p226
(dp227
Vlat
p228
g3
(S'37.79687120000001'
tRp229
sVlng
p230
g3
(S'-122.4029298'
tRp231
sssVadr_address
p232
V<span class="street-address">56 Gold St</span>, <span class="locality">San Francisco</span>, <span class="region">CA</span> <span class="postal-code">94133</span>, <span class="country-name">United States</span>
p233
sVinternational_phone_number
p234
V+1 415-433-6300
p235
sVreviews
p236
(lp237
(dp238
Vrating
p239
I4
sVaspects
p240
(lp241
(dp242
Vrating
p243
I2
sVtype
p244
Voverall
p245
sasVprofile_photo_url
p246
V//lh4.googleusercontent.com/-uCxhcg4TYAM/AAAAAAAAAAI/AAAAAAABE2Q/CfXbrFaH19U/photo.jpg
p247
sVlanguage
p248
Ven
p249
sVtext
p250
VIf you want old-timey, look no further. My personal favorite is chicken hash with a dirty martini, but people love everything from the burger to the summer tomato cart to the tartare. All superb.
p251
sVauthor_name
p252
VPei-Hsuen Liao
p253
sVauthor_url
p254
Vhttps://plus.google.com/117761372912076113101
p255
sVtime
p256
I1459369495
sa(dp257
Vrating
p258
I2
sVaspects
p259
(lp260
(dp261
Vrating
p262
I0
sVtype
p263
Voverall
p264
sasVprofile_photo_url
p265
V//lh5.googleusercontent.com/-f7s3O26LDQE/AAAAAAAAAAI/AAAAAAAABo0/pKz9t9lbXiE/photo.jpg
p266
sVlanguage
p267
Ven
p268
sVtext
p269
VBy far the rudest service I've had in San Francisco. The maitre d' treated my friance and me with the utmost disrespect I've ever received in the service industry. He made us feel uncomfortable and as if we weren't good enough to be at this establishment, even though we were both dressed up and polite to him. What made it worse was how is attitude completely changed when my fiance's mother walked in (obviously the one paying) and all of the sudden this man acted like he had a heart of gold. I WILL NEVER GO BACK UNTIL I KNOW THIS GUY HAS BEEN FIRED.\u000a\u000aAlso - the food was alright, a bit over hyped,
p270
sVauthor_name
p271
VBrian Parsons
p272
sVauthor_url
p273
Vhttps://plus.google.com/105053296602903704358
p274
sVtime
p275
I1450201712
sa(dp276
Vrating
p277
I5
sVaspects
p278
(lp279
(dp280
Vrating
p281
I3
sVtype
p282
Voverall
p283
sasVprofile_photo_url
p284
V//lh3.googleusercontent.com/-_N28Xa9uiMs/AAAAAAAAAAI/AAAAAAAADoQ/1nr4k_Uhjmo/photo.jpg
p285
sVlanguage
p286
Ven
p287
sVtext
p288
VGreat atmosphere!  The live jazz is a real treat! The food was delicious and so were the drinks.
p289
sVauthor_name
p290
Vjoseph franco
p291
sVauthor_url
p292
Vhttps://plus.google.com/100223476919397213975
p293
sVtime
p294
I1457514656
sa(dp295
Vrating
p296
I5
sVaspects
p297
(lp298
(dp299
Vrating
p300
I3
sVtype
p301
Voverall
p302
sasVprofile_photo_url
p303
V//lh6.googleusercontent.com/-Eu8BEoaNsQw/AAAAAAAAAAI/AAAAAAAAABw/OXfxTgzfNec/photo.jpg
p304
sVlanguage
p305
Ven
p306
sVtext
p307
VOMG! The truffled cheeseburger! The chicken hash! The Bloody Marys! No NOT miss this restaurant! There's a reason people come from all over the world to dine here. - Ann Seymour 
p308
sVauthor_name
p309
VAnn Seymour
p310
sVauthor_url
p311
Vhttps://plus.google.com/106338793526280568952
p312
sVtime
p313
I1452826898
sa(dp314
Vrating
p315
I3
sVaspects
p316
(lp317
(dp318
Vrating
p319
I1
sVtype
p320
Voverall
p321
sasVlanguage
p322
Ven
p323
sVtext
p324
VEnded up there after googling Jazz in SF. Chose this one after seeing steak tartare on the menu. Well... Go for the food forget about the Jazz. The place is way too loud... Couldn't hear the music at all... Wondering why they would pay somebody to play piano. You will be in the financial district with a lot of after work regulars, with a hint of snobbism. The food, yes, really good. They nail the steak tartare and they know what a black and blue steak means. Awesome food on the edge of too pricy.
p325
sVauthor_name
p326
VGregoire Laverdiere
p327
sVauthor_url
p328
Vhttps://plus.google.com/111936226619510016821
p329
sVtime
p330
I1441475370
sasVformatted_phone_number
p331
V(415) 433-6300
p332
sVaddress_components
p333
(lp334
(dp335
Vlong_name
p336
V56
p337
sVtypes
p338
(lp339
Vstreet_number
p340
asVshort_name
p341
V56
p342
sa(dp343
Vlong_name
p344
VGold Street
p345
sVtypes
p346
(lp347
Vroute
p348
asVshort_name
p349
VGold St
p350
sa(dp351
Vlong_name
p352
VSan Francisco
p353
sVtypes
p354
(lp355
Vlocality
p356
aVpolitical
p357
asVshort_name
p358
VSF
p359
sa(dp360
Vlong_name
p361
VCalifornia
p362
sVtypes
p363
(lp364
Vadministrative_area_level_1
p365
aVpolitical
p366
asVshort_name
p367
VCA
p368
sa(dp369
Vlong_name
p370
VUnited States
p371
sVtypes
p372
(lp373
Vcountry
p374
aVpolitical
p375
asVshort_name
p376
VUS
p377
sa(dp378
Vlong_name
p379
V94133
p380
sVtypes
p381
(lp382
Vpostal_code
p383
asVshort_name
p384
V94133
p385
sas.