(dp1
Vrating
p2
cdecimal
Decimal
p3
(S'4.6'
tRp4
sVreference
p5
VCnRmAAAAb4QpyFO-Z5sKtI0_5gR70xM6zui2woYj2e3vf1hXPjE3Ip80NowhO-r7gwhbNLpo0P0mNY5QdFM44dlWnUjuNv-uJyPnzG3nNn9hnUjCF0KlLx2SmpD9RVu2tKGw0ywGNCA0tw83i_YCr5cidlfFjhIQ36Ol0mttwhLYNF_eBjW38RoUu0oy1VRsjXvhhap_eMqUshS-Ie0
p6
sVprice_level
p7
I1
sVplace_id
p8
VChIJSy28upiAhYARkoxpzFnW7b4
p9
sVurl
p10
Vhttps://maps.google.com/?cid=13757888117856636050
p11
sVformatted_address
p12
V315 Linden St, San Francisco, CA 94102, United States
p13
sVid
p14
Vd0da5c51056b8ff18a97003d7e457f7d83727456
p15
sVopening_hours
p16
(dp17
Vweekday_text
p18
(lp19
VMonday: 7:00 AM \u2013 6:00 PM
p20
aVTuesday: 7:00 AM \u2013 6:00 PM
p21
aVWednesday: 7:00 AM \u2013 6:00 PM
p22
aVThursday: 7:00 AM \u2013 6:00 PM
p23
aVFriday: 7:00 AM \u2013 6:00 PM
p24
aVSaturday: 7:00 AM \u2013 6:00 PM
p25
aVSunday: 8:00 AM \u2013 6:00 PM
p26
asVopen_now
p27
I01
sVperiods
p28
(lp29
(dp30
Vclose
p31
(dp32
Vday
p33
I0
sVtime
p34
V1800
p35
ssVopen
p36
(dp37
Vday
p38
I0
sVtime
p39
V0800
p40
ssa(dp41
Vclose
p42
(dp43
Vday
p44
I1
sVtime
p45
V1800
p46
ssVopen
p47
(dp48
Vday
p49
I1
sVtime
p50
V0700
p51
ssa(dp52
Vclose
p53
(dp54
Vday
p55
I2
sVtime
p56
V1800
p57
ssVopen
p58
(dp59
Vday
p60
I2
sVtime
p61
V0700
p62
ssa(dp63
Vclose
p64
(dp65
Vday
p66
I3
sVtime
p67
V1800
p68
ssVopen
p69
(dp70
Vday
p71
I3
sVtime
p72
V0700
p73
ssa(dp74
Vclose
p75
(dp76
Vday
p77
I4
sVtime
p78
V1800
p79
ssVopen
p80
(dp81
Vday
p82
I4
sVtime
p83
V0700
p84
ssa(dp85
Vclose
p86
(dp87
Vday
p88
I5
sVtime
p89
V1800
p90
ssVopen
p91
(dp92
Vday
p93
I5
sVtime
p94
V0700
p95
ssa(dp96
Vclose
p97
(dp98
Vday
p99
I6
sVtime
p100
V1800
p101
ssVopen
p102
(dp103
Vday
p104
I6
sVtime
p105
V0700
p106
ssassVvicinity
p107
V315 Linden Street, San Francisco
p108
sVscope
p109
VGOOGLE
p110
sVwebsite
p111
Vhttps://bluebottlecoffee.com/cafes/kiosk
p112
sVutc_offset
p113
I-420
sVuser_ratings_total
p114
I378
sVphotos
p115
(lp116
(dp117
Vphoto_reference
p118
VCoQBdwAAAPPNkcnhh9S7abKskLGEP_eJ8sQRhjoHfeprF8n4Mrjj7zZj5YrOYCih0HZAuSqZOvyLwxnEqX91GD12yckH_YUXPaLFxn88lp1wnS-BYCOwoUY4ytCY2-8ThrsEEZPbygFm9foHV-OtD-YDQAhBcqPMi1aQXQxrw4OtBZhzYvmLEhCOxnQnL5f5aGVNHQ14NsApGhSFe0N9Z6IfUmlwg1jYRRYsUQQn9Q
p119
sVwidth
p120
I2222
sVhtml_attributions
p121
(lp122
V<a href="https://maps.google.com/maps/contrib/111234177999678354684/photos">heinztools heinztools.com</a>
p123
asVheight
p124
I2222
sa(dp125
Vphoto_reference
p126
VCmRdAAAAPalq_k_RTbRJBJKTNLy7vl8XYKf0aufK-Bls472DrdUj0zoeoaOo5PH6mISJNJlN5ALnXoQOy7rSH7kPg4DlD3IcbTOKrAtj5mDCvdAl3RKTkIi-8K4ZGCDUU1cwikuTEhDPoBEcXjvDPGCyQOC-_lWOGhT2FPOdTb6CFaJPEB-i-Q3HcXxEYA
p127
sVwidth
p128
I2048
sVhtml_attributions
p129
(lp130
V<a href="https://maps.google.com/maps/contrib/104111246635874032234/photos">ZAGAT</a>
p131
asVheight
p132
I1654
sa(dp133
Vphoto_reference
p134
VCmRdAAAAhFDzxYC4CckwwCRRo7BFUrW7HYlvsqGsrbp9eq5rY-Ek1E2oJ-tJtrJhc1hom-YiUljPaCPXCG9fovq65lgg8_z7jli-yHAN7EQUYLCuPxKvGBegJCMTCf3IbhTsXZfMEhDsoG9doLp4B-TFlLoUR3qCGhQQ_BpAV0yiqeQZwl2nlXgGukEi7Q
p135
sVwidth
p136
I1152
sVhtml_attributions
p137
(lp138
V<a href="https://maps.google.com/maps/contrib/108974765489459336063/photos">Michelle Rowe</a>
p139
asVheight
p140
I2048
sa(dp141
Vphoto_reference
p142
VCoQBdwAAABMmtIlani32nzUvMyrcmpp04V17y6ohFosu-JkgbZOZtsv_oAMamR5_pXh4DrAd1aHWTjMvvinc7gikocRIgffRfqP1KjtAnj01U2uNdVeCBrm-lFoibD0Ejg5rJlo1Grkz6Osz5IT_IoMYnsQtsOB_CFK3W-1eUaKKp-00AyezEhA7_2MuAZcMXSUmAI3-Iy7wGhTMk2BOhGe-LELUpHmep3CipDJo1w
p143
sVwidth
p144
I1693
sVhtml_attributions
p145
(lp146
V<a href="https://maps.google.com/maps/contrib/111234177999678354684/photos">heinztools heinztools.com</a>
p147
asVheight
p148
I1693
sa(dp149
Vphoto_reference
p150
VCmRdAAAAmVchu1t4b_zhtmWbHi9Z5sBvUzpySnUs59i2GWCCgoZ65bRdrYOutwtUXhbclDjmS4K6lIoajHnMbAexRy0uJTBPQxGYJl3MygUewcfpvCMgdxF1RLsMC1VqgQqu4uDnEhB94-L2Y3kBUglISs0EkzB0GhQIBYpI3DmMfkBcQCqU0mslKRuSGw
p151
sVwidth
p152
I1280
sVhtml_attributions
p153
(lp154
V<a href="https://maps.google.com/maps/contrib/102690091571148307715/photos">Amy Meyer</a>
p155
asVheight
p156
I720
sa(dp157
Vphoto_reference
p158
VCmRdAAAAw8p6yay6Z5thGPyDC15SkS_DycypsaXHJ9NPP-eMe2nYOohuDThWyx7_PgvMKCOIQyOt4eh-o7tqzFjVgvg9QCrbMW5mOpznk3kzo85TsPijpdh4X3YwW2C4d9uK3Z5oEhBPw9S0j1Nvrd84k6XyjZlvGhRTAGZrNEZrKLWzKSiBHr0wj0DLnw
p159
sVwidth
p160
I1152
sVhtml_attributions
p161
(lp162
V<a href="https://maps.google.com/maps/contrib/108974765489459336063/photos">Michelle Rowe</a>
p163
asVheight
p164
I2048
sasVtypes
p165
(lp166
Vcafe
p167
aVfood
p168
aVstore
p169
aVpoint_of_interest
p170
aVestablishment
p171
asVicon
p172
Vhttps://maps.gstatic.com/mapfiles/place_api/icons/cafe-71.png
p173
sVname
p174
VBlue Bottle Coffee
p175
sVgeometry
p176
(dp177
Vaccess_points
p178
(lp179
(dp180
Vtravel_modes
p181
(lp182
VDRIVING
p183
aVBICYCLING
p184
aVWALKING
p185
aVTRANSIT
p186
asVlocation
p187
(dp188
Vlat
p189
g3
(S'37.7763723'
tRp190
sVlng
p191
g3
(S'-122.4233512'
tRp192
ssasVlocation
p193
(dp194
Vlat
p195
g3
(S'37.776196'
tRp196
sVlng
p197
g3
(S'-122.423316'
tRp198
sssVadr_address
p199
V<span class="street-address">315 Linden St</span>, <span class="locality">San Francisco</span>, <span class="region">CA</span> <span class="postal-code">94102-5109</span>, <span class="country-name">United States</span>
p200
sVinternational_phone_number
p201
V+1 510-653-3394
p202
sVreviews
p203
(lp204
(dp205
Vrating
p206
I5
sVaspects
p207
(lp208
(dp209
Vrating
p210
I3
sVtype
p211
Voverall
p212
sasVprofile_photo_url
p213
V//lh3.googleusercontent.com/-PC97oPpT_Lw/AAAAAAAAAAI/AAAAAAACUP4/k3-tM8XfI8Q/photo.jpg
p214
sVlanguage
p215
Ven
p216
sVtext
p217
VOne of the establishments that made me wanna move to SF.. And so i did... First love of coffee and i'm still very fond of there products so manny years later. \u000a\u000aGive them a try! it will wake you up!!
p218
sVauthor_name
p219
VAndy vague
p220
sVauthor_url
p221
Vhttps://plus.google.com/107117644338920440081
p222
sVtime
p223
I1448044997
sa(dp224
Vrating
p225
I4
sVaspects
p226
(lp227
(dp228
Vrating
p229
I2
sVtype
p230
Voverall
p231
sasVprofile_photo_url
p232
V//lh5.googleusercontent.com/-oYgKCe-RZgk/AAAAAAAAAAI/AAAAAAAANTs/mEMLX9xiBtU/photo.jpg
p233
sVlanguage
p234
Ven
p235
sVtext
p236
VThe most unassuming coffee shop that I've ever been to. You will most definitely miss it if you dont' look for it. Got a standard latte and I have to say, its probably the best coffee I've had in San Francisco. Would've rated it 5 stars if not for the lack of a proper stirring station. A bigger seating area would also be definitely welcome.
p237
sVauthor_name
p238
VGanesh Kumar
p239
sVauthor_url
p240
Vhttps://plus.google.com/110393889790962130246
p241
sVtime
p242
I1440381804
sa(dp243
Vrating
p244
I4
sVaspects
p245
(lp246
(dp247
Vrating
p248
I2
sVtype
p249
Voverall
p250
sasVprofile_photo_url
p251
V//lh5.googleusercontent.com/-hc_h42DO-YU/AAAAAAAAAAI/AAAAAAAAGH4/rHFsDv6ou-Y/photo.jpg
p252
sVlanguage
p253
Ven
p254
sVtext
p255
VThis is one of the first store fronts for Blue Bottle and you would think that there could be a lot of attitude but I find the baristas there to be very workmanlike and down to earth. Their consistency is excellent and I also like that they don't make their espresso drinks too hot.
p256
sVauthor_name
p257
VJim Oakley
p258
sVauthor_url
p259
Vhttps://plus.google.com/109902966496053707958
p260
sVtime
p261
I1447827926
sa(dp262
Vrating
p263
I5
sVaspects
p264
(lp265
(dp266
Vrating
p267
I3
sVtype
p268
Voverall
p269
sasVprofile_photo_url
p270
V//lh6.googleusercontent.com/-wC8mTd8UGlk/AAAAAAAAAAI/AAAAAAAAWnc/OkMPPj-4L8w/photo.jpg
p271
sVlanguage
p272
Ven
p273
sVtext
p274
VFantastic coffee. The cappuccino is smooth and delicious.
p275
sVauthor_name
p276
VPatrick Au-Yeung
p277
sVauthor_url
p278
Vhttps://plus.google.com/101402164093437530516
p279
sVtime
p280
I1453683432
sa(dp281
Vrating
p282
I5
sVaspects
p283
(lp284
(dp285
Vrating
p286
I3
sVtype
p287
Voverall
p288
sasVprofile_photo_url
p289
V//lh3.googleusercontent.com/-A8Scn4Xv4SY/AAAAAAAAAAI/AAAAAAAAXW0/ciK-nXc_d-k/photo.jpg
p290
sVlanguage
p291
Ven
p292
sVtext
p293
VVery nice hole-in-the-wall style shop. The New Orleans coffee is delicious, would recommend!
p294
sVauthor_name
p295
VJonathan Warner
p296
sVauthor_url
p297
Vhttps://plus.google.com/100737671703797017594
p298
sVtime
p299
I1447380714
sasVformatted_phone_number
p300
V(510) 653-3394
p301
sVaddress_components
p302
(lp303
(dp304
Vlong_name
p305
V315
p306
sVtypes
p307
(lp308
Vstreet_number
p309
asVshort_name
p310
V315
p311
sa(dp312
Vlong_name
p313
VLinden Street
p314
sVtypes
p315
(lp316
Vroute
p317
asVshort_name
p318
VLinden St
p319
sa(dp320
Vlong_name
p321
VSan Francisco
p322
sVtypes
p323
(lp324
Vlocality
p325
aVpolitical
p326
asVshort_name
p327
VSF
p328
sa(dp329
Vlong_name
p330
VCalifornia
p331
sVtypes
p332
(lp333
Vadministrative_area_level_1
p334
aVpolitical
p335
asVshort_name
p336
VCA
p337
sa(dp338
Vlong_name
p339
VUnited States
p340
sVtypes
p341
(lp342
Vcountry
p343
aVpolitical
p344
asVshort_name
p345
VUS
p346
sa(dp347
Vlong_name
p348
V94102
p349
sVtypes
p350
(lp351
Vpostal_code
p352
asVshort_name
p353
V94102
p354
sa(dp355
Vlong_name
p356
V5109
p357
sVtypes
p358
(lp359
Vpostal_code_suffix
p360
asVshort_name
p361
V5109
p362
sas.