(dp1
Vrating
p2
cdecimal
Decimal
p3
(S'4.3'
tRp4
sVreference
p5
VCmRcAAAAK0ADmK1Llp4r0kzpiAoEK-JhJ0SRae8aSNMCorwYfXea3AUmUL3wFuNCOOCY7OULGCA9pllbBx--_pKJf2Mc_a4ndK8Xuk2x_lydAGHgP3B_pqe9N3zO69RPfs83OxnyEhDBJubzip5RDoKs725TEqilGhQrsZ8ryLQPDNA4fw3NWNJ_aiaVng
p6
sVplace_id
p7
VChIJF-zbSmSAhYARvOafjdCRszQ
p8
sVurl
p9
Vhttps://maps.google.com/?cid=3797539235718751932
p10
sVformatted_address
p11
V1 Mission St, San Francisco, CA 94105, United States
p12
sVid
p13
V42c50973585935549eeb897ba49ad83a51be642c
p14
sVopening_hours
p15
(dp16
Vweekday_text
p17
(lp18
VMonday: 11:30 AM \u2013 2:15 PM, 5:30 \u2013 10:00 PM
p19
aVTuesday: 11:30 AM \u2013 2:15 PM, 5:30 \u2013 10:00 PM
p20
aVWednesday: 11:30 AM \u2013 2:15 PM, 5:30 \u2013 10:00 PM
p21
aVThursday: 11:30 AM \u2013 2:15 PM, 5:30 \u2013 10:00 PM
p22
aVFriday: 11:30 AM \u2013 2:15 PM, 5:30 \u2013 10:30 PM
p23
aVSaturday: 5:30 \u2013 10:30 PM
p24
aVSunday: 5:30 \u2013 10:00 PM
p25
asVopen_now
p26
I00
sVperiods
p27
(lp28
(dp29
Vclose
p30
(dp31
Vday
p32
I0
sVtime
p33
V2200
p34
ssVopen
p35
(dp36
Vday
p37
I0
sVtime
p38
V1730
p39
ssa(dp40
Vclose
p41
(dp42
Vday
p43
I1
sVtime
p44
V1415
p45
ssVopen
p46
(dp47
Vday
p48
I1
sVtime
p49
V1130
p50
ssa(dp51
Vclose
p52
(dp53
Vday
p54
I1
sVtime
p55
V2200
p56
ssVopen
p57
(dp58
Vday
p59
I1
sVtime
p60
V1730
p61
ssa(dp62
Vclose
p63
(dp64
Vday
p65
I2
sVtime
p66
V1415
p67
ssVopen
p68
(dp69
Vday
p70
I2
sVtime
p71
V1130
p72
ssa(dp73
Vclose
p74
(dp75
Vday
p76
I2
sVtime
p77
V2200
p78
ssVopen
p79
(dp80
Vday
p81
I2
sVtime
p82
V1730
p83
ssa(dp84
Vclose
p85
(dp86
Vday
p87
I3
sVtime
p88
V1415
p89
ssVopen
p90
(dp91
Vday
p92
I3
sVtime
p93
V1130
p94
ssa(dp95
Vclose
p96
(dp97
Vday
p98
I3
sVtime
p99
V2200
p100
ssVopen
p101
(dp102
Vday
p103
I3
sVtime
p104
V1730
p105
ssa(dp106
Vclose
p107
(dp108
Vday
p109
I4
sVtime
p110
V1415
p111
ssVopen
p112
(dp113
Vday
p114
I4
sVtime
p115
V1130
p116
ssa(dp117
Vclose
p118
(dp119
Vday
p120
I4
sVtime
p121
V2200
p122
ssVopen
p123
(dp124
Vday
p125
I4
sVtime
p126
V1730
p127
ssa(dp128
Vclose
p129
(dp130
Vday
p131
I5
sVtime
p132
V1415
p133
ssVopen
p134
(dp135
Vday
p136
I5
sVtime
p137
V1130
p138
ssa(dp139
Vclose
p140
(dp141
Vday
p142
I5
sVtime
p143
V2230
p144
ssVopen
p145
(dp146
Vday
p147
I5
sVtime
p148
V1730
p149
ssa(dp150
Vclose
p151
(dp152
Vday
p153
I6
sVtime
p154
V2230
p155
ssVopen
p156
(dp157
Vday
p158
I6
sVtime
p159
V1730
p160
ssassVvicinity
p161
V1 Mission Street, San Francisco
p162
sVscope
p163
VGOOGLE
p164
sVwebsite
p165
Vhttp://www.boulevardrestaurant.com/
p166
sVutc_offset
p167
I-420
sVuser_ratings_total
p168
I553
sVphotos
p169
(lp170
(dp171
Vphoto_reference
p172
VCmRdAAAAP55hP1rnLO6xyuc8IPBpBGd5_66RJt5Xvm2_0AzejuZVUTJt9LRjpa1_TtWDRPZ8FK_0Hz-_V4dNZfgkWZSC2Z49jwP58B0xh9nzX5Q8_oEnYNqhHdzIliHcuyBdF35nEhCVeb1L20CAKXDolQ_Bg38OGhTkF737bKFwhxwDwkJGDvB5qjyvIg
p173
sVwidth
p174
I960
sVhtml_attributions
p175
(lp176
V<a href="https://maps.google.com/maps/contrib/115076861954284504726/photos">Anton Volkov</a>
p177
asVheight
p178
I720
sa(dp179
Vphoto_reference
p180
VCmRdAAAAuOCHDb0OOpE7qCez0JNr_iMyWNfl4J-Qxk0mcounCxogwnLqLvX6uc2owfD4Z0UBrMadM_zcobJbUJorqTlWRD-RDfnuZfLRW_tbVFgm1u2Nso8BJ9mY0jFoRKIKZQnAEhAvQGaNXNOINZnLshEzd15kGhQm8uG1Z6yl0lhDb5Ji004kTcp9-w
p181
sVwidth
p182
I960
sVhtml_attributions
p183
(lp184
V<a href="https://maps.google.com/maps/contrib/115076861954284504726/photos">Anton Volkov</a>
p185
asVheight
p186
I720
sa(dp187
Vphoto_reference
p188
VCmRdAAAAMoFV4CyBqwYpaikUN4qyafsjL7FoN-BWGAscoOGaEHkqDFcZvXXTTd90d3rPYZ8ol-zuD1KDDtoqGi9ZLL38ucvpHbMWE8xuD5mWCOeMIhR_wuPKfQCVDzZjh79PgqL0EhC9JPU9rvmZZz8nIm31cvE4GhTaOPXqsZQaBE4HG82Rbf6u4j7Nzg
p189
sVwidth
p190
I5472
sVhtml_attributions
p191
(lp192
V<a href="https://maps.google.com/maps/contrib/110607113604842560162/photos">Gourmandj</a>
p193
asVheight
p194
I3648
sa(dp195
Vphoto_reference
p196
VCmRdAAAAuXs7WFtqiHlFe5D7USmZwSmnPGYrIUINBbPsWR18N5vS9SoKhyCd_dOla_Ip8rstb3vHrUm2-mY7MQpGycvRkcsP4ViwjKKiSVKCSs2Gv9uPWfcjuSEKaZqKE63qW8jREhBy1VrJLC1tbERQgkzGvPPYGhSXpJhWN1tpcUT93lWsJWVGp-wpqA
p197
sVwidth
p198
I960
sVhtml_attributions
p199
(lp200
V<a href="https://maps.google.com/maps/contrib/115076861954284504726/photos">Anton Volkov</a>
p201
asVheight
p202
I720
sa(dp203
Vphoto_reference
p204
VCoQBcwAAAD_ELDIVzSoyq1qGrJ9Qt1NnIlbUOs-gc071ynU5FyMOtTGUVklXRGbnU6qTUISa8gRm1UAbavQtNpJJ6rClUYTPBD-hGhMTft8Jc3F-8Dp2dcZGMtLDCOb3yqcWp-YTdAS6Et9fuvA9NvV8pCVL_iMbnvcUQUnALuk9xXOqTOcEEhCyd_eDgxLF9LNDd-DAiFi9GhTKLsVeK9TQjyridBcmooMB8RSi3A
p205
sVwidth
p206
I5312
sVhtml_attributions
p207
(lp208
V<a href="https://maps.google.com/maps/contrib/103971868824338146031/photos">Sherwin Wong</a>
p209
asVheight
p210
I2988
sa(dp211
Vphoto_reference
p212
VCmRdAAAARZEaI4J7t4RvWZHJCNsofSmpeIkycy_wEndk65eFtrMvcKSKUoU_j_T7wuG0IrPs6UqGi3T_NKgzp4kSnbXpKkkHikhpNQ5P-kHCo5NxWRxTPTdbCitqrItrk97aFkfUEhCX5km2WbABXySyNeTDBHr8GhTffwz2DckAjmIHD55dukrGYureuQ
p213
sVwidth
p214
I5472
sVhtml_attributions
p215
(lp216
V<a href="https://maps.google.com/maps/contrib/110607113604842560162/photos">Gourmandj</a>
p217
asVheight
p218
I3648
sa(dp219
Vphoto_reference
p220
VCmRdAAAAfu1q6PWMG_DbPDHF6SCMKCCJ2T77i4kdI-rci9zH31-kZCk9q-iQg_OVwD_d7qTEJUBAnFTbmjjxcf8zEsPe7PunrKArYGqkGezSHemj2iEkDCoXl9BPnt_Yq4QnnuTFEhCueTxlIYQRbW3HHIqkM73LGhQzbwd-Qn9q4SI0XzO5cOJHUsy5Iw
p221
sVwidth
p222
I5472
sVhtml_attributions
p223
(lp224
V<a href="https://maps.google.com/maps/contrib/110607113604842560162/photos">Gourmandj</a>
p225
asVheight
p226
I3648
sa(dp227
Vphoto_reference
p228
VCmRdAAAAEX7J3WvYRMOsC8ExLLaOu_DzEosAhzvi73avb2XRerH_8aTphSKBPb7X-3R9dFCnEntqLHb06BKoospe5rU7wjQx3AJWEc5aJRO8A6kdJ_vRvoRpORVlHf6SDt-J-tkPEhCklRm8dcqJOJXNTSU9ImTvGhQ6EM_R9ysD44IdgfAZI_7rDVno7g
p229
sVwidth
p230
I2048
sVhtml_attributions
p231
(lp232
V<a href="https://maps.google.com/maps/contrib/107106509482391103083/photos">Kristin C.</a>
p233
asVheight
p234
I1775
sa(dp235
Vphoto_reference
p236
VCmRdAAAAwevSDslpownBRmCFrJmacwexP1oAqE01DVBVXAoq1Fcwq9357uCqoEC0K6PqGZrwm5P7R3Sdwbpo9m0N_ScLLJrzFzbpDHFWU98xOTJnp-Cz6Em_m72w7bcGSpouhL6lEhC9ZpzCkKs-kN856oiTSZlyGhSci-L2ibE1VO9UofLxoPsHcXX33A
p237
sVwidth
p238
I960
sVhtml_attributions
p239
(lp240
V<a href="https://maps.google.com/maps/contrib/115076861954284504726/photos">Anton Volkov</a>
p241
asVheight
p242
I960
sa(dp243
Vphoto_reference
p244
VCmRdAAAA3VCUfZftPYp5nuNigu2aNf6hvDY9TuXlUpnC3x8hAUhGfJh--w1IJ6szd-lNnmDAkfEv8nOn5PUsI-N4eMFcExQB4E1HTHUxxTNij9qTIh-z7jPmc4YZlKPEOT2NqnHGEhCJFGOv6rkbIX0e7OIpS88wGhSBp64K4yGbOtNkkgz5i8DsZHQc-g
p245
sVwidth
p246
I2048
sVhtml_attributions
p247
(lp248
V<a href="https://maps.google.com/maps/contrib/107106509482391103083/photos">Kristin C.</a>
p249
asVheight
p250
I1536
sasVtypes
p251
(lp252
Vrestaurant
p253
aVfood
p254
aVpoint_of_interest
p255
aVestablishment
p256
asVicon
p257
Vhttps://maps.gstatic.com/mapfiles/place_api/icons/restaurant-71.png
p258
sVname
p259
VBoulevard
p260
sVgeometry
p261
(dp262
Vaccess_points
p263
(lp264
(dp265
Vtravel_modes
p266
(lp267
VDRIVING
p268
aVTRANSIT
p269
asVlocation
p270
(dp271
Vlat
p272
g3
(S'37.7931231'
tRp273
sVlng
p274
g3
(S'-122.3930575'
tRp275
ssa(dp276
Vtravel_modes
p277
(lp278
VDRIVING
p279
aVBICYCLING
p280
aVWALKING
p281
aVTRANSIT
p282
asVlocation
p283
(dp284
Vlat
p285
g3
(S'37.7934566'
tRp286
sVlng
p287
g3
(S'-122.392932'
tRp288
ssasVlocation
p289
(dp290
Vlat
p291
g3
(S'37.79332'
tRp292
sVlng
p293
g3
(S'-122.392761'
tRp294
sssVadr_address
p295
V<span class="street-address">1 Mission St</span>, <span class="locality">San Francisco</span>, <span class="region">CA</span> <span class="postal-code">94105</span>, <span class="country-name">United States</span>
p296
sVinternational_phone_number
p297
V+1 415-543-6084
p298
sVreviews
p299
(lp300
(dp301
Vrating
p302
I5
sVaspects
p303
(lp304
(dp305
Vrating
p306
I3
sVtype
p307
Voverall
p308
sasVprofile_photo_url
p309
V//lh3.googleusercontent.com/-uqMgkMojB-A/AAAAAAAAAAI/AAAAAAAAC9M/H9ZtGm6AkJw/photo.jpg
p310
sVlanguage
p311
Ven
p312
sVtext
p313
VLovely interior, food, drinks, and service. Had the most amazing crab bisque here. My only complaint is that the 2nd time I ordered the salmon, it was not nearly as good as the first time. The first time it was an excellent piece of fish, perfectly cooked medium rare. This time the fish was OK and it was cooked at least to medium.
p314
sVauthor_name
p315
VTom O'Neill
p316
sVauthor_url
p317
Vhttps://plus.google.com/104265446396533455986
p318
sVtime
p319
I1460653105
sa(dp320
Vrating
p321
I3
sVaspects
p322
(lp323
(dp324
Vrating
p325
I1
sVtype
p326
Voverall
p327
sasVprofile_photo_url
p328
V//lh6.googleusercontent.com/-VOfClaJ0M4g/AAAAAAAAAAI/AAAAAAAAABM/ybaOxEALMNg/photo.jpg
p329
sVlanguage
p330
Ven
p331
sVtext
p332
VTo get a quick dinner reservation I recommend you use Opentable. Anyways, having heard this restaurant was Michelin rated I was excited to eat here. Our server was in a rush/hurry, which based on their other Yelp reviews seems to be common. The service was not the best- but it was still pleasant. The food was good but safe, meaning it lacked flavor and the pizzaz you would normally expect from such a well rated restaurant. -Boulevard was underwhelming for the high expectations I had
p333
sVauthor_name
p334
VRobert Pinard
p335
sVauthor_url
p336
Vhttps://plus.google.com/102226952183312966879
p337
sVtime
p338
I1461060325
sa(dp339
Vrating
p340
I5
sVaspects
p341
(lp342
(dp343
Vrating
p344
I3
sVtype
p345
Voverall
p346
sasVprofile_photo_url
p347
V//lh4.googleusercontent.com/-kMi8ESOku20/AAAAAAAAAAI/AAAAAAAAADg/jJPzzo_rUE0/photo.jpg
p348
sVlanguage
p349
Ven
p350
sVtext
p351
VI have never rated a restaurant before on Google.  This place was so amazing I had to just go ahead and do it.  It's been 15 years since I've been here but I still dream about the crab cakes!  Sadly they are no longer on the menu.  I echo a few other raters in their begging of you to bring them back.  I've been to the best crab houses in Baltimore and Boulevard's crab cakes still put them to shame. The service was impeccable, sitting at the bar and watching the chef, sous chefs and line cooks is so fun. The atmosphere feels quite casual for such fine dining.  There is nothing stuffy about this place.  The food is so good it's worth every penny just to experience such amazing cuisine.  I highly, highly recommend.  
p352
sVauthor_name
p353
VAlleycat Woman
p354
sVauthor_url
p355
Vhttps://plus.google.com/107189423737601008003
p356
sVtime
p357
I1455045900
sa(dp358
Vrating
p359
I5
sVaspects
p360
(lp361
(dp362
Vrating
p363
I3
sVtype
p364
Voverall
p365
sasVlanguage
p366
Ven
p367
sVtext
p368
VGreat ambiance, excellent service, and good food.  Perfect spot for a romantic date.
p369
sVauthor_name
p370
VSYL SF
p371
sVauthor_url
p372
Vhttps://plus.google.com/111485831587275470930
p373
sVtime
p374
I1456515315
sa(dp375
Vrating
p376
I3
sVaspects
p377
(lp378
(dp379
Vrating
p380
I1
sVtype
p381
Voverall
p382
sasVprofile_photo_url
p383
V//lh3.googleusercontent.com/-FC4C_zX9i0A/AAAAAAAAAAI/AAAAAAAA_sI/JvV6D5ftcl0/photo.jpg
p384
sVlanguage
p385
Ven
p386
sVtext
p387
VGreat service and style but I'm just not high-class enough for these kind of places. Very expensive, good, but not that good. I ordered the two-birds (never ate TWO birds on the same plate before!) but I tried to pork and thought it was much better.\u000a\u000aDesert was good as well, crepes, but very small.\u000a\u000aThe bathroom is also very hard to find. You have to go to the end of the building, go through two doors, down some stairs. It's an adventure!
p388
sVauthor_name
p389
VMatthew Wirgler
p390
sVauthor_url
p391
Vhttps://plus.google.com/113783596033191517988
p392
sVtime
p393
I1448496857
sasVformatted_phone_number
p394
V(415) 543-6084
p395
sVaddress_components
p396
(lp397
(dp398
Vlong_name
p399
V1
sVtypes
p400
(lp401
Vstreet_number
p402
asVshort_name
p403
V1
sa(dp404
Vlong_name
p405
VMission Street
p406
sVtypes
p407
(lp408
Vroute
p409
asVshort_name
p410
VMission St
p411
sa(dp412
Vlong_name
p413
VSan Francisco
p414
sVtypes
p415
(lp416
Vlocality
p417
aVpolitical
p418
asVshort_name
p419
VSF
p420
sa(dp421
Vlong_name
p422
VCalifornia
p423
sVtypes
p424
(lp425
Vadministrative_area_level_1
p426
aVpolitical
p427
asVshort_name
p428
VCA
p429
sa(dp430
Vlong_name
p431
VUnited States
p432
sVtypes
p433
(lp434
Vcountry
p435
aVpolitical
p436
asVshort_name
p437
VUS
p438
sa(dp439
Vlong_name
p440
V94105
p441
sVtypes
p442
(lp443
Vpostal_code
p444
asVshort_name
p445
V94105
p446
sas.