(dp1
Vrating
p2
cdecimal
Decimal
p3
(S'4.2'
tRp4
sVreference
p5
VCnRnAAAAR8H9C804mYe_l3Z54RpYDt2XVhjI9HpsIDpZWsE_McPwWcBGi-_m3ZPsyPTbciObU4w1Z1ENmDPsygWSZWJasHHIiY2E33hP0G4p65KeM6dido98tbNbalMN95-x3_QPdc88jU-nrkbUQlnLX4Ez4xIQOUYg-ZkcveQezqF7AxI_XxoUsJjzeiVyLhDsQAHQhT5u2DX5734
p6
sVprice_level
p7
I2
sVplace_id
p8
VChIJY5-blyJ-hYARrkBrUbAzT94
p9
sVurl
p10
Vhttps://maps.google.com/?cid=16019079231953387694
p11
sVformatted_address
p12
V2534 Mandela Pkwy, Oakland, CA 94607, United States
p13
sVid
p14
V932a1f1bebc9fc7c97ac8d6ba16be6ac4674b023
p15
sVopening_hours
p16
(dp17
Vweekday_text
p18
(lp19
VMonday: Closed
p20
aVTuesday: 7:00 AM \u2013 3:00 PM
p21
aVWednesday: 7:00 AM \u2013 3:00 PM
p22
aVThursday: 7:00 AM \u2013 3:00 PM
p23
aVFriday: 7:00 AM \u2013 3:00 PM
p24
aVSaturday: 7:00 AM \u2013 3:00 PM
p25
aVSunday: 8:00 AM \u2013 3:00 PM
p26
asVopen_now
p27
I01
sVperiods
p28
(lp29
(dp30
Vclose
p31
(dp32
Vday
p33
I0
sVtime
p34
V1500
p35
ssVopen
p36
(dp37
Vday
p38
I0
sVtime
p39
V0800
p40
ssa(dp41
Vclose
p42
(dp43
Vday
p44
I2
sVtime
p45
V1500
p46
ssVopen
p47
(dp48
Vday
p49
I2
sVtime
p50
V0700
p51
ssa(dp52
Vclose
p53
(dp54
Vday
p55
I3
sVtime
p56
V1500
p57
ssVopen
p58
(dp59
Vday
p60
I3
sVtime
p61
V0700
p62
ssa(dp63
Vclose
p64
(dp65
Vday
p66
I4
sVtime
p67
V1500
p68
ssVopen
p69
(dp70
Vday
p71
I4
sVtime
p72
V0700
p73
ssa(dp74
Vclose
p75
(dp76
Vday
p77
I5
sVtime
p78
V1500
p79
ssVopen
p80
(dp81
Vday
p82
I5
sVtime
p83
V0700
p84
ssa(dp85
Vclose
p86
(dp87
Vday
p88
I6
sVtime
p89
V1500
p90
ssVopen
p91
(dp92
Vday
p93
I6
sVtime
p94
V0700
p95
ssassVvicinity
p96
V2534 Mandela Parkway, Oakland
p97
sVscope
p98
VGOOGLE
p99
sVwebsite
p100
Vhttp://brownsugarkitchen.com/
p101
sVutc_offset
p102
I-420
sVuser_ratings_total
p103
I148
sVphotos
p104
(lp105
(dp106
Vphoto_reference
p107
VCmRdAAAAbTCIT-yMlOF3iq-sia8u3rmEmIp-K8JdO0T2ssvp--AXU5QayPNUWh-N_8XIX6apqluTikOcA3MXDZmWgFnxzkxMzJhAHqCf2KdDW89pv1MtXffK0Aj8rJ9V4rXOMGUzEhBq2ADIJg09xesTOZjc0g2sGhQfa9ouk5HV4z5hsqBa79pdjq9-LQ
p108
sVwidth
p109
I594
sVhtml_attributions
p110
(lp111
V<a href="https://maps.google.com/maps/contrib/111570269775365867009/photos">Brown Sugar Kitchen</a>
p112
asVheight
p113
I594
sa(dp114
Vphoto_reference
p115
VCmRdAAAAGYN7xsU2rRouPsP0xLJ-zw87jID83zLFT5S87ujivMioktqX452P8UAiKlEztB1M0-FE2wrNdOmQyPNR2px8tpycNoZjmQw3NmD41Ri4reLecq6IM11CcMjc_09bhgpsEhD_8kL0PbxOE1sl71_nhGeJGhTvMNxBSFlxWyeHsGtrqvsCdWMirA
p116
sVwidth
p117
I816
sVhtml_attributions
p118
(lp119
V<a href="https://maps.google.com/maps/contrib/117767795847558284137/photos">Jeffrey McKnight</a>
p120
asVheight
p121
I612
sa(dp122
Vphoto_reference
p123
VCoQBdwAAAKexX_xlJFfBt0_0D8ulhO8rEX-CkhTRf1wL1bjPFHq6AR0BFMW3Ee7Bf41VJj63EOHilR-5zf8_HByroA_b2qLAN0hWufjsP8Ok8bTmkwdEJfCfWYRPw-WhxoV6bgK8tpE31So0xoeWN7XOFn3NpUhg-0--o96N_mwwhDzZiw2VEhD_gkrNghn9cWTTikqMqrqQGhQTe2P752zKzbsPvDFqLn_8vC6Yxw
p124
sVwidth
p125
I5312
sVhtml_attributions
p126
(lp127
V<a href="https://maps.google.com/maps/contrib/112496585247821874573/photos">Phap Huu</a>
p128
asVheight
p129
I2988
sa(dp130
Vphoto_reference
p131
VCmRdAAAAGDZGrkOh3bsK3eNwJ6tFGpeK_-OJhplWRE2PxXKNu_K8DdQ3dh4JICx9UaiAHMu-14rY7MaHAtHmBVrGNL4m-UMW04H7mLqnclQeCbcZ0AwilXeuwQwLiDIjMgtzOOeMEhAgxax2o1UmEyuUaPJKIKpDGhTeqH-KUhRhaIw8VUitVApL4ocOOg
p132
sVwidth
p133
I2048
sVhtml_attributions
p134
(lp135
V<a href="https://maps.google.com/maps/contrib/111570269775365867009/photos">Brown Sugar Kitchen</a>
p136
asVheight
p137
I1536
sa(dp138
Vphoto_reference
p139
VCmRdAAAAPStEh25keFPsEbI3ve8EV4Lb__6UYofTgL0JjSJA5JGsQTbQewhIhi5jf5Eh4u-OL_SHzFX-iwQFxqwH_zzk1lvsbFLyTPnT11EkrCZciGmjS6-3owYSMDBqjRyQD8v9EhD_FGf110K6t7Kgy8wpQ6dSGhQF1qIUmy8v7y91j-0qRqdNcW6ynw
p140
sVwidth
p141
I2448
sVhtml_attributions
p142
(lp143
V<a href="https://maps.google.com/maps/contrib/117321471220633891667/photos">Joshua Cheung</a>
p144
asVheight
p145
I3264
sa(dp146
Vphoto_reference
p147
VCoQBdwAAAMtwXIqERsbZFw0M8Lp-yLA5bwwsr1y5EipYp4Pslv82nVdzYJ1tGihNJhIaAbkn4Nqp-ilLRzBp9mI0mju60UctyUKOT5CrcM8j6dj9Vy2_5pKWPgvx4fJ3Ki8892KUPAEOEVmxVQ5Jgsrgea5AS6YUsci7DIwYbRA0sFxQ_VmiEhCEA5B_Wcv_5n9zLOIdGXmFGhRc8AN7WzRd6YHNX1T9p26mObFySw
p148
sVwidth
p149
I2988
sVhtml_attributions
p150
(lp151
V<a href="https://maps.google.com/maps/contrib/117402048322197179751/photos">Trav M</a>
p152
asVheight
p153
I5312
sa(dp154
Vphoto_reference
p155
VCmRdAAAAbUZqs8xj34Bl7xzgKMYqYqRZ3JjGcOweR0Lqyv2eq1eZEsQppY9EQiZEeEBYcil6uoPsMDWnFUujuvk22UwWhtICsJspHLV4fPSfzyc82GLrzEH8zZZRZe805ELkRjm8EhDJqGR7FStPQlA_nFiBFueeGhQHB29DVwzdkQBBe8TdwDb3pMqmtA
p156
sVwidth
p157
I2448
sVhtml_attributions
p158
(lp159
V<a href="https://maps.google.com/maps/contrib/117321471220633891667/photos">Joshua Cheung</a>
p160
asVheight
p161
I3264
sa(dp162
Vphoto_reference
p163
VCmRdAAAAh2DJ3wMuCyfsCNOufB4c9I08QhM0IxvRGv6B8YM81A4ukx4FcD-JROkNeXoDQS8b3Q2a1L3DBILHbwzCscIRvR5Qz7wKsqpMLN0c9ZGZemp14nxrrN__f3O0oIIznB_xEhAy1CtFTMD-kfMxzt-kK6k8GhSZ3Reiqmj3F2Z0PC4_BU0OGP_Mhg
p164
sVwidth
p165
I852
sVhtml_attributions
p166
(lp167
V<a href="https://maps.google.com/maps/contrib/108433417989960518643/photos">Feiona Chen</a>
p168
asVheight
p169
I1136
sa(dp170
Vphoto_reference
p171
VCoQBcwAAAFh0zZeid624jFISZZA_VHEw68V13G54Js3Gy1yivrAODYsEjmYIFqmcTsTPORTtwg5sxbOOaFWN0IIwk0F75oGFmLyBL8XStdmDlHU_ggTDoqrY_ogEQeAnFr-GTjEX6hLojfBy61yKZfvD9udk30ZflVw5Uy7gGDq3PQKTrKNEEhCdjPkPfMSisjDQqDAxJg1JGhQxlj9rG0r40b__5UuqO0xEYb7_cQ
p172
sVwidth
p173
I2368
sVhtml_attributions
p174
(lp175
V<a href="https://maps.google.com/maps/contrib/114256799892183890891/photos">anthony barbato</a>
p176
asVheight
p177
I3200
sa(dp178
Vphoto_reference
p179
VCmRdAAAAD-icecewAAMjoI9VqZu8ZqhlAjXVgNSEF6k05I8VbtKURhwUqIejwnwuT1RPaBB04kSvXM6-U8yydHQr0ywuenjcbKZ_mM5Tcw_-qD2CVgTdcfo0LMxqpdxnZuHd-l8wEhCIuTOzOcztn3lr5aAcKXtxGhTg6h_WnBL_wDML-SS7-UZoly5Rbg
p180
sVwidth
p181
I640
sVhtml_attributions
p182
(lp183
V<a href="https://maps.google.com/maps/contrib/108433417989960518643/photos">Feiona Chen</a>
p184
asVheight
p185
I852
sasVtypes
p186
(lp187
Vrestaurant
p188
aVfood
p189
aVpoint_of_interest
p190
aVestablishment
p191
asVicon
p192
Vhttps://maps.gstatic.com/mapfiles/place_api/icons/restaurant-71.png
p193
sVname
p194
VBrown Sugar Kitchen
p195
sVgeometry
p196
(dp197
Vaccess_points
p198
(lp199
(dp200
Vtravel_modes
p201
(lp202
VDRIVING
p203
aVBICYCLING
p204
aVWALKING
p205
aVTRANSIT
p206
asVlocation
p207
(dp208
Vlat
p209
g3
(S'37.8203348'
tRp210
sVlng
p211
g3
(S'-122.2889541'
tRp212
ssasVlocation
p213
(dp214
Vlat
p215
g3
(S'37.8203279'
tRp216
sVlng
p217
g3
(S'-122.2887968'
tRp218
sssVadr_address
p219
V<span class="street-address">2534 Mandela Pkwy</span>, <span class="locality">Oakland</span>, <span class="region">CA</span> <span class="postal-code">94607</span>, <span class="country-name">United States</span>
p220
sVinternational_phone_number
p221
V+1 510-839-7685
p222
sVreviews
p223
(lp224
(dp225
Vrating
p226
I4
sVaspects
p227
(lp228
(dp229
Vrating
p230
I2
sVtype
p231
Voverall
p232
sasVprofile_photo_url
p233
V//lh3.googleusercontent.com/-gmO1HRKA6f4/AAAAAAAAAAI/AAAAAAAAAFw/YR8_a5-mQTk/photo.jpg
p234
sVlanguage
p235
Ven
p236
sVtext
p237
VBe prepared to wait. Also be prepared to have you mind blown once you start eating. Chicken & waffles is all you need to care about (although their other dishes are tasty too!). Their atmosphere makes you feel right at home, as does the staff. All around great place to grab a tasty meal.
p238
sVauthor_name
p239
VMike Wilson
p240
sVauthor_url
p241
Vhttps://plus.google.com/110329641026568629592
p242
sVtime
p243
I1460354610
sa(dp244
Vrating
p245
I3
sVaspects
p246
(lp247
(dp248
Vrating
p249
I1
sVtype
p250
Voverall
p251
sasVprofile_photo_url
p252
V//lh4.googleusercontent.com/-faTHL2uD3co/AAAAAAAAAAI/AAAAAAAAC9s/XLM-h8-2SOc/photo.jpg
p253
sVlanguage
p254
Ven
p255
sVtext
p256
VAfter a rough morning and an empty stomach, a filling breakfast was in order. Came to Brown Sugar Kitchen (BSK) to restart my morning and glad I came during a weekday. There was no line, it wasn't even that crowded, and we were immediately greeted with "Someone will be with you soon" . . . after standing there for a couple of minutes. It looked as though there were only about two waitresses on the floor. \u000a\u000aWe were seated right away and were asked if we wanted anything to drink. My friend ordered the house hot chocolate (with a homemade marshmallow on top) and I ordered the house chai latte. We then ordered our food: he ordered a la carte (chicken sausage, ham, toast, and eggs), I ordered the chicken and waffles with maple syrup and a cheddar-bacon-scallion biscuit. \u000a\u000aThe drinks came first; it hit the spot to a cold morning. Then came in the biscuit. One bite was all it took to take my off morning and turn it back around. It was flaky, buttery (even more after I spread more butter), not one ingredient overpowered the others, it was soft and it was crunchy. The anticipation of the rest of my meal was to be awaited. . . then something happened. \u000a\u000aAfter we were seated, more people came in and ordered. My friend's food came and I have the to say the jam was DELICIOUS, boysenberry I think.  Then I noticed one of the patrons who came after us received their chicken and waffles before me. What?! I received mines a few minutes later. It was okay until I took a bite of my waffle, it was cold!! \u000a\u000aCold spaghetti, yes! Cold sandwiches, yes!! Cold pizza, yes!!! Cold BSK's waffle, nope!! It tasted as though it has been sitting out for a while, they make everything to order so why was it cold?! The chicken was quite the opposite, it was hot, moist, and juicy. The taste was subtle with flavor, it made up for the cold waffles. \u000a\u000aThe chicken and waffles were semi- worth it. The biscuit was WORTH IT!!  The drinks, semi-worth it. The service was okay, however still annoyed about the cold waffle. They filled up the water cups, that's it. For how much it all costs, it was near $60 (without tip).\u000a\u000aBSK is a nice place to have breakfast and/or brunch, however for how much one needs to cash out for a breakfast. It's worth visiting once.
p257
sVauthor_name
p258
VJazz Baruela
p259
sVauthor_url
p260
Vhttps://plus.google.com/101322665937897630163
p261
sVtime
p262
I1458124981
sa(dp263
Vrating
p264
I5
sVaspects
p265
(lp266
(dp267
Vrating
p268
I3
sVtype
p269
Voverall
p270
sasVprofile_photo_url
p271
V//lh4.googleusercontent.com/-AMbsHf6-53I/AAAAAAAAAAI/AAAAAAAAWmI/wMnGHetuVyk/photo.jpg
p272
sVlanguage
p273
Ven
p274
sVtext
p275
VOk, I have a pretty high bar for fried chicken and this place totally met it. That said, the real star of the meal was the cornmeal waffles! I read all the previous reviews about how light and fluffy they were, but I had no idea how amazing they'd actually taste! If it's your first time, get the chicken and waffles. If it's your second time, you can try something else, but I'd still get the chicken waffles :P\u000a\u000aLastly, if you're not a fan of waiting like I am, then get there when they open. It'll also help with the parking as well :)
p276
sVauthor_name
p277
VTy Lim
p278
sVauthor_url
p279
Vhttps://plus.google.com/105191930931235195663
p280
sVtime
p281
I1452460525
sa(dp282
Vrating
p283
I5
sVaspects
p284
(lp285
(dp286
Vrating
p287
I3
sVtype
p288
Voverall
p289
sasVprofile_photo_url
p290
V//lh6.googleusercontent.com/-Ao34wdTblqY/AAAAAAAAAAI/AAAAAAAAB4g/fTyjaNGIqXU/photo.jpg
p291
sVlanguage
p292
Ven
p293
sVtext
p294
VAwesome little breakfast spot.  Best I ever had Chicken and waffles.  They make it in house and has a unique blend of sweetness and seasoning.
p295
sVauthor_name
p296
VJames Ayvaz
p297
sVauthor_url
p298
Vhttps://plus.google.com/100510464705919981466
p299
sVtime
p300
I1456095056
sa(dp301
Vrating
p302
I3
sVaspects
p303
(lp304
(dp305
Vrating
p306
I1
sVtype
p307
Voverall
p308
sasVlanguage
p309
Ven
p310
sVtext
p311
VThe ambiance and location are ideal, the coffee is wonderful but the Customer Service we encountered was poor! Clearly it was only our waitress...the oldest on staff...she should revisit what it takes to provide good, practical customer service...we're not asking for miracles!!  Will we return? Of course!
p312
sVauthor_name
p313
VValda McCauley
p314
sVauthor_url
p315
Vhttps://plus.google.com/116327636154100000064
p316
sVtime
p317
I1448860472
sasVformatted_phone_number
p318
V(510) 839-7685
p319
sVaddress_components
p320
(lp321
(dp322
Vlong_name
p323
V2534
p324
sVtypes
p325
(lp326
Vstreet_number
p327
asVshort_name
p328
V2534
p329
sa(dp330
Vlong_name
p331
VMandela Parkway
p332
sVtypes
p333
(lp334
Vroute
p335
asVshort_name
p336
VMandela Pkwy
p337
sa(dp338
Vlong_name
p339
VOakland
p340
sVtypes
p341
(lp342
Vlocality
p343
aVpolitical
p344
asVshort_name
p345
VOakland
p346
sa(dp347
Vlong_name
p348
VCalifornia
p349
sVtypes
p350
(lp351
Vadministrative_area_level_1
p352
aVpolitical
p353
asVshort_name
p354
VCA
p355
sa(dp356
Vlong_name
p357
VUnited States
p358
sVtypes
p359
(lp360
Vcountry
p361
aVpolitical
p362
asVshort_name
p363
VUS
p364
sa(dp365
Vlong_name
p366
V94607
p367
sVtypes
p368
(lp369
Vpostal_code
p370
asVshort_name
p371
V94607
p372
sas.