(dp1
Vwebsite
p2
Vhttp://sfrecpark.org/destination/buena-vista-park/
p3
sVrating
p4
cdecimal
Decimal
p5
(S'4.2'
tRp6
sVutc_offset
p7
I-420
sVuser_ratings_total
p8
I121
sVname
p9
VBuena Vista Park
p10
sVreference
p11
VCnRjAAAASZo8fyQUsbyYj03BXd_ISGfXfe_PT239FzURp2Ki_SF-fjK0xb6ykLTtQQ_e9u7KJlENFqy5Y3JTb3N2MHhy-b_ZvqbIbtTWv6PkTVB6a-whzPAmDeSs_gswAS8BL1szGkf_SLkma3_uswN8kPgUFhIQzz9s2MC9kWzQtEBVmSaTMRoUAn7WsP0tomzkWzsCCcWUx4g0C20
p12
sVphotos
p13
(lp14
(dp15
Vphoto_reference
p16
VCmRdAAAA-7QdSkq2mtKBpk4tCYRpv4b29oiQqm393XqUcroFMAC45k1nRHLgcfKoXZ2IIGljD8EcHiANpwvAMaqC2kj6qkXdRmnkYUXxejt2cNJi2KljlHTJloxxzPvxv8BuDVh1EhAUAYPg1X9Qbqt8lkh5VHNxGhTsUYaGWonO8fIGs8B8Tj81lPimCQ
p17
sVwidth
p18
I2048
sVhtml_attributions
p19
(lp20
V<a href="https://maps.google.com/maps/contrib/108751789999202165860/photos">Erik Wanta</a>
p21
asVheight
p22
I1846
sa(dp23
Vphoto_reference
p24
VCmRdAAAAQ9w5FmY3BfDkkYv0YCqM7asjpKmF_RtAV5yAV-v6zagCm9wUw7gMkxK4EZcvVE10oTpQhkoO8dnpmIe7Rtp3k91Nir0uyvXn0UEaETXRGnlTfGgfg6Xe7mzCZsIGK5zdEhDHPmFLy9MGXLg9GeSlbIaXGhTZSk_OLRTFTSozAK41NtDJwPLKRQ
p25
sVwidth
p26
I960
sVhtml_attributions
p27
(lp28
V<a href="https://maps.google.com/maps/contrib/113356823127583659316/photos">Anatol Bahdzevich</a>
p29
asVheight
p30
I540
sa(dp31
Vphoto_reference
p32
VCmRdAAAAKg_vk6rc5Fmoj8BsV6N6RElDMerBwvlwmrg9oGPciEarDFhx3TcnyQPSzZmcZocvqusL6-fzB1Km8QzByLEbQbLDfgqSQW36D14c6f7izxhERm4u-he-vupAaow6lokbEhDh3xH4qkdR1ub7v95tbrDxGhTQ_SmoXZQtdw-ppIXmeBA5lkxShg
p33
sVwidth
p34
I2848
sVhtml_attributions
p35
(lp36
V<a href="https://maps.google.com/maps/contrib/104747836940284616980/photos">Andris Hew</a>
p37
asVheight
p38
I4288
sa(dp39
Vphoto_reference
p40
VCmRdAAAA-LmKRclwaTdKOBAzMRpXq607TFGqOAVRcSEZw7MYETTybOzVLhj2FpT75foCeG46fc2pNM_yfLpHMGx7YB3G9RUJrP7m_4b84_CW7nJuuICg5WoIJyV7L2h98appwKPAEhCgjlu4QGaeOQwR2F3EWM1HGhSiAB5oNX3iPrX_ojKpi_9OAEVgBQ
p41
sVwidth
p42
I1080
sVhtml_attributions
p43
(lp44
V<a href="https://maps.google.com/maps/contrib/105660717073923165541/photos">Deepali Singla</a>
p45
asVheight
p46
I608
sa(dp47
Vphoto_reference
p48
VCoQBcwAAAPVV1jjdGfdPlP1F5UVRQWrYGBXspCcdcIyXw4PyzBW4u3AccvZ1IJfyOBPRCYasm5M1YUDA6wMqPzyGGT9qHSiCL332lQSEk0lRVywWHAQYgRI4_9L0z2KfkgYTq_Roc78qo8dwEhFfh0zrUQI5bDuElmB1lvBFHv_55K5K8zDgEhDyq8gEc7pz7luAdauQOe1bGhSqJ7jMsdEOMQpB95N2AtfNF9tgkA
p49
sVwidth
p50
I4000
sVhtml_attributions
p51
(lp52
V<a href="https://maps.google.com/maps/contrib/111082516993476467955/photos">Mariusz Bronk</a>
p53
asVheight
p54
I3000
sa(dp55
Vphoto_reference
p56
VCoQBcwAAAJUNLlsp6dmEGR4dbkgYx67tmJnSQc8YZ0skJD8B135Ai8Bu-Lmc8V_2NbSJHgn6NXJptvoKbrNtK2hzltN_4HHmGk_SfEY9wMF2DCIPzPDzycNzH2HlYZTckvqCJmJeoa_78ITLRRy9o3k2i33lhSG9J3BdLgu8zaCDMVdtUvV8EhBROhRuyNpLR3hAaxozhVKNGhTM39cspNucmLbHvyh6wIlYPXI4Jg
p57
sVwidth
p58
I4000
sVhtml_attributions
p59
(lp60
V<a href="https://maps.google.com/maps/contrib/111082516993476467955/photos">Mariusz Bronk</a>
p61
asVheight
p62
I3000
sa(dp63
Vphoto_reference
p64
VCoQBcwAAALT8OSSUidIqAX6I_ZZptFi39xM7euCEx1lZ1HY_m0VGc71zDdvAPD-UG1mta5RRds_PSTfYgjAE7lmlAOgsRJsP6PguOTt7eWocjH7XYLKFYBPWmCkH8aN5XbpfkLNkIKfzF38OwFsrGLcllWFwHAQ4iBKVg-TxmDsYiH6TGDwHEhC6Bkxuz2mdZzn5pGZCy6shGhT1NRxmiOVt-18oD6QBbPkCub-Jhg
p65
sVwidth
p66
I3264
sVhtml_attributions
p67
(lp68
V<a href="https://maps.google.com/maps/contrib/100468698028213155517/photos">Ben Falter</a>
p69
asVheight
p70
I1790
sa(dp71
Vphoto_reference
p72
VCoQBdwAAAAciSTWQcDnb7yKefAsWuIMmm6mHvaitQEsCeyIBkyHWyMgGH1jBRwnnmYpRjCREEk3OFLESQQIa1uf6Y1T1Ydsqr9JCiQ8X8AA-lxKadn_42SYvSzu-mRXSHt5EBxBPzjcGtSVZ9ALc1Ql1HSb59fiKWMkOPM9m7kKeOlMAWid5EhDfJ8yqcF9eZyRG9WuD6OX6GhTetHtf83I0ZQr3F93uoHDyCwywng
p73
sVwidth
p74
I2560
sVhtml_attributions
p75
(lp76
V<a href="https://maps.google.com/maps/contrib/102798522793992861883/photos">Arthur Conrad</a>
p77
asVheight
p78
I1440
sa(dp79
Vphoto_reference
p80
VCoQBcwAAACEF4whI8mpJjAAVB1w-XlUHQG-4FQ4ktmvvolziYIE1v-VI-btVo2O3BBr3SH2TLqGkO5Rxyq6hxr7d1VtpCwzBvMhc9TwLx7zcgdexnteTIq3-pjxwombYUBrVhvdgSz1S2RwZTnhCRZhidYUl0eYnQHQuHMLAY0FPdz5eI8DUEhAJ-CFepHHzp_3kmEFJQf1WGhT8750hjx80xSw0iqyoNmlZSUHtaA
p81
sVwidth
p82
I4000
sVhtml_attributions
p83
(lp84
V<a href="https://maps.google.com/maps/contrib/111082516993476467955/photos">Mariusz Bronk</a>
p85
asVheight
p86
I3000
sa(dp87
Vphoto_reference
p88
VCmRdAAAAiWZQQuInJc2FvaMnAFHII4fz5fY48wONCr922ZbgAHgEJ9OyMhjBp6jg9EWD8_JYlM4zWtpPiJXe82SDh_m1ae1um9EIQDFNvn9bP8ZbpAmaReniA0_-OsEwAU7sGu4fEhDRp-BmPedC37qmaBKFJYA2GhQwnlqMaaqshuhwRO70BCnNJP0DSw
p89
sVwidth
p90
I620
sVhtml_attributions
p91
(lp92
V<a href="https://maps.google.com/maps/contrib/107860520124691932527/photos">mickey garza</a>
p93
asVheight
p94
I437
sasVgeometry
p95
(dp96
Vlocation
p97
(dp98
Vlat
p99
g5
(S'37.7682033'
tRp100
sVlng
p101
g5
(S'-122.4417696'
tRp102
sssVadr_address
p103
VBuena Vista &amp; Haight, <span class="locality">San Francisco</span>, <span class="region">CA</span> <span class="postal-code">94117</span>, <span class="country-name">United States</span>
p104
sVplace_id
p105
VChIJc-fv16uAhYARQNxL3WZRYHw
p106
sVinternational_phone_number
p107
V+1 415-819-2699
p108
sVvicinity
p109
VBuena Vista & Haight, San Francisco
p110
sVreviews
p111
(lp112
(dp113
Vrating
p114
I4
sVaspects
p115
(lp116
(dp117
Vrating
p118
I2
sVtype
p119
Voverall
p120
sasVprofile_photo_url
p121
V//lh5.googleusercontent.com/-wty710_3-6g/AAAAAAAAAAI/AAAAAAAA4cw/scitsWPO0kw/photo.jpg
p122
sVlanguage
p123
Ven
p124
sVtext
p125
VOne of the Less crowded parks with steep climb to the top. \u000aTop of the Golden Gate Bridge is seen from the summit. I love the Good cardio workout. There are multiple entrances to the park, parking can be tricky at some spots. Good for dogs. \u000a\u000a
p126
sVauthor_name
p127
VSadashiv Hiremath
p128
sVauthor_url
p129
Vhttps://plus.google.com/112690597367725361149
p130
sVtime
p131
I1458027744
sa(dp132
Vrating
p133
I2
sVaspects
p134
(lp135
(dp136
Vrating
p137
I0
sVtype
p138
Voverall
p139
sasVlanguage
p140
Ven
p141
sVtext
p142
VAlot of spectacular views from different vantage points in this park. And if you enjoy steep inclines this is the place to go. Well, one of em. Please be prepared with Off Bug Spray, mosquito's are abundant at this park.
p143
sVauthor_name
p144
VArthur Conrad
p145
sVauthor_url
p146
Vhttps://plus.google.com/102798522793992861883
p147
sVtime
p148
I1461320414
sa(dp149
Vrating
p150
I5
sVaspects
p151
(lp152
(dp153
Vrating
p154
I3
sVtype
p155
Voverall
p156
sasVprofile_photo_url
p157
V//lh3.googleusercontent.com/-XOIn2d4nFYA/AAAAAAAAAAI/AAAAAAAABdo/tszsW-3vaaQ/photo.jpg
p158
sVlanguage
p159
Ven
p160
sVtext
p161
VLovely if somewhat unkempt park with partial but fascinating views of the city below.  Take a walk up there; you'll pant because it's steep, but you'll enjoy it.
p162
sVauthor_name
p163
VMatt Warren
p164
sVauthor_url
p165
Vhttps://plus.google.com/102914900549553779546
p166
sVtime
p167
I1450042491
sa(dp168
Vrating
p169
I3
sVaspects
p170
(lp171
(dp172
Vrating
p173
I1
sVtype
p174
Voverall
p175
sasVprofile_photo_url
p176
V//lh4.googleusercontent.com/-R8titjUt1sg/AAAAAAAAAAI/AAAAAAAABH8/LgL9Xrp0-5w/photo.jpg
p177
sVlanguage
p178
Ven
p179
sVtext
p180
VThis is a decent park with basic little hills.  Better than having nothing at all...
p181
sVauthor_name
p182
Vnaruemon promsawasdi
p183
sVauthor_url
p184
Vhttps://plus.google.com/115772126312197997685
p185
sVtime
p186
I1459704684
sa(dp187
Vrating
p188
I5
sVaspects
p189
(lp190
(dp191
Vrating
p192
I3
sVtype
p193
Voverall
p194
sasVprofile_photo_url
p195
V//lh3.googleusercontent.com/-VuxwUIutUHU/AAAAAAAAAAI/AAAAAAAAgf8/VGCGXKudPZ8/photo.jpg
p196
sVlanguage
p197
Ven
p198
sVtext
p199
VLove the Vista here, great panoramic views of the city. Not particularly well kept up and clean, but cannot beat the view. You'll get a leg workout as well coming from lower areas of town 
p200
sVauthor_name
p201
VJoe Nastri
p202
sVauthor_url
p203
Vhttps://plus.google.com/112043958434480433452
p204
sVtime
p205
I1450128193
sasVformatted_phone_number
p206
V(415) 819-2699
p207
sVurl
p208
Vhttps://maps.google.com/?cid=8962252760708537408
p209
sVscope
p210
VGOOGLE
p211
sVaddress_components
p212
(lp213
(dp214
Vlong_name
p215
VSan Francisco
p216
sVtypes
p217
(lp218
Vlocality
p219
aVpolitical
p220
asVshort_name
p221
VSF
p222
sa(dp223
Vlong_name
p224
VCalifornia
p225
sVtypes
p226
(lp227
Vadministrative_area_level_1
p228
aVpolitical
p229
asVshort_name
p230
VCA
p231
sa(dp232
Vlong_name
p233
VUnited States
p234
sVtypes
p235
(lp236
Vcountry
p237
aVpolitical
p238
asVshort_name
p239
VUS
p240
sa(dp241
Vlong_name
p242
V94117
p243
sVtypes
p244
(lp245
Vpostal_code
p246
asVshort_name
p247
V94117
p248
sasVformatted_address
p249
VBuena Vista & Haight, San Francisco, CA 94117, United States
p250
sVid
p251
V1225b07cdead246afe0c4e9a5b7f2eec73c893ce
p252
sVtypes
p253
(lp254
Vpark
p255
aVnatural_feature
p256
aVpoint_of_interest
p257
aVestablishment
p258
asVicon
p259
Vhttps://maps.gstatic.com/mapfiles/place_api/icons/generic_recreational-71.png
p260
s.