(dp1
Vrating
p2
cdecimal
Decimal
p3
(S'4.5'
tRp4
sVreference
p5
VCnRlAAAAIlCe3sxKQWSJ_cNTRrWd0oQDraiZnuJRS46b_NRsC-rqxah_QIwuOJMEgBPXe-9_1QrrK2p75mBMPLF59S3wwI9dLzgKUnR_Yp4YuELBXtxwf2mm_fckpipixyvMSiE13gMQ4Qb4CayId5CO4JfPoxIQmdYtrWtzCqQaTJ6LoAlf7hoUf8tc4FPJfnIjUxqvzx6khggdbeg
p6
sVprice_level
p7
I1
sVplace_id
p8
VChIJr5hMNKF-hYARxmkk-5t0SzE
p9
sVurl
p10
Vhttps://maps.google.com/?cid=3552060944393988550
p11
sVformatted_address
p12
V1512 Shattuck Ave, Berkeley, CA 94709, United States
p13
sVid
p14
Va0f23ae31b187db5dcfd29f4880030143797573a
p15
sVopening_hours
p16
(dp17
Vweekday_text
p18
(lp19
VMonday: Closed
p20
aVTuesday: 11:30 AM \u2013 3:00 PM, 4:30 \u2013 8:00 PM
p21
aVWednesday: 11:30 AM \u2013 3:00 PM, 4:30 \u2013 8:00 PM
p22
aVThursday: 11:30 AM \u2013 3:00 PM, 4:30 \u2013 8:00 PM
p23
aVFriday: 11:30 AM \u2013 3:00 PM, 4:30 \u2013 8:00 PM
p24
aVSaturday: 11:30 AM \u2013 3:00 PM, 4:30 \u2013 8:00 PM
p25
aVSunday: Closed
p26
asVopen_now
p27
I00
sVperiods
p28
(lp29
(dp30
Vclose
p31
(dp32
Vday
p33
I2
sVtime
p34
V1500
p35
ssVopen
p36
(dp37
Vday
p38
I2
sVtime
p39
V1130
p40
ssa(dp41
Vclose
p42
(dp43
Vday
p44
I2
sVtime
p45
V2000
p46
ssVopen
p47
(dp48
Vday
p49
I2
sVtime
p50
V1630
p51
ssa(dp52
Vclose
p53
(dp54
Vday
p55
I3
sVtime
p56
V1500
p57
ssVopen
p58
(dp59
Vday
p60
I3
sVtime
p61
V1130
p62
ssa(dp63
Vclose
p64
(dp65
Vday
p66
I3
sVtime
p67
V2000
p68
ssVopen
p69
(dp70
Vday
p71
I3
sVtime
p72
V1630
p73
ssa(dp74
Vclose
p75
(dp76
Vday
p77
I4
sVtime
p78
V1500
p79
ssVopen
p80
(dp81
Vday
p82
I4
sVtime
p83
V1130
p84
ssa(dp85
Vclose
p86
(dp87
Vday
p88
I4
sVtime
p89
V2000
p90
ssVopen
p91
(dp92
Vday
p93
I4
sVtime
p94
V1630
p95
ssa(dp96
Vclose
p97
(dp98
Vday
p99
I5
sVtime
p100
V1500
p101
ssVopen
p102
(dp103
Vday
p104
I5
sVtime
p105
V1130
p106
ssa(dp107
Vclose
p108
(dp109
Vday
p110
I5
sVtime
p111
V2000
p112
ssVopen
p113
(dp114
Vday
p115
I5
sVtime
p116
V1630
p117
ssa(dp118
Vclose
p119
(dp120
Vday
p121
I6
sVtime
p122
V1500
p123
ssVopen
p124
(dp125
Vday
p126
I6
sVtime
p127
V1130
p128
ssa(dp129
Vclose
p130
(dp131
Vday
p132
I6
sVtime
p133
V2000
p134
ssVopen
p135
(dp136
Vday
p137
I6
sVtime
p138
V1630
p139
ssassVvicinity
p140
V1512 Shattuck Avenue, Berkeley
p141
sVscope
p142
VGOOGLE
p143
sVwebsite
p144
Vhttp://cheeseboardcollective.coop/
p145
sVutc_offset
p146
I-420
sVuser_ratings_total
p147
I222
sVphotos
p148
(lp149
(dp150
Vphoto_reference
p151
VCoQBdwAAAC7akzq4Ezcz-8cm1286dfoZYWkC1Grq6qY2g5oSv4qp9blKkcApnbGJOeKN97VBxMLTKZUragJjCyKcLW7f-r4tmqtXHES5iGrg6gpWRLeBCCKtKDFbd5HHXmYYgYJaLyszb6e6461AloX7I6ASpiRTd5eTIhUat5xUMUQOc5XfEhBH2La_5zG5ItReFHDKVp_XGhSkUXS0iSRZNSw-bhHc4VSYrH_kvg
p152
sVwidth
p153
I4032
sVhtml_attributions
p154
(lp155
V<a href="https://maps.google.com/maps/contrib/112292200388858232914/photos">Vee H</a>
p156
asVheight
p157
I3024
sa(dp158
Vphoto_reference
p159
VCmRdAAAAktWT7BV18IUi3A5yCgwS_mFa5KQ6hraQFrTUjoDfPetNzEJSh5P7_37UostSv5FI3nRImQfVjqLwtpufw4MCOOZoQvk0lLm5F6Kz7-GygKKJVC18GN6uh7yi3-Bm4DI1EhCWJfJYFWx6QObTI1-L3NrwGhQTvZHl_aQazc01ZhGD62gZt3ShSw
p160
sVwidth
p161
I3264
sVhtml_attributions
p162
(lp163
V<a href="https://maps.google.com/maps/contrib/101684759371052236980/photos">Don V</a>
p164
asVheight
p165
I2448
sa(dp166
Vphoto_reference
p167
VCoQBdwAAALEFVMUu-SBFI8Lm4PdIHrW4hro6dxMHRDaqQZ3NdSz7oaSdLyGM1_LmE2a4lnxjIia00RViAm318SERXSx0OM33G9x-q_Fdvvtu4WOfTdWvxSJcRAjZ0CTmBDSsQoTk_TgD4KXsatMlNAxX_xYiFm0QSW8pvVnZ3eZvyh62uRvGEhDEl6jJoNUVZvbjBDBYLVA6GhQ090HlcYC0VeUtwKMGl08IxhtMVA
p168
sVwidth
p169
I5760
sVhtml_attributions
p170
(lp171
V<a href="https://maps.google.com/maps/contrib/104111246635874032234/photos">ZAGAT</a>
p172
asVheight
p173
I3840
sa(dp174
Vphoto_reference
p175
VCoQBcwAAAI5o75mauGZLwQz3Ceisoe9RFrH45ZeGydeA4_f-YRLSF8ZBNFfzhOx8fIammuGNlxRgjf197CMuDUsjbpjmylzWqIouNKRTviK-XeLInvda03e-q3uJg2lOkKZD19J9tf3NF45smF1SPIIRvIH3PLbURB7D2_RsIjos5BQQFXbLEhBcG8rRRSBP8sdYH9EuEUo8GhQa244GlNd6pu1o9NV5_sLpzkILAw
p176
sVwidth
p177
I3096
sVhtml_attributions
p178
(lp179
V<a href="https://maps.google.com/maps/contrib/107721404123505875377/photos">albert lee</a>
p180
asVheight
p181
I4128
sa(dp182
Vphoto_reference
p183
VCoQBdwAAAAXLEZ1YqmVoI-SWpVuUHSMq6JTryEE8hWKVPzIflAF3dRZAEA80W5d3lHO3JiVTM8iLuhHK41pbsjGIW2CXyVGZAni9-kBS2y34EvxztL2GyvSwnFLbfi6KR-Xd4ucFVtVDRTU2YzSbcL-ZmIkCs6IGVSaD2inN27UWABDhU7VjEhC0Ky7rVKC1iX3Ey645TrebGhTuEEyiqyN0sO5d3j9aVl_RNed4-A
p184
sVwidth
p185
I5642
sVhtml_attributions
p186
(lp187
V<a href="https://maps.google.com/maps/contrib/104111246635874032234/photos">ZAGAT</a>
p188
asVheight
p189
I3761
sa(dp190
Vphoto_reference
p191
VCoQBdwAAAJ7HdQOhQPVWqQW_y66d0pxLgt16tF5BqUZ64nlHOZ4gYpo_IJHZ7piG4jR0KxLXrbG2vrfE3zNZKZ_1eNw3iGE_0rzj0ljWseUGBF8y7H-VCCKFk5asdiJsOFCFcL02NqpQnrirMfpv_dV5mqxQjA5zET3BihkUGTulSwadMkqMEhCtFrdrUf3p0X5AdUqFrGg8GhQoSG810h96zuoXPgB0lLK1WlHbMA
p192
sVwidth
p193
I5760
sVhtml_attributions
p194
(lp195
V<a href="https://maps.google.com/maps/contrib/104111246635874032234/photos">ZAGAT</a>
p196
asVheight
p197
I3840
sa(dp198
Vphoto_reference
p199
VCmRdAAAAM76LgGdAqE7QSps2fyw_nxFToRPRMuZt0PgMSwy3eLiZA8t0_Z3bNHhyTkr1RMkSLvUvyOgUlLJR5bfIrULshercfzLUGds5hWKwPkcZH5vQO81iP7D6-c4zYqFgGOpiEhB_wLf0UsgKsICJPlnoovi0GhQggOoglQ8peH6UiJTPPeGFXuvh_g
p200
sVwidth
p201
I4160
sVhtml_attributions
p202
(lp203
V<a href="https://maps.google.com/maps/contrib/113798106891654147241/photos">Geraint Chow</a>
p204
asVheight
p205
I3120
sa(dp206
Vphoto_reference
p207
VCmRdAAAA0nIHXneP9W5-MF1o_YBeKQhOxgMW6UXr3F1s-nJ8Q8HoAeiGfSBzXAHzA6NhpKomzojtFTvB6X-WcRi5C0p79q0aWGwzw59G0OKIcuPWBTr13W2pdYq_9UIv8z-dgqDhEhD07Gwcv3TAWEbn0uEE9nDAGhSvWSJGdZ9n7WJSWhy4fZI3TfZWrQ
p208
sVwidth
p209
I1944
sVhtml_attributions
p210
(lp211
V<a href="https://maps.google.com/maps/contrib/102681823916206539482/photos">Michelle W</a>
p212
asVheight
p213
I2592
sa(dp214
Vphoto_reference
p215
VCmRdAAAAUMGduf9G8qwSKmeSbq8ZUn6CnvbARAexxohDm9hLIDRHUswto8Ha_OKSL0NlqXm90ERwxcfravWs70rvYAxIjLOL1jbB0BbrzybOFS_vKH--UbLcpHrwzvCbOIZiMHzFEhCazFhCC042OP8JnYDTT0xPGhS9U-wumoX1rrkebnuzXmCyjrtswA
p216
sVwidth
p217
I816
sVhtml_attributions
p218
(lp219
V<a href="https://maps.google.com/maps/contrib/101840590148844309820/photos">Ping Chen</a>
p220
asVheight
p221
I612
sa(dp222
Vphoto_reference
p223
VCmRdAAAAe_zNfrE6Tf7YqGx7tys78lkz_iVAaIfCqQr9YR2DxubOoBN_X3FmnopmF96RLCIt4b4pBhZpAtU81nMK8pHHJR8v9aHLqc_DtnXR0asUyATYonHk6EIBgijhmRTGyhmOEhCg8JdAWTpT3uIe0n2APGsBGhT8RR5HVrpy3kpH5SYW1CDdXQ9otg
p224
sVwidth
p225
I2030
sVhtml_attributions
p226
(lp227
V<a href="https://maps.google.com/maps/contrib/110968339669321947548/photos">DraGemini H</a>
p228
asVheight
p229
I2129
sasVtypes
p230
(lp231
Vrestaurant
p232
aVfood
p233
aVpoint_of_interest
p234
aVestablishment
p235
asVicon
p236
Vhttps://maps.gstatic.com/mapfiles/place_api/icons/restaurant-71.png
p237
sVname
p238
VCheese Board Pizza
p239
sVgeometry
p240
(dp241
Vaccess_points
p242
(lp243
(dp244
Vtravel_modes
p245
(lp246
VDRIVING
p247
aVBICYCLING
p248
aVWALKING
p249
aVTRANSIT
p250
asVlocation
p251
(dp252
Vlat
p253
g3
(S'37.8798746'
tRp254
sVlng
p255
g3
(S'-122.2693198'
tRp256
ssasVlocation
p257
(dp258
Vlat
p259
g3
(S'37.87987229999999'
tRp260
sVlng
p261
g3
(S'-122.2694794'
tRp262
sssVadr_address
p263
V<span class="street-address">1512 Shattuck Ave</span>, <span class="locality">Berkeley</span>, <span class="region">CA</span> <span class="postal-code">94709</span>, <span class="country-name">United States</span>
p264
sVinternational_phone_number
p265
V+1 510-549-3183
p266
sVreviews
p267
(lp268
(dp269
Vrating
p270
I5
sVaspects
p271
(lp272
(dp273
Vrating
p274
I3
sVtype
p275
Voverall
p276
sasVprofile_photo_url
p277
V//lh5.googleusercontent.com/-wndZ2gTKpwA/AAAAAAAAAAI/AAAAAAAABVc/LjWT0efPfdg/photo.jpg
p278
sVlanguage
p279
Ven
p280
sVtext
p281
VOne kind of pizza per day. Slice is $2.50, half pizza is 4 slices and thus $10, whole pizza is 8 slices and thus $20. Love the simplicity. Love,\u000alove, love the quality of the food
p282
sVauthor_name
p283
VLex Oudijk
p284
sVauthor_url
p285
Vhttps://plus.google.com/117747346875656140927
p286
sVtime
p287
I1460407183
sa(dp288
Vrating
p289
I5
sVaspects
p290
(lp291
(dp292
Vrating
p293
I3
sVtype
p294
Voverall
p295
sasVlanguage
p296
Ven
p297
sVtext
p298
VGreat pizza. Expect to be bothered occasionally if you sit outside, but that's just Berkeley, I suppose. Rather out of the way for students, but worth trying at least once in your time here
p299
sVauthor_name
p300
VNathan W
p301
sVauthor_url
p302
Vhttps://plus.google.com/105673526627044807571
p303
sVtime
p304
I1461359967
sa(dp305
Vrating
p306
I5
sVaspects
p307
(lp308
(dp309
Vrating
p310
I3
sVtype
p311
Voverall
p312
sasVprofile_photo_url
p313
V//lh5.googleusercontent.com/-ZTVsRDkJCdE/AAAAAAAAAAI/AAAAAAAAADA/2SazbCx_las/photo.jpg
p314
sVlanguage
p315
Ven
p316
sVtext
p317
VDelicious pizza and salad. 1 type of pizza and salad sold each day (every day is a different type of pizza and salad.) Amazing dressing for pizza called Papi Chulo a green garlic based sauce 5 stars!
p318
sVauthor_name
p319
VAndrea G
p320
sVauthor_url
p321
Vhttps://plus.google.com/115998611145605739668
p322
sVtime
p323
I1456976902
sa(dp324
Vrating
p325
I5
sVaspects
p326
(lp327
(dp328
Vrating
p329
I3
sVtype
p330
Voverall
p331
sasVprofile_photo_url
p332
V//lh4.googleusercontent.com/-JT1SSXSzBMw/AAAAAAAAAAI/AAAAAAAAAI8/yYdgjYCj2xM/photo.jpg
p333
sVlanguage
p334
Ven
p335
sVtext
p336
VGreat vibes here with a packed restaurant of people enjoying the pizza and music. Even for a meat lover, the pizza is extremely satisfying, and the cheese even gives a meaty feel to it.
p337
sVauthor_name
p338
VYing H
p339
sVauthor_url
p340
Vhttps://plus.google.com/116118996044024186000
p341
sVtime
p342
I1461092277
sa(dp343
Vrating
p344
I5
sVaspects
p345
(lp346
(dp347
Vrating
p348
I3
sVtype
p349
Voverall
p350
sasVprofile_photo_url
p351
V//lh3.googleusercontent.com/-C11pCjpCCCU/AAAAAAAAAAI/AAAAAAAAAC4/uk-9Qe9-g1c/photo.jpg
p352
sVlanguage
p353
Ven
p354
sVtext
p355
VBest Pizza I've eaten so far, moved back to LA and have been thinking of visiting Berkeley for their corn/avocado pizza.\u000aIt definitely adds to the Berkeley atmosphere. It is a very unique community with uniquely tasty food.
p356
sVauthor_name
p357
VSkyla xo
p358
sVauthor_url
p359
Vhttps://plus.google.com/109909152393690251426
p360
sVtime
p361
I1451937076
sasVformatted_phone_number
p362
V(510) 549-3183
p363
sVaddress_components
p364
(lp365
(dp366
Vlong_name
p367
V1512
p368
sVtypes
p369
(lp370
Vstreet_number
p371
asVshort_name
p372
V1512
p373
sa(dp374
Vlong_name
p375
VShattuck Avenue
p376
sVtypes
p377
(lp378
Vroute
p379
asVshort_name
p380
VShattuck Ave
p381
sa(dp382
Vlong_name
p383
VBerkeley
p384
sVtypes
p385
(lp386
Vlocality
p387
aVpolitical
p388
asVshort_name
p389
VBerkeley
p390
sa(dp391
Vlong_name
p392
VCalifornia
p393
sVtypes
p394
(lp395
Vadministrative_area_level_1
p396
aVpolitical
p397
asVshort_name
p398
VCA
p399
sa(dp400
Vlong_name
p401
VUnited States
p402
sVtypes
p403
(lp404
Vcountry
p405
aVpolitical
p406
asVshort_name
p407
VUS
p408
sa(dp409
Vlong_name
p410
V94709
p411
sVtypes
p412
(lp413
Vpostal_code
p414
asVshort_name
p415
V94709
p416
sas.