(dp1
Vrating
p2
cdecimal
Decimal
p3
(S'4.5'
tRp4
sVreference
p5
VCmRfAAAAYt2BoKgzXbR1aR4y203c8beiTy6D5hBmhMcIRWfgZJvVJUkOQ9Hx7qfoQCi9y_ks4IHFZ-uIRzYxs5aVIPj2yVaNvhPCS-6nnIpsiw0IJsREtSUG9gwyR1PSzSVCgnWJEhDWszbL29U61S_jguWMYCfdGhQ5juiPnaB1e6Xm0PffuepGEFqhAQ
p6
sVplace_id
p7
VChIJcYtcJaF-hYAR-VzrwZpQY0E
p8
sVurl
p9
Vhttps://maps.google.com/?cid=4711698260768283897
p10
sVformatted_address
p11
V1517 Shattuck Ave, Berkeley, CA 94709, United States
p12
sVid
p13
V19ad91fba2fbb647d5e6ee4d650fdfa4394ebe83
p14
sVopening_hours
p15
(dp16
Vweekday_text
p17
(lp18
VMonday: 11:30 AM \u2013 10:30 PM
p19
aVTuesday: 11:30 AM \u2013 10:30 PM
p20
aVWednesday: 11:30 AM \u2013 10:30 PM
p21
aVThursday: 11:30 AM \u2013 10:30 PM
p22
aVFriday: 11:30 AM \u2013 11:30 PM
p23
aVSaturday: 11:30 AM \u2013 11:30 PM
p24
aVSunday: Closed
p25
asVopen_now
p26
I01
sVperiods
p27
(lp28
(dp29
Vclose
p30
(dp31
Vday
p32
I1
sVtime
p33
V2230
p34
ssVopen
p35
(dp36
Vday
p37
I1
sVtime
p38
V1130
p39
ssa(dp40
Vclose
p41
(dp42
Vday
p43
I2
sVtime
p44
V2230
p45
ssVopen
p46
(dp47
Vday
p48
I2
sVtime
p49
V1130
p50
ssa(dp51
Vclose
p52
(dp53
Vday
p54
I3
sVtime
p55
V2230
p56
ssVopen
p57
(dp58
Vday
p59
I3
sVtime
p60
V1130
p61
ssa(dp62
Vclose
p63
(dp64
Vday
p65
I4
sVtime
p66
V2230
p67
ssVopen
p68
(dp69
Vday
p70
I4
sVtime
p71
V1130
p72
ssa(dp73
Vclose
p74
(dp75
Vday
p76
I5
sVtime
p77
V2330
p78
ssVopen
p79
(dp80
Vday
p81
I5
sVtime
p82
V1130
p83
ssa(dp84
Vclose
p85
(dp86
Vday
p87
I6
sVtime
p88
V2330
p89
ssVopen
p90
(dp91
Vday
p92
I6
sVtime
p93
V1130
p94
ssassVvicinity
p95
V1517 Shattuck Avenue, Berkeley
p96
sVscope
p97
VGOOGLE
p98
sVwebsite
p99
Vhttp://www.chezpanisse.com/
p100
sVutc_offset
p101
I-420
sVuser_ratings_total
p102
I441
sVphotos
p103
(lp104
(dp105
Vphoto_reference
p106
VCoQBcwAAAMYmd55LTkU2_8VJ-V5wadot37bT8ddRsLOsDFzqPvxLGnAz4eoVqzt8DEq_FEWffLSdca8XHcTDja0quGv5FCYIrXLu_3qCUh2c4mzTNpwkqtIOEzgNDXlWfaf2GRHxO0Nq7wSzp0Ri6ANR76K1dsbLvW8z9MW1CUhIBE3eVn3uEhCQr73WY7zOI14KzK4TRGXSGhR5h-_UvRFQJdtFkfm3iW4k0dEKgA
p107
sVwidth
p108
I2745
sVhtml_attributions
p109
(lp110
V<a href="https://maps.google.com/maps/contrib/107721404123505875377/photos">albert lee</a>
p111
asVheight
p112
I1821
sa(dp113
Vphoto_reference
p114
VCmRdAAAAuL22hsDqwgx6js6N1J1HvdTrIZLTqzsJuh55MztGq2-nwPWAtKxtio-ZyPy4pbzOA8FthGtyK0qSV73yknQ9pfd6v5tNGe9u3YCzXJ92c78nmoKJIgkBFjLmZHZg1maCEhASyoF51Fzx7-A_IcrSczwNGhT8HlFQ9kc6ePpG8rJnnxQmnLaoCQ
p115
sVwidth
p116
I3096
sVhtml_attributions
p117
(lp118
V<a href="https://maps.google.com/maps/contrib/107721404123505875377/photos">albert lee</a>
p119
asVheight
p120
I4128
sa(dp121
Vphoto_reference
p122
VCmRdAAAAlb7WKZnTf6ZSYp6Lc6cwHqpohe2EMr8Y_a0vAolJVmn3joH6fw_jtND0eJAv-WY92UtI7tmXktyo4CkYnNjGbp8ZWulE7KN0RcfMXt7KIma6Gm3V0rCxCRTPkvKob2fCEhAa7M0rj_ere1a5gfJtavNZGhT9_nmu6VkufPBCu13n_pgPlnhang
p123
sVwidth
p124
I3264
sVhtml_attributions
p125
(lp126
V<a href="https://maps.google.com/maps/contrib/103322116725763248280/photos">Eugene C</a>
p127
asVheight
p128
I2448
sa(dp129
Vphoto_reference
p130
VCmRdAAAA0m-74X_l5gZvN6XZm6cykLPmUAduuc1oYee_GG01mccbSz9P9R_SCAJ79MbbEE4I_8fHpPVxr6fyi3CgJBYDQCzn2JO8FUVDfMWRB7tVe_ZsCmtl3qJImCcCwe7mUdovEhCV_RSv-OvJF9UX9N3PFiKgGhR2NQ_MqaZ1r_M-ZiY8A6_xYJP0_A
p131
sVwidth
p132
I3096
sVhtml_attributions
p133
(lp134
V<a href="https://maps.google.com/maps/contrib/107721404123505875377/photos">albert lee</a>
p135
asVheight
p136
I4128
sa(dp137
Vphoto_reference
p138
VCmRdAAAAJ9OVguwn47AJn_KmcJKvhcUxLleR_iMxb6IQxPgyApb950K6jt4bBt-P6ua8Hoo1fC4O6V6RxcnL2dRQ_KJDNi4FjpM_BmVMUSGmFH_LQyIcoLAZQq2SpW9wTRNKSfFPEhCDz3IWwueX-z7c_UDCqcYpGhTbFING9tlwUwuPnHMDm_xYOPZuCg
p139
sVwidth
p140
I960
sVhtml_attributions
p141
(lp142
V<a href="https://maps.google.com/maps/contrib/115076861954284504726/photos">Anton Volkov</a>
p143
asVheight
p144
I960
sa(dp145
Vphoto_reference
p146
VCoQBcwAAAArjO7SGo6RG7Ytqj3GK1PgTE10vFtbTMjZ1pEku9gi2Mdm_pcQ9cxQwkqHJcu0RUvJKOOU8cD7GbR97ZU4-xalPsTsyOdwPyCuusxsZeWXi6J1_UFlQOdXaQ_uxmZ6xl5Lv3FvhBqEWMd5KGtJ0BZ7Hrmyi1kbX1bcc5Ra0rzIkEhBy9p5bb7CQN4BZ5889HZTLGhSID39ADN4CQ2EM772p14pAkEqraQ
p147
sVwidth
p148
I4128
sVhtml_attributions
p149
(lp150
V<a href="https://maps.google.com/maps/contrib/107721404123505875377/photos">albert lee</a>
p151
asVheight
p152
I3096
sa(dp153
Vphoto_reference
p154
VCoQBcwAAAEcGaLnEhosOjQftz15XFapzL0GX2MEWCVqBBE7xJQqmrLVmRen8d9vIXVToaEpYdbX2YIsDHabQQxNREzmv9Qgu3FwsOWPDbC6FPeDTUI3bpV8xLGqNsTXxcUithvzOCniS0BnkgHezySgHYgFOv0nC9KT9wIranytSTR-91_04EhBS3PfM0hBwkjgCyRJz8--VGhSJId6c4ouQ09_gTPRkW3Jb9t2FgA
p155
sVwidth
p156
I4160
sVhtml_attributions
p157
(lp158
V<a href="https://maps.google.com/maps/contrib/114122567270962169712/photos">Steve Tjiang</a>
p159
asVheight
p160
I3088
sa(dp161
Vphoto_reference
p162
VCmRdAAAAT13kM_z3eWFVTCBH2arXmbPCtelsb148Us3M2QSp2EbEZr8JYYkRF718FR9dyh-dBf04oF8nMUVbM8z4elmLE9g7SkjtXZ0SBt1xBqbWAHCpjKWGSQYF3YvsCBm2Jmj_EhBP8X7zll7TG70X6fF5WXCGGhRfyYc4MublGOoHODcAsvExk8xllQ
p163
sVwidth
p164
I3096
sVhtml_attributions
p165
(lp166
V<a href="https://maps.google.com/maps/contrib/107721404123505875377/photos">albert lee</a>
p167
asVheight
p168
I4128
sa(dp169
Vphoto_reference
p170
VCoQBcwAAAJ1h6CD_WhhOwv5jdgIxGF2qnNKT8L1RnrkZRfl5KmN6NMkQ-2g8p2Kv4rD0s6WgDMufFXsS-YAT3nCMAoFSM8lJZigSWEn9GXWUo9Ic6Pu1DacSsKPSYnDn00jcMYdNL8a_0d5w_xtnudUTU69IMVJTWeP9dRCx6ll7SfH6HnCYEhBBAGwuyyDl0h_QzI56-g5sGhRdH4Uj9R2dHgC-V95nVrMZ59RyBw
p171
sVwidth
p172
I4160
sVhtml_attributions
p173
(lp174
V<a href="https://maps.google.com/maps/contrib/114122567270962169712/photos">Steve Tjiang</a>
p175
asVheight
p176
I3088
sa(dp177
Vphoto_reference
p178
VCmRdAAAAcvqpA5xqkuVq0R5PuE1YG8cInY9i1so9viee58YoMxX_kQpiH2wr3pSiUyD4pCENnuNZ6h59VAgcb3wHGJccgFimZhwqoGZhHcP7Xk1DeWPRqv8jk9XfpHCMn6UxgBr4EhAai8j6HfBz3vHwzQpI-IrxGhQSy1LwEj9YwPG-vQZrXpvmNFbnBw
p179
sVwidth
p180
I4128
sVhtml_attributions
p181
(lp182
V<a href="https://maps.google.com/maps/contrib/107721404123505875377/photos">albert lee</a>
p183
asVheight
p184
I3096
sasVtypes
p185
(lp186
Vrestaurant
p187
aVcafe
p188
aVfood
p189
aVbar
p190
aVpoint_of_interest
p191
aVestablishment
p192
asVicon
p193
Vhttps://maps.gstatic.com/mapfiles/place_api/icons/restaurant-71.png
p194
sVname
p195
VChez Panisse
p196
sVgeometry
p197
(dp198
Vaccess_points
p199
(lp200
(dp201
Vtravel_modes
p202
(lp203
VDRIVING
p204
aVBICYCLING
p205
aVWALKING
p206
aVTRANSIT
p207
asVlocation
p208
(dp209
Vlat
p210
g3
(S'37.8795753'
tRp211
sVlng
p212
g3
(S'-122.269168'
tRp213
ssasVlocation
p214
(dp215
Vlat
p216
g3
(S'37.8795896'
tRp217
sVlng
p218
g3
(S'-122.2689645'
tRp219
sssVadr_address
p220
V<span class="street-address">1517 Shattuck Ave</span>, <span class="locality">Berkeley</span>, <span class="region">CA</span> <span class="postal-code">94709-1598</span>, <span class="country-name">United States</span>
p221
sVinternational_phone_number
p222
V+1 510-548-5525
p223
sVreviews
p224
(lp225
(dp226
Vrating
p227
I5
sVaspects
p228
(lp229
(dp230
Vrating
p231
I3
sVtype
p232
Voverall
p233
sasVlanguage
p234
Ven
p235
sVtext
p236
VLives up to the hype. \u000a\u000aStaff: Incredibly knowledgeable and polite. From the moment you walk in you're treated as a friend.\u000a\u000aFood: I've had halibut and the meatballs in the cafe and both were perfect and flavorful, but not overwhelming. I recently went to Boulevard in SF as well, and while that's a great restaurant, Chez Panisse does it a bit better in my opinion.\u000a\u000aAtmosphere: Very homey, set back from Shattuck. Redwood woodwork feels like a cottage, but is well kept (unlike many old homes in Berkeley.)
p237
sVauthor_name
p238
VNick Cole
p239
sVauthor_url
p240
Vhttps://plus.google.com/109756876351834154810
p241
sVtime
p242
I1458930020
sa(dp243
Vrating
p244
I5
sVaspects
p245
(lp246
(dp247
Vrating
p248
I3
sVtype
p249
Voverall
p250
sasVprofile_photo_url
p251
V//lh4.googleusercontent.com/-eLXNlTe4two/AAAAAAAAAAI/AAAAAAAAAF0/sOzx6iEm_7w/photo.jpg
p252
sVlanguage
p253
Ven
p254
sVtext
p255
VChez Panisse just keeps staying awesome year after year.  The service is some of the best in the country, and the food is always both simple, innovative and amazing.  I've been coming for lunch (never had dinner there, actually) for 15 years, and it makes so happy and inspired every time.
p256
sVauthor_name
p257
VKurt Brown
p258
sVauthor_url
p259
Vhttps://plus.google.com/110966664627349178939
p260
sVtime
p261
I1459898000
sa(dp262
Vrating
p263
I5
sVaspects
p264
(lp265
(dp266
Vrating
p267
I3
sVtype
p268
Voverall
p269
sasVprofile_photo_url
p270
V//lh5.googleusercontent.com/-w1S0stH4wHU/AAAAAAAAAAI/AAAAAAAAPZQ/AgphVMvZF5M/photo.jpg
p271
sVlanguage
p272
Ven
p273
sVtext
p274
VThis is our special occasion place. Paying homage to Alice Waters because she represents what I want in every meal. Simple food and simple techniques done super well. If we could go back to local, organic and responsible living, sign me up.
p275
sVauthor_name
p276
VEugene C
p277
sVauthor_url
p278
Vhttps://plus.google.com/103322116725763248280
p279
sVtime
p280
I1448257109
sa(dp281
Vrating
p282
I5
sVaspects
p283
(lp284
(dp285
Vrating
p286
I3
sVtype
p287
Voverall
p288
sasVlanguage
p289
Ven
p290
sVtext
p291
VAmazing food and atmosphere! Simple, authentic tasting dishes with highest quality ingredients. Perfect execution and no-frills ambience.
p292
sVauthor_name
p293
VTilman Reinhardt
p294
sVauthor_url
p295
Vhttps://plus.google.com/104705139555406918108
p296
sVtime
p297
I1459311123
sa(dp298
Vrating
p299
I5
sVaspects
p300
(lp301
(dp302
Vrating
p303
I3
sVtype
p304
Voverall
p305
sasVprofile_photo_url
p306
V//lh3.googleusercontent.com/-jQvlUO6cRtQ/AAAAAAAAAAI/AAAAAAAAAgk/w8mE1W8UTx4/photo.jpg
p307
sVlanguage
p308
Ven
p309
sVtext
p310
VIts how id like to cook when i am older and wiser. flavors danced a subtle dance. sometimes -like with the panacotta cardamom and orange- it was the all-expected flavor spectacle/ bystander sport and protagonist experience all at once.
p311
sVauthor_name
p312
VManuel Ferrer
p313
sVauthor_url
p314
Vhttps://plus.google.com/113631663576062400909
p315
sVtime
p316
I1459061670
sasVformatted_phone_number
p317
V(510) 548-5525
p318
sVaddress_components
p319
(lp320
(dp321
Vlong_name
p322
V1517
p323
sVtypes
p324
(lp325
Vstreet_number
p326
asVshort_name
p327
V1517
p328
sa(dp329
Vlong_name
p330
VShattuck Avenue
p331
sVtypes
p332
(lp333
Vroute
p334
asVshort_name
p335
VShattuck Ave
p336
sa(dp337
Vlong_name
p338
VBerkeley
p339
sVtypes
p340
(lp341
Vlocality
p342
aVpolitical
p343
asVshort_name
p344
VBerkeley
p345
sa(dp346
Vlong_name
p347
VCalifornia
p348
sVtypes
p349
(lp350
Vadministrative_area_level_1
p351
aVpolitical
p352
asVshort_name
p353
VCA
p354
sa(dp355
Vlong_name
p356
VUnited States
p357
sVtypes
p358
(lp359
Vcountry
p360
aVpolitical
p361
asVshort_name
p362
VUS
p363
sa(dp364
Vlong_name
p365
V94709
p366
sVtypes
p367
(lp368
Vpostal_code
p369
asVshort_name
p370
V94709
p371
sa(dp372
Vlong_name
p373
V1598
p374
sVtypes
p375
(lp376
Vpostal_code_suffix
p377
asVshort_name
p378
V1598
p379
sas.