(dp1
Vrating
p2
cdecimal
Decimal
p3
(S'4.2'
tRp4
sVreference
p5
VCmRgAAAAPLTlW-USY4I6ek6-SaQQpDO7G59yidLpwe3d1nU7FR9t5fBhcQp5rpWZEZFaQsMfVjOPjeSCHm1uhSdeJvM7a0NLm0Ofzf3O2L1Zy72qgAW6zWPc_RTlzomnsaGHeVA9EhCzOiZ630wT0a9bCF6894mKGhRHPgpFcOBmw97rK-7fbFfu24IPkw
p6
sVplace_id
p7
VChIJoyoBvjx-j4ARNUWlMkjGUL4
p8
sVurl
p9
Vhttps://maps.google.com/?cid=13713678878732797237
p10
sVformatted_address
p11
V2224 Mission St, San Francisco, CA 94110, United States
p12
sVid
p13
V72920b5fad6e6a5a9d29583257788dd4c4ae538a
p14
sVopening_hours
p15
(dp16
Vweekday_text
p17
(lp18
VMonday: 5:30 \u2013 10:00 PM
p19
aVTuesday: 5:30 \u2013 10:00 PM
p20
aVWednesday: 5:30 \u2013 10:00 PM
p21
aVThursday: 5:30 \u2013 10:00 PM
p22
aVFriday: 5:30 \u2013 11:00 PM
p23
aVSaturday: 5:30 \u2013 11:00 PM
p24
aVSunday: 5:30 \u2013 10:00 PM
p25
asVopen_now
p26
I00
sVperiods
p27
(lp28
(dp29
Vclose
p30
(dp31
Vday
p32
I0
sVtime
p33
V2200
p34
ssVopen
p35
(dp36
Vday
p37
I0
sVtime
p38
V1730
p39
ssa(dp40
Vclose
p41
(dp42
Vday
p43
I1
sVtime
p44
V2200
p45
ssVopen
p46
(dp47
Vday
p48
I1
sVtime
p49
V1730
p50
ssa(dp51
Vclose
p52
(dp53
Vday
p54
I2
sVtime
p55
V2200
p56
ssVopen
p57
(dp58
Vday
p59
I2
sVtime
p60
V1730
p61
ssa(dp62
Vclose
p63
(dp64
Vday
p65
I3
sVtime
p66
V2200
p67
ssVopen
p68
(dp69
Vday
p70
I3
sVtime
p71
V1730
p72
ssa(dp73
Vclose
p74
(dp75
Vday
p76
I4
sVtime
p77
V2200
p78
ssVopen
p79
(dp80
Vday
p81
I4
sVtime
p82
V1730
p83
ssa(dp84
Vclose
p85
(dp86
Vday
p87
I5
sVtime
p88
V2300
p89
ssVopen
p90
(dp91
Vday
p92
I5
sVtime
p93
V1730
p94
ssa(dp95
Vclose
p96
(dp97
Vday
p98
I6
sVtime
p99
V2300
p100
ssVopen
p101
(dp102
Vday
p103
I6
sVtime
p104
V1730
p105
ssassVvicinity
p106
V2224 Mission Street, San Francisco
p107
sVscope
p108
VGOOGLE
p109
sVwebsite
p110
Vhttp://commonwealthsf.com/
p111
sVutc_offset
p112
I-420
sVuser_ratings_total
p113
I103
sVphotos
p114
(lp115
(dp116
Vphoto_reference
p117
VCoQBcwAAANGXELyMw5CEx2c116Rh7mmBwu7-JJXF9TjVvynxqaVzPaldA-SBthMWypnLQ2OhVsmrKF7wdwD5G-UrRyUN5rKy0-q-6n7zINXiyTmkmHp9tFgITo7J4eTjGYzF6665DZkAX9cQQeX7Z20ohFsxznRbzYs_y2YKkbowkBMpmxMIEhAkRlQuiJhel1fCpFrs7hHXGhSNMaHQfjiQDb81yeTnVooxRkcn_g
p118
sVwidth
p119
I2797
sVhtml_attributions
p120
(lp121
V<a href="https://maps.google.com/maps/contrib/100500770256468143772/photos">Emily Allstot</a>
p122
asVheight
p123
I2797
sa(dp124
Vphoto_reference
p125
VCmRdAAAAfLQ1CfHJbG1gk3NYFNqqpnrUqeFGleKpzjGI1RkCnTdlzd-CK2CFTa8zDwzlzocXt0MxL1QD28TIQzlgj1xZ9ySfEAZRhk3b4HfuFrwNk_a6udeq4ZZ6P6QJJmDjDsYLEhCpi89NbaDtDIbPMcuGeNd_GhTEF2wwvDLP-DdUz83JN2uqVyWO9A
p126
sVwidth
p127
I2048
sVhtml_attributions
p128
(lp129
V<a href="https://maps.google.com/maps/contrib/101840590148844309820/photos">Ping Chen</a>
p130
asVheight
p131
I1366
sa(dp132
Vphoto_reference
p133
VCmRdAAAAyZY-wLFAEWTrzYn4hkDYgx8xyA-LKZxxptESwKtxgSq9LMbCYIADHFcMgnAs3Zhwv4KdvvhU4lfMXlgx4Y58UcED9argupAA_G5riqOL0msVapV_QrAID1nOCfq7shJwEhDfJiPst7eFo4Nq4TqRvUZHGhRM4VqQ3mQVwvpNz1nEeb6BWNLvBg
p134
sVwidth
p135
I2048
sVhtml_attributions
p136
(lp137
V<a href="https://maps.google.com/maps/contrib/101840590148844309820/photos">Ping Chen</a>
p138
asVheight
p139
I1366
sa(dp140
Vphoto_reference
p141
VCmRdAAAA1KtYWlxR-YxE7_wxIfaT6HmzOmCgovRrBIvu-dqNaeYvWZr2PkSBE9GQNo4VrWPpnJ7hacd5tpdg38U5Fa2NQqtAkv_y0ncnvyfCJvQhddHYzh1417tkZscH0Ywh9ynEEhCXrle8a8rnNosq1Hxf2HwPGhTdbxFj1_tug2xOJuAUDO6fUAfQ4g
p142
sVwidth
p143
I2048
sVhtml_attributions
p144
(lp145
V<a href="https://maps.google.com/maps/contrib/101840590148844309820/photos">Ping Chen</a>
p146
asVheight
p147
I1366
sa(dp148
Vphoto_reference
p149
VCmRdAAAARikWyZamHZmhD7LrH-F2X_kuvXtIfaLprr9XjjeBDke0tEt4-ROK-7T7O8kbgijiSupgODgm9Q5SkOhvhjupnHfSyTAzFSjo3X_m5Bk0-uCMv7FJC8th7PHQSmx7Q2jFEhD3YMie8Vo9WB1WpTAl9zupGhQ2_ZZNPGvox6Wi_QFph7VHjTJGjw
p150
sVwidth
p151
I2048
sVhtml_attributions
p152
(lp153
V<a href="https://maps.google.com/maps/contrib/101840590148844309820/photos">Ping Chen</a>
p154
asVheight
p155
I1366
sa(dp156
Vphoto_reference
p157
VCmRdAAAA6vcWyLj4zSeGurX-6BwocNIPNWLtiJv92BVuTkxrrry68AcwrYiyLF2TStfL3pxKe6tXS-E_3dNbMaAxihyLzcy29OFpeDrZwA_kV_RRlDItydD4-30xkXHL_CpwBtdHEhAMnUDFRlAIlKtog2woLysNGhSID8yJh6vkUjwtYAOPT4ZOZHtskg
p158
sVwidth
p159
I2448
sVhtml_attributions
p160
(lp161
V<a href="https://maps.google.com/maps/contrib/101840590148844309820/photos">Ping Chen</a>
p162
asVheight
p163
I3264
sa(dp164
Vphoto_reference
p165
VCmRdAAAASjeGX9krhiJ-VrmtIGq6x_vFaUFTxjX3ehhNNmEEifTOg-LSxT_IfVnR1zHcxWoQXW3W1dYh3ZClPp-wGvVye7G4O06vJusMgKv18X7Pg7KYoRD6aCgH6N5CEURYfnrJEhBwMBQ5bQ5iQ0tOm5jR3etrGhQGrCn8Od6Ix47jfr-X6iJZrgId2w
p166
sVwidth
p167
I3264
sVhtml_attributions
p168
(lp169
V<a href="https://maps.google.com/maps/contrib/101840590148844309820/photos">Ping Chen</a>
p170
asVheight
p171
I2448
sa(dp172
Vphoto_reference
p173
VCmRdAAAAb8wzt3v42fwW0UutiiEHQchb22ulHFrxS6voAn-sO1aFjx3CUh9Tx2QKWNRUUNtjpYf0o3KSELJIz7GW3FlnSHQa98EvYDdxLURH4w98EHRL3aemOq2FUsq59SBWiIsvEhDtB-fJ_6hWjxV5OQHhfx3XGhShiDHdXaFbkg6B9u2z5hOOnAtEFw
p174
sVwidth
p175
I3264
sVhtml_attributions
p176
(lp177
V<a href="https://maps.google.com/maps/contrib/101840590148844309820/photos">Ping Chen</a>
p178
asVheight
p179
I2448
sa(dp180
Vphoto_reference
p181
VCmRdAAAAEjNANemK4L6FlTTBr-tgjxOKFibDDff1Yx8vj5Qw6-VJLiNW4kdk5mqsCkb2rr_-9noD8n7hINbz9IbX9q490vI1aPf_Lf5TNX-_1F5QiW0jsKnn5RS1unks8yO9LUtrEhB6V___fqpiwpKcQRftMv-CGhSznnUxZRfXg78QN-jtXVyRiJTc9Q
p182
sVwidth
p183
I2048
sVhtml_attributions
p184
(lp185
V<a href="https://maps.google.com/maps/contrib/101840590148844309820/photos">Ping Chen</a>
p186
asVheight
p187
I1366
sa(dp188
Vphoto_reference
p189
VCmRdAAAAl3DBIm8jPAn6zgjMpmajmWYMRPivvCGweV3uEVCyO4M5dR2tgUcZQchYOlzSxCAdUHJDV5_kzvHESrdlt2vSq3b4q_mQyDQV96mimvKukXhb1VP1UEBvF-lHhS9IFJM4EhBeAn7O4XXI2q-aEReLKjnlGhT6cjeAIc-Zcob5Dad_ziq4Igco2w
p190
sVwidth
p191
I3264
sVhtml_attributions
p192
(lp193
V<a href="https://maps.google.com/maps/contrib/101840590148844309820/photos">Ping Chen</a>
p194
asVheight
p195
I2448
sasVtypes
p196
(lp197
Vrestaurant
p198
aVfood
p199
aVpoint_of_interest
p200
aVestablishment
p201
asVicon
p202
Vhttps://maps.gstatic.com/mapfiles/place_api/icons/restaurant-71.png
p203
sVname
p204
VCommonwealth
p205
sVgeometry
p206
(dp207
Vaccess_points
p208
(lp209
(dp210
Vtravel_modes
p211
(lp212
VDRIVING
p213
aVBICYCLING
p214
aVWALKING
p215
aVTRANSIT
p216
asVlocation
p217
(dp218
Vlat
p219
g3
(S'37.7613329'
tRp220
sVlng
p221
g3
(S'-122.4193544'
tRp222
ssasVlocation
p223
(dp224
Vlat
p225
g3
(S'37.7613187'
tRp226
sVlng
p227
g3
(S'-122.41964'
tRp228
sssVadr_address
p229
V<span class="street-address">2224 Mission St</span>, <span class="locality">San Francisco</span>, <span class="region">CA</span> <span class="postal-code">94110</span>, <span class="country-name">United States</span>
p230
sVinternational_phone_number
p231
V+1 415-355-1500
p232
sVreviews
p233
(lp234
(dp235
Vrating
p236
I5
sVaspects
p237
(lp238
(dp239
Vrating
p240
I3
sVtype
p241
Voverall
p242
sasVprofile_photo_url
p243
V//lh5.googleusercontent.com/-_rYYLlp-u6A/AAAAAAAAAAI/AAAAAAAADxg/kiLXYtRldcw/photo.jpg
p244
sVlanguage
p245
Ven
p246
sVtext
p247
VPerfection.\u000a\u000aThe location is super trendy. They have a fun disco ball above the center table, behind a glass window, with a view of the rafters. It was a little weird, but kind of fit somehow. It is pretty pricey, but it's worth every dollar.\u000a\u000aI had foie gras (for the first time), asparagus, and sablefish (3 courses, which was recommended). We also shared some desserts around the table - a lemon cake and something with fudgey chocolate. I thought it was a good amount of food with a beer. The waiter said some people even go to four courses and dessert sometimes. \u000a\u000aThe foie gras was crusted in oatmeal and served with crackers. It was heavenly - like poultry butter with a little texture from the oatmeal and a satisfying crunch of the cracker. It was served with pickled shallot and rhubarb, which gave it a tangy, tart, acid component. \u000a\u000aThe asparagus was service wrapped in nori. It was perfectly cooked - tender, but crisp. Served with something pickley and an unctuous egg yolk jam. It worked.\u000a\u000aFinally, I had the sablefish. It was served with something foamy in a shallow dish. It ended up being the perfect vessel that allowed you to easily get a bite of everything on the dish at once. It was salty and umami, with a hint of coconut.\u000a\u000aThe whole experience was great. Our waiter was really nice, and explained the dish at each service, so you could remember what you were going to eat. What a genius little thing to do...
p248
sVauthor_name
p249
VJeffrey Anderson
p250
sVauthor_url
p251
Vhttps://plus.google.com/111925007478962781716
p252
sVtime
p253
I1458959475
sa(dp254
Vrating
p255
I4
sVaspects
p256
(lp257
(dp258
Vrating
p259
I2
sVtype
p260
Voverall
p261
sasVprofile_photo_url
p262
V//lh3.googleusercontent.com/-iWo9BA_1Hnc/AAAAAAAAAAI/AAAAAAAALew/daFF4B6eUh4/photo.jpg
p263
sVlanguage
p264
Ven
p265
sVtext
p266
VReliably stunning, a superior upmarket meal. They'll tell you they recommend 3 a la carte entrees per person. I've always found 2 + a dessert to be more than enough
p267
sVauthor_name
p268
VChris Wilson
p269
sVauthor_url
p270
Vhttps://plus.google.com/115275281694473312120
p271
sVtime
p272
I1459459259
sa(dp273
Vrating
p274
I5
sVaspects
p275
(lp276
(dp277
Vrating
p278
I3
sVtype
p279
Voverall
p280
sasVprofile_photo_url
p281
V//lh6.googleusercontent.com/-dFEetvqShjI/AAAAAAAAAAI/AAAAAAAAIG8/hLAT5NEx43s/photo.jpg
p282
sVlanguage
p283
Ven
p284
sVtext
p285
VAmazing and creative food. I tested the 6 plates menu, and it was full of taste and of surprises. I highly recommend the place !
p286
sVauthor_name
p287
VConstantin Foniadakis
p288
sVauthor_url
p289
Vhttps://plus.google.com/112248445117666428004
p290
sVtime
p291
I1458531081
sa(dp292
Vrating
p293
I1
sVaspects
p294
(lp295
(dp296
Vrating
p297
I0
sVtype
p298
Voverall
p299
sasVlanguage
p300
Ven
p301
sVtext
p302
Vso terrible  the food was bland and disgusting over priced charged my twice for 80$ of wine\u000adont listen to the other reviews\u000awaste of money and time
p303
sVauthor_name
p304
VChelsea Riley
p305
sVauthor_url
p306
Vhttps://plus.google.com/114774527787309421417
p307
sVtime
p308
I1453751636
sa(dp309
Vrating
p310
I3
sVaspects
p311
(lp312
(dp313
Vrating
p314
I1
sVtype
p315
Voverall
p316
sasVprofile_photo_url
p317
V//lh5.googleusercontent.com/-vTq7OKOpAwQ/AAAAAAAAAAI/AAAAAAAAAAA/gZqLHfhrE4k/photo.jpg
p318
sVlanguage
p319
Ven
p320
sVtext
p321
VI would have given more stars if the portion was bigger. I had the standard 3-course meal with additional dessert (cranberry pudding). In two hours I got so hungry at home that I had to cook my instant ramen noodle:(  
p322
sVauthor_name
p323
VQing Wu
p324
sVauthor_url
p325
Vhttps://plus.google.com/118435006246791278211
p326
sVtime
p327
I1448313436
sasVformatted_phone_number
p328
V(415) 355-1500
p329
sVaddress_components
p330
(lp331
(dp332
Vlong_name
p333
V2224
p334
sVtypes
p335
(lp336
Vstreet_number
p337
asVshort_name
p338
V2224
p339
sa(dp340
Vlong_name
p341
VMission Street
p342
sVtypes
p343
(lp344
Vroute
p345
asVshort_name
p346
VMission St
p347
sa(dp348
Vlong_name
p349
VSan Francisco
p350
sVtypes
p351
(lp352
Vlocality
p353
aVpolitical
p354
asVshort_name
p355
VSF
p356
sa(dp357
Vlong_name
p358
VCalifornia
p359
sVtypes
p360
(lp361
Vadministrative_area_level_1
p362
aVpolitical
p363
asVshort_name
p364
VCA
p365
sa(dp366
Vlong_name
p367
VUnited States
p368
sVtypes
p369
(lp370
Vcountry
p371
aVpolitical
p372
asVshort_name
p373
VUS
p374
sa(dp375
Vlong_name
p376
V94110
p377
sVtypes
p378
(lp379
Vpostal_code
p380
asVshort_name
p381
V94110
p382
sas.