(dp1
Vrating
p2
cdecimal
Decimal
p3
(S'4.3'
tRp4
sVreference
p5
VCmRaAAAA0fIDvYoA-_BqX3M_LAMCnmYqpIVOOCKaVhqdghdVaSTI6lPskdqpnulEXADphKarF59bvA94zw04rmu1XaaJjQgmYeLg0LH6OPuue9AnK4HtpGw5Hpg5QvdDVtT3Zp_WEhD4KI_DEkX2TW3kZYQ80Rs0GhQ8bXtHVswjXV2ZF6kY2_bOuSoOpA
p6
sVplace_id
p7
VChIJA0YvGPWAhYAReXmaDTTdWzU
p8
sVurl
p9
Vhttps://maps.google.com/?cid=3844909922527115641
p10
sVformatted_address
p11
V490 Pacific Ave, San Francisco, CA 94133, United States
p12
sVid
p13
V8814d95509fe23d281eae310d46a6e9bbaf790a0
p14
sVopening_hours
p15
(dp16
Vweekday_text
p17
(lp18
VMonday: 11:30 AM \u2013 10:30 PM
p19
aVTuesday: 11:30 AM \u2013 10:30 PM
p20
aVWednesday: 11:30 AM \u2013 10:30 PM
p21
aVThursday: 11:30 AM \u2013 10:30 PM
p22
aVFriday: 11:30 AM \u2013 11:00 PM
p23
aVSaturday: 11:30 AM \u2013 11:00 PM
p24
aVSunday: 5:00 \u2013 9:30 PM
p25
asVopen_now
p26
I00
sVperiods
p27
(lp28
(dp29
Vclose
p30
(dp31
Vday
p32
I0
sVtime
p33
V2130
p34
ssVopen
p35
(dp36
Vday
p37
I0
sVtime
p38
V1700
p39
ssa(dp40
Vclose
p41
(dp42
Vday
p43
I1
sVtime
p44
V2230
p45
ssVopen
p46
(dp47
Vday
p48
I1
sVtime
p49
V1130
p50
ssa(dp51
Vclose
p52
(dp53
Vday
p54
I2
sVtime
p55
V2230
p56
ssVopen
p57
(dp58
Vday
p59
I2
sVtime
p60
V1130
p61
ssa(dp62
Vclose
p63
(dp64
Vday
p65
I3
sVtime
p66
V2230
p67
ssVopen
p68
(dp69
Vday
p70
I3
sVtime
p71
V1130
p72
ssa(dp73
Vclose
p74
(dp75
Vday
p76
I4
sVtime
p77
V2230
p78
ssVopen
p79
(dp80
Vday
p81
I4
sVtime
p82
V1130
p83
ssa(dp84
Vclose
p85
(dp86
Vday
p87
I5
sVtime
p88
V2300
p89
ssVopen
p90
(dp91
Vday
p92
I5
sVtime
p93
V1130
p94
ssa(dp95
Vclose
p96
(dp97
Vday
p98
I6
sVtime
p99
V2300
p100
ssVopen
p101
(dp102
Vday
p103
I6
sVtime
p104
V1130
p105
ssassVvicinity
p106
V490 Pacific Avenue, San Francisco
p107
sVscope
p108
VGOOGLE
p109
sVwebsite
p110
Vhttp://cotognasf.com/
p111
sVutc_offset
p112
I-420
sVuser_ratings_total
p113
I120
sVphotos
p114
(lp115
(dp116
Vphoto_reference
p117
VCoQBcwAAAFC6Z6L9J4zLguE_nQvSFiJFszs9D64BV5C1xEa6ZpBS5iu1kny7Y9PYMf1BcVak8A8C1f7S7yO5Kbgv7DE9iSevXFbFS2e21SLRyDKRDinBoodZCrfpuZlg0WUDF3LaZ5CsH8SURdpBabINwzYBHe2NQrjF58TYWmuBJVR6HIzvEhB58NR5mGFwaa77crCkAqNXGhShPKHdHk76pTZWuCAN0pT-YwNhPw
p118
sVwidth
p119
I4032
sVhtml_attributions
p120
(lp121
V<a href="https://maps.google.com/maps/contrib/109383364523945736298/photos">Kathleen S</a>
p122
asVheight
p123
I3024
sa(dp124
Vphoto_reference
p125
VCoQBcwAAAMXumVc_A_xYmKKj7hEVbNOs0xU-vB1xgvi0UCoGHFtt6Bucy6h6RwlsXH58rofyRoeFjjeBI-QYLGrOpTmZ85o-c2-9pKmFgK3GZZ7xHo0lA2A03F9RmsQ1IX9CgkgZ1Da5kq225NHXT5WGDgO9her7JR-tby1vZwZ4MYY3m6GoEhDBWwKr62rOhKHTi3Z_6Ri0GhRLwwxsZ4iPm2rrmjdpIr7Bzxxdmw
p126
sVwidth
p127
I5312
sVhtml_attributions
p128
(lp129
V<a href="https://maps.google.com/maps/contrib/101983877273980272413/photos">Nicolas Bartoli</a>
p130
asVheight
p131
I2988
sa(dp132
Vphoto_reference
p133
VCmRdAAAAE5sEqsx1y2A9eGqZIj7uo2H5R7suiAUqzLMJo983bUS2FGrBYxbAasZsWhwix7wvFRwQrTZlH90ijvWknypVP2ForDbp9tE6yfKJxsXohRwmJSHz_I0AQxvCurrHkc1zEhATFfk8HdHsngTi4khznylfGhSjrBodQ5avUo_b2rNEN__QEHGD9Q
p134
sVwidth
p135
I2048
sVhtml_attributions
p136
(lp137
V<a href="https://maps.google.com/maps/contrib/104111246635874032234/photos">ZAGAT</a>
p138
asVheight
p139
I1365
sa(dp140
Vphoto_reference
p141
VCoQBcwAAAFzg919xlL4bdpcX9l7P6jMzfxrWRlgRvNtwt_3sdQOkzcw-wVQziYH48UicUQNe5oCjwfReCGqma1Nt7c3WKQPyIays5WC1Ja4A5pla7k-Xu-6uL1zqTx25oERdHCos8iNLcHoi3FbHL5zl6YkXOqfGweTVeFWuMoz5UEtD88jVEhAx7Bt97pH0wsildxBS-UGiGhSSfbmORch8e7IAriT1EqDMnsRR-w
p142
sVwidth
p143
I5312
sVhtml_attributions
p144
(lp145
V<a href="https://maps.google.com/maps/contrib/101983877273980272413/photos">Nicolas Bartoli</a>
p146
asVheight
p147
I2988
sa(dp148
Vphoto_reference
p149
VCmRdAAAAoSlqj0I8ZsuYW7JYA8NNEEH-4DhwYjI04Ppjj8NsiDNYHjdsSkTmKhhNFKWC09AY6j6lSXStDfR-TekdapratAAnBIuR8brLGq-dFrSdviJWOWUxXMYMcbvJIxMXrw_aEhA98-x6hqRkFxWvXoX5xLraGhTypEub_5suaJLPTyaivMJ6DaRlNg
p150
sVwidth
p151
I1936
sVhtml_attributions
p152
(lp153
V<a href="https://maps.google.com/maps/contrib/108086881826934773478/photos">Alex Mackenzie Torres</a>
p154
asVheight
p155
I2592
sa(dp156
Vphoto_reference
p157
VCmRdAAAA9WdxpNWNonwM8l4NGhqx_3lm1qHd1dQKtwaTwmgbdt4tROyXLXxVaIWk2oh7Cjzu7cw6iI4G8p0LuWOmd8pPis5K_GLDSqAoDin1_xBmlsC0wl55wCQmA_4i03uUJ45EEhBpy_lU7Qsh_hkpUfpSTY6QGhSkQNfXZ4zmpL89eKDfbuhm7lmmkg
p158
sVwidth
p159
I5472
sVhtml_attributions
p160
(lp161
V<a href="https://maps.google.com/maps/contrib/110607113604842560162/photos">Gourmandj</a>
p162
asVheight
p163
I3648
sa(dp164
Vphoto_reference
p165
VCmRdAAAA4ptb4SsDxgCZ7d1_QbkVp2TbR_aNaRC8EzRhonQe68TLWE2Yo4nhd34-tY-a9mJg3R4DRwBHbQX7wNgQ1V6V8M7GgoVfZRElwyp3LJUvqgefVAl7sWJWz7LN3uM7E2UBEhCQK8RPz7inby1WSsZOmSOBGhQSetFth8UypyiFL83-qbNSZUrqOQ
p166
sVwidth
p167
I568
sVhtml_attributions
p168
(lp169
V<a href="https://maps.google.com/maps/contrib/109124206494952398531/photos">Cotogna</a>
p170
asVheight
p171
I379
sa(dp172
Vphoto_reference
p173
VCmRdAAAAklW9qYCKEIJlaZ2HvT_zfXP2NCv4pkgG0OqHpws0WlnjizdPdOg89piFergc9eHhM1B5VZk67Czz3Nw2SNi_8lwq557VE45n-S3M5siwk1i79ovrBpQ0Ve6-4KLR_0-qEhDOgjl7bhEue4H__fZMMMQnGhSxok3ANU5TzAE4d6SMvnCZT9Ve0w
p174
sVwidth
p175
I2448
sVhtml_attributions
p176
(lp177
V<a href="https://maps.google.com/maps/contrib/116124441731421603250/photos">Jeff Lawi</a>
p178
asVheight
p179
I2448
sa(dp180
Vphoto_reference
p181
VCmRdAAAAyg84bsNwafEYFngbaUhxCu8AsBF1vgFTNV3CXm6Y0pqR_67YaswU_8IP3PzifEO8tpTloyEHRQbdcfSNKIcn2GwhKcIrbmzm2zaxPqp2zxU6z6_vltf_qR06gZ6M4d1tEhBkOD_MRdSZkQqER2bMVlZ6GhQ5pi97psPz-3sz8P9Qte3Ftu-AoQ
p182
sVwidth
p183
I3264
sVhtml_attributions
p184
(lp185
V<a href="https://maps.google.com/maps/contrib/111717262311636103965/photos">John Gelb</a>
p186
asVheight
p187
I2448
sa(dp188
Vphoto_reference
p189
VCoQBcwAAABLeNfUsHfoCkGBjWX_Mg05ErlF7RbhclURZFB82Agpg7DDTYuYkp5Wcl7WMl5sQM_4sf2W6pREbrLl82DRZTRE2kYYhgyUVlR9bL7gO31ZyNY0yRlXrWfV76NX6hO9U2CEtw5ZawumxczmHWy1xHmjZYCVMa5J4VXvcHyCcInMDEhAy7IdU5iJVjyBlBFEC-VqbGhSzaqNQ3upECWsZLX9hqpZYTm1Itw
p190
sVwidth
p191
I3024
sVhtml_attributions
p192
(lp193
V<a href="https://maps.google.com/maps/contrib/109383364523945736298/photos">Kathleen S</a>
p194
asVheight
p195
I4032
sasVtypes
p196
(lp197
Vrestaurant
p198
aVfood
p199
aVpoint_of_interest
p200
aVestablishment
p201
asVicon
p202
Vhttps://maps.gstatic.com/mapfiles/place_api/icons/restaurant-71.png
p203
sVname
p204
VCotogna
p205
sVgeometry
p206
(dp207
Vaccess_points
p208
(lp209
(dp210
Vtravel_modes
p211
(lp212
VDRIVING
p213
aVBICYCLING
p214
aVWALKING
p215
aVTRANSIT
p216
asVlocation
p217
(dp218
Vlat
p219
g3
(S'37.797335'
tRp220
sVlng
p221
g3
(S'-122.403554'
tRp222
ssasVlocation
p223
(dp224
Vlat
p225
g3
(S'37.7974446'
tRp226
sVlng
p227
g3
(S'-122.4035755'
tRp228
sssVadr_address
p229
V<span class="street-address">490 Pacific Ave</span>, <span class="locality">San Francisco</span>, <span class="region">CA</span> <span class="postal-code">94133-4610</span>, <span class="country-name">United States</span>
p230
sVinternational_phone_number
p231
V+1 415-775-8508
p232
sVreviews
p233
(lp234
(dp235
Vrating
p236
I2
sVaspects
p237
(lp238
(dp239
Vrating
p240
I0
sVtype
p241
Voverall
p242
sasVprofile_photo_url
p243
V//lh5.googleusercontent.com/-G71qVFZLhXA/AAAAAAAAAAI/AAAAAAAAufM/e-QS29ykwT0/photo.jpg
p244
sVlanguage
p245
Ven
p246
sVtext
p247
VThis place was subpar on every level. Bad food. Bad service. Bad view. Super overpriced. Do not go there.
p248
sVauthor_name
p249
VRiley Shelby
p250
sVauthor_url
p251
Vhttps://plus.google.com/108397088295226266638
p252
sVtime
p253
I1461349223
sa(dp254
Vrating
p255
I5
sVaspects
p256
(lp257
(dp258
Vrating
p259
I3
sVtype
p260
Voverall
p261
sasVprofile_photo_url
p262
V//lh3.googleusercontent.com/-Wew8FitUhEo/AAAAAAAAAAI/AAAAAAAAGdQ/4DBORzry7ZA/photo.jpg
p263
sVlanguage
p264
Ven
p265
sVtext
p266
VNumber one Italian place in San Francisco. Great food, amazing service and nice ambiance. Make sure to make table reservations in advance on weekends.
p267
sVauthor_name
p268
VEmad Abdo
p269
sVauthor_url
p270
Vhttps://plus.google.com/110725394684435443912
p271
sVtime
p272
I1458855396
sa(dp273
Vrating
p274
I5
sVaspects
p275
(lp276
(dp277
Vrating
p278
I3
sVtype
p279
Voverall
p280
sasVprofile_photo_url
p281
V//lh6.googleusercontent.com/-2fpABZz_3I8/AAAAAAAAAAI/AAAAAAAAkMA/5ccU1XnQy7E/photo.jpg
p282
sVlanguage
p283
Ven
p284
sVtext
p285
VExcellent pizza and pastas. The flavor combinations were interesting, so we shared probably 5 different pastas, and all were very unique.\u000a\u000aVery professional service. Dinner starts at 4:30 if you want to walk in earlier before reservations come in.
p286
sVauthor_name
p287
VGina Hsieh
p288
sVauthor_url
p289
Vhttps://plus.google.com/100421685466459632865
p290
sVtime
p291
I1458011766
sa(dp292
Vrating
p293
I5
sVaspects
p294
(lp295
(dp296
Vrating
p297
I3
sVtype
p298
Voverall
p299
sasVprofile_photo_url
p300
V//lh3.googleusercontent.com/-0YX4iueAIiE/AAAAAAAAAAI/AAAAAAAAAmA/241_oGmonBw/photo.jpg
p301
sVlanguage
p302
Ven
p303
sVtext
p304
VLove the fire with spits. Warm atmosphere. Great staff. Eat at the bar. $50 or less wine list. Tasty pizza. 
p305
sVauthor_name
p306
VMark Gardner
p307
sVauthor_url
p308
Vhttps://plus.google.com/117003597514886540360
p309
sVtime
p310
I1450633642
sa(dp311
Vrating
p312
I5
sVaspects
p313
(lp314
(dp315
Vrating
p316
I3
sVtype
p317
Voverall
p318
sasVlanguage
p319
Ven
p320
sVtext
p321
VMy favorite restaurant to make any excuse to go to! Birthdays, anniversaries, friends in town, Sunday night tasting menu- you name it! One of the best values I have found for this price range. I never leave without saying aloud, "that was the best it's ever been!" And it's true every time \U0001f60d
p322
sVauthor_name
p323
VJaclyn Davis
p324
sVauthor_url
p325
Vhttps://plus.google.com/117322363563514709389
p326
sVtime
p327
I1455504497
sasVformatted_phone_number
p328
V(415) 775-8508
p329
sVaddress_components
p330
(lp331
(dp332
Vlong_name
p333
V490
p334
sVtypes
p335
(lp336
Vstreet_number
p337
asVshort_name
p338
V490
p339
sa(dp340
Vlong_name
p341
VPacific Avenue
p342
sVtypes
p343
(lp344
Vroute
p345
asVshort_name
p346
VPacific Ave
p347
sa(dp348
Vlong_name
p349
VSan Francisco
p350
sVtypes
p351
(lp352
Vlocality
p353
aVpolitical
p354
asVshort_name
p355
VSF
p356
sa(dp357
Vlong_name
p358
VCalifornia
p359
sVtypes
p360
(lp361
Vadministrative_area_level_1
p362
aVpolitical
p363
asVshort_name
p364
VCA
p365
sa(dp366
Vlong_name
p367
VUnited States
p368
sVtypes
p369
(lp370
Vcountry
p371
aVpolitical
p372
asVshort_name
p373
VUS
p374
sa(dp375
Vlong_name
p376
V94133
p377
sVtypes
p378
(lp379
Vpostal_code
p380
asVshort_name
p381
V94133
p382
sa(dp383
Vlong_name
p384
V4610
p385
sVtypes
p386
(lp387
Vpostal_code_suffix
p388
asVshort_name
p389
V4610
p390
sas.