(dp1
Vrating
p2
I4
sVreference
p3
VCnRhAAAASNw4W5AuevMZFeUY8t01fjS1K-g0Q5I4j_DWARVLd6XnCzmOITcLbkiByIojS_vxcKZ04D8plpZomyzvsyBUopREdGKD-eZehTgf_fv6M8-X5bjfP_UhSHcx2cG68c1zIr8OfrplsrdflJyoBa520BIQ850nWsByJPkm3CSZVAWaUBoU5jMigZUPyTYJYlJxcSEqqf_7uMY
p4
sVplace_id
p5
VChIJk-81NEQzjoARbseaaQj2g_E
p6
sVurl
p7
Vhttps://maps.google.com/?cid=17403023901081651054
p8
sVformatted_address
p9
V3400 El Camino Real, Palo Alto, CA 94306, United States
p10
sVid
p11
Vee2969c0c37d995bc727c314b28062bd75e9f8a2
p12
sVopening_hours
p13
(dp14
Vweekday_text
p15
(lp16
VMonday: Open 24 hours
p17
aVTuesday: Open 24 hours
p18
aVWednesday: Open 24 hours
p19
aVThursday: Open 24 hours
p20
aVFriday: Open 24 hours
p21
aVSaturday: Open 24 hours
p22
aVSunday: Open 24 hours
p23
asVopen_now
p24
I01
sVperiods
p25
(lp26
(dp27
Vopen
p28
(dp29
Vday
p30
I0
sVtime
p31
V0000
p32
ssassVvicinity
p33
V3400 El Camino Real, Palo Alto
p34
sVscope
p35
VGOOGLE
p36
sVwebsite
p37
Vhttp://www.creekside-inn.com/?utm_source=google&utm_medium=places&utm_campaign=google_places_ms
p38
sVutc_offset
p39
I-420
sVuser_ratings_total
p40
I50
sVphotos
p41
(lp42
(dp43
Vphoto_reference
p44
VCmRdAAAAc9DKizAiyRfey-nvgNxlRDG7KsL562AMDw8Y6iKx_qo0eGQ_wS7UmqGlDgrxeoxlDOrgYra5cnGpMHEqmSlNhd2BXWpKrae1SwChEPlaL2FPuAAy5C-9nstZfRCYx66QEhCbiF12oFrn_3cKYIH8cmrBGhQskmhB0WnCooLLQUSlapW7eI7D6Q
p45
sVwidth
p46
I2048
sVhtml_attributions
p47
(lp48
V<a href="https://maps.google.com/maps/contrib/114576384110204928564/photos">Creekside Inn</a>
p49
asVheight
p50
I1152
sa(dp51
Vphoto_reference
p52
VCmRdAAAA6FiLA0e6xTQyTy13qOb9ifTuushOWuPk_GdLxhKKKzY1g3GrJVdp-UpiQ5Mf1j8fNk_KKCfRS57gtLNVmZwPLiFIlPMJ8MeglwsUCLfXyMTjLFEGFhhjPAsrktyuB2iaEhBVPFVEWjKBVXhF78iy2syPGhTt3LsuAGX6Lc30stDg3GuiC0xmvQ
p53
sVwidth
p54
I2048
sVhtml_attributions
p55
(lp56
V<a href="https://maps.google.com/maps/contrib/114576384110204928564/photos">Creekside Inn</a>
p57
asVheight
p58
I1152
sa(dp59
Vphoto_reference
p60
VCmRdAAAAR98TVh7VPRZLVoeNA8CHLlFr8EzSrYRyThxPrT_rvqlWZo2P1lP7fl_haZXa0IWbl41bJ9glJOi4cMfsdUPUp8P9aO7XC3mt5pquiRwbHoIjcKcIWSCbBvXwmSXRuGHcEhCUVNILGZQN622_nHNnbcVMGhSqBE7qTlmAJYkr2GwH7TR2egOF4A
p61
sVwidth
p62
I800
sVhtml_attributions
p63
(lp64
V<a href="https://maps.google.com/maps/contrib/114576384110204928564/photos">Creekside Inn</a>
p65
asVheight
p66
I533
sa(dp67
Vphoto_reference
p68
VCmRdAAAArJyju-_8tq6Nrda3C_PcgVOFsG-1VCU9GeLUbBmRGe3u08ZBL3qh-KSN5BIG9WUvsBavOL4XIT-V_5HVdZ0Dc58TdqEVjYlCGvsBoFmQdngnx6k05SBo2N4nTAo02IcOEhD_ig1JBE1qAPzkZQXiy8AwGhTPynUTaTqth1O7I7btbM03puSU-g
p69
sVwidth
p70
I726
sVhtml_attributions
p71
(lp72
V<a href="https://maps.google.com/maps/contrib/114576384110204928564/photos">Creekside Inn</a>
p73
asVheight
p74
I309
sa(dp75
Vphoto_reference
p76
VCmRdAAAAfKeo8F-0YPukDObg9VK5801XaiLe7brJTaOljV98LQHcRnhviV9JnXaT3TJZDV3wA9D916c0cZokjSy5Lo2nGUqeyuam18KO3yeXK1p5a_ytX-ZnvUf8hAsKAFSWRiW0EhAQC-84wqKV0IcNHbdYMWkaGhRFb4sfh6VKABP9OP3U1LZe-zhOSQ
p77
sVwidth
p78
I800
sVhtml_attributions
p79
(lp80
V<a href="https://maps.google.com/maps/contrib/114576384110204928564/photos">Creekside Inn</a>
p81
asVheight
p82
I533
sa(dp83
Vphoto_reference
p84
VCmRdAAAABkYkawKmxGNAV_RVMiNpt50QYcJoutnYQ110K98OgtC4wYTEV72DnwVGumaNJdCfAN2ESl6IO-zc8N4ctizhdJBEsrSsAmABtwyhlqwVV1sd_2PeZ4dvifuJ8yweCxCjEhAmAWizFc4xkI0L_HuKWfwfGhRr8ba_2YO226Qy4Yvrm4-ErzIeuA
p85
sVwidth
p86
I800
sVhtml_attributions
p87
(lp88
V<a href="https://maps.google.com/maps/contrib/114576384110204928564/photos">Creekside Inn</a>
p89
asVheight
p90
I479
sa(dp91
Vphoto_reference
p92
VCmRdAAAAQN4OVe_7UfpfJyFk8HyYRHVfCsCV3BGiQd_1R7REKZ5_bgORZjUmRW1r_bW8l5pY-wCZ4epOz_2UezBeHfFkfWLkALbHJy4-2QZiCyOHG9OlHUBhhDvgUZt-iXh851DJEhCSNoyLXDgzLEizHs6Sa3R3GhRf6Uy2YB2IExKOotURZ9eQy-wnHg
p93
sVwidth
p94
I726
sVhtml_attributions
p95
(lp96
V<a href="https://maps.google.com/maps/contrib/114576384110204928564/photos">Creekside Inn</a>
p97
asVheight
p98
I185
sa(dp99
Vphoto_reference
p100
VCmRdAAAAQQnZ7VrvxIuRE_bPV8JjwM95V1UcFuJdglW2KreHN6pzpbAqUkY-rrISlw2Pk8qnfnDdT1cK-ngJIG1mo6AsGN9VP16DfOVRQCYwR4rC-IPnGgSlO204auZnLkPsn4yKEhBpTkyxMkLGakUuuHkPb9_mGhSNiXD50Tgr1xJlLpClzsfKja2dLg
p101
sVwidth
p102
I940
sVhtml_attributions
p103
(lp104
V<a href="https://maps.google.com/maps/contrib/114576384110204928564/photos">Creekside Inn</a>
p105
asVheight
p106
I180
sa(dp107
Vphoto_reference
p108
VCmRdAAAApYcobP69VF67xUD6oRLwpZKqvRy5p9AeLtlgaVohw8isWZekawQSQ85SX4huH7KhG1ixxwebCU5cSgB-krgZZpCZ1mcwYZvf1IaY8rUeYanAmjczvhQVMi5aAyyVyPXYEhBjdHhhk8XN5AT-CSY_gQ1pGhQrgxm6lbyT8DRtlcP1xzqiRlQpag
p109
sVwidth
p110
I800
sVhtml_attributions
p111
(lp112
V<a href="https://maps.google.com/maps/contrib/114576384110204928564/photos">Creekside Inn</a>
p113
asVheight
p114
I533
sa(dp115
Vphoto_reference
p116
VCmRdAAAAC87z3GTrIlh67YG8vyAvPtk7FD996CyRsJxED7B1S05qxsKH-a-zdJZ7fB3Fg7DaMwrC-RGJPkALVFBeWR1HPAoxVCODp9ewaMOXUMo5EMbxV0oxoIe9eXR8C4jnUCuaEhBS1S8qJrEXE-D2pnbHSX9gGhQUYoBwusmve2wQeb5feDpBUgYEnA
p117
sVwidth
p118
I726
sVhtml_attributions
p119
(lp120
V<a href="https://maps.google.com/maps/contrib/114576384110204928564/photos">Creekside Inn</a>
p121
asVheight
p122
I185
sasVtypes
p123
(lp124
Vlodging
p125
aVpoint_of_interest
p126
aVestablishment
p127
asVicon
p128
Vhttps://maps.gstatic.com/mapfiles/place_api/icons/lodging-71.png
p129
sVname
p130
VCreekside Inn
p131
sVgeometry
p132
(dp133
Vaccess_points
p134
(lp135
(dp136
Vtravel_modes
p137
(lp138
VDRIVING
p139
aVBICYCLING
p140
aVWALKING
p141
aVTRANSIT
p142
asVlocation
p143
(dp144
Vlat
p145
cdecimal
Decimal
p146
(S'37.4191505'
tRp147
sVlng
p148
g146
(S'-122.1346939'
tRp149
ssasVlocation
p150
(dp151
Vlat
p152
g146
(S'37.4186982'
tRp153
sVlng
p154
g146
(S'-122.1352589'
tRp155
sssVadr_address
p156
V<span class="street-address">3400 El Camino Real</span>, <span class="locality">Palo Alto</span>, <span class="region">CA</span> <span class="postal-code">94306</span>, <span class="country-name">United States</span>
p157
sVinternational_phone_number
p158
V+1 650-493-2411
p159
sVreviews
p160
(lp161
(dp162
Vrating
p163
I5
sVaspects
p164
(lp165
(dp166
Vrating
p167
I3
sVtype
p168
Voverall
p169
sasVprofile_photo_url
p170
V//lh5.googleusercontent.com/-R-PVMb0rZjY/AAAAAAAAAAI/AAAAAAAAAPg/cGy_EjZ_A4U/photo.jpg
p171
sVlanguage
p172
Ven
p173
sVtext
p174
VI am a guest on the 300 floor of the hotel. The room is not overly spacious but is very nice, and I am only a single traveler anyway. It is equipped with a Nexus 10 tablet that functions as alarm clock, room service kiosk, information desk etc... It's a nice touch to an already nice place. The staff have been very helpful and attentive.\u000aThe morning breakfast has a small array of pastries and coffees to choose from and is open for several hours even on the weekend, which helps for someone from the east coast who is still on a very early schedule. \u000aWhile it is pricy, it is a great place to stay and it is conveniently located to my West coast office, restaurants, and public transport. \u000a
p175
sVauthor_name
p176
VKyle Thomas
p177
sVauthor_url
p178
Vhttps://plus.google.com/105888288327549190881
p179
sVtime
p180
I1461297507
sa(dp181
Vrating
p182
I5
sVaspects
p183
(lp184
(dp185
Vrating
p186
I3
sVtype
p187
Voverall
p188
sasVlanguage
p189
Ven
p190
sVtext
p191
VCreakside inn is perfect for school fieldtrips. It has nice rooms and beautiful garden views. 
p192
sVauthor_name
p193
VIsabela Zavala
p194
sVauthor_url
p195
Vhttps://plus.google.com/117834436663308322296
p196
sVtime
p197
I1457068426
sa(dp198
Vrating
p199
I3
sVaspects
p200
(lp201
(dp202
Vrating
p203
I1
sVtype
p204
Voverall
p205
sasVprofile_photo_url
p206
V//lh4.googleusercontent.com/-RmkR1e5D2kI/AAAAAAAAAAI/AAAAAAAAkcA/qOf5We2sSEI/photo.jpg
p207
sVlanguage
p208
Ven
p209
sVtext
p210
VComfortable bed, good shower, friendly staff, but kind of noisy from adjoining rooms and the Wi-Fi was terrible.
p211
sVauthor_name
p212
VRowan Merewood
p213
sVauthor_url
p214
Vhttps://plus.google.com/111813845727005160164
p215
sVtime
p216
I1453870623
sa(dp217
Vrating
p218
I3
sVaspects
p219
(lp220
(dp221
Vrating
p222
I1
sVtype
p223
Voverall
p224
sasVprofile_photo_url
p225
V//lh5.googleusercontent.com/-bngk_3g6Bvc/AAAAAAAAAAI/AAAAAAAADPo/yVi-7v3oGBU/photo.jpg
p226
sVlanguage
p227
Ven
p228
sVtext
p229
VLocation isn't as natury as the website makes it appear. Wireless works well enough. Rooms are OK, but far from great (refrigerator was leaking water, bed smelled slightly, and noise from parking lot came through unsealed door. Breakfast had flies on it (uncovered pastries).\u000aShower design makes it so the bathroom floor always gets a little wet.
p230
sVauthor_name
p231
VJason Smith
p232
sVauthor_url
p233
Vhttps://plus.google.com/104702324677435905464
p234
sVtime
p235
I1446701381
sa(dp236
Vrating
p237
I5
sVaspects
p238
(lp239
(dp240
Vrating
p241
I3
sVtype
p242
Voverall
p243
sasVprofile_photo_url
p244
V//lh6.googleusercontent.com/-rkqTLBHSiB4/AAAAAAAAAAI/AAAAAAAAHSM/lIw4TTxECsc/photo.jpg
p245
sVlanguage
p246
Ven
p247
sVtext
p248
VIts very good for the price. Most importantly its clean. Definitely recommend.
p249
sVauthor_name
p250
VSimon Kumar
p251
sVauthor_url
p252
Vhttps://plus.google.com/107480898870655605174
p253
sVtime
p254
I1459756059
sasVformatted_phone_number
p255
V(650) 493-2411
p256
sVaddress_components
p257
(lp258
(dp259
Vlong_name
p260
V3400
p261
sVtypes
p262
(lp263
Vstreet_number
p264
asVshort_name
p265
V3400
p266
sa(dp267
Vlong_name
p268
VEl Camino Real
p269
sVtypes
p270
(lp271
Vroute
p272
asVshort_name
p273
VEl Camino Real
p274
sa(dp275
Vlong_name
p276
VPalo Alto
p277
sVtypes
p278
(lp279
Vlocality
p280
aVpolitical
p281
asVshort_name
p282
VPalo Alto
p283
sa(dp284
Vlong_name
p285
VCalifornia
p286
sVtypes
p287
(lp288
Vadministrative_area_level_1
p289
aVpolitical
p290
asVshort_name
p291
VCA
p292
sa(dp293
Vlong_name
p294
VUnited States
p295
sVtypes
p296
(lp297
Vcountry
p298
aVpolitical
p299
asVshort_name
p300
VUS
p301
sa(dp302
Vlong_name
p303
V94306
p304
sVtypes
p305
(lp306
Vpostal_code
p307
asVshort_name
p308
V94306
p309
sas.