(dp1
Vrating
p2
I4
sVreference
p3
VCnRhAAAAXpOZisUTvG2UqsxCXOslo8GCuzhWxCRs8WdUGE6h_cBSJMF7xENmezOnHNF-DPUcdunytQeqoKPf_nE2BM7wB2fhFxn6BWQZ-o5MekU-B3Kc2-DcuqOJQfE2NasnFNwhSUQ4IFfWOv1mJxYp0yyLBBIQXZJhv4TT14JazWJv4UcRWhoUceQczOaMQwJfntf5vpffawYivVA
p4
sVprice_level
p5
I2
sVplace_id
p6
VChIJnSovWn6AhYARBuVCcKrP2Ts
p7
sVurl
p8
Vhttps://maps.google.com/?cid=4312706449118782726
p9
sVformatted_address
p10
V764 Harrison St, San Francisco, CA 94107, United States
p11
sVid
p12
V4b17cf4a2a8ba78f42c9a3ddf11c29280a5dd646
p13
sVopening_hours
p14
(dp15
Vweekday_text
p16
(lp17
VMonday: 7:30 AM \u2013 8:00 PM
p18
aVTuesday: 7:30 AM \u2013 8:00 PM
p19
aVWednesday: 7:30 AM \u2013 8:00 PM
p20
aVThursday: 7:30 AM \u2013 8:00 PM
p21
aVFriday: 7:30 AM \u2013 8:00 PM
p22
aVSaturday: 8:00 AM \u2013 7:00 PM
p23
aVSunday: 8:00 AM \u2013 7:00 PM
p24
asVopen_now
p25
I01
sVperiods
p26
(lp27
(dp28
Vclose
p29
(dp30
Vday
p31
I0
sVtime
p32
V1900
p33
ssVopen
p34
(dp35
Vday
p36
I0
sVtime
p37
V0800
p38
ssa(dp39
Vclose
p40
(dp41
Vday
p42
I1
sVtime
p43
V2000
p44
ssVopen
p45
(dp46
Vday
p47
I1
sVtime
p48
V0730
p49
ssa(dp50
Vclose
p51
(dp52
Vday
p53
I2
sVtime
p54
V2000
p55
ssVopen
p56
(dp57
Vday
p58
I2
sVtime
p59
V0730
p60
ssa(dp61
Vclose
p62
(dp63
Vday
p64
I3
sVtime
p65
V2000
p66
ssVopen
p67
(dp68
Vday
p69
I3
sVtime
p70
V0730
p71
ssa(dp72
Vclose
p73
(dp74
Vday
p75
I4
sVtime
p76
V2000
p77
ssVopen
p78
(dp79
Vday
p80
I4
sVtime
p81
V0730
p82
ssa(dp83
Vclose
p84
(dp85
Vday
p86
I5
sVtime
p87
V2000
p88
ssVopen
p89
(dp90
Vday
p91
I5
sVtime
p92
V0730
p93
ssa(dp94
Vclose
p95
(dp96
Vday
p97
I6
sVtime
p98
V1900
p99
ssVopen
p100
(dp101
Vday
p102
I6
sVtime
p103
V0800
p104
ssassVvicinity
p105
V764 Harrison Street, San Francisco
p106
sVscope
p107
VGOOGLE
p108
sVwebsite
p109
Vhttp://www.epicentercafe.com/
p110
sVutc_offset
p111
I-420
sVuser_ratings_total
p112
I109
sVphotos
p113
(lp114
(dp115
Vphoto_reference
p116
VCmRdAAAAlGZcRN2Gvk4bWE1tP_Im6Rx10EDVld5vrcmcNBMRN5Rl1t-40zs3yNFThpx1s9v1CG5ZNeNCcNtcXuu5YisI7a0yCkZq53pDXipNeJ5tR1yqvY6SEGcMjnwAF5OAD07bEhB4SZnCVCDcNmreJ72T-VoPGhRlp_jUkd0SzquC5eB-rQlOgDszDw
p117
sVwidth
p118
I816
sVhtml_attributions
p119
(lp120
V<a href="https://maps.google.com/maps/contrib/100135569314166346108/photos">C Private</a>
p121
asVheight
p122
I612
sa(dp123
Vphoto_reference
p124
VCmRdAAAAEFR87o3a0LZ4aNWTDr5KevnfBtVfLJWEb7TIkaqa71np6tn-B0_t1u_9h7SzAF0lK1N7QO5-kq9VY3aG2wljLY4wWDPz2dEZ0dQ0xqBSnuIC47QkJsoqvwEC7RynQIH3EhCCaMgQUnCx86Dri-xTR96JGhSIcVZjelI6bs_Haad_uNzGwkrd5w
p125
sVwidth
p126
I1159
sVhtml_attributions
p127
(lp128
V<a href="https://maps.google.com/maps/contrib/110684973296989327229/photos">vanessa ross aquino</a>
p129
asVheight
p130
I1798
sa(dp131
Vphoto_reference
p132
VCmRdAAAA9a5iyyLej6RIjURFxJ0Gd-IENhsY2pQeaSYARbMG9FWjouoTspV0YRb0u_a4646MDXfyOKetdNKaLdz3QTNKs7n0nuAZ_egWoL7y5VgVHLQhqMmIaCtX1mUDz-5gT_EeEhA8uxDTlIUe1WB_wyQAcwskGhT_0-ijCf8GFpqvMVUPKvwW1oyYow
p133
sVwidth
p134
I4160
sVhtml_attributions
p135
(lp136
V<a href="https://maps.google.com/maps/contrib/111667704476323287430/photos">Robert Wallis</a>
p137
asVheight
p138
I3120
sasVtypes
p139
(lp140
Vcafe
p141
aVstore
p142
aVrestaurant
p143
aVfood
p144
aVpoint_of_interest
p145
aVestablishment
p146
asVicon
p147
Vhttps://maps.gstatic.com/mapfiles/place_api/icons/cafe-71.png
p148
sVname
p149
VEpicenter Cafe
p150
sVgeometry
p151
(dp152
Vaccess_points
p153
(lp154
(dp155
Vtravel_modes
p156
(lp157
VDRIVING
p158
aVBICYCLING
p159
aVWALKING
p160
aVTRANSIT
p161
asVlocation
p162
(dp163
Vlat
p164
cdecimal
Decimal
p165
(S'37.7814069'
tRp166
sVlng
p167
g165
(S'-122.3988696'
tRp168
ssasVlocation
p169
(dp170
Vlat
p171
g165
(S'37.7814906'
tRp172
sVlng
p173
g165
(S'-122.3989747'
tRp174
sssVadr_address
p175
V<span class="street-address">764 Harrison St</span>, <span class="locality">San Francisco</span>, <span class="region">CA</span> <span class="postal-code">94107</span>, <span class="country-name">United States</span>
p176
sVinternational_phone_number
p177
V+1 415-543-5436
p178
sVreviews
p179
(lp180
(dp181
Vrating
p182
I4
sVaspects
p183
(lp184
(dp185
Vrating
p186
I2
sVtype
p187
Voverall
p188
sasVprofile_photo_url
p189
V//lh4.googleusercontent.com/-eKS5weGmPJ4/AAAAAAAAAAI/AAAAAAAABD0/kG4yndb9lAM/photo.jpg
p190
sVlanguage
p191
Ven
p192
sVtext
p193
VGood place for working. Lots of seating and outlets, but they only give you 2 hours of free WiFi. Sometimes the code does t work so you have to go back and forth to get new codes, but otherwise, still a good place. Coffee and tea are reliable. They also have pastries, which I haven't tried yet. Fresh OJ is really good too 
p194
sVauthor_name
p195
VDenise Dang
p196
sVauthor_url
p197
Vhttps://plus.google.com/110288469148184652948
p198
sVtime
p199
I1432943230
sa(dp200
Vrating
p201
I1
sVaspects
p202
(lp203
(dp204
Vrating
p205
I0
sVtype
p206
Voverall
p207
sasVprofile_photo_url
p208
V//lh5.googleusercontent.com/-M5JThp2ch7U/AAAAAAAAAAI/AAAAAAAAAjU/F-f11TnZXmk/photo.jpg
p209
sVlanguage
p210
Ven
p211
sVtext
p212
VTERRIBLE CUSTOMER SERVICE.\u000a\u000aI have to say I've never written a negative review for any place, but I had a terrible experience there. I was going there intending to work for the day and have a coffee, some lunch, etc. I told them I just wanted to make sure the wifi was good before I bought something because I'm working here for the day and they wouldn't give me the code. Then I bought a coffee and they gave me a 1 hour pass and said I had to buy something every hour to continue the wifi. Then I asked for my money back because I wanted to go somewhere else and they wouldn't give me a refund.\u000a\u000aFirstly I've never been to coffee shop that was this protective over their wifi, secondly I thought it was irresponsible for them to have not told about the limit when they knew I was planning to work here for the day. And the fact that they gave me attitude and refused to refund my money was very unprofessional.
p213
sVauthor_name
p214
VJeremy Loya
p215
sVauthor_url
p216
Vhttps://plus.google.com/101767684888175837150
p217
sVtime
p218
I1438622738
sa(dp219
Vrating
p220
I3
sVaspects
p221
(lp222
(dp223
Vrating
p224
I1
sVtype
p225
Voverall
p226
sasVprofile_photo_url
p227
V//lh4.googleusercontent.com/-PNxdjn-F4NU/AAAAAAAAAAI/AAAAAAADv2k/Kag1EVrTivI/photo.jpg
p228
sVlanguage
p229
Ven
p230
sVtext
p231
VStopped for a nice latte and banana cake, both were excellent. It's a bustling cafe with a concrete floor and art for sale on the walls. Free WiFi didn't work with my "Google phone" (Nexus 6), which was a shame as that's what I needed at the time.
p232
sVauthor_name
p233
VRobert Wallis
p234
sVauthor_url
p235
Vhttps://plus.google.com/111667704476323287430
p236
sVtime
p237
I1445550926
sa(dp238
Vrating
p239
I5
sVaspects
p240
(lp241
(dp242
Vrating
p243
I3
sVtype
p244
Voverall
p245
sasVprofile_photo_url
p246
V//lh3.googleusercontent.com/-Yakx3aBMtt8/AAAAAAAAAAI/AAAAAAAAAAA/qO2q2IPEdw8/photo.jpg
p247
sVlanguage
p248
Ven
p249
sVtext
p250
VOne of my favorite coffee shops to go to on the weekends, drink coffee, and work on stuff or read.  Awesome coffee from Chromatic (my old hangout when I used to live i the South Bay -- check them out too if you're in San Jose, they're awesome).  Really chill atmosphere, good food, good beer selection, free wifi, comfy couches, friendly staff.  Really great place.
p251
sVauthor_name
p252
VBrian O'Shea
p253
sVauthor_url
p254
Vhttps://plus.google.com/105992589496387862060
p255
sVtime
p256
I1423362556
sa(dp257
Vrating
p258
I2
sVaspects
p259
(lp260
(dp261
Vrating
p262
I0
sVtype
p263
Voverall
p264
sasVprofile_photo_url
p265
V//lh6.googleusercontent.com/-0dA0ljRC2Os/AAAAAAAAAAI/AAAAAAAACXw/m1QDjqe-CYY/photo.jpg
p266
sVlanguage
p267
Ven
p268
sVtext
p269
VThey have a great selection of loose leaf teas and a chill ambiance perfect for conversation. Great for meeting a client or coworker.\u000a\u000aWhile a popular spot for young tech professionals, laptop use is impeded by limited power outlets and poor WiFi (which is low bandwidth and require a separate password per 1 hour block). The slips of paper they hand out with the WiFi password are a serious annoyance.\u000a\u000aDepending on your carrier, cell service is spotty so personal hotspots are not a good option either, though you can often get an adequate signal in outdoor seating.
p270
sVauthor_name
p271
VArc Riley
p272
sVauthor_url
p273
Vhttps://plus.google.com/109741359399131092509
p274
sVtime
p275
I1434242757
sasVformatted_phone_number
p276
V(415) 543-5436
p277
sVaddress_components
p278
(lp279
(dp280
Vlong_name
p281
V764
p282
sVtypes
p283
(lp284
Vstreet_number
p285
asVshort_name
p286
V764
p287
sa(dp288
Vlong_name
p289
VHarrison Street
p290
sVtypes
p291
(lp292
Vroute
p293
asVshort_name
p294
VHarrison St
p295
sa(dp296
Vlong_name
p297
VSan Francisco
p298
sVtypes
p299
(lp300
Vlocality
p301
aVpolitical
p302
asVshort_name
p303
VSF
p304
sa(dp305
Vlong_name
p306
VCalifornia
p307
sVtypes
p308
(lp309
Vadministrative_area_level_1
p310
aVpolitical
p311
asVshort_name
p312
VCA
p313
sa(dp314
Vlong_name
p315
VUnited States
p316
sVtypes
p317
(lp318
Vcountry
p319
aVpolitical
p320
asVshort_name
p321
VUS
p322
sa(dp323
Vlong_name
p324
V94107
p325
sVtypes
p326
(lp327
Vpostal_code
p328
asVshort_name
p329
V94107
p330
sas.