(dp1
Vrating
p2
cdecimal
Decimal
p3
(S'4.2'
tRp4
sVreference
p5
VCmRbAAAAtfBSQRtP1unXsjvm7rq1IJ8fiLVZIuji_dHL40dZ7lzXKD3wgSmeEZrPaGELp1mawyTQiJyJIh-eb5Emyq5U92e1hArGrwykQaYiqm_cE5cMhEIZFbu79TT1hUvFxwBXEhD0O2zT66iHP1_q_gRL07c5GhTgvKtIJBmTESPZLbTorYrF2ubrAA
p6
sVplace_id
p7
VChIJJ0yB8o6AhYAR0HIFmCURzGc
p8
sVurl
p9
Vhttps://maps.google.com/?cid=7479371934317507280
p10
sVformatted_address
p11
V450 Post St, San Francisco, CA 94102, United States
p12
sVid
p13
Vd932103882352170f10b97b80e331055817f73d6
p14
sVopening_hours
p15
(dp16
Vweekday_text
p17
(lp18
VMonday: 4:30 \u2013 9:30 PM
p19
aVTuesday: 4:30 \u2013 9:30 PM
p20
aVWednesday: 4:30 \u2013 9:30 PM
p21
aVThursday: 4:30 \u2013 9:30 PM
p22
aVFriday: 5:30 \u2013 10:00 PM
p23
aVSaturday: 5:30 \u2013 10:00 PM
p24
aVSunday: 5:00 \u2013 9:30 PM
p25
asVopen_now
p26
I00
sVperiods
p27
(lp28
(dp29
Vclose
p30
(dp31
Vday
p32
I0
sVtime
p33
V2130
p34
ssVopen
p35
(dp36
Vday
p37
I0
sVtime
p38
V1700
p39
ssa(dp40
Vclose
p41
(dp42
Vday
p43
I1
sVtime
p44
V2130
p45
ssVopen
p46
(dp47
Vday
p48
I1
sVtime
p49
V1630
p50
ssa(dp51
Vclose
p52
(dp53
Vday
p54
I2
sVtime
p55
V2130
p56
ssVopen
p57
(dp58
Vday
p59
I2
sVtime
p60
V1630
p61
ssa(dp62
Vclose
p63
(dp64
Vday
p65
I3
sVtime
p66
V2130
p67
ssVopen
p68
(dp69
Vday
p70
I3
sVtime
p71
V1630
p72
ssa(dp73
Vclose
p74
(dp75
Vday
p76
I4
sVtime
p77
V2130
p78
ssVopen
p79
(dp80
Vday
p81
I4
sVtime
p82
V1630
p83
ssa(dp84
Vclose
p85
(dp86
Vday
p87
I5
sVtime
p88
V2200
p89
ssVopen
p90
(dp91
Vday
p92
I5
sVtime
p93
V1730
p94
ssa(dp95
Vclose
p96
(dp97
Vday
p98
I6
sVtime
p99
V2200
p100
ssVopen
p101
(dp102
Vday
p103
I6
sVtime
p104
V1730
p105
ssassVvicinity
p106
V450 Post Street, San Francisco
p107
sVscope
p108
VGOOGLE
p109
sVwebsite
p110
Vhttp://www.farallonrestaurant.com/
p111
sVutc_offset
p112
I-420
sVuser_ratings_total
p113
I192
sVphotos
p114
(lp115
(dp116
Vphoto_reference
p117
VCmRdAAAAmDH-Lkw9gCVBynLb7zN0X3OK-3sjeU9sDOStD3lohjtx8BhuH4eEs6teA8DjywJNP6UjtjWGYzhO92r7HdDIy3jm4FQlW9GBr3XzyX72t7_7ppJgA1zrW9XXd0OaOqH0EhD0ZWsK0lLwjOyGoC1iarA-GhS2IPvGH2hyq52PkLdUt3DuxHqnug
p118
sVwidth
p119
I2048
sVhtml_attributions
p120
(lp121
V<a href="https://maps.google.com/maps/contrib/117115763435633017680/photos">Debbie Lee</a>
p122
asVheight
p123
I1536
sa(dp124
Vphoto_reference
p125
VCmRdAAAAInppnOXNzarFfzEJlnwBnWUBl4P8w_A-_jwldKfikVpoCNVklYrEm8btaFkNOdYVOHsl2BQRScnSsQXKw8Z5HCWlbhlWjhLitJrhaO_uIUrYipgffldzAFtnTueEQlwpEhAm_JZN5QE3eQWZJxE55PTFGhR8FH5sh8JxRAGQOgJtipywdA6rqQ
p126
sVwidth
p127
I3200
sVhtml_attributions
p128
(lp129
V<a href="https://maps.google.com/maps/contrib/101323295444794064682/photos">R Butler</a>
p130
asVheight
p131
I2368
sa(dp132
Vphoto_reference
p133
VCmRdAAAAiyqHyMWMM2Y2D-ZCFg4JvVT2bCTaN3doa6lVJGOizRde1mbFoJQ87oABfD5r57xxjgbvqlgR1fwfvfYByA_jSksnJAVMlZGS9K2DucSzcYBY3XpSwY9lwhlnSy4_cPk0EhCyRwf6Oo1FwY5BP3Z6vhYQGhSRALslsmW5KxU_3_qa1L4OjPxwhQ
p134
sVwidth
p135
I2048
sVhtml_attributions
p136
(lp137
V<a href="https://maps.google.com/maps/contrib/117115763435633017680/photos">Debbie Lee</a>
p138
asVheight
p139
I1536
sa(dp140
Vphoto_reference
p141
VCmRdAAAAsTtEIN-MwZvo4fhpdkUXNzCBUSxkqM9_UuxwGVBdFAf9CSTIt7QoebxRja9uO3BUMtFcrFjXw7Hnslc4UDaPMvWZKxe_P44ygbGT_gqugP8WYG6vxrVCI28oFenhtyz8EhC140lOWoixbLK7DXOA7VKVGhRLWTEoXNNGiZHRHI0w19KdsW4eag
p142
sVwidth
p143
I4160
sVhtml_attributions
p144
(lp145
V<a href="https://maps.google.com/maps/contrib/102837592139129677983/photos">Richard Navarro</a>
p146
asVheight
p147
I2340
sa(dp148
Vphoto_reference
p149
VCoQBcwAAAIu0KM4UyXQoqN2Dh6TxGj-HOmwTAvW9QBzPiIPNgwzvi2grErGbKxulh9wEqkGWPLTzVPma3rkOal5Acx3mhqEgna8wifk-CwR-SHI-E7_ezYo45gpKTgMozuHcKkMTA-68QRlEPzG0DTf_XdkEPRRp9ISJibWNw6SMkiRe1f1KEhD1AKyukYWMAf9GA3NbqaitGhT248QpoONYUiLbGp-nL6uyk1HJLg
p150
sVwidth
p151
I3264
sVhtml_attributions
p152
(lp153
V<a href="https://maps.google.com/maps/contrib/110832926105986444172/photos">sarina lee</a>
p154
asVheight
p155
I2448
sa(dp156
Vphoto_reference
p157
VCmRdAAAA2KcJR2hnUHFPjx4FdUO2r4GLxVSccDvZ1A_hMsgSAzaK2Kzex2Xm3rYi2KHdb1tGHz_ZkiVDS3-Ixv2huozyL2RdchboKCiKj23VsKxPt9MD_WwluXOtXvIQtjucuTE3EhBi2PTiB8CD2XWy5mAf6h93GhTFljk2d1NmsFb7JbGdIf5efAXW7A
p158
sVwidth
p159
I4160
sVhtml_attributions
p160
(lp161
V<a href="https://maps.google.com/maps/contrib/102837592139129677983/photos">Richard Navarro</a>
p162
asVheight
p163
I2340
sa(dp164
Vphoto_reference
p165
VCmRdAAAAI0loVMwZuDl0UDJSCXWhkZb1HRNb56I6RiYyMtxLGTuANwXFk5_ndShDCFLbXNt8qzX3wUZnBBIaX-5gTEGDpWwWQ-b9vSE2K1dNl7hLiwWvOt0-0y6_jMULJ-T4l-YBEhCs92HzOF_9fSodv0aFn_wQGhR5lp_nMVeCP_XKG5kX32RMduFIFw
p166
sVwidth
p167
I4160
sVhtml_attributions
p168
(lp169
V<a href="https://maps.google.com/maps/contrib/108037857295668408085/photos">George Nguyen</a>
p170
asVheight
p171
I3120
sa(dp172
Vphoto_reference
p173
VCmRdAAAATAxnWq-j63hRhjqanzlkj4X26wwGUMmcyJ-obKjF-CCwFmdFmzfRlOfSPoA9mQx_9uI8vtcsPiL7xtE2VMAc50SUeqcz3evunMmGsGUsWHXNJAXZWot4hOY8oN58CRB7EhADEfiFN5eI7O3ycwtSZlkqGhQ5qptbNVuWqjeChQzjdwQvn8pn3Q
p174
sVwidth
p175
I2048
sVhtml_attributions
p176
(lp177
V<a href="https://maps.google.com/maps/contrib/117115763435633017680/photos">Debbie Lee</a>
p178
asVheight
p179
I1536
sa(dp180
Vphoto_reference
p181
VCmRdAAAAJ40YV4yotiP3GFpMh5xJImKVKEFZxZxmprbyNyt2FHQbT-fVaaDETSWuenW-bLBGizyOX2csLCzoD26S0QfIIKFrXBPDMuDtiX3c-sC2S5gKawsRIvWQ20Er0aJ_AVCIEhBvznpshGRz_pwfmIusNEoiGhR-XN0IUvGcHLhdjEqbJSzoQZh0Og
p182
sVwidth
p183
I1328
sVhtml_attributions
p184
(lp185
V<a href="https://maps.google.com/maps/contrib/117971837164857644538/photos">Evan Rapoport</a>
p186
asVheight
p187
I747
sa(dp188
Vphoto_reference
p189
VCmRdAAAAxmNCicOSEziRciFRqJVeDFmNnQJExvavG1G4r-qDAj_lTspN4Py81uehqo6HtTs3xXRPXxZQzvOpdEdaZbb8g9fQqWmwtOFQbSkWRdkIJWQAd-TtWdHI8s-MZHMKaigDEhAPT4C6Q6sFJ62tbMCBdZChGhS6fO6bbB7scUhjNxrlBZ1POCbyMg
p190
sVwidth
p191
I816
sVhtml_attributions
p192
(lp193
V<a href="https://maps.google.com/maps/contrib/115109911199025677228/photos">Mark Ho</a>
p194
asVheight
p195
I612
sasVtypes
p196
(lp197
Vbar
p198
aVrestaurant
p199
aVfood
p200
aVpoint_of_interest
p201
aVestablishment
p202
asVicon
p203
Vhttps://maps.gstatic.com/mapfiles/place_api/icons/restaurant-71.png
p204
sVname
p205
VFarallon
p206
sVgeometry
p207
(dp208
Vaccess_points
p209
(lp210
(dp211
Vtravel_modes
p212
(lp213
VDRIVING
p214
aVBICYCLING
p215
aVWALKING
p216
aVTRANSIT
p217
asVlocation
p218
(dp219
Vlat
p220
g3
(S'37.7882077'
tRp221
sVlng
p222
g3
(S'-122.4093098'
tRp223
ssasVlocation
p224
(dp225
Vlat
p226
g3
(S'37.7883431'
tRp227
sVlng
p228
g3
(S'-122.4093377'
tRp229
sssVadr_address
p230
V<span class="street-address">450 Post St</span>, <span class="locality">San Francisco</span>, <span class="region">CA</span> <span class="postal-code">94102</span>, <span class="country-name">United States</span>
p231
sVinternational_phone_number
p232
V+1 415-956-6969
p233
sVreviews
p234
(lp235
(dp236
Vrating
p237
I5
sVaspects
p238
(lp239
(dp240
Vrating
p241
I3
sVtype
p242
Voverall
p243
sasVprofile_photo_url
p244
V//lh4.googleusercontent.com/-JT1SSXSzBMw/AAAAAAAAAAI/AAAAAAAAAI8/yYdgjYCj2xM/photo.jpg
p245
sVlanguage
p246
Ven
p247
sVtext
p248
VI wasn't expecting too much based on the location, decor, and scale of the restaurant, which made it easy to dismiss as a tourist trap. But this place serves up some fresh and extremely well cooked seafood. Soft-shelled crab with fried tomatillo wasn't something I could ever have expected to exist, but I'm glad it does. My fish was served with perfectly crispy skin and juicy flesh. The dessert was also great.
p249
sVauthor_name
p250
VYing H
p251
sVauthor_url
p252
Vhttps://plus.google.com/116118996044024186000
p253
sVtime
p254
I1461089030
sa(dp255
Vrating
p256
I5
sVaspects
p257
(lp258
(dp259
Vrating
p260
I3
sVtype
p261
Voverall
p262
sasVprofile_photo_url
p263
V//lh5.googleusercontent.com/-B7O2DJPMR3U/AAAAAAAAAAI/AAAAAAAAAJM/lybWY-ZKYQY/photo.jpg
p264
sVlanguage
p265
Ven
p266
sVtext
p267
VOne of the best meals I've ever had! We came here for the Valentine's Day tasting menu, which was designed perfectly. We had just enough food and weren't stuffed with bread between every course. My favorite dish was smoked mussels, which I never could have imagined before this food adventure. Definitely pricey, but I would recommend it for a special occasion!
p268
sVauthor_name
p269
VMo McBirney
p270
sVauthor_url
p271
Vhttps://plus.google.com/106722283097906449948
p272
sVtime
p273
I1457051999
sa(dp274
Vrating
p275
I5
sVaspects
p276
(lp277
(dp278
Vrating
p279
I3
sVtype
p280
Voverall
p281
sasVprofile_photo_url
p282
V//lh3.googleusercontent.com/-CwC90BjMTGg/AAAAAAAAAAI/AAAAAAAAeXQ/koby2N_TE5c/photo.jpg
p283
sVlanguage
p284
Ven
p285
sVtext
p286
VVery nice spot! Service was attentive, and the food was amazing!\u000a\u000aThey have a rotating menu, which is both good and bad depending on how you see it!\u000a\u000aThe place had wonderful bread as well paired with an amazing salt!\u000a\u000aI would recommend if you are on a date, or celebrating a particular life event!
p287
sVauthor_name
p288
VRichard Navarro
p289
sVauthor_url
p290
Vhttps://plus.google.com/102837592139129677983
p291
sVtime
p292
I1448124437
sa(dp293
Vrating
p294
I5
sVaspects
p295
(lp296
(dp297
Vrating
p298
I3
sVtype
p299
Voverall
p300
sasVprofile_photo_url
p301
V//lh6.googleusercontent.com/-aL8cxjDmTMs/AAAAAAAAAAI/AAAAAAAA0E0/ljN-e69J2Ts/photo.jpg
p302
sVlanguage
p303
Ven
p304
sVtext
p305
VThe egg flower soup is absolutely amazing. Everything I had was quite tasty. You can enjoy the full menu at the bar if you don't have a reservation. Weird jellyfish light fixtures add a funky vibe.
p306
sVauthor_name
p307
VChristina Collada
p308
sVauthor_url
p309
Vhttps://plus.google.com/103846222472267112072
p310
sVtime
p311
I1453780750
sa(dp312
Vrating
p313
I5
sVaspects
p314
(lp315
(dp316
Vrating
p317
I3
sVtype
p318
Voverall
p319
sasVprofile_photo_url
p320
V//lh5.googleusercontent.com/-mS8EzwNNqJ0/AAAAAAAAAAI/AAAAAAAAKTQ/SABarUmWCvo/photo.jpg
p321
sVlanguage
p322
Ven
p323
sVtext
p324
VThe best of the best. Chef owner Mark Frantz is a master. And the back dining room is called the swimming pool for a reason. It was the pool at the "Y"
p325
sVauthor_name
p326
VRoger Cohn
p327
sVauthor_url
p328
Vhttps://plus.google.com/116324670596004549656
p329
sVtime
p330
I1456947002
sasVformatted_phone_number
p331
V(415) 956-6969
p332
sVaddress_components
p333
(lp334
(dp335
Vlong_name
p336
V450
p337
sVtypes
p338
(lp339
Vstreet_number
p340
asVshort_name
p341
V450
p342
sa(dp343
Vlong_name
p344
VPost Street
p345
sVtypes
p346
(lp347
Vroute
p348
asVshort_name
p349
VPost St
p350
sa(dp351
Vlong_name
p352
VSan Francisco
p353
sVtypes
p354
(lp355
Vlocality
p356
aVpolitical
p357
asVshort_name
p358
VSF
p359
sa(dp360
Vlong_name
p361
VCalifornia
p362
sVtypes
p363
(lp364
Vadministrative_area_level_1
p365
aVpolitical
p366
asVshort_name
p367
VCA
p368
sa(dp369
Vlong_name
p370
VUnited States
p371
sVtypes
p372
(lp373
Vcountry
p374
aVpolitical
p375
asVshort_name
p376
VUS
p377
sa(dp378
Vlong_name
p379
V94102
p380
sVtypes
p381
(lp382
Vpostal_code
p383
asVshort_name
p384
V94102
p385
sas.