(dp1
Vrating
p2
cdecimal
Decimal
p3
(S'4.4'
tRp4
sVreference
p5
VCnRlAAAAhQGH4Lhm_-qw6HMn02BiFf0Xu7CQSGA7NnLwnuSn2uNbeoC72NDtCB2gbZA4WzSAjRVQb_gQilP6nL3gFJUxYB8yZcuSNh05k8Isi4CrOaukHi70sGmO2doxj028yLOiYyFkpLr0-HBZmjLZRZMZrRIQwVu3CzGNbJRl8uRzzJddThoUzVGmEwoC5gLk8N40BWvcDidHYwQ
p6
sVprice_level
p7
I3
sVplace_id
p8
VChIJP6uDl1GEhYAR0tRfOMZkVTU
p9
sVurl
p10
Vhttps://maps.google.com/?cid=3843088659542693074
p11
sVformatted_address
p12
V39 Caledonia St, Sausalito, CA 94965, United States
p13
sVid
p14
V16a07dc6359837ec4dba2c16dc44618d902d636e
p15
sVopening_hours
p16
(dp17
Vweekday_text
p18
(lp19
VMonday: 11:30 AM \u2013 10:00 PM
p20
aVTuesday: 11:30 AM \u2013 10:00 PM
p21
aVWednesday: 11:30 AM \u2013 10:00 PM
p22
aVThursday: 11:30 AM \u2013 10:00 PM
p23
aVFriday: 11:30 AM \u2013 10:00 PM
p24
aVSaturday: 10:00 AM \u2013 10:00 PM
p25
aVSunday: 10:00 AM \u2013 10:00 PM
p26
asVopen_now
p27
I01
sVperiods
p28
(lp29
(dp30
Vclose
p31
(dp32
Vday
p33
I0
sVtime
p34
V2200
p35
ssVopen
p36
(dp37
Vday
p38
I0
sVtime
p39
V1000
p40
ssa(dp41
Vclose
p42
(dp43
Vday
p44
I1
sVtime
p45
V2200
p46
ssVopen
p47
(dp48
Vday
p49
I1
sVtime
p50
V1130
p51
ssa(dp52
Vclose
p53
(dp54
Vday
p55
I2
sVtime
p56
V2200
p57
ssVopen
p58
(dp59
Vday
p60
I2
sVtime
p61
V1130
p62
ssa(dp63
Vclose
p64
(dp65
Vday
p66
I3
sVtime
p67
V2200
p68
ssVopen
p69
(dp70
Vday
p71
I3
sVtime
p72
V1130
p73
ssa(dp74
Vclose
p75
(dp76
Vday
p77
I4
sVtime
p78
V2200
p79
ssVopen
p80
(dp81
Vday
p82
I4
sVtime
p83
V1130
p84
ssa(dp85
Vclose
p86
(dp87
Vday
p88
I5
sVtime
p89
V2200
p90
ssVopen
p91
(dp92
Vday
p93
I5
sVtime
p94
V1130
p95
ssa(dp96
Vclose
p97
(dp98
Vday
p99
I6
sVtime
p100
V2200
p101
ssVopen
p102
(dp103
Vday
p104
I6
sVtime
p105
V1000
p106
ssassVvicinity
p107
V39 Caledonia Street, Sausalito
p108
sVscope
p109
VGOOGLE
p110
sVwebsite
p111
Vhttp://www.eatf3.com/
p112
sVutc_offset
p113
I-420
sVuser_ratings_total
p114
I23
sVphotos
p115
(lp116
(dp117
Vphoto_reference
p118
VCoQBdwAAACXhBLHt1DpD-VkwbCzTb9gw331uDa40fohVTG5cYqZyw4LwQLCV3GhJPGWFkvcAFE3cyB9QR-VjrS_I5cVkh3uhVTduIqW1_whgMZdDecXiogh0unO8l0xO5y8ZPY2l15WJRIFtSVEydaSmA0igQhJ8aMA9-PC7YOvhkgeSUxeJEhBev2AWLxyXXkXYnQpQ7a5oGhSiX7vRJm-Fy2jsF3XOFiLdGaE-rA
p119
sVwidth
p120
I3264
sVhtml_attributions
p121
(lp122
V<a href="https://maps.google.com/maps/contrib/115975762583269038672/photos">Itsuki Asanuma</a>
p123
asVheight
p124
I2448
sa(dp125
Vphoto_reference
p126
VCmRdAAAAUwouOeNWcwwh91rX7UTp1dtfMlPC35J92Qg16NgJX_9cucL_BRMTxlbTUzbvv30DYjqIUvKXvNtLmy15E_-PPqvtRa-Ub2KKmNxoYWGSe2XUsogxaYBJxkO7IMWeF12aEhCt5Vb1Cv_zZHEl7iMhraWWGhRqfSU3KliLcbuDhMGsBmLV1mjoPQ
p127
sVwidth
p128
I2048
sVhtml_attributions
p129
(lp130
V<a href="https://maps.google.com/maps/contrib/114925066167460342600/photos">Fast Food Francais</a>
p131
asVheight
p132
I1371
sa(dp133
Vphoto_reference
p134
VCmRdAAAAEf-ByfgG4YNkrfYjpouIAuJnW_xWTxTTHu6W7uTMOoH-eBN2xPKQH3D7nUPu4ze3HjEPRH1CpvdYJINiXEwf4FBLpwSrCpQPDmtOdGNmG8Tk9q-jycWoWdjSpde5YOjmEhC0XPc3Ufr41Ut232ncM5lDGhROllAtzs49gGoXb2WgN0j-PqN_dA
p135
sVwidth
p136
I3120
sVhtml_attributions
p137
(lp138
V<a href="https://maps.google.com/maps/contrib/105800680184978979492/photos">Michael Emerick</a>
p139
asVheight
p140
I4160
sa(dp141
Vphoto_reference
p142
VCoQBcwAAALDqAI6QAtzMCV6yuKWG29-XpurZpQULqLEsX3oB2jJYbrLIykDh4s9N-8nsrWVBMZRk_jGO8k-sjEqxLwLgzCg3USt8RyUM9MttMBNc29Bj9LYEo7vBbuj8Cr3in9YFfCjWhDmiC22RaC03yqJ049OURTQvHkyQGeLxXI4hZnDzEhDZd4YVDZw85udaAUbI__nRGhTOJEZiH8EcT3NJGmbNYjKcK7W06w
p143
sVwidth
p144
I3264
sVhtml_attributions
p145
(lp146
V<a href="https://maps.google.com/maps/contrib/115975762583269038672/photos">Itsuki Asanuma</a>
p147
asVheight
p148
I2448
sa(dp149
Vphoto_reference
p150
VCoQBdwAAALLG7k6wHMpc8YMG-evDrYVIY6PciZyODdTZSMFtr6rAVB_kQeEmi3Oqmuzr5-Gvo-k878_Se11gAL1xvgBtbw0a9MgtSQ1HV1A9ERoSnNp5jj0m31ywkLfQloiF4EYi7_HBIv6_XSIgaCDS8OJJZoFWLBboYtpfDJTxgqBsQ89UEhBcZub_xaZ-1Tt-eXzuBTkuGhTlKmf_lxgoPKMt2nFtSmAWQKDfpQ
p151
sVwidth
p152
I3264
sVhtml_attributions
p153
(lp154
V<a href="https://maps.google.com/maps/contrib/115975762583269038672/photos">Itsuki Asanuma</a>
p155
asVheight
p156
I2448
sa(dp157
Vphoto_reference
p158
VCoQBcwAAAPzzH6LxU6z6Xkx3jKwtQIccUq9WjZNITA0_yJk65K3zJlvGGRAKoB97B37fnHfpRi_pfBN_LDWR4q5oXFf7kzyfEC1o-fgq07Ho2tZr7TRFYdu-bewT62eZwIOmSLd7stp4TTMBkETsrFAEk-qd9PSHcBzV9giX7X-JemV6eAekEhBOZxlVWyhhwte2zDHOt9QEGhSa85FVE4pqwn53yp6E-ml14VGgAw
p159
sVwidth
p160
I2448
sVhtml_attributions
p161
(lp162
V<a href="https://maps.google.com/maps/contrib/115975762583269038672/photos">Itsuki Asanuma</a>
p163
asVheight
p164
I3264
sa(dp165
Vphoto_reference
p166
VCmRdAAAAC7XKVqwFhEYpIZSEcsfA0ELKr7IxgcUzSmS-z76l-di-COPyNYQVUXyiaphHiRmtPvEyJNfmdFJ7r381BTrMkSIORsvBjF1wqxUomOmxTPPxsSHoE2DXMG7PAGAenXDnEhCgin_qVOm0CKcgYT_97j0wGhR-2yd2Er00_ZUbCrZaY4JAOOV8kQ
p167
sVwidth
p168
I1368
sVhtml_attributions
p169
(lp170
V<a href="https://maps.google.com/maps/contrib/114925066167460342600/photos">Fast Food Francais</a>
p171
asVheight
p172
I1368
sa(dp173
Vphoto_reference
p174
VCmRdAAAAF3JA2BvNH3vaGw4lcFQknExm569Xar8NakRYNosQQrqT42igJJm_YH-NzB9CZRqBW45EXzONoZjYb-4wD_nMmcl8rdFLmsnZg4yWZ1683ZBGBX0IcT_CQ9AAnuK4GFqIEhAhw46KA89RPHzyKUswDO1XGhQzlfH6Ecj1mhYx9IJEwo77L66Mjw
p175
sVwidth
p176
I2448
sVhtml_attributions
p177
(lp178
V<a href="https://maps.google.com/maps/contrib/111543447105502167586/photos">Ping Fu</a>
p179
asVheight
p180
I3264
sa(dp181
Vphoto_reference
p182
VCoQBcwAAAOEOD7HH2EPT8R_6B61WkYDHoDTpnLtLKQk-cFq8Qi4iwkqMygIwu-Qgw8GfK4H1zbm0P30mNXEbpyN8j2VMoVNPmcamJ_u2v7me3t3NNTE-F8d1Mz9roKs2p1iOi7BffJuOYYY6M0JnFrLBm6BSlrmrmmXOD6c3yX439Yuc_3QEEhBbGP-3ut7BMdB667asYVMLGhQZwu9bs-6qX-tjYy_offsJfIlSJg
p183
sVwidth
p184
I3024
sVhtml_attributions
p185
(lp186
V<a href="https://maps.google.com/maps/contrib/118010347509792120747/photos">Sang Yoon</a>
p187
asVheight
p188
I4032
sa(dp189
Vphoto_reference
p190
VCoQBcwAAAKn_qxQLjgHEybI5Pi_31Fj30nEnbqm7fEFe45MIestG9_dwZtTaCvtzBPQXxrp8j5ppZ5fS-Y9cocVyb_fQYyyQt5FujjSsq42-KH7ElqMNOM2lS-utEM4W6Q3hqJJ3MhITp1I_6rIn4xm0tbr-zThgWBHV0ifukZ93P6NyGUMCEhCIqkgcEx-kk9yXlHBDmgsRGhQcF9ueu314tVAy9kIKxT1HTSDLtA
p191
sVwidth
p192
I3024
sVhtml_attributions
p193
(lp194
V<a href="https://maps.google.com/maps/contrib/118010347509792120747/photos">Sang Yoon</a>
p195
asVheight
p196
I4032
sasVtypes
p197
(lp198
Vrestaurant
p199
aVfood
p200
aVpoint_of_interest
p201
aVestablishment
p202
asVicon
p203
Vhttps://maps.gstatic.com/mapfiles/place_api/icons/restaurant-71.png
p204
sVname
p205
VFast Food Francais
p206
sVgeometry
p207
(dp208
Vaccess_points
p209
(lp210
(dp211
Vtravel_modes
p212
(lp213
VDRIVING
p214
aVBICYCLING
p215
aVWALKING
p216
aVTRANSIT
p217
asVlocation
p218
(dp219
Vlat
p220
g3
(S'37.8584388'
tRp221
sVlng
p222
g3
(S'-122.4850124'
tRp223
ssasVlocation
p224
(dp225
Vlat
p226
g3
(S'37.8583266'
tRp227
sVlng
p228
g3
(S'-122.4851063'
tRp229
sssVadr_address
p230
V<span class="street-address">39 Caledonia St</span>, <span class="locality">Sausalito</span>, <span class="region">CA</span> <span class="postal-code">94965</span>, <span class="country-name">United States</span>
p231
sVinternational_phone_number
p232
V+1 415-887-9047
p233
sVreviews
p234
(lp235
(dp236
Vrating
p237
I5
sVaspects
p238
(lp239
(dp240
Vrating
p241
I3
sVtype
p242
Voverall
p243
sasVprofile_photo_url
p244
V//lh6.googleusercontent.com/-03c-EaVhKXw/AAAAAAAAAAI/AAAAAAAAQiY/2B06t79Mtuk/photo.jpg
p245
sVlanguage
p246
Ven
p247
sVtext
p248
VAuthentic California French food. Service is always friendly and fast. Don't miss the f3 appetizer...tater tots (fried mash potatoes), fries, and fried bursary sprouts (light not greasy). Fish dishes are prepared perfectly. Light and comfortable restaurant. 
p249
sVauthor_name
p250
VSang Yoon
p251
sVauthor_url
p252
Vhttps://plus.google.com/118010347509792120747
p253
sVtime
p254
I1459099023
sa(dp255
Vrating
p256
I3
sVaspects
p257
(lp258
(dp259
Vrating
p260
I1
sVtype
p261
Voverall
p262
sasVprofile_photo_url
p263
V//lh5.googleusercontent.com/-zkDhBxT4Vuc/AAAAAAAAAAI/AAAAAAADu7k/fNSC5SIYG44/photo.jpg
p264
sVlanguage
p265
Ven
p266
sVtext
p267
VF3 has a very nice atmosphere--cosmopolitan and certainly the "hipper" of all the Sausalito bar/restaurants. The tables and layout in the lower level are the place to be while the upper level is the go to location if you want it "slightly" less loud as this place is loud. It's usually full at peak hours and you'll have to speak very loudly to have a conversation. It's not the music which is kept at a good level, it must be the building acoustics.\u000a\u000aOn to the food. F3 says its "fast food" almost in a joking way but really, it's a twist on comfort food--French style. The menu is actually a little narrow/shallow if you are in a "dinning" mood. The past few times I was there, we ordered numerous small plates that were very good. I think this is the way to go and maybe that's what is meant by the "fast food" angle.\u000a\u000aThis time around I was a bit more hungry and with just one friend. He ordered the ribs and I ordered the burger. He complained about the ribs being bland but again, maybe he was preconditioned to how most places serve ribs. However, with that being said, if you've even had the ribs from Oola in San Francisco you'll know how good ribs can be by breaking the mold. I had the burger and was indeed tasty and a bit different from your typical burger.\u000a\u000aService is very good. No issues there. Always friendly, attentive and do try to communicate the menu with detail.\u000a\u000aMy only recommendation is to set the proper expectation for your evening. If you're looking for a complete dinner, try the Buckeye or even down the road at Poggio. If you're willing to share numerous dishes, this is a great choice. Think of this place as more of a social scene combined with "French tapas" as smaller plates are the best way to order at Fast Food Francais.
p268
sVauthor_name
p269
VMatt Thomas
p270
sVauthor_url
p271
Vhttps://plus.google.com/105162804825981431367
p272
sVtime
p273
I1456546375
sa(dp274
Vrating
p275
I5
sVaspects
p276
(lp277
(dp278
Vrating
p279
I3
sVtype
p280
Voverall
p281
sasVlanguage
p282
Ven
p283
sVtext
p284
VMy family loves a good hamburger and we discovered at Fast Food Francais the best hamburgers in the country. We're not making that declaration lightly and enjoy trying out hamburgers wherever we travel. We had never been to Sausalito before, and so we had never been to Fast Food Francais before. We didn't know about it until we walked by during a recent vacation. We were immediately seated for lunch and while looking over the menu the various hamburgers were described and house-recommended. The combination of fresh-baked roll, personally-sourced hamburger meat, and toppings, including the provencal sauce, made the hamburger sublime. There was no exaggeration that we would really enjoy our selection. \u000a\u000aOur two kids (pre-teen boys) were made to feel part of the team, were assigned nicknames and personal attention by the wait staff. As another highlight, we were shown the herb garden (including a plump lemon tree that our boys were encouraged to pick a treat from as we left) the restauranteurs cultivate in the restaurant's backyard to supply their restaurant needs. We were greatly impressed by the personalized sourcing the restaurant maintains that extended firstly from their own backyard. \u000a\u000aWe can't wait to return to relish Fast Food Francais again. Bravo!\u000a\u000a
p285
sVauthor_name
p286
VMark Schroeder
p287
sVauthor_url
p288
Vhttps://plus.google.com/102932397447258284060
p289
sVtime
p290
I1438821617
sa(dp291
Vrating
p292
I4
sVaspects
p293
(lp294
(dp295
Vrating
p296
I2
sVtype
p297
Voverall
p298
sasVprofile_photo_url
p299
V//lh6.googleusercontent.com/-QvkeGiaYUEQ/AAAAAAAAAAI/AAAAAAAAByY/THINDd95DMo/photo.jpg
p300
sVlanguage
p301
Ven
p302
sVtext
p303
VTry the amazing brussel sprouts chips there. My hamburger was good but a tad on the greasy side. 
p304
sVauthor_name
p305
VXavier Lee
p306
sVauthor_url
p307
Vhttps://plus.google.com/103674981195457842493
p308
sVtime
p309
I1448061053
sa(dp310
Vrating
p311
I5
sVaspects
p312
(lp313
(dp314
Vrating
p315
I3
sVtype
p316
Voverall
p317
sasVprofile_photo_url
p318
V//lh6.googleusercontent.com/-F72fTFICrO8/AAAAAAAAAAI/AAAAAAAAGOw/Wy5hwNs6ljE/photo.jpg
p319
sVlanguage
p320
Ven
p321
sVtext
p322
VAsk for the special. Anything on the special is amazing. Great customer service, 10/10 recommend.
p323
sVauthor_name
p324
VMiles Kredich
p325
sVauthor_url
p326
Vhttps://plus.google.com/105144650358650703845
p327
sVtime
p328
I1450909222
sasVformatted_phone_number
p329
V(415) 887-9047
p330
sVaddress_components
p331
(lp332
(dp333
Vlong_name
p334
V39
p335
sVtypes
p336
(lp337
Vstreet_number
p338
asVshort_name
p339
V39
p340
sa(dp341
Vlong_name
p342
VCaledonia Street
p343
sVtypes
p344
(lp345
Vroute
p346
asVshort_name
p347
VCaledonia St
p348
sa(dp349
Vlong_name
p350
VSausalito
p351
sVtypes
p352
(lp353
Vlocality
p354
aVpolitical
p355
asVshort_name
p356
VSausalito
p357
sa(dp358
Vlong_name
p359
VCalifornia
p360
sVtypes
p361
(lp362
Vadministrative_area_level_1
p363
aVpolitical
p364
asVshort_name
p365
VCA
p366
sa(dp367
Vlong_name
p368
VUnited States
p369
sVtypes
p370
(lp371
Vcountry
p372
aVpolitical
p373
asVshort_name
p374
VUS
p375
sa(dp376
Vlong_name
p377
V94965
p378
sVtypes
p379
(lp380
Vpostal_code
p381
asVshort_name
p382
V94965
p383
sas.