(dp1
Vrating
p2
cdecimal
Decimal
p3
(S'4.3'
tRp4
sVreference
p5
VCmRgAAAAJPhSWevxHny7W4YSbbp1iE6pSsJfYkza4GzG2o0kLJhde-8XLXAaoN6v5DsFv-IOmjeG5PmXfUhpIMNbJrN3PTPbQA6S_FZoADgEfn6rDks7FdjPMiAeufDYBUCLKFt4EhDHxTt-ZqGVrx5eIad_j4wWGhRDkrWRYLuDEb9MWPcaWiQTb4-KLQ
p6
sVplace_id
p7
VChIJDVaCXjd-j4AR4AOGUS0kLGc
p8
sVurl
p9
Vhttps://maps.google.com/?cid=7434356861941711840
p10
sVformatted_address
p11
V2401 Harrison St, San Francisco, CA 94110, United States
p12
sVid
p13
Vc07edd57c8de2bbf0c130f04e02ba5d09a838f57
p14
sVopening_hours
p15
(dp16
Vweekday_text
p17
(lp18
VMonday: 5:30 \u2013 11:00 PM
p19
aVTuesday: 5:30 \u2013 11:00 PM
p20
aVWednesday: 5:30 \u2013 11:00 PM
p21
aVThursday: 5:30 \u2013 11:00 PM
p22
aVFriday: 5:30 PM \u2013 12:00 AM
p23
aVSaturday: 5:30 PM \u2013 12:00 AM
p24
aVSunday: 5:30 \u2013 11:00 PM
p25
asVopen_now
p26
I00
sVperiods
p27
(lp28
(dp29
Vclose
p30
(dp31
Vday
p32
I0
sVtime
p33
V2300
p34
ssVopen
p35
(dp36
Vday
p37
I0
sVtime
p38
V1730
p39
ssa(dp40
Vclose
p41
(dp42
Vday
p43
I1
sVtime
p44
V2300
p45
ssVopen
p46
(dp47
Vday
p48
I1
sVtime
p49
V1730
p50
ssa(dp51
Vclose
p52
(dp53
Vday
p54
I2
sVtime
p55
V2300
p56
ssVopen
p57
(dp58
Vday
p59
I2
sVtime
p60
V1730
p61
ssa(dp62
Vclose
p63
(dp64
Vday
p65
I3
sVtime
p66
V2300
p67
ssVopen
p68
(dp69
Vday
p70
I3
sVtime
p71
V1730
p72
ssa(dp73
Vclose
p74
(dp75
Vday
p76
I4
sVtime
p77
V2300
p78
ssVopen
p79
(dp80
Vday
p81
I4
sVtime
p82
V1730
p83
ssa(dp84
Vclose
p85
(dp86
Vday
p87
I6
sVtime
p88
V0000
p89
ssVopen
p90
(dp91
Vday
p92
I5
sVtime
p93
V1730
p94
ssa(dp95
Vclose
p96
(dp97
Vday
p98
I0
sVtime
p99
V0000
p100
ssVopen
p101
(dp102
Vday
p103
I6
sVtime
p104
V1730
p105
ssassVvicinity
p106
V2401 Harrison Street, San Francisco
p107
sVscope
p108
VGOOGLE
p109
sVwebsite
p110
Vhttp://www.flourandwater.com/
p111
sVutc_offset
p112
I-420
sVuser_ratings_total
p113
I370
sVphotos
p114
(lp115
(dp116
Vphoto_reference
p117
VCmRdAAAAyeAR1Tc268v_lArhacZt0oIl5BR8giVCJE8BS9ctJ_p81YLaJBWaYAV6pgrfdasBZWdqk9hY12JUxm3HLzjCvMzPJGivV41W_FCprRVvpCziGsg7EMKC108H8SSXdCF-EhBS3X5QMLn1VrTFAoxM_P5YGhQ4cYxS5gVoaI_qZGWvoH8GOMXjag
p118
sVwidth
p119
I600
sVhtml_attributions
p120
(lp121
V<a href="https://maps.google.com/maps/contrib/103619313090820100649/photos">Frank de Jong</a>
p122
asVheight
p123
I329
sa(dp124
Vphoto_reference
p125
VCoQBcwAAAFf-xXJpr5IAvL_DtRt-hvEyXuTBiUoati6_lZW9BlQ_Gqu8OMZxx_hZviJWTZjqXvcQ815c6Wz4mbj-fCLWZxAJJgNPJuHxEnZexo0zIT7aR17tE8H-tjYUhnauYZiUTIkVFwYSuw2paQ1PfO_Hwg4HzIDwtO3Fyy9fXQqUxi46EhDg5kU-4N5Ia5Gg55qy9mMSGhS2HTV_Wf9WN3JGJzMaRJ0edL6HTA
p126
sVwidth
p127
I3840
sVhtml_attributions
p128
(lp129
V<a href="https://maps.google.com/maps/contrib/117055394938270949023/photos">Hideaki Ichizawa</a>
p130
asVheight
p131
I2160
sa(dp132
Vphoto_reference
p133
VCmRdAAAANzXUVItEoTy6qDnciwgv6qjnHPmun6iRuwgNr-pOC1kGHZlOqBdqV2RoHwVW88ezLTmuQdpeHZ9J1bY5ZuAEFtipnXOw8zkUgmXl_QJc8fiNE4sl72XwusJ3QOJ-OKhAEhC7eDyeQLJdSO-Rks3PnnhmGhS8-nQSPsr-wxTZBHVnhU_mDyAMJQ
p134
sVwidth
p135
I1265
sVhtml_attributions
p136
(lp137
V<a href="https://maps.google.com/maps/contrib/116392707883844379516/photos">Miss Cool</a>
p138
asVheight
p139
I949
sa(dp140
Vphoto_reference
p141
VCmRdAAAAPxbyHfCgdDZepTBW8yghbIyV2dQUfW2nvw0cuabW5FUJ6ar1-fAw52EF3BJWQ3_qDYdYCfXiXIN_G4uS_c9GNjIOJmbg7lI9BhrePfjjKreKtqPX6MVjEzKyQqpem6EpEhDSexbqGWJE2jwmoLN6qwPeGhTGJs0TMC-MBeJyX8K8V4uo05PLEg
p142
sVwidth
p143
I2560
sVhtml_attributions
p144
(lp145
V<a href="https://maps.google.com/maps/contrib/100421685466459632865/photos">Gina Hsieh</a>
p146
asVheight
p147
I1920
sa(dp148
Vphoto_reference
p149
VCmRdAAAAgkW0H29sT07f_TxL9_Bnlbm3oMdQm-I4LSztXJZFKTxO1Tmt7GIspx70uvPtwxXyfODqLVpRK5U27-8gxPj-DMBbEEtXm7SxHhDPmD0Mu8QsTSHfoHnCT-tguiVIMP1XEhD9eqwRVwlVBUiYkmbSyInIGhTo-m4Ve4JbsdjwwUXWi6Zz4RpMDw
p150
sVwidth
p151
I2048
sVhtml_attributions
p152
(lp153
V<a href="https://maps.google.com/maps/contrib/109114205532202319201/photos">David Adams</a>
p154
asVheight
p155
I1365
sa(dp156
Vphoto_reference
p157
VCoQBdwAAAN6xX4qLkKDXjFF6RvobzBmthH_pIm2bdiEkBq7gmmhtre69wZfrQ8hdIWr1SOQhLxGWMExbiRJezeRJ2pwCEkdYSE-R4hOkENYHFCXs6g2NU0dLHZhxPgpBS9_bW1_0sOZGYCr5U1_UetvhyYNlgAwTHNe7I6Mhfv6kfC7vkBl8EhBgQK8JUaKGpeJ-xGnJQ9IUGhSgTMch99dLCU45dxdW_XvFwk_QLQ
p158
sVwidth
p159
I4000
sVhtml_attributions
p160
(lp161
V<a href="https://maps.google.com/maps/contrib/106457811823434251479/photos">Michele Mazzoni</a>
p162
asVheight
p163
I2992
sa(dp164
Vphoto_reference
p165
VCmRdAAAA7wFyJ4H8lVcNhNSUPmd4Vc0Y9tsxIWNXMRZLs9DE7ar0a8IqGg4YzcV5iEzxUsSoGd2g-bAuFtanZQgTg7CIuQD_hPKSiOWdm1bdCxSWMZwuBjkVA3qFOR5dy3xYike2EhDca_YCRM2OwB_0yKWWiT9oGhTjbfoLLa0d1L0Ln_8sppdJjJHDqw
p166
sVwidth
p167
I1265
sVhtml_attributions
p168
(lp169
V<a href="https://maps.google.com/maps/contrib/116392707883844379516/photos">Miss Cool</a>
p170
asVheight
p171
I949
sa(dp172
Vphoto_reference
p173
VCmRdAAAAUVdUkdXRl3vB7QeSSvodKgz2yl7yY9GnIhIH0-pykH2oBk4PfZqXKWCBfrdgJ6cMi2g_iAeGmEqQlzX3SANIfnRJHuV1t-RSv6TFSYmFZZ64D9uKtHRyY9Q7NtXJt8syEhCtZA0X6TMyMOBcX0oyOTFcGhTJaKGh-qVuyfaPjlIK-KKycYpP6Q
p174
sVwidth
p175
I949
sVhtml_attributions
p176
(lp177
V<a href="https://maps.google.com/maps/contrib/116392707883844379516/photos">Miss Cool</a>
p178
asVheight
p179
I1265
sa(dp180
Vphoto_reference
p181
VCoQBdwAAAPEjBmSMtyC52SqTdI8H1h8eVxiKEmjq5yh2FI0wrq5J-43BE0KpZJSoJDEGMfbq6BLcWWUdqWZOwTPhLoPFEhR2jokdzeR2wzlwUh1YnbLmf5_RkLlacMj2-fdexq5RGVC7Bb-QLpSs54YUlc1fLiVXEyAiMrndlNwUj1cjTCB5EhBTMp4FtagmSZBUq5ItfY5gGhQRX6AJ3sGcTXEZjXsrhHtqE9Ggtg
p182
sVwidth
p183
I2992
sVhtml_attributions
p184
(lp185
V<a href="https://maps.google.com/maps/contrib/106457811823434251479/photos">Michele Mazzoni</a>
p186
asVheight
p187
I4000
sa(dp188
Vphoto_reference
p189
VCmRdAAAAfkMi27LuOFF9ark_1hl_p6sUHS9L-c-m-iamkmZkQIr894C1Yw8BkTFwRLmddsI_Zf04hsbW30OyCWr3bUW79dgU3fiznRwCkOUZLn8C--daJagAszZsqZOhnAVoUtOrEhCVlYFwK3_IGBUO7eVU98oJGhQXrFXzgFK_PIdh7pS5cVT0Uk1dJQ
p190
sVwidth
p191
I2048
sVhtml_attributions
p192
(lp193
V<a href="https://maps.google.com/maps/contrib/109114205532202319201/photos">David Adams</a>
p194
asVheight
p195
I1365
sasVtypes
p196
(lp197
Vrestaurant
p198
aVfood
p199
aVpoint_of_interest
p200
aVestablishment
p201
asVicon
p202
Vhttps://maps.gstatic.com/mapfiles/place_api/icons/restaurant-71.png
p203
sVname
p204
VFlour + Water
p205
sVgeometry
p206
(dp207
Vaccess_points
p208
(lp209
(dp210
Vtravel_modes
p211
(lp212
VDRIVING
p213
aVBICYCLING
p214
aVWALKING
p215
aVTRANSIT
p216
asVlocation
p217
(dp218
Vlat
p219
g3
(S'37.7589286'
tRp220
sVlng
p221
g3
(S'-122.4125051'
tRp222
ssasVlocation
p223
(dp224
Vlat
p225
g3
(S'37.7589424'
tRp226
sVlng
p227
g3
(S'-122.4122683'
tRp228
sssVadr_address
p229
V<span class="street-address">2401 Harrison St</span>, <span class="locality">San Francisco</span>, <span class="region">CA</span> <span class="postal-code">94110-2710</span>, <span class="country-name">United States</span>
p230
sVinternational_phone_number
p231
V+1 415-826-7000
p232
sVreviews
p233
(lp234
(dp235
Vrating
p236
I2
sVaspects
p237
(lp238
(dp239
Vrating
p240
I0
sVtype
p241
Voverall
p242
sasVlanguage
p243
Ven
p244
sVtext
p245
VIt was my favorite place to go and always recommended to my friends to check this awesome place. Now, no! \u000aOverpriced for overcooked noodles and over salted dish!!! Way tooooooooo expensive! One of that pop up trendy place to die soon... 
p246
sVauthor_name
p247
VDaria Ts. Nicol
p248
sVauthor_url
p249
Vhttps://plus.google.com/103834109629573917619
p250
sVtime
p251
I1461041005
sa(dp252
Vrating
p253
I3
sVaspects
p254
(lp255
(dp256
Vrating
p257
I1
sVtype
p258
Voverall
p259
sasVprofile_photo_url
p260
V//lh3.googleusercontent.com/-GF2KeHfhXfg/AAAAAAAAAAI/AAAAAAAAUCw/Dq2HG9DZRcs/photo.jpg
p261
sVlanguage
p262
Ven
p263
sVtext
p264
VWe were able to snag a 6pm Sunday reservation for two at Flour & Water. \u000a\u000aFrom walking by this place multiple times, it seemed to be an upscale, intimate restaurant. The actual ambience was quite casual, with three different tables with children standing on the chairs -- although this may have been a coincidence.\u000a\u000aI found it to be a little too dark. I'm sure it's beautiful when there is some natural sunlight coming in, but since it's a dinner place, you probably won't ever experience that. \u000a\u000aWe shared the margherita pizza, and the mustard garganelli with braised pork shoulder & cabbage (I think there was also rabbit in there). The pizza came first - the tomato sauce was extremely warm and tender. The crust was VERY thin. We were starting to think that we might not get full off of two dishes. I love margherita and this pizza exceeded my expectations (I am not normally a pizza person, but I love thin crust!\u000a\u000aThen the pasta came. I must say, it was pretty good. The mustard was very light and not overpowering which was great. The braised pork pits were delicious. It was quite flavorful, although a bit too oily. The main problem we had with it was that it was literally the size of an appetizer, which was not expected. We knew we definitely were not going to be full at this point.\u000a\u000aSo we ordered a side dish - roasted delicata squash with duck confit, currant & rosemary. This was surprisingly the best dish out of the three. The squash paired well with the duck. It was very flavorful. The funny thing is that this dish was $8, whereas the pasta was $18, and we were pretty sure the squash filled us up more than the pasta. \u000a\u000aIt would be nice if they gave more portions for the pasta dish and just increased the price a bit. We all know pasta itself is cheap.\u000a\u000aThe service was alright. They seemed a bit colder and less friendly than other restaurants that tend to require you to reserve for a spot. Also, when we were ordering the duck confit dish, the waiter had no idea what we were talking about, and went to fetch a menu to confirm. The menu does indeed change daily, though we were a bit surprised by the lack of knowledge by the staff.\u000a\u000aOverall, delicious food but one definitely requires some appetizers or side dishes to have a filling meal. I recommend others to try it out, but I wouldn't go out of my way to get a reservation again.
p265
sVauthor_name
p266
VElisa Lou
p267
sVauthor_url
p268
Vhttps://plus.google.com/115362898003952244191
p269
sVtime
p270
I1460315616
sa(dp271
Vrating
p272
I1
sVaspects
p273
(lp274
(dp275
Vrating
p276
I0
sVtype
p277
Voverall
p278
sasVprofile_photo_url
p279
V//lh5.googleusercontent.com/-8bgCFjE2qvU/AAAAAAAAAAI/AAAAAAAAADM/54P02D1Ja54/photo.jpg
p280
sVlanguage
p281
Ven
p282
sVtext
p283
VChewy pasta that is over priced. I have had great pasta and went there after rave reviews but absolutely not worth it. Service was good and atmosphere was lively but not food.\u000a
p284
sVauthor_name
p285
VStar Robbins
p286
sVauthor_url
p287
Vhttps://plus.google.com/115136321704876877915
p288
sVtime
p289
I1455369717
sa(dp290
Vrating
p291
I5
sVaspects
p292
(lp293
(dp294
Vrating
p295
I3
sVtype
p296
Voverall
p297
sasVprofile_photo_url
p298
V//lh5.googleusercontent.com/-hm7w-p8E4no/AAAAAAAAAAI/AAAAAAAApgg/p7NTWyCccwQ/photo.jpg
p299
sVlanguage
p300
Ven
p301
sVtext
p302
VFresh fresh fresh pasta. I avoid the tasting menu so that I can pick what I want. I like the salumi board to start and their salads are refreshing. Get a few pastas to share and a pizza or 2. The pastas are generally small portions but great for sharing. The pizza is delicious with a fiery salty crust.  And finish with the boudino. The boudino is everything. Fave dessert in the city. Yes it's not cheap but neither are more restaurants in SF. It's worth it. Love this place!
p303
sVauthor_name
p304
VShanee Ben-Zur
p305
sVauthor_url
p306
Vhttps://plus.google.com/106931136794710176464
p307
sVtime
p308
I1454299705
sa(dp309
Vrating
p310
I5
sVaspects
p311
(lp312
(dp313
Vrating
p314
I3
sVtype
p315
Voverall
p316
sasVprofile_photo_url
p317
V//lh6.googleusercontent.com/-YoBQqLAgpaM/AAAAAAAAAAI/AAAAAAAAEcs/mIsPk2hsCzA/photo.jpg
p318
sVlanguage
p319
Ven
p320
sVtext
p321
VGreat wine selection, handmade pasta, excellent service. Always busy, well worth it!
p322
sVauthor_name
p323
VCasandra Higuera
p324
sVauthor_url
p325
Vhttps://plus.google.com/107934326820018171886
p326
sVtime
p327
I1460343473
sasVformatted_phone_number
p328
V(415) 826-7000
p329
sVaddress_components
p330
(lp331
(dp332
Vlong_name
p333
V2401
p334
sVtypes
p335
(lp336
Vstreet_number
p337
asVshort_name
p338
V2401
p339
sa(dp340
Vlong_name
p341
VHarrison Street
p342
sVtypes
p343
(lp344
Vroute
p345
asVshort_name
p346
VHarrison St
p347
sa(dp348
Vlong_name
p349
VSan Francisco
p350
sVtypes
p351
(lp352
Vlocality
p353
aVpolitical
p354
asVshort_name
p355
VSF
p356
sa(dp357
Vlong_name
p358
VCalifornia
p359
sVtypes
p360
(lp361
Vadministrative_area_level_1
p362
aVpolitical
p363
asVshort_name
p364
VCA
p365
sa(dp366
Vlong_name
p367
VUnited States
p368
sVtypes
p369
(lp370
Vcountry
p371
aVpolitical
p372
asVshort_name
p373
VUS
p374
sa(dp375
Vlong_name
p376
V94110
p377
sVtypes
p378
(lp379
Vpostal_code
p380
asVshort_name
p381
V94110
p382
sa(dp383
Vlong_name
p384
V2710
p385
sVtypes
p386
(lp387
Vpostal_code_suffix
p388
asVshort_name
p389
V2710
p390
sas.