(dp1
Vrating
p2
cdecimal
Decimal
p3
(S'4.2'
tRp4
sVreference
p5
VCmRbAAAAQIVwtlcZ4mDRT3RIkH3apS4F213CG3UHMNhjG7eopDw7TfvGSJp1aZ5KB1HE1519_SIYn_7ZXHVdQXFwwADmaZ-DG6ewEUhIEOabc3C4R7G5kMczY8eQplC8O3PpORR5EhAiqlgMXgsZlmShhEhHrXBIGhTKoa9w5hJRDxyfSuR2kJHhtKmk-A
p6
sVplace_id
p7
VChIJIZsOXmN-j4ARtj0s3rJmTMk
p8
sVurl
p9
Vhttps://maps.google.com/?cid=14505081418271178166
p10
sVformatted_address
p11
V2842 Diamond St, San Francisco, CA 94131, United States
p12
sVid
p13
Ve7455e3696a490c734db65049949aa8574a3cb78
p14
sVopening_hours
p15
(dp16
Vweekday_text
p17
(lp18
VMonday: 5:00 \u2013 10:00 PM
p19
aVTuesday: 5:00 \u2013 10:00 PM
p20
aVWednesday: 5:00 \u2013 10:00 PM
p21
aVThursday: 5:00 \u2013 10:00 PM
p22
aVFriday: 5:00 \u2013 10:30 PM
p23
aVSaturday: 5:00 \u2013 10:30 PM
p24
aVSunday: 5:00 \u2013 10:00 PM
p25
asVopen_now
p26
I01
sVperiods
p27
(lp28
(dp29
Vclose
p30
(dp31
Vday
p32
I0
sVtime
p33
V2200
p34
ssVopen
p35
(dp36
Vday
p37
I0
sVtime
p38
V1700
p39
ssa(dp40
Vclose
p41
(dp42
Vday
p43
I1
sVtime
p44
V2200
p45
ssVopen
p46
(dp47
Vday
p48
I1
sVtime
p49
V1700
p50
ssa(dp51
Vclose
p52
(dp53
Vday
p54
I2
sVtime
p55
V2200
p56
ssVopen
p57
(dp58
Vday
p59
I2
sVtime
p60
V1700
p61
ssa(dp62
Vclose
p63
(dp64
Vday
p65
I3
sVtime
p66
V2200
p67
ssVopen
p68
(dp69
Vday
p70
I3
sVtime
p71
V1700
p72
ssa(dp73
Vclose
p74
(dp75
Vday
p76
I4
sVtime
p77
V2200
p78
ssVopen
p79
(dp80
Vday
p81
I4
sVtime
p82
V1700
p83
ssa(dp84
Vclose
p85
(dp86
Vday
p87
I5
sVtime
p88
V2230
p89
ssVopen
p90
(dp91
Vday
p92
I5
sVtime
p93
V1700
p94
ssa(dp95
Vclose
p96
(dp97
Vday
p98
I6
sVtime
p99
V2230
p100
ssVopen
p101
(dp102
Vday
p103
I6
sVtime
p104
V1700
p105
ssassVvicinity
p106
V2842 Diamond Street, San Francisco
p107
sVscope
p108
VGOOGLE
p109
sVwebsite
p110
Vhttp://www.gialina.com/
p111
sVutc_offset
p112
I-420
sVuser_ratings_total
p113
I105
sVphotos
p114
(lp115
(dp116
Vphoto_reference
p117
VCmRdAAAAJh4-Z1niiBRFVmoPI2t88R4pXbLZPyy2-8bZ8h_I8ivJ9hp89qWNZ7L2qOgUWlAVKMoDjz2SCohC_cdoYNRFILgQvBcjzvgoseQY13VlmkoDOAOJQxkOe2113zvwzEJaEhDnBEHQKquQGlmwVnyCdlwIGhTDDthy1w8oX082gnb5cZqUkwfLgw
p118
sVwidth
p119
I3264
sVhtml_attributions
p120
(lp121
V<a href="https://maps.google.com/maps/contrib/101684759371052236980/photos">Don V</a>
p122
asVheight
p123
I2448
sa(dp124
Vphoto_reference
p125
VCoQBcwAAADrLlbw4wLU8LAtMDOLXoGbCvlBOnE5BJWTibac9SEZbQVkBOUvvE7Tee9p8kzx29FEku2oBUON5JFtcV5xSvPLyu36lJuUyMGYq-oimvde04uZgng8T23Lqv2HruMxaB10LNZNioL0FSaJTcBwO8oRbZXZCeelaoqTnOwNXXm-7EhDVxKWZlOlNGJ3OlnuWAuabGhQo2qHB7YwgTKASCRKVKE1tV_7hHg
p126
sVwidth
p127
I905
sVhtml_attributions
p128
(lp129
V<a href="https://maps.google.com/maps/contrib/113256681836649808083/photos">Keira Chu</a>
p130
asVheight
p131
I547
sa(dp132
Vphoto_reference
p133
VCoQBcwAAAJgY1GlbW5GmYmFY-ycKYZ8mIB4dlhZIteL6MUB_xIczEZhGdxtmO_ipiYJv1aUUtHrjJ9-SAY_Jjua7HKu5cLDlqQv7ERcd0ag4PXTi5QKzXFBV-7Ixh1Xc-ITtwqwuJcYh1lECTTyfG4tIUXPzrSMILP0sy9WnqVM4BWL4CwUjEhCubcuGC7w0wzmg2NEV8hp2GhSf2ISCHhSmtb4zDCzPtxkVoi1hvA
p134
sVwidth
p135
I3024
sVhtml_attributions
p136
(lp137
V<a href="https://maps.google.com/maps/contrib/113256681836649808083/photos">Keira Chu</a>
p138
asVheight
p139
I1597
sa(dp140
Vphoto_reference
p141
VCmRdAAAA1cvkmzX7VmNb7DMHuvLh7Lqw2BSD2jNfGlHO0280YUaSad50WmDCdN0zl2XO4ibq_87cKe0aM04LxMpEe2IgSDz6HsBoUqRYnYT04NGrPZG3Jri50eETMnuiw-6luGE2EhA3fFj7ojVKTW6ZX3zHc4YTGhRJUecZgqVqtS3SQ9d2JHniiPCy3w
p142
sVwidth
p143
I3264
sVhtml_attributions
p144
(lp145
V<a href="https://maps.google.com/maps/contrib/101684759371052236980/photos">Don V</a>
p146
asVheight
p147
I2448
sa(dp148
Vphoto_reference
p149
VCoQBcwAAADsN_yqEoddD9hw34Tyl2-DLc_hC4SK05sBFqzo9qmcMqQzQnZElK-MIKY6EyQtkNo0L8wkYKFtTFULrIABu7IPg_7fLbwldyGTpyvJe7oyHx6iF_UOCYdq3Cbm7w4In3inyW8S08RjhKdWit-n9PYPDl3xEmk5ILlIjUQaFjQDfEhCPfOgnI-RwUggYvhn08eD3GhT-WK0W3ZByr80khVIlqEU9fzMM-Q
p150
sVwidth
p151
I516
sVhtml_attributions
p152
(lp153
V<a href="https://maps.google.com/maps/contrib/113256681836649808083/photos">Keira Chu</a>
p154
asVheight
p155
I273
sasVtypes
p156
(lp157
Vrestaurant
p158
aVfood
p159
aVpoint_of_interest
p160
aVestablishment
p161
asVicon
p162
Vhttps://maps.gstatic.com/mapfiles/place_api/icons/restaurant-71.png
p163
sVname
p164
VGialina
p165
sVgeometry
p166
(dp167
Vaccess_points
p168
(lp169
(dp170
Vtravel_modes
p171
(lp172
VDRIVING
p173
aVBICYCLING
p174
aVWALKING
p175
aVTRANSIT
p176
asVlocation
p177
(dp178
Vlat
p179
g3
(S'37.7339658'
tRp180
sVlng
p181
g3
(S'-122.4340544'
tRp182
ssasVlocation
p183
(dp184
Vlat
p185
g3
(S'37.7339997'
tRp186
sVlng
p187
g3
(S'-122.434249'
tRp188
sssVadr_address
p189
V<span class="street-address">2842 Diamond St</span>, <span class="locality">San Francisco</span>, <span class="region">CA</span> <span class="postal-code">94131</span>, <span class="country-name">United States</span>
p190
sVinternational_phone_number
p191
V+1 415-239-8500
p192
sVreviews
p193
(lp194
(dp195
Vrating
p196
I5
sVaspects
p197
(lp198
(dp199
Vrating
p200
I3
sVtype
p201
Voverall
p202
sasVprofile_photo_url
p203
V//lh5.googleusercontent.com/-bwhIn_ka59c/AAAAAAAAAAI/AAAAAAAAAI4/KPVWCLj4-bY/photo.jpg
p204
sVlanguage
p205
Ven
p206
sVtext
p207
VIn love with their pizzas. \u000aEspecially the Amatriaciana and also the Atomica. But really, everything is mouth-watering delicious. Last week they had a lamb with goat cheese special!\u000a\u000aDuring the summer time, the owner personally makes a semi-freddo dessert that is the best in the world.\u000a\u000aVery busy, long lines, come early.
p208
sVauthor_name
p209
VKeira Chu
p210
sVauthor_url
p211
Vhttps://plus.google.com/113256681836649808083
p212
sVtime
p213
I1460320048
sa(dp214
Vrating
p215
I1
sVaspects
p216
(lp217
(dp218
Vrating
p219
I0
sVtype
p220
Voverall
p221
sasVprofile_photo_url
p222
V//lh6.googleusercontent.com/-e82fsAYAoos/AAAAAAAAAAI/AAAAAAAAABQ/BPwy2V8Thpw/photo.jpg
p223
sVlanguage
p224
Ven
p225
sVtext
p226
VWell I went back again 6+ years later, and not much has changed. The Margherita sauce was still disappointing, although not as gummy as before, the cheese was melted this time, but the crust was still hard and crunchy. And the place is VERY expensive. The small scoop of cavatelli pasta was $16, it was a kid's portion at best, and the tiny glass of cheap wine was $12. I don't mean to single out Gialina, most restaurants are going this way--small pours of wine for outrageous sums of money. A glass like we got should be $6, it's CHEAP wine, but margin creep has restaurants taking advantage where they know people will spend money: on booze.
p227
sVauthor_name
p228
VKathleen Draughn
p229
sVauthor_url
p230
Vhttps://plus.google.com/113782523606768698098
p231
sVtime
p232
I1461054308
sa(dp233
Vrating
p234
I4
sVaspects
p235
(lp236
(dp237
Vrating
p238
I2
sVtype
p239
Voverall
p240
sasVprofile_photo_url
p241
V//lh5.googleusercontent.com/-dJoJ28nJLC8/AAAAAAAAAAI/AAAAAAAASzw/A8OY_FXnWro/photo.jpg
p242
sVlanguage
p243
Ven
p244
sVtext
p245
VWith so many pizza places in the city, how does one choose where to go? It's all about location, location, location! Gialina is a small restaurant serving artisanal pizza on a busy street in Glen Park. The area is very cute and I would come back to eat here and explore more of the area, but would I go out of the way here eat here? No. Their pizza is very good and I love the old pictures on the wall of Italians cooking it up in the kitchen. So eat here if the location is convenient for you!
p246
sVauthor_name
p247
VYvette Ngo
p248
sVauthor_url
p249
Vhttps://plus.google.com/104287900749560866993
p250
sVtime
p251
I1448117983
sa(dp252
Vrating
p253
I2
sVaspects
p254
(lp255
(dp256
Vrating
p257
I0
sVtype
p258
Voverall
p259
sasVprofile_photo_url
p260
V//lh4.googleusercontent.com/-WfQzuQe1iBw/AAAAAAAAAAI/AAAAAAAAA1E/P96hTQMXhmg/photo.jpg
p261
sVlanguage
p262
Ven
p263
sVtext
p264
VDo not order the Margherita pizza if you are expecting a traditional pie. After getting the pizza home, I spent close to three minutes trying to determine if the pizza had cheese on it or not. Eating the pizza, I neither tasted nor felt the texture  of cheese. I called to ask if perhaps the recipe called for no cheese, or if somehow the cheese was forgotten. I was informed that the order must be placed as "old style" or "kids style" if I wanted the traditional amount of cheese. "Margherita" is the only description of the pie on the menu. I will change this review to 4-5 stars if the owners expand the description to include the difference between their version and "Old Style." Looking at the other negative reviews, it seems that the Margherita pizza is the weakest part of the menu.
p265
sVauthor_name
p266
VGeorge Beck
p267
sVauthor_url
p268
Vhttps://plus.google.com/104500907435391002055
p269
sVtime
p270
I1441602714
sa(dp271
Vrating
p272
I4
sVaspects
p273
(lp274
(dp275
Vrating
p276
I2
sVtype
p277
Voverall
p278
sasVlanguage
p279
Ven
p280
sVtext
p281
VMight be my fav thin crust pizza in SF so far - but the wait is long, and I feel like I always leave hungry. The dough has the closest thin and crunchy but chewy texture of pizza I had in Italy. Fresh seasonal and creative toppings. The $6 gelato was pricey but so creamy and delicious.
p282
sVauthor_name
p283
VLaura W
p284
sVauthor_url
p285
Vhttps://plus.google.com/108025832331570185706
p286
sVtime
p287
I1435457117
sasVformatted_phone_number
p288
V(415) 239-8500
p289
sVaddress_components
p290
(lp291
(dp292
Vlong_name
p293
V2842
p294
sVtypes
p295
(lp296
Vstreet_number
p297
asVshort_name
p298
V2842
p299
sa(dp300
Vlong_name
p301
VDiamond Street
p302
sVtypes
p303
(lp304
Vroute
p305
asVshort_name
p306
VDiamond St
p307
sa(dp308
Vlong_name
p309
VSan Francisco
p310
sVtypes
p311
(lp312
Vlocality
p313
aVpolitical
p314
asVshort_name
p315
VSF
p316
sa(dp317
Vlong_name
p318
VCalifornia
p319
sVtypes
p320
(lp321
Vadministrative_area_level_1
p322
aVpolitical
p323
asVshort_name
p324
VCA
p325
sa(dp326
Vlong_name
p327
VUnited States
p328
sVtypes
p329
(lp330
Vcountry
p331
aVpolitical
p332
asVshort_name
p333
VUS
p334
sa(dp335
Vlong_name
p336
V94131
p337
sVtypes
p338
(lp339
Vpostal_code
p340
asVshort_name
p341
V94131
p342
sas.