(dp1
Vrating
p2
cdecimal
Decimal
p3
(S'4.4'
tRp4
sVreference
p5
VCnRoAAAAWMLYa4tYK11Iets2bc0p3Y4s4py7jVbJok2PgsYo1mgVXb1zxhs-otyfNmOYU1ub4L11V15Hr1dst1tZ0uNG2QHUEZPbYqSGki4vQ_lfNwzZ-Rgon6EB6h_tVCPbnvGqm_348Bkc7q9u6vfVYxtbexIQBcEHtkegKI4w4TtQy7WIsRoUWQPP0RLKaL9rCwfOj_oW1xYubbg
p6
sVprice_level
p7
I2
sVplace_id
p8
VChIJWTGPjmaAhYARgXpiJ-aACYM
p9
sVurl
p10
Vhttps://maps.google.com/?cid=9442219819750554241
p11
sVformatted_address
p12
V1 Sausalito - San Francisco Ferry Bldg, San Francisco, CA 94111, United States
p13
sVid
p14
Vf8fa55a8dd985278fcc18b575b8a10f889d08f65
p15
sVopening_hours
p16
(dp17
Vweekday_text
p18
(lp19
VMonday: 11:00 AM \u2013 9:00 PM
p20
aVTuesday: 11:00 AM \u2013 9:00 PM
p21
aVWednesday: 11:00 AM \u2013 9:00 PM
p22
aVThursday: 11:00 AM \u2013 9:00 PM
p23
aVFriday: 11:00 AM \u2013 9:00 PM
p24
aVSaturday: 11:00 AM \u2013 9:00 PM
p25
aVSunday: 11:00 AM \u2013 9:00 PM
p26
asVopen_now
p27
I01
sVperiods
p28
(lp29
(dp30
Vclose
p31
(dp32
Vday
p33
I0
sVtime
p34
V2100
p35
ssVopen
p36
(dp37
Vday
p38
I0
sVtime
p39
V1100
p40
ssa(dp41
Vclose
p42
(dp43
Vday
p44
I1
sVtime
p45
V2100
p46
ssVopen
p47
(dp48
Vday
p49
I1
sVtime
p50
V1100
p51
ssa(dp52
Vclose
p53
(dp54
Vday
p55
I2
sVtime
p56
V2100
p57
ssVopen
p58
(dp59
Vday
p60
I2
sVtime
p61
V1100
p62
ssa(dp63
Vclose
p64
(dp65
Vday
p66
I3
sVtime
p67
V2100
p68
ssVopen
p69
(dp70
Vday
p71
I3
sVtime
p72
V1100
p73
ssa(dp74
Vclose
p75
(dp76
Vday
p77
I4
sVtime
p78
V2100
p79
ssVopen
p80
(dp81
Vday
p82
I4
sVtime
p83
V1100
p84
ssa(dp85
Vclose
p86
(dp87
Vday
p88
I5
sVtime
p89
V2100
p90
ssVopen
p91
(dp92
Vday
p93
I5
sVtime
p94
V1100
p95
ssa(dp96
Vclose
p97
(dp98
Vday
p99
I6
sVtime
p100
V2100
p101
ssVopen
p102
(dp103
Vday
p104
I6
sVtime
p105
V1100
p106
ssassVvicinity
p107
V1 Sausalito - San Francisco Ferry Building, San Francisco
p108
sVscope
p109
VGOOGLE
p110
sVwebsite
p111
Vhttp://www.hogislandoysters.com/
p112
sVutc_offset
p113
I-420
sVuser_ratings_total
p114
I293
sVphotos
p115
(lp116
(dp117
Vphoto_reference
p118
VCoQBdwAAAHw6kRPXX6C3r7-KlT9Bgs-VgTo-OWJuuOxZu6EVhQCfF_d3g7WqTYlvriJkqcGAp_PRm6FL00qZmmhySyHmnwPxY9Jau0PkXBV6ZgGwaVihIn4tlLz3W6lEn5vKGkDeJjEDwn6VXMAU5HLJpWQuxmO-v7nn3TfyyEQQHrSSNAvoEhCbBW9fNnwwwRRy7fHKEtNyGhRTwRiYoOTCqVur0tBvByPxiMWbrw
p119
sVwidth
p120
I3264
sVhtml_attributions
p121
(lp122
V<a href="https://maps.google.com/maps/contrib/108210287281227534300/photos">Chris Cho</a>
p123
asVheight
p124
I2448
sa(dp125
Vphoto_reference
p126
VCmRdAAAA9uBPDup05GWazMiDxfCS2QVihy4_oxcaskNCXckqka2xnpk0IRK5WrdstXf2sL0axJgPmLwVATtJB2Ni53HHQBMQH-ZeqUEkZ2F2CiFm_7C7rTyrUfbFll54aRkP4q63EhCF2-qJWJrLNGZebHtNL9UQGhRxIv2fWXOqWs6b68zFEe5rD_iCIw
p127
sVwidth
p128
I1265
sVhtml_attributions
p129
(lp130
V<a href="https://maps.google.com/maps/contrib/101425599030448711145/photos">Max Kao</a>
p131
asVheight
p132
I949
sa(dp133
Vphoto_reference
p134
VCmRdAAAAjJslbb4JPh_CUqLY_2qseRatdy0wEHgwJsiE4bQadPoacjcoR7BXyduZyXlhNtpw1NyGpxPt_rIUnlq2mgDFzthd887M5b6wn2uKU2pYK-ZzoqQLvYCuGo1KpG86nhhAEhAkPI-IwFqDpCwV6ikmDnWMGhRXPUzZczrAtcMm19loJbKf_TbWew
p135
sVwidth
p136
I3264
sVhtml_attributions
p137
(lp138
V<a href="https://maps.google.com/maps/contrib/101977160308009204651/photos">PATRICK STAR</a>
p139
asVheight
p140
I2448
sa(dp141
Vphoto_reference
p142
VCoQBcwAAAMU7uk44mXqwyzDt1wyyfiwN0_ycocmR7vMxakUklnUXI7juidKqbKeCnCMSFWTS2Ne-FfA1Gk_Rm-3YI-S9y_dP4lSFFsj6oHXmRPUtb2jlT65pJSa5sxnzlnPS2e4MQZ0bdkP9_r6uAyTm2EbonwhHKehv-yqbtRH_XvMeKsO0EhBtQ3F5-ehefrCRjDYrmCUhGhTihUsZ28MVHVwpjC3D1xJQF2sEzw
p143
sVwidth
p144
I2688
sVhtml_attributions
p145
(lp146
V<a href="https://maps.google.com/maps/contrib/107299327370286263807/photos">Kate Liang</a>
p147
asVheight
p148
I1520
sa(dp149
Vphoto_reference
p150
VCoQBdwAAAM_tglMDNmK9rg3gmTa2bz-rI4pcxI7ZyIRahC7rekO50VD5jFK9-o7oBsRwOdUVTYCLTCr0szvx24AW6Wlamus1cxmg1ChDYVmV7un3nGjAMzq5Xqp3LnkBEGm1oDflyovZKJdcDKjSW3ClBSWLVAMtPp1nFgIWRBF3a-VmFV1DEhC4Dy40C0GLl_Ei9j3d5R5yGhRnHOXR5KqVtqPAKLj8Mine9x_B_w
p151
sVwidth
p152
I3264
sVhtml_attributions
p153
(lp154
V<a href="https://maps.google.com/maps/contrib/110906847641116764082/photos">Susie Liu</a>
p155
asVheight
p156
I2448
sa(dp157
Vphoto_reference
p158
VCmRdAAAAKRLRNNlAtWsOAu3C7xVGF2-2nT8DNKSpUheMr6yvhm2VIcv0V0FN9HlBb5m76NhWZgGehDs8wESX3IkJXGvRnzKNs970MkFKEnLX3xDzPkyh2OCGtEcU42syKyLuXxTHEhAMRTipUaPguKbdyamXuDxFGhR8JZZrs9O_7hsJLBJ-IjFpRnLVFA
p159
sVwidth
p160
I3264
sVhtml_attributions
p161
(lp162
V<a href="https://maps.google.com/maps/contrib/102112914191358551094/photos">\u5c0f\u897f\u5065\u4ecb</a>
p163
asVheight
p164
I2448
sa(dp165
Vphoto_reference
p166
VCmRdAAAA2Tc9As5HdYTnes3JwYHJHiVmUw4NCVotvCdhYkvRzqVmzEOCNatSSs9CDtLS0LAsTb01VD95qxKFe8wBAaSvZvxdryLsrvWH2Mo7gshuML4ELty1DRtQH3S5fa0xMn_tEhBhLpZgqvpjXYF0UYzJG5iFGhQbtILxzcDq9YOGqjv8ZPxph46cEg
p167
sVwidth
p168
I3096
sVhtml_attributions
p169
(lp170
V<a href="https://maps.google.com/maps/contrib/107721404123505875377/photos">albert lee</a>
p171
asVheight
p172
I4128
sa(dp173
Vphoto_reference
p174
VCmRdAAAAKEkA5Ec2XkbMRfgVPirYtcgpSwTQyZMbsw7_mlFL0D9Cbd5l3aCnlhEgcDgR7FVAacg35yZLYNZmcWOUuNGnClxguS9qDrkLlcFvDGmdgnP13IggkyVtuG7-_2w1MQHlEhCWo_ZeVBOqZxiDCwYUFJKlGhReGfk_Ohg8FFKhALE79kUKnIjplQ
p175
sVwidth
p176
I1836
sVhtml_attributions
p177
(lp178
V<a href="https://maps.google.com/maps/contrib/112912621733959793584/photos">P-A Despatis-Dupont</a>
p179
asVheight
p180
I1836
sa(dp181
Vphoto_reference
p182
VCmRdAAAAOdwGiMEJgEGoKpGm5sjD9JYTuzSQFQFz7WRw1guhPitSpZs188o2vqfNcA6OgX2AKFkH_jJEv5ytEtdai52L30ClbpiwTAx9hbzopj_6M_OQFoU_pnB-xy0wFcZbGNwVEhBRRXDd5abKRldS81POvRt5GhRuXuISkk9LFLv-e80NszbtAjwhtg
p183
sVwidth
p184
I1265
sVhtml_attributions
p185
(lp186
V<a href="https://maps.google.com/maps/contrib/115188218148826416173/photos">\uc2e0\uc218\uc815</a>
p187
asVheight
p188
I949
sa(dp189
Vphoto_reference
p190
VCmRdAAAAN84lU4Ligux_pKDIeg4uAIJ4r5vREw7op-qQ_KNE1kYRDsGHDnU8imSEyfCECwJMOxibmsBF-3SvR7XMXiRqzOhQNnIDr_HxvopfUA_gv--NsT2TBD1xVzQfDMYlQ1jlEhBTNVpi3PlFtYdpAbvRr-GVGhSpBforHIeagx8AQiWAB281_tCPDw
p191
sVwidth
p192
I2048
sVhtml_attributions
p193
(lp194
V<a href="https://maps.google.com/maps/contrib/101802336627278695204/photos">Amanda Spurlock</a>
p195
asVheight
p196
I1365
sasVtypes
p197
(lp198
Vbar
p199
aVrestaurant
p200
aVfood
p201
aVpoint_of_interest
p202
aVestablishment
p203
asVicon
p204
Vhttps://maps.gstatic.com/mapfiles/place_api/icons/restaurant-71.png
p205
sVname
p206
VHog Island Oyster Co
p207
sVgeometry
p208
(dp209
Vlocation
p210
(dp211
Vlat
p212
g3
(S'37.7959142'
tRp213
sVlng
p214
g3
(S'-122.3934992'
tRp215
sssVadr_address
p216
V<span class="street-address">1 Sausalito - San Francisco Ferry Bldg</span>, <span class="locality">San Francisco</span>, <span class="region">CA</span> <span class="postal-code">94111-4228</span>, <span class="country-name">United States</span>
p217
sVinternational_phone_number
p218
V+1 415-391-7117
p219
sVreviews
p220
(lp221
(dp222
Vrating
p223
I3
sVaspects
p224
(lp225
(dp226
Vrating
p227
I1
sVtype
p228
Voverall
p229
sasVprofile_photo_url
p230
V//lh6.googleusercontent.com/-6dcvXE7rS94/AAAAAAAAAAI/AAAAAAAAABE/MVJvPBEveTI/photo.jpg
p231
sVlanguage
p232
Ven
p233
sVtext
p234
VDelicious, fresh seafood in a clean restaurant with a lively atmosphere. This place gets pretty crowded/busy, so if you're dining with more than 2 people, I recommend dropping by outside of peak lunch and dinner times. The Rockefeller grilled oysters are amazing but you really can't go wrong with any dish at Hog Island Oyster Co.
p235
sVauthor_name
p236
VRussell Jones
p237
sVauthor_url
p238
Vhttps://plus.google.com/116225925437769592562
p239
sVtime
p240
I1460966414
sa(dp241
Vrating
p242
I4
sVaspects
p243
(lp244
(dp245
Vrating
p246
I2
sVtype
p247
Voverall
p248
sasVprofile_photo_url
p249
V//lh4.googleusercontent.com/-p4GVYTH-c_o/AAAAAAAAAAI/AAAAAAAAABw/0fYfiuHAhCc/photo.jpg
p250
sVlanguage
p251
Ven
p252
sVtext
p253
VWow what an experience!!! I've never eaten food like this. No plates, just your food, hands and the table. Loved it! And the food was just heavenly! I had headless shrimp, crawfish (didn't like at all), and snow crab legs. Made to perfection  will be coming back Indefinitely!!
p254
sVauthor_name
p255
VRobin Karcher
p256
sVauthor_url
p257
Vhttps://plus.google.com/102393733442518432653
p258
sVtime
p259
I1460025650
sa(dp260
Vrating
p261
I5
sVaspects
p262
(lp263
(dp264
Vrating
p265
I3
sVtype
p266
Voverall
p267
sasVprofile_photo_url
p268
V//lh4.googleusercontent.com/-JT1SSXSzBMw/AAAAAAAAAAI/AAAAAAAAAI8/yYdgjYCj2xM/photo.jpg
p269
sVlanguage
p270
Ven
p271
sVtext
p272
VOysters, grilled cheese, and clam chowder. \u000a\u000aThe selection of oysters always provide a good variety and freshness is guaranteed. \u000a\u000aSome of the best grilled cheese I've ever had. \u000a\u000aA very seafood-y and light clam chowder that's a standout among the many heavier versions seen across most restaurants.
p273
sVauthor_name
p274
VYing H
p275
sVauthor_url
p276
Vhttps://plus.google.com/116118996044024186000
p277
sVtime
p278
I1461088313
sa(dp279
Vrating
p280
I3
sVaspects
p281
(lp282
(dp283
Vrating
p284
I1
sVtype
p285
Voverall
p286
sasVprofile_photo_url
p287
V//lh4.googleusercontent.com/-lPnSXxHmYSA/AAAAAAAAAAI/AAAAAAAAABE/0lbJmUOE5sk/photo.jpg
p288
sVlanguage
p289
Ven
p290
sVtext
p291
VThis place is great and located in the Ferry Building.  There are a lot of places to choose from nearby and it seems like most everyone ends up here.  It's busy but for good reasons.  The grilled cheese is a 5 and is the best that I've had.  The wait in line at this busy place is a two though but in the end it's worth the wait to get the grilled cheese.
p292
sVauthor_name
p293
VRobert Turner
p294
sVauthor_url
p295
Vhttps://plus.google.com/106848670033106305785
p296
sVtime
p297
I1460608268
sa(dp298
Vrating
p299
I4
sVaspects
p300
(lp301
(dp302
Vrating
p303
I2
sVtype
p304
Voverall
p305
sasVprofile_photo_url
p306
V//lh6.googleusercontent.com/-D0ztCiUDuxg/AAAAAAAAAAI/AAAAAAAAAJw/7iVQIml3duY/photo.jpg
p307
sVlanguage
p308
Ven
p309
sVtext
p310
VAwsome food, yet pricey.\u000a\u000aWorth the wait however, all the fish is fresh and the best bowl of calm chowder I have ever tasted is made here. (Try the local clams, it's really really fresh and really reallygood).
p311
sVauthor_name
p312
VAsterisk
p313
sVauthor_url
p314
Vhttps://plus.google.com/109781677227835215481
p315
sVtime
p316
I1461166631
sasVformatted_phone_number
p317
V(415) 391-7117
p318
sVaddress_components
p319
(lp320
(dp321
Vlong_name
p322
V1
sVtypes
p323
(lp324
Vstreet_number
p325
asVshort_name
p326
V1
sa(dp327
Vlong_name
p328
VSausalito - San Francisco Ferry Building
p329
sVtypes
p330
(lp331
Vroute
p332
asVshort_name
p333
VSausalito - San Francisco Ferry Bldg
p334
sa(dp335
Vlong_name
p336
VSan Francisco
p337
sVtypes
p338
(lp339
Vlocality
p340
aVpolitical
p341
asVshort_name
p342
VSF
p343
sa(dp344
Vlong_name
p345
VCalifornia
p346
sVtypes
p347
(lp348
Vadministrative_area_level_1
p349
aVpolitical
p350
asVshort_name
p351
VCA
p352
sa(dp353
Vlong_name
p354
VUnited States
p355
sVtypes
p356
(lp357
Vcountry
p358
aVpolitical
p359
asVshort_name
p360
VUS
p361
sa(dp362
Vlong_name
p363
V94111
p364
sVtypes
p365
(lp366
Vpostal_code
p367
asVshort_name
p368
V94111
p369
sa(dp370
Vlong_name
p371
V4228
p372
sVtypes
p373
(lp374
Vpostal_code_suffix
p375
asVshort_name
p376
V4228
p377
sas.