(dp1
Vrating
p2
cdecimal
Decimal
p3
(S'4.1'
tRp4
sVreference
p5
VCnRoAAAA23sdgMR9gVgFYDiVpGrzcM_KRcpX79-kjJ8MRYjaC5SWX2vU6QkPaa6J2OGyNZyVcDC21Q0dlTiYVriH6Ljlo0cRKnz232cp8VHggUKHFD0s7fd9q05ayoTnGaP77jFUZCpTQbFi6Zm849SHWGgnGRIQzjbJzRg0RxeP44yisswAPhoUAL-bD35nDFe2HYhZr_D3dG5bKuk
p6
sVprice_level
p7
I2
sVplace_id
p8
VChIJHz4XFiW7j4AR4OCRJ5FPWnQ
p9
sVurl
p10
Vhttps://maps.google.com/?cid=8384101141156323552
p11
sVformatted_address
p12
V855 El Camino Real #60, Palo Alto, CA 94301, United States
p13
sVid
p14
V3a38faf0125540a3bb433cc62e8b8ade5f34486f
p15
sVopening_hours
p16
(dp17
Vweekday_text
p18
(lp19
VMonday: 11:30 AM \u2013 9:00 PM
p20
aVTuesday: 11:30 AM \u2013 9:00 PM
p21
aVWednesday: 11:30 AM \u2013 9:00 PM
p22
aVThursday: 11:30 AM \u2013 9:00 PM
p23
aVFriday: 11:30 AM \u2013 9:00 PM
p24
aVSaturday: 11:30 AM \u2013 9:00 PM
p25
aVSunday: 11:30 AM \u2013 9:00 PM
p26
asVopen_now
p27
I01
sVperiods
p28
(lp29
(dp30
Vclose
p31
(dp32
Vday
p33
I0
sVtime
p34
V2100
p35
ssVopen
p36
(dp37
Vday
p38
I0
sVtime
p39
V1130
p40
ssa(dp41
Vclose
p42
(dp43
Vday
p44
I1
sVtime
p45
V2100
p46
ssVopen
p47
(dp48
Vday
p49
I1
sVtime
p50
V1130
p51
ssa(dp52
Vclose
p53
(dp54
Vday
p55
I2
sVtime
p56
V2100
p57
ssVopen
p58
(dp59
Vday
p60
I2
sVtime
p61
V1130
p62
ssa(dp63
Vclose
p64
(dp65
Vday
p66
I3
sVtime
p67
V2100
p68
ssVopen
p69
(dp70
Vday
p71
I3
sVtime
p72
V1130
p73
ssa(dp74
Vclose
p75
(dp76
Vday
p77
I4
sVtime
p78
V2100
p79
ssVopen
p80
(dp81
Vday
p82
I4
sVtime
p83
V1130
p84
ssa(dp85
Vclose
p86
(dp87
Vday
p88
I5
sVtime
p89
V2100
p90
ssVopen
p91
(dp92
Vday
p93
I5
sVtime
p94
V1130
p95
ssa(dp96
Vclose
p97
(dp98
Vday
p99
I6
sVtime
p100
V2100
p101
ssVopen
p102
(dp103
Vday
p104
I6
sVtime
p105
V1130
p106
ssassVvicinity
p107
V855 El Camino Real #60, Palo Alto
p108
sVscope
p109
VGOOGLE
p110
sVwebsite
p111
Vhttp://www.howiesartisanpizza.com/
p112
sVutc_offset
p113
I-420
sVuser_ratings_total
p114
I96
sVphotos
p115
(lp116
(dp117
Vphoto_reference
p118
VCmRdAAAAh61-bAXmJFy2V1-hOOXWDL6XudZAzfYbq0FZvupacBOmnmz0adS-TCjVkp0dw90TsjuRvzCbFmRCDv46RMY_kU0ENtDa_RlhPvHPDEUF_7aWlZqsKw-jue7lFRjab9rgEhDPC3RJlTS1dZYenm0LXSvdGhSbrfRdL5_03-odQ3NtKxd5HSF-PQ
p119
sVwidth
p120
I1536
sVhtml_attributions
p121
(lp122
V<a href="https://maps.google.com/maps/contrib/113240396546555263447/photos">Alan Lau</a>
p123
asVheight
p124
I2016
sa(dp125
Vphoto_reference
p126
VCmRdAAAAI4sjaP4FITv-mv3ick48giWZ6KRzPWeOT7Qf5mCG5aYFpUU4ft9-tieV8kZBd2bTn7MXZHU2UtGIyW6Pnn0xB2asLwVaup1Babh3sWIkQ3KRvKqoXxUuqZI-ePD9uHoeEhBD2cgEYodRh5jHy5ua8LmkGhSCD4Y8P6aidN7xRM-qB3OhQpjJIg
p127
sVwidth
p128
I1296
sVhtml_attributions
p129
(lp130
V<a href="https://maps.google.com/maps/contrib/111164095920889813531/photos">Jeff Huber</a>
p131
asVheight
p132
I972
sa(dp133
Vphoto_reference
p134
VCmRdAAAAtteNC7cCffS0N5qBDBmOqYnuKvDO029JW0RoP7_W_VgKrISy7tli64CmeWi8UR0083bD9eN-cGxcrPYYmkMSi7XrsIKM5biCoNzCvAS6H7T5c8aXQxgjjrgIeNW5TgmTEhALfxeW2ON0qY04WrpE70iVGhQTweP2yZ9UouazC0igpicPDk0yQQ
p135
sVwidth
p136
I2048
sVhtml_attributions
p137
(lp138
V<a href="https://maps.google.com/maps/contrib/115504883041257773947/photos">Howie&#39;s Artisan Pizza</a>
p139
asVheight
p140
I1536
sa(dp141
Vphoto_reference
p142
VCmRdAAAAw0BKVM4oYWwt-Qf8B3C167SEWsCCsXXZJ3Z2IGJILnCSOC2dDjFDj_ZW8XFppRqw3qjmw7UcsBX1OXyxk7toGoko_8LM0dEjr_TaruHnWEtSTbIxKSrFp5N1cqAgiNCIEhDVvnvWJm4JGG_fa7eTFuTCGhQ1CAvuV_cYV_TucFv6O13Lkn_POw
p143
sVwidth
p144
I4032
sVhtml_attributions
p145
(lp146
V<a href="https://maps.google.com/maps/contrib/105794408339824598434/photos">Alib Altoss</a>
p147
asVheight
p148
I3024
sa(dp149
Vphoto_reference
p150
VCmRdAAAAs9D7qfSJDALxgQLQVt5W0eeBHxn7ytR9MTzPInY_-vgL4dfdFXLp0fm7wcamJe9yXxyCg_9ffHqUEZVNodkvEgPW170QxLgjsbVzc1rTSCQDqWuD34zWZ35YNqJ4wTM4EhAzoEF5NjzxFYr3jOlXHNeJGhQNZ5Ex-Xd7wDPB1XimnpvH9-HAlw
p151
sVwidth
p152
I1296
sVhtml_attributions
p153
(lp154
V<a href="https://maps.google.com/maps/contrib/111164095920889813531/photos">Jeff Huber</a>
p155
asVheight
p156
I972
sa(dp157
Vphoto_reference
p158
VCmRdAAAAeTc-2J1b5ISpfLbpGzYTR1_HoNGOUJaGZNY8SNk5EP955H6wZEtpEoFAj_XVE9S7NlXXYNqhjD44dXBmdm-Uetsav49vrAHT9eHxC3W4Qn88fCDGDlm9LEwK0G3oK2UHEhC7DhmUwE0T6kEV-MZKX2CeGhR42ogVDM30GISf74RQ8UcgnG12VQ
p159
sVwidth
p160
I2048
sVhtml_attributions
p161
(lp162
V<a href="https://maps.google.com/maps/contrib/100226390734369553200/photos">Kenny Root</a>
p163
asVheight
p164
I1536
sa(dp165
Vphoto_reference
p166
VCmRdAAAApUC6BkG8JWZnoi8-xJCP6-Kf73x1UiCCr9WVr2maF6suFV-3YmQjv1z-VR9GGMAznchAuWbS8123IecICXsd3wjUC-aRar6a0j879OgDUoGBTxVDYR-Iy4ll8JHFHEbuEhAKO4Rklm6_D5K_qBKRWzZAGhSkMS5GUMWbvgjwKroZpcosWOdZew
p167
sVwidth
p168
I1296
sVhtml_attributions
p169
(lp170
V<a href="https://maps.google.com/maps/contrib/111164095920889813531/photos">Jeff Huber</a>
p171
asVheight
p172
I972
sa(dp173
Vphoto_reference
p174
VCmRdAAAAAKuZAPVRNAJqW5QOYKmgnkwfv5DDus6XZ10q_A0RuHcLPim4CWQxhbyZaQtlUJQOhTXMDSW2WE-vTL9cri45osZqwIq3s3EENVzKntUlz38qFdc1044DEv9TUEk_3GVFEhCrPM77wnEBYCbpqoE3F-KZGhTmoDZNvLQMqPQQEFuT3xoMbTfMpg
p175
sVwidth
p176
I1296
sVhtml_attributions
p177
(lp178
V<a href="https://maps.google.com/maps/contrib/108622280459840310691/photos">David Carmona</a>
p179
asVheight
p180
I972
sa(dp181
Vphoto_reference
p182
VCmRdAAAAY-n6PwJV3kIbj8jkIw7_doBdktgdLLD0iDQjTCMt7xqIykm14QtvYyFqaubp_Cm4t0-rlpSeOFXNopaQE4fbgK_-qnak8CylW6dOijETtAM58sUC8RJYIsO55nMfcTSyEhAjO80LZxmgkGSyqE3e8A8wGhQHhux9eZVs1voRgs4hXLh6mrtdnQ
p183
sVwidth
p184
I453
sVhtml_attributions
p185
(lp186
V<a href="https://maps.google.com/maps/contrib/115504883041257773947/photos">Howie&#39;s Artisan Pizza</a>
p187
asVheight
p188
I454
sasVtypes
p189
(lp190
Vrestaurant
p191
aVfood
p192
aVpoint_of_interest
p193
aVestablishment
p194
asVicon
p195
Vhttps://maps.gstatic.com/mapfiles/place_api/icons/restaurant-71.png
p196
sVname
p197
VHowie's Artisan Pizza
p198
sVgeometry
p199
(dp200
Vlocation
p201
(dp202
Vlat
p203
g3
(S'37.438029'
tRp204
sVlng
p205
g3
(S'-122.160035'
tRp206
sssVadr_address
p207
V<span class="street-address">855 El Camino Real #60</span>, <span class="locality">Palo Alto</span>, <span class="region">CA</span> <span class="postal-code">94301</span>, <span class="country-name">United States</span>
p208
sVinternational_phone_number
p209
V+1 650-327-4992
p210
sVreviews
p211
(lp212
(dp213
Vrating
p214
I4
sVaspects
p215
(lp216
(dp217
Vrating
p218
I2
sVtype
p219
Voverall
p220
sasVlanguage
p221
Ven
p222
sVtext
p223
VThe Howie's Artisan Pizza provides satisfaction to the customer/consumer by literally dropping and atomic bomb of flavor in your mouth, Howie's Artisan Pizza is deliciously hand crafted by very experienced chefs, who have dedicate their whole lives to creating the perfect pizza. The airy, yet crunchy crust is even more breathtaking with every single bite, and as for the rest, I think I'm going to let you decide for yourself! so don't be a rabid porcupine and go enjoy Howie's Artisan Pizza today! also, I most certainly do not work for them.
p224
sVauthor_name
p225
VIlan Toussieh
p226
sVauthor_url
p227
Vhttps://plus.google.com/106813198198323134464
p228
sVtime
p229
I1460695090
sa(dp230
Vrating
p231
I5
sVaspects
p232
(lp233
(dp234
Vrating
p235
I3
sVtype
p236
Voverall
p237
sasVprofile_photo_url
p238
V//lh6.googleusercontent.com/-w8b6bDXZBSE/AAAAAAAAAAI/AAAAAAAAAYg/WhiRnm8u17I/photo.jpg
p239
sVlanguage
p240
Ven
p241
sVtext
p242
VHowie's has delicious pizza, great staff, and a good beer selection for being such a small restaurant. I highly recommend. 
p243
sVauthor_name
p244
VJed Shuster
p245
sVauthor_url
p246
Vhttps://plus.google.com/112798754544410827297
p247
sVtime
p248
I1456644488
sa(dp249
Vrating
p250
I4
sVaspects
p251
(lp252
(dp253
Vrating
p254
I2
sVtype
p255
Voverall
p256
sasVprofile_photo_url
p257
V//lh5.googleusercontent.com/-DKMOaLLwFkE/AAAAAAAAAAI/AAAAAAAAAF8/YhLlKgqqM18/photo.jpg
p258
sVlanguage
p259
Ven
p260
sVtext
p261
VGreat thin crust wood fired pizza and good beer selection
p262
sVauthor_name
p263
VDamien Garbett
p264
sVauthor_url
p265
Vhttps://plus.google.com/100772448616631544466
p266
sVtime
p267
I1460174268
sa(dp268
Vrating
p269
I3
sVaspects
p270
(lp271
(dp272
Vrating
p273
I1
sVtype
p274
Voverall
p275
sasVprofile_photo_url
p276
V//lh3.googleusercontent.com/-xfIQFKHyg6U/AAAAAAAAAAI/AAAAAAAAAmU/zz4qQL2gbxs/photo.jpg
p277
sVlanguage
p278
Ven
p279
sVtext
p280
VDecent pizza, horrible lemonade (made of artificial syrup), nice outdoor patio seating.
p281
sVauthor_name
p282
VKristin Rimbach
p283
sVauthor_url
p284
Vhttps://plus.google.com/117401349030121016330
p285
sVtime
p286
I1460790265
sa(dp287
Vrating
p288
I4
sVaspects
p289
(lp290
(dp291
Vrating
p292
I2
sVtype
p293
Voverall
p294
sasVprofile_photo_url
p295
V//lh3.googleusercontent.com/-6VyATe7cF1s/AAAAAAAAAAI/AAAAAAAAg4Q/oZu35Fp3jpo/photo.jpg
p296
sVlanguage
p297
Ven
p298
sVtext
p299
VIf you find parking the pizza is really good.  Take it to go. 
p300
sVauthor_name
p301
VAlbert Finn
p302
sVauthor_url
p303
Vhttps://plus.google.com/106064597142560576200
p304
sVtime
p305
I1448861905
sasVformatted_phone_number
p306
V(650) 327-4992
p307
sVaddress_components
p308
(lp309
(dp310
Vlong_name
p311
V60
p312
sVtypes
p313
(lp314
Vsubpremise
p315
asVshort_name
p316
V60
p317
sa(dp318
Vlong_name
p319
V855
p320
sVtypes
p321
(lp322
Vstreet_number
p323
asVshort_name
p324
V855
p325
sa(dp326
Vlong_name
p327
VEl Camino Real
p328
sVtypes
p329
(lp330
Vroute
p331
asVshort_name
p332
VEl Camino Real
p333
sa(dp334
Vlong_name
p335
VPalo Alto
p336
sVtypes
p337
(lp338
Vlocality
p339
aVpolitical
p340
asVshort_name
p341
VPalo Alto
p342
sa(dp343
Vlong_name
p344
VCalifornia
p345
sVtypes
p346
(lp347
Vadministrative_area_level_1
p348
aVpolitical
p349
asVshort_name
p350
VCA
p351
sa(dp352
Vlong_name
p353
VUnited States
p354
sVtypes
p355
(lp356
Vcountry
p357
aVpolitical
p358
asVshort_name
p359
VUS
p360
sa(dp361
Vlong_name
p362
V94301
p363
sVtypes
p364
(lp365
Vpostal_code
p366
asVshort_name
p367
V94301
p368
sas.