(dp1
Vwebsite
p2
Vhttp://www.co.sanmateo.ca.us/portal/site/parks/menuitem.f13bead76123ee4482439054d17332a0/?vgnextoid=407bc8909231e110VgnVCM1000001d37230aRCRD&cpsextcurrchannel=1
p3
sVrating
p4
cdecimal
Decimal
p5
(S'4.6'
tRp6
sVutc_offset
p7
I-420
sVuser_ratings_total
p8
I29
sVname
p9
VHuddart Park
p10
sVreference
p11
VCmRgAAAAITZVbtGsZNvDFGRdgoa-5cB9LT4dNs0ylqvaCdLUdWg1PxXlpjv4bvAnbM8T5wRRUmb06zQOa22Nv2TVRLsmT6too8uiy24uPwzBZqGFwsXhdIdQ3dgvJaAoYCQeTgIcEhDvS0Z42YuM8x0jiXbSG59dGhTEkb6eW1n7bgeiE1-Z2Am_tvo3gw
p12
sVphotos
p13
(lp14
(dp15
Vphoto_reference
p16
VCmRdAAAAABzu4RwLyluii97ENaaqbXbU4UfCs1YC4Fy8SIlYV7mf-QQ0nx6ulod8RLCb4-NlZoDFRcHk9grO6B1ZppBS6xxA3YMCDJUX3pMkB5k2h8la1YBNpY1ysY8-kyDt0UkDEhCIo54-GfgFFDS6b6m8w5gjGhSdn0rPGnZd2Qr9Gx3KTkFeidlPvQ
p17
sVwidth
p18
I2048
sVhtml_attributions
p19
(lp20
V<a href="https://maps.google.com/maps/contrib/117325789225280451453/photos">Valentin Konovalov</a>
p21
asVheight
p22
I1371
sa(dp23
Vphoto_reference
p24
VCmRdAAAAvAIA7b7IuFxykSYblufSbmUxHY-VCZjYmAlsvXXX0-fD_mz97Txzziruct44SLaTFunmCMZWYu5LXjoQms-MuG_Z0h4vE1gQpSY-kipur5Ue0dE4faQDWSjHALUNpBU0EhDspdR9F9QbcsIaDNsskvOHGhRpbYFX4XJPxE3k3iCg9feXQiFOKA
p25
sVwidth
p26
I1632
sVhtml_attributions
p27
(lp28
V<a href="https://maps.google.com/maps/contrib/104038598619269984089/photos">Vishal Verma</a>
p29
asVheight
p30
I1224
sa(dp31
Vphoto_reference
p32
VCmRdAAAA66t-gBxR_gJs2HJ9uHJFiLMv-Rz-YVz2Rp0NXuQBYf5uG7egcuU1K8SRAlsTrjTveerk32EdPGOb_zJ9CxAZG1NIOq0_fVjl00Cc0qr-RsQl8AAve4ZkTg2BCPU1wQOLEhDw0FMt_9BW-monleuVa1L0GhSgWJYMBLxs9jSkaB0HOzpcaw03UQ
p33
sVwidth
p34
I816
sVhtml_attributions
p35
(lp36
V<a href="https://maps.google.com/maps/contrib/117971837164857644538/photos">Evan Rapoport</a>
p37
asVheight
p38
I612
sa(dp39
Vphoto_reference
p40
VCmRdAAAA2fZAZkPzmqD7vYZRWEVjV-FiLDHfZhgXUOEl1gUhltuk2jxa8mxGjcOiEmCh0B0LEfqI5Icw4zKC1BlS1M2geR_JabMr1fPf-jTkpMVZJjKYbYyIZJyddd4KVpHQClY7EhBD-YmXXoj5013hCd_IyxLSGhRdgfpI0sS4Wg5xJvlU-a_-mIrFgA
p41
sVwidth
p42
I4896
sVhtml_attributions
p43
(lp44
V<a href="https://maps.google.com/maps/contrib/101683408216574913531/photos">Patrick Bender</a>
p45
asVheight
p46
I2752
sa(dp47
Vphoto_reference
p48
VCmRdAAAAauWSy6B0zykh79p-ZHwFT4-9SOKzJPk6mpUyyrZTdD_SR9pUoCEw5eBSk_5b9o1CSyk4M9iR3HqfRkkIYgAClS-QO7UDb0ccCp9sM7NTEslbvQ9nt4Ft1uuo3y4f0veoEhCY48eWi3iZlmzv_PgbOogcGhRfHynq4Kn-tS1KchMZu87tfaheXQ
p49
sVwidth
p50
I816
sVhtml_attributions
p51
(lp52
V<a href="https://maps.google.com/maps/contrib/117971837164857644538/photos">Evan Rapoport</a>
p53
asVheight
p54
I612
sa(dp55
Vphoto_reference
p56
VCmRdAAAAPOdfKPRzcaGyUk--y4rL0-VaEjuqMHdI9bYKVCUXzgmve1ph2XtEeoTs8IRXKLNZjJxf0WcStKQ3YsaDG5k0NXpKtWBRQm3RfVFdLEWDWq7z5LfaZTLiZrGdWqhRI1obEhASR60igBJjPdu80_pk2a9DGhT_c6VGNkiw84lSZ6fdOWYeDShIrA
p57
sVwidth
p58
I1265
sVhtml_attributions
p59
(lp60
V<a href="https://maps.google.com/maps/contrib/117878705984287806037/photos">Tony Lobay</a>
p61
asVheight
p62
I949
sa(dp63
Vphoto_reference
p64
VCoQBdwAAAPWrAeF5kQPKBIDcVhmQyd-i5LOW0IcBS0xlxveoQPKVtzDtFybcYJUUm74jIdDNNCQyGJV-JYwUbi2aYhy5ytaDLYisiTTR2kF4hFDWtEesLx0UaTVcxA7A5mHRODWcaLg1Gn2v4mvoyFnlVUj7T6sLbpQXGCW2pE2T9K_aZpJgEhDwlFxBNa_vH2Lp2vLk5Hx-GhRdgFNF1Ya-Zifx1EbFbxe-MIZ77w
p65
sVwidth
p66
I4000
sVhtml_attributions
p67
(lp68
V<a href="https://maps.google.com/maps/contrib/117648756023152867153/photos">Alice Renegar</a>
p69
asVheight
p70
I2992
sa(dp71
Vphoto_reference
p72
VCoQBcwAAAGZwYX6flDQ8wwsf59iPDabj_PohNMYWLdNKkYrp6yMhcgMhJ4ofk8KblD7AlGjgYLL2DuixA1II07iDQE9cGOIZ2FqUp7FB--4fVwioG7Nqgtlgtqfpi9mP9faprUi6qGqmdjn87nX6Aazlpg_aRLvw-KQ6JDr7QARevBtQm9YSEhDVou1-RLvCJjv7SYMXU0m5GhToYiHZ3LAZCb1L0AZ85-kIBv8ZTQ
p73
sVwidth
p74
I1280
sVhtml_attributions
p75
(lp76
V<a href="https://maps.google.com/maps/contrib/109428318201963416170/photos">Juan Guadalupe</a>
p77
asVheight
p78
I768
sa(dp79
Vphoto_reference
p80
VCmRdAAAAqqWnhnWZ3zmKG43Mex7H4uTd7uD5pjTTt2cld8sZBhiZbhWxLsAZh4vGVQnYUWP6Zzztw6OLVST9DXBkPAb02ERKF-X-HnDa_dghPPqqovf6k1l6XEEiqpTrmu0yD4u3EhAtZu-FLjwxMsLL93VEBVUbGhQuvxzkqcJMOAv9B3O87HF8lLw49Q
p81
sVwidth
p82
I3072
sVhtml_attributions
p83
(lp84
V<a href="https://maps.google.com/maps/contrib/102503677080407304855/photos">jake katz</a>
p85
asVheight
p86
I2304
sa(dp87
Vphoto_reference
p88
VCmRdAAAARq7ZCJ0Y2onyFZ1eahcSM-j5-ORqIZ5EtQBnudfUmjGGgroRrc1HUaHDlum4RIDBGyG5zP79n1tDX68PM3WpNyqHbkTwCpH0tuAf1EzFFljiUV3KUxLwxmxd9RUroO10EhDjl9PvNuBfqE-NuugGzfwgGhQML339l-LlhaH7blusnoACHEZxxA
p89
sVwidth
p90
I1632
sVhtml_attributions
p91
(lp92
V<a href="https://maps.google.com/maps/contrib/104038598619269984089/photos">Vishal Verma</a>
p93
asVheight
p94
I1224
sasVgeometry
p95
(dp96
Vlocation
p97
(dp98
Vlat
p99
g5
(S'37.43601170000001'
tRp100
sVlng
p101
g5
(S'-122.2992378'
tRp102
sssVadr_address
p103
V<span class="street-address">1100 Kings Mountain Rd</span>, <span class="locality">Woodside</span>, <span class="region">CA</span> <span class="postal-code">94062</span>, <span class="country-name">United States</span>
p104
sVplace_id
p105
VChIJbxHK_i-hj4ARsuIi3YGxk7E
p106
sVinternational_phone_number
p107
V+1 650-851-1210
p108
sVvicinity
p109
V1100 Kings Mountain Road, Woodside
p110
sVreviews
p111
(lp112
(dp113
Vrating
p114
I5
sVaspects
p115
(lp116
(dp117
Vrating
p118
I3
sVtype
p119
Voverall
p120
sasVprofile_photo_url
p121
V//lh6.googleusercontent.com/-w8b6bDXZBSE/AAAAAAAAAAI/AAAAAAAAAYg/WhiRnm8u17I/photo.jpg
p122
sVlanguage
p123
Ven
p124
sVtext
p125
VSadly I visited this park for the first time to attend a friends memorial service but it was a beautiful place to celebrate his life. I'll be coming back up here to hike. How I've never been up here is beyond me. Huge park and just beautiful. 
p126
sVauthor_name
p127
VJed Shuster
p128
sVauthor_url
p129
Vhttps://plus.google.com/112798754544410827297
p130
sVtime
p131
I1458778008
sa(dp132
Vrating
p133
I5
sVaspects
p134
(lp135
(dp136
Vrating
p137
I3
sVtype
p138
Voverall
p139
sasVprofile_photo_url
p140
V//lh5.googleusercontent.com/-Ia4ITzaiMPA/AAAAAAAAAAI/AAAAAAAAbG4/uu6DwyiVia0/photo.jpg
p141
sVlanguage
p142
Ven
p143
sVtext
p144
VCool, beautiful, accessible, picnic areas, restrooms, hiking
p145
sVauthor_name
p146
VBen Reaves
p147
sVauthor_url
p148
Vhttps://plus.google.com/112672963905993883214
p149
sVtime
p150
I1459234715
sa(dp151
Vrating
p152
I4
sVaspects
p153
(lp154
(dp155
Vrating
p156
I2
sVtype
p157
Voverall
p158
sasVprofile_photo_url
p159
V//lh6.googleusercontent.com/-2XC0M-1gY0s/AAAAAAAAAAI/AAAAAAAAP0k/fFkgeVoBBTU/photo.jpg
p160
sVlanguage
p161
Ven
p162
sVtext
p163
VNice park for hanging out, barbeque, Frisbee, etc. The trails there are similar to most of the rest in the Santa Cruz mountains and do not stand out but are decent. 
p164
sVauthor_name
p165
VGreg Grothaus
p166
sVauthor_url
p167
Vhttps://plus.google.com/116196404021952428596
p168
sVtime
p169
I1439002257
sa(dp170
Vrating
p171
I5
sVaspects
p172
(lp173
(dp174
Vrating
p175
I3
sVtype
p176
Voverall
p177
sasVprofile_photo_url
p178
V//lh5.googleusercontent.com/-qGeFFYf9fww/AAAAAAAAAAI/AAAAAAAAasQ/eKUjJVRogi8/photo.jpg
p179
sVlanguage
p180
Ven
p181
sVtext
p182
VWhat a beautiful park! First ... logistics: $6 entry fee, no animals. If you qualify for those, this is a place you must visit. The trails are really well upkept and the picnic areas are numerous and diverse. You can picnic on a blanket in the grass or avoid any crowds and relax under the trees at one of the other picnic areas (you could even come here for a weekend hiking date). There is a ton of tree cover here so it's a great place to come on a hot day for either a picnic or moderate difficulty hike. There are a number of shady trails between 1-3 hours depending on how much time you want to spend. I can't wait to come back to this place!
p183
sVauthor_name
p184
VPaul Volk
p185
sVauthor_url
p186
Vhttps://plus.google.com/105422311471309460312
p187
sVtime
p188
I1381956270
sa(dp189
Vrating
p190
I5
sVaspects
p191
(lp192
(dp193
Vrating
p194
I3
sVtype
p195
Voverall
p196
sasVprofile_photo_url
p197
V//lh4.googleusercontent.com/--0mW1EmCbkE/AAAAAAAAAAI/AAAAAAAAFYQ/lcafJT7v-C4/photo.jpg
p198
sVlanguage
p199
Ven
p200
sVtext
p201
VOutstanding! !!
p202
sVauthor_name
p203
VTeriL Johnson
p204
sVauthor_url
p205
Vhttps://plus.google.com/109687770421954901312
p206
sVtime
p207
I1454030890
sasVformatted_phone_number
p208
V(650) 851-1210
p209
sVurl
p210
Vhttps://maps.google.com/?cid=12795766137608659634
p211
sVscope
p212
VGOOGLE
p213
sVaddress_components
p214
(lp215
(dp216
Vlong_name
p217
V1100
p218
sVtypes
p219
(lp220
Vstreet_number
p221
asVshort_name
p222
V1100
p223
sa(dp224
Vlong_name
p225
VKings Mountain Road
p226
sVtypes
p227
(lp228
Vroute
p229
asVshort_name
p230
VKings Mountain Rd
p231
sa(dp232
Vlong_name
p233
VWoodside
p234
sVtypes
p235
(lp236
Vlocality
p237
aVpolitical
p238
asVshort_name
p239
VWoodside
p240
sa(dp241
Vlong_name
p242
VCalifornia
p243
sVtypes
p244
(lp245
Vadministrative_area_level_1
p246
aVpolitical
p247
asVshort_name
p248
VCA
p249
sa(dp250
Vlong_name
p251
VUnited States
p252
sVtypes
p253
(lp254
Vcountry
p255
aVpolitical
p256
asVshort_name
p257
VUS
p258
sa(dp259
Vlong_name
p260
V94062
p261
sVtypes
p262
(lp263
Vpostal_code
p264
asVshort_name
p265
V94062
p266
sasVformatted_address
p267
V1100 Kings Mountain Rd, Woodside, CA 94062, United States
p268
sVid
p269
V193843baf8debe89ea58988d43f5ee25e20fb58c
p270
sVtypes
p271
(lp272
Vpark
p273
aVpoint_of_interest
p274
aVestablishment
p275
asVicon
p276
Vhttps://maps.gstatic.com/mapfiles/place_api/icons/generic_recreational-71.png
p277
s.