(dp1
Vwebsite
p2
Vhttp://www.ihg.com/armyhotels/hotels/us/en/dublin/zycpa/hoteldetail?cm_mmc=GoogleMaps-_-army-_-USEN-_-ZYCPA
p3
sVutc_offset
p4
I-420
sVuser_ratings_total
p5
I2
sVname
p6
VIHG Army Hotels Camp Parks
p7
sVreference
p8
VCnRtAAAAxb35GKyU5Tg_La1Pn1wAw9erXuv2UZAcPzXcdBxCMjbSkuexJmLWzh2gxZ93bT1Kyg_nwlNHWEoiV3Voqx26xLvTMqdG5gvgRhy1wn5Dm0KBh65oAYgV7fy2__yFYt_wcdYrh3BsGPhjd0Roew9Z6hIQmV3Grgl_Si7ilJnVz_VnaBoUALdEag161RlkK2UDE4D1RSDW5kc
p9
sVphotos
p10
(lp11
(dp12
Vphoto_reference
p13
VCmRdAAAAXeRdJg5hVrv3_kC4RiAGuUwA5VnKz4QlgGBpQ1RdQGO8Jt0fMc6KYe_tQIunUtD8ASX9kRsUBHl-YGSaNVct4ESkOA_89-OOMWekqPw1JyjOSIWErgEoniAZdK8GS8qvEhCZq6MbhpcNRT4AAGBWKogQGhQoWqrPoUTx561R_M5E47YA35J-hw
p14
sVwidth
p15
I500
sVhtml_attributions
p16
(lp17
V<a href="https://maps.google.com/maps/contrib/100935570164196787942/photos">IHG Army Hotels Camp Parks</a>
p18
asVheight
p19
I375
sa(dp20
Vphoto_reference
p21
VCmRdAAAALk-YydTlg6ngU-uuVT8yTBzNmmrcacAuN-opgPFf4NiLmbIqVIsFF_qLiJFv205aEfEdaSk7b0w367aHo_IXA8ai1k3j2p-9KlupYkWM6WvgOSy1WfAkNMl73suSfXwjEhDNPjA6DJ0b5Q09oqsX_RicGhQgB2TXdEj5qXXPu7cHC5qINysQrQ
p22
sVwidth
p23
I500
sVhtml_attributions
p24
(lp25
V<a href="https://maps.google.com/maps/contrib/100935570164196787942/photos">IHG Army Hotels Camp Parks</a>
p26
asVheight
p27
I375
sa(dp28
Vphoto_reference
p29
VCmRdAAAAB6VsmPMCg2N9780purZkOj8UYiOCP05ijzR9as8PmhsNJuffPDWxyNmJoBT38rBDo8Jkbcal05HLv8rPrlRg51ruh3VqSUIxOM7sx7OtqwjC2spjdaQWsvZPY0UJbnd1EhCfX5bE_GA7YPXnQ9vDVIzMGhRrP_WEulLuWbP22TqVHR3c63_DmA
p30
sVwidth
p31
I500
sVhtml_attributions
p32
(lp33
V<a href="https://maps.google.com/maps/contrib/100935570164196787942/photos">IHG Army Hotels Camp Parks</a>
p34
asVheight
p35
I333
sa(dp36
Vphoto_reference
p37
VCmRdAAAAF_oZUm7QrJdfuNNLXBzVKNd-9UTrWSERfY7YCRpGh1kwEvgZNcEydndPqp60yCThQVz5OiwfBh3PBFdn6Ly9g9m56KTV6OxRNjNbgJyQoMdM3ae4jOtj5N5kO-yf9j1PEhD07e26Yf3c4vBmdAHvETK1GhRmW8Xp82yKSra3c5qCyaXNZTfWWQ
p38
sVwidth
p39
I500
sVhtml_attributions
p40
(lp41
V<a href="https://maps.google.com/maps/contrib/100935570164196787942/photos">IHG Army Hotels Camp Parks</a>
p42
asVheight
p43
I375
sa(dp44
Vphoto_reference
p45
VCmRdAAAAfebUm7tpjNcsMrnEwI437XmAXa1EweDIPuz_VlGIKVPhRgPLD-YGH-_qKrvLCwwAAQimfW5Po5Fchnw0hMz0haBP80p1vK1ydnKz0i2lPLhIMfnZ-T_YthgBvSHLYjiYEhB9Sz-QkX3BD_O9CmSQopACGhTwDB0_wS3DxEKh1gNkypkIK7-brQ
p46
sVwidth
p47
I500
sVhtml_attributions
p48
(lp49
V<a href="https://maps.google.com/maps/contrib/100935570164196787942/photos">IHG Army Hotels Camp Parks</a>
p50
asVheight
p51
I375
sa(dp52
Vphoto_reference
p53
VCmRdAAAAW5u6cuJk5v_w638sDbxOQCPSm0yOaSe4EqUX1E0p4ywGGvoIZ7PbWOZDUldsaNHzYG5BJguzbJMAHX7c2AsOX7fnWAioXJOoO90NJTiJv5lgH7guLsDBU_iJxMjbVy57EhB9gDTwa_nG9DBuQ-jXcVc3GhQqsB87Px6B8le_k4rCr9WeeQgPDA
p54
sVwidth
p55
I500
sVhtml_attributions
p56
(lp57
V<a href="https://maps.google.com/maps/contrib/100935570164196787942/photos">IHG Army Hotels Camp Parks</a>
p58
asVheight
p59
I375
sa(dp60
Vphoto_reference
p61
VCmRdAAAA7euqfL_6C77QIeDzONEU6s5-RcnWAphDDfFWCRA3DJerYxM9IyIr7fJILub0tfKuE7IrfAzmotP4CCVpl0mSFpbkKBnD607sxNglPXDM3bv1YxSGHnHBTqg32HBTXe1MEhCvH1ebOLbljj50VrVICZTlGhSdHNM2PDpaoV-9oCWuyw6vxcJJWQ
p62
sVwidth
p63
I500
sVhtml_attributions
p64
(lp65
V<a href="https://maps.google.com/maps/contrib/100935570164196787942/photos">IHG Army Hotels Camp Parks</a>
p66
asVheight
p67
I375
sa(dp68
Vphoto_reference
p69
VCmRdAAAAnFgx29E9-fFBCIC8tvhLXg0KEmNTraNdDF7XApjb6vIr7n7Rt5uFRMflgciin4ntF-xadhP0_XHm-AWNzDNhQNPqTserqUy_ikW_ZzVu6Fch_sjkT5Bgf_5zm6x73zXbEhCe0wbb7TKjBoGV6bXQ_6UhGhS2unVlPbibDBOaHQLmqttjzcnVxA
p70
sVwidth
p71
I2322
sVhtml_attributions
p72
(lp73
V<a href="https://maps.google.com/maps/contrib/101730126127100282379/photos">wg clare</a>
p74
asVheight
p75
I4128
sa(dp76
Vphoto_reference
p77
VCmRdAAAArESe5Hv-RvXPIdmCL6gkdyPkmm5_LsrjWqKYzSKSoS6Y5hyTbuWm93L-m-2cMuOfei_Af3gdt7Mj03rYhvePp0aigEeAvZ_FHqWpHZZuNthTHhh7vLOr4v_JkScpHkcZEhABiV_Dd6cM3s4eUIz596A9GhSqnQjoEekXmnC7i7VK_vNgqEo47g
p78
sVwidth
p79
I2322
sVhtml_attributions
p80
(lp81
V<a href="https://maps.google.com/maps/contrib/101730126127100282379/photos">wg clare</a>
p82
asVheight
p83
I4128
sa(dp84
Vphoto_reference
p85
VCmRdAAAAA5wOnIXHV5pGTlBq6mQPVSz0f3RsHsI99abcXjavuXxriJi2NBSDHo4JNr1dt36vOpoVSXXWpP7BNNMMIVfL2cwMVKK7uWwaIgVecBMnyCkgiferhmFbgWoDB_VqbUcQEhAbM7EK1z9nCAVXIBjrIXVKGhQxABD_QS8UvygVeBvcGEWxLQd7Tw
p86
sVwidth
p87
I2322
sVhtml_attributions
p88
(lp89
V<a href="https://maps.google.com/maps/contrib/101730126127100282379/photos">wg clare</a>
p90
asVheight
p91
I4128
sasVgeometry
p92
(dp93
Vaccess_points
p94
(lp95
(dp96
Vtravel_modes
p97
(lp98
VDRIVING
p99
aVBICYCLING
p100
aVWALKING
p101
aVTRANSIT
p102
asVlocation
p103
(dp104
Vlat
p105
cdecimal
Decimal
p106
(S'37.7204659'
tRp107
sVlng
p108
g106
(S'-121.9030416'
tRp109
ssasVlocation
p110
(dp111
Vlat
p112
g106
(S'37.72046589999999'
tRp113
sVlng
p114
g106
(S'-121.9030416'
tRp115
sssVadr_address
p116
V<span class="street-address">1151 12th St</span>, <span class="locality">Dublin</span>, <span class="region">CA</span> <span class="postal-code">94568</span>, <span class="country-name">United States</span>
p117
sVplace_id
p118
VChIJSfJgPSDsj4ARVapHam2QY0k
p119
sVinternational_phone_number
p120
V+1 925-803-5326
p121
sVvicinity
p122
V1151 12th Street, Dublin
p123
sVreviews
p124
(lp125
(dp126
Vrating
p127
I1
sVaspects
p128
(lp129
(dp130
Vrating
p131
I0
sVtype
p132
Voverall
p133
sasVlanguage
p134
Ven
p135
sVtext
p136
VStaff, hair dryer and bed was great, otherwise facilities were the worst I have seen provided by a Holiday Inn Express operator.  Room phone didn't work, no exhaust fan in bathroom, shower was tiny(shoulders touched all sides) and shower head was horrible, no tub, basically 1920s horribly under updated toliet room; this was thier a distinguished visitor quarters room I can't imagine what a regular room is like.  Breakfast was underwelling and, the worst part, they replaced their signature cinnamon rolls with, smashed in the bag, vending machine cinnamon rolls.\u000aLong story short, we planned to stay three nights and we left after the first.
p137
sVauthor_name
p138
Vwg clare
p139
sVauthor_url
p140
Vhttps://plus.google.com/101730126127100282379
p141
sVtime
p142
I1434730369
sa(dp143
Vrating
p144
I3
sVaspects
p145
(lp146
(dp147
Vrating
p148
I1
sVtype
p149
Voverall
p150
sasVprofile_photo_url
p151
V//lh3.googleusercontent.com/-i9N1Lqek5nc/AAAAAAAAAAI/AAAAAAAACDE/fztdSN1bUXw/photo.jpg
p152
sVlanguage
p153
Ven
p154
sVtext
p155
V
sVauthor_name
p156
VNicholas Edelman
p157
sVauthor_url
p158
Vhttps://plus.google.com/100905496368730222272
p159
sVtime
p160
I1443327661
sasVformatted_phone_number
p161
V(925) 803-5326
p162
sVurl
p163
Vhttps://maps.google.com/?cid=5288229187072010837
p164
sVscope
p165
VGOOGLE
p166
sVaddress_components
p167
(lp168
(dp169
Vlong_name
p170
V1151
p171
sVtypes
p172
(lp173
Vstreet_number
p174
asVshort_name
p175
V1151
p176
sa(dp177
Vlong_name
p178
V12th Street
p179
sVtypes
p180
(lp181
Vroute
p182
asVshort_name
p183
V12th St
p184
sa(dp185
Vlong_name
p186
VDublin
p187
sVtypes
p188
(lp189
Vlocality
p190
aVpolitical
p191
asVshort_name
p192
VDublin
p193
sa(dp194
Vlong_name
p195
VCalifornia
p196
sVtypes
p197
(lp198
Vadministrative_area_level_1
p199
aVpolitical
p200
asVshort_name
p201
VCA
p202
sa(dp203
Vlong_name
p204
VUnited States
p205
sVtypes
p206
(lp207
Vcountry
p208
aVpolitical
p209
asVshort_name
p210
VUS
p211
sa(dp212
Vlong_name
p213
V94568
p214
sVtypes
p215
(lp216
Vpostal_code
p217
asVshort_name
p218
V94568
p219
sasVformatted_address
p220
V1151 12th St, Dublin, CA 94568, United States
p221
sVid
p222
V42dec6330d2b983939e8bcb22226bbef5b624a11
p223
sVtypes
p224
(lp225
Vlodging
p226
aVpoint_of_interest
p227
aVestablishment
p228
asVicon
p229
Vhttps://maps.gstatic.com/mapfiles/place_api/icons/lodging-71.png
p230
s.