(dp1
Vwebsite
p2
Vhttp://www.janieandjack.com/
p3
sVutc_offset
p4
I-420
sVuser_ratings_total
p5
I3
sVname
p6
VJanie and Jack
p7
sVreference
p8
VCnRiAAAA2TY2Z9oxlAHNkA0wPxR8dX7M27Q0O2gprwM6rpLZQ9wUcTsyeIkHE63w0H3gNZ_uwGnVtPCvcUmV2rgSQOZ6mjGdHPX9GOsYN_XddKyVYp2A9d6UbEtEtAbRZnRfNbrw9OBdx8irNs0bmcd6c7HguhIQcuICvdfVZfytB5y3pPWJdBoUo5jj2ETg5hpTrPVUI6bdBIoySrk
p9
sVprice_level
p10
I3
sVgeometry
p11
(dp12
Vaccess_points
p13
(lp14
(dp15
Vtravel_modes
p16
(lp17
VDRIVING
p18
aVBICYCLING
p19
aVWALKING
p20
aVTRANSIT
p21
asVlocation
p22
(dp23
Vlat
p24
cdecimal
Decimal
p25
(S'37.7843475'
tRp26
sVlng
p27
g25
(S'-122.4076562'
tRp28
ssasVlocation
p29
(dp30
Vlat
p31
g25
(S'37.7840744'
tRp32
sVlng
p33
g25
(S'-122.4068518'
tRp34
sssVadr_address
p35
V<span class="street-address">865 Market St #106</span>, <span class="locality">San Francisco</span>, <span class="region">CA</span> <span class="postal-code">94103</span>, <span class="country-name">United States</span>
p36
sVplace_id
p37
VChIJ6zMe3oWAhYARFmGR2bMt7qE
p38
sVinternational_phone_number
p39
V+1 415-495-7066
p40
sVvicinity
p41
V865 Market Street #106, San Francisco
p42
sVreviews
p43
(lp44
(dp45
Vrating
p46
I4
sVaspects
p47
(lp48
(dp49
Vrating
p50
I2
sVtype
p51
Voverall
p52
sasVlanguage
p53
Ven
p54
sVtext
p55
VReally cute baby clothes.  Very pricey but good quality. 
p56
sVauthor_name
p57
VCarolyn Irizarry
p58
sVauthor_url
p59
Vhttps://plus.google.com/117932610987963293922
p60
sVtime
p61
I1437879778
sa(dp62
Vrating
p63
I4
sVaspects
p64
(lp65
(dp66
Vrating
p67
I2
sVtype
p68
Voverall
p69
sasVlanguage
p70
Ven
p71
sVtext
p72
Vgreat stuff for children
p73
sVauthor_name
p74
VAngelina Adhiwana
p75
sVauthor_url
p76
Vhttps://plus.google.com/104265205580752916864
p77
sVtime
p78
I1362079501
sa(dp79
Vrating
p80
I5
sVaspects
p81
(lp82
(dp83
Vrating
p84
I3
sVtype
p85
Voverall
p86
sasVprofile_photo_url
p87
V//lh4.googleusercontent.com/-UihQ-J_4Mp0/AAAAAAAAAAI/AAAAAAAABes/jxp1-AO0dE4/photo.jpg
p88
sVlanguage
p89
Ven
p90
sVtext
p91
VGreat stuff
p92
sVauthor_name
p93
Vnileshwari kumari
p94
sVauthor_url
p95
Vhttps://plus.google.com/111950245604189100035
p96
sVtime
p97
I1355609854
sasVformatted_phone_number
p98
V(415) 495-7066
p99
sVscope
p100
VGOOGLE
p101
sVurl
p102
Vhttps://maps.google.com/?cid=11668313935036113174
p103
sVopening_hours
p104
(dp105
Vweekday_text
p106
(lp107
VMonday: 10:00 AM \u2013 8:30 PM
p108
aVTuesday: 10:00 AM \u2013 8:30 PM
p109
aVWednesday: 10:00 AM \u2013 8:30 PM
p110
aVThursday: 10:00 AM \u2013 8:30 PM
p111
aVFriday: 10:00 AM \u2013 8:30 PM
p112
aVSaturday: 10:00 AM \u2013 8:30 PM
p113
aVSunday: 11:00 AM \u2013 7:00 PM
p114
asVopen_now
p115
I01
sVperiods
p116
(lp117
(dp118
Vclose
p119
(dp120
Vday
p121
I0
sVtime
p122
V1900
p123
ssVopen
p124
(dp125
Vday
p126
I0
sVtime
p127
V1100
p128
ssa(dp129
Vclose
p130
(dp131
Vday
p132
I1
sVtime
p133
V2030
p134
ssVopen
p135
(dp136
Vday
p137
I1
sVtime
p138
V1000
p139
ssa(dp140
Vclose
p141
(dp142
Vday
p143
I2
sVtime
p144
V2030
p145
ssVopen
p146
(dp147
Vday
p148
I2
sVtime
p149
V1000
p150
ssa(dp151
Vclose
p152
(dp153
Vday
p154
I3
sVtime
p155
V2030
p156
ssVopen
p157
(dp158
Vday
p159
I3
sVtime
p160
V1000
p161
ssa(dp162
Vclose
p163
(dp164
Vday
p165
I4
sVtime
p166
V2030
p167
ssVopen
p168
(dp169
Vday
p170
I4
sVtime
p171
V1000
p172
ssa(dp173
Vclose
p174
(dp175
Vday
p176
I5
sVtime
p177
V2030
p178
ssVopen
p179
(dp180
Vday
p181
I5
sVtime
p182
V1000
p183
ssa(dp184
Vclose
p185
(dp186
Vday
p187
I6
sVtime
p188
V2030
p189
ssVopen
p190
(dp191
Vday
p192
I6
sVtime
p193
V1000
p194
ssassVaddress_components
p195
(lp196
(dp197
Vlong_name
p198
V106
p199
sVtypes
p200
(lp201
Vsubpremise
p202
asVshort_name
p203
V106
p204
sa(dp205
Vlong_name
p206
V865
p207
sVtypes
p208
(lp209
Vstreet_number
p210
asVshort_name
p211
V865
p212
sa(dp213
Vlong_name
p214
VMarket Street
p215
sVtypes
p216
(lp217
Vroute
p218
asVshort_name
p219
VMarket St
p220
sa(dp221
Vlong_name
p222
VSan Francisco
p223
sVtypes
p224
(lp225
Vlocality
p226
aVpolitical
p227
asVshort_name
p228
VSF
p229
sa(dp230
Vlong_name
p231
VCalifornia
p232
sVtypes
p233
(lp234
Vadministrative_area_level_1
p235
aVpolitical
p236
asVshort_name
p237
VCA
p238
sa(dp239
Vlong_name
p240
VUnited States
p241
sVtypes
p242
(lp243
Vcountry
p244
aVpolitical
p245
asVshort_name
p246
VUS
p247
sa(dp248
Vlong_name
p249
V94103
p250
sVtypes
p251
(lp252
Vpostal_code
p253
asVshort_name
p254
V94103
p255
sasVformatted_address
p256
V865 Market St #106, San Francisco, CA 94103, United States
p257
sVid
p258
V9e2338a1eda6e903c11ec4fbf4bea3d230e9d975
p259
sVtypes
p260
(lp261
Vclothing_store
p262
aVstore
p263
aVpoint_of_interest
p264
aVestablishment
p265
asVicon
p266
Vhttps://maps.gstatic.com/mapfiles/place_api/icons/shopping-71.png
p267
s.