(dp1
Vwebsite
p2
Vhttp://sfrecpark.org/destination/john-mclaren-park/
p3
sVrating
p4
cdecimal
Decimal
p5
(S'4.3'
tRp6
sVutc_offset
p7
I-420
sVuser_ratings_total
p8
I38
sVname
p9
VJohn McLaren Park
p10
sVreference
p11
VCnRlAAAAJYEmXYTKBPL6h2SF6El8B78HvOhIyk826P6MB5u1PsdqEpo7-deMZUlkBxvWUp_cflGLQDlFEg1NuLa_23KHE7AeLzBd7NRvkx8YO5f-j49DVdg5OFY30NOlYslTEtT7DKdAlqqOTlXW2pNZpJojkRIQS0oTYhwE4cfncHudfLWxUBoU46IDPJdejz4y6tvOcqD269Q4xFY
p12
sVphotos
p13
(lp14
(dp15
Vphoto_reference
p16
VCmRdAAAA5ySkRohaSpLlRSsHyV2aSRtOOLIDgEwRfANB1tdxWEaE63i6QTvO45S4rBNFecPIGRxrFpBd7PxWKMm0tuU-O3fAllHKvPMpa7ajThxpUSwKtUv7cylUGHx5Sax7rISJEhCrgnbxm7oc-B6c1h2oxvSBGhT_IlbOqZCQ0x6wg_7Q1iGLvMjZ9w
p17
sVwidth
p18
I1280
sVhtml_attributions
p19
(lp20
V<a href="https://maps.google.com/maps/contrib/102690091571148307715/photos">Amy Meyer</a>
p21
asVheight
p22
I720
sa(dp23
Vphoto_reference
p24
VCmRdAAAAkM0eFHP7LDfuj1HzoPOZJcNRnvqGKyeU1r0nGHl9szEINB07eS08rxvNdkVzwiY2JCs2d3U2nmIypDqPEnIBQZx1OqJzTsqt3xncDuyYRvCu-v8erKi1LBnXAzs8XgPdEhBuJY94QaxSYEGLIaG_sK43GhRDnSqNMKSIR9ZX_2PENDPmveCmqw
p25
sVwidth
p26
I1920
sVhtml_attributions
p27
(lp28
VFrom a Google User
p29
asVheight
p30
I2560
sa(dp31
Vphoto_reference
p32
VCmRdAAAA5XxSDw5iCtiOlxAMjNact5NG7cbg2v1F13WgpNwBn9spNnW3td7ViAL9J9iVWCs3yMO7-z1x8qWWUJQm_Y0TXf4npKnKsazaVGfTHEQNb37VE69_2efIGw6LvQL6mbr-EhC2GJ7GNtA0HHokRh731K3ZGhQABu_8HVvnPxIfbQoWNjexIUhPBQ
p33
sVwidth
p34
I2560
sVhtml_attributions
p35
(lp36
V<a href="https://maps.google.com/maps/contrib/111485723218432234645/photos">Curt Jaimungal</a>
p37
asVheight
p38
I1920
sa(dp39
Vphoto_reference
p40
VCmRdAAAALw7nt7C9eiT948RA901Xar8hRLIfsjwF65MmqlVujy1GrYDcpAbCaNrrvMUQs47AHNgMh00WGf1NsKDrTPhRPsRwoDBnM7-eoR4PykOrtr7R-ngp2q37MNEjbYd7vVgwEhA9brKyCHY48jG7GvTu22wTGhRKxw--mmQyjU1NQICIlu20imBIZw
p41
sVwidth
p42
I1280
sVhtml_attributions
p43
(lp44
V<a href="https://maps.google.com/maps/contrib/102690091571148307715/photos">Amy Meyer</a>
p45
asVheight
p46
I720
sa(dp47
Vphoto_reference
p48
VCmRdAAAAY9l45cLDkNEGqn4D0mv265qX0qvNFjoVjTircoTiNmj5-_dX9Eo3xEQsVTFdEQBx4U4Xg8pU2ic3V_mllfP6xtUT9GKjdOQfD074SBv8gzounVHrVAAsxg0mMeOO130XEhDUZjW-LbnjC9_qPGsnSLBoGhSdgdXqjdwGf3lJNV2Vi4HnPaQSAw
p49
sVwidth
p50
I1040
sVhtml_attributions
p51
(lp52
V<a href="https://maps.google.com/maps/contrib/105306836582418504074/photos">zadof artiag</a>
p53
asVheight
p54
I585
sa(dp55
Vphoto_reference
p56
VCmRdAAAAQNav0wD4XHDbmlUAdWyGtNybRjvjCHAf9I_FxW_sT6fUa1uGPU-KGZIHEY9W3GiTh76q-_Jhu8g4WoBP7KnR1doPbBi9Rx1JQ37o5GN0H8Bfm8k0mWbZgW5hk_dVCD5sEhArEH11vGGpFXz7IHt6kDmnGhQ31qACtpgHEpS77MK8l03p_Pj8EQ
p57
sVwidth
p58
I2560
sVhtml_attributions
p59
(lp60
VFrom a Google User
p61
asVheight
p62
I1920
sa(dp63
Vphoto_reference
p64
VCmRdAAAA5hUr_EB-QkLe3wK7UKaOwJv974X_ksCRRTrt6ejiCdOOiywNC0Bo5_BdN8axPONSH9lftmiK4N0pUH4HEhxdqfUF3RVDeAMWF2iEx3NuvPe1pJwvkyhSLgwQ8EuIV7O9EhDeods8qacd-SHMfIjXXa8nGhSuDjf71es6W-oslIrMbyYuuXv0wg
p65
sVwidth
p66
I2592
sVhtml_attributions
p67
(lp68
V<a href="https://maps.google.com/maps/contrib/116879704306102034910/photos">Erik Deocampo</a>
p69
asVheight
p70
I1944
sa(dp71
Vphoto_reference
p72
VCmRdAAAA-JkryyPN3ZfmN9BBQMRELq8Xbype8tS3wS0RTeWit0M4j0fqY3ah570Lu1O5EQ_4a1Uai0gFOi1TrOyeNDDxNoCvBX_8P1MsNTPhmpw2BlCx8cisd2nm8xBuDnVPNWzhEhB18NXA7Zg7BsnAvDM299LwGhSWTadLuIAoWpBUQrIUpHkT0kmmRA
p73
sVwidth
p74
I2560
sVhtml_attributions
p75
(lp76
VFrom a Google User
p77
asVheight
p78
I1920
sa(dp79
Vphoto_reference
p80
VCmRdAAAA54WbJpV20IsJohUFTQL35EKKiBCz1A_ARjhx7LYDu8woi2YcLVQ4USKOdoj7i8kBgAqjcYQ17L4HBlPWr2DOQwTTZfKqaaBtZZ2vPd6M98UFKVMkEmS8Ru2GNJ4TYQWuEhDzGOYHUHyrW7_lOiLtqj4nGhQyZRQa-fxoDkU_EIrQEAtHX2acbg
p81
sVwidth
p82
I2560
sVhtml_attributions
p83
(lp84
V<a href="https://maps.google.com/maps/contrib/111485723218432234645/photos">Curt Jaimungal</a>
p85
asVheight
p86
I1920
sa(dp87
Vphoto_reference
p88
VCoQBcwAAAH7Ehkh8DmwEH2GeE16yQMEOrLidu1ipURmGHCcyR4399aB0mO_y4VICpIKZBJQ1fYkxJtFMgHPBch_DRUE2r9nDulDy2jiXz-pY7j0oGyUvWRPJbsSWYXSVmLk9XbdOaIFK1iA0n13gtm9wShKzRfVRSvM3Rj5zlxngSl1qQOH7EhDGvAPzMUwSGT43DAuy-sSsGhTMj3zYipNe1Wdtep-B1yIWis_ZWw
p89
sVwidth
p90
I4224
sVhtml_attributions
p91
(lp92
V<a href="https://maps.google.com/maps/contrib/109541157876604526275/photos">Kaya Baber</a>
p93
asVheight
p94
I2368
sasVgeometry
p95
(dp96
Vaccess_points
p97
(lp98
(dp99
Vtravel_modes
p100
(lp101
VDRIVING
p102
aVBICYCLING
p103
aVWALKING
p104
aVTRANSIT
p105
asVlocation
p106
(dp107
Vlat
p108
g5
(S'37.7194674'
tRp109
sVlng
p110
g5
(S'-122.420801'
tRp111
ssasVlocation
p112
(dp113
Vlat
p114
g5
(S'37.719309'
tRp115
sVlng
p116
g5
(S'-122.4193742'
tRp117
sssVadr_address
p118
V<span class="street-address">100 John F Shelley Dr</span>, <span class="locality">San Francisco</span>, <span class="region">CA</span> <span class="postal-code">94134</span>, <span class="country-name">United States</span>
p119
sVplace_id
p120
VChIJ67-gn-5-j4ARcyjzTqE8ZdU
p121
sVinternational_phone_number
p122
V+1 415-831-2700
p123
sVvicinity
p124
V100 John F Shelley Drive, San Francisco
p125
sVreviews
p126
(lp127
(dp128
Vrating
p129
I4
sVaspects
p130
(lp131
(dp132
Vrating
p133
I2
sVtype
p134
Voverall
p135
sasVprofile_photo_url
p136
V//lh6.googleusercontent.com/-94ZCcWxjC-M/AAAAAAAAAAI/AAAAAAAAXpY/u_UsffWET5E/photo.jpg
p137
sVlanguage
p138
Ven
p139
sVtext
p140
VHella nice trails for hiking or biking, nice Vista views of South San Francisco and Bay Bridge. Kite situation would be on point. 
p141
sVauthor_name
p142
VEdward Gathercole
p143
sVauthor_url
p144
Vhttps://plus.google.com/107838947144757327711
p145
sVtime
p146
I1455582702
sa(dp147
Vrating
p148
I5
sVaspects
p149
(lp150
(dp151
Vrating
p152
I3
sVtype
p153
Voverall
p154
sasVprofile_photo_url
p155
V//lh6.googleusercontent.com/-Sg78238WiqA/AAAAAAAAAAI/AAAAAAAALP4/edLyGmsOBGM/photo.jpg
p156
sVlanguage
p157
Ven
p158
sVtext
p159
VOld beautiful park with impressive views, has tennis courts, bathrooms and an amphitheater the Jerry Garcia amphitheater to be specific, this park has history and great big open spaces.
p160
sVauthor_name
p161
VDerek Gardiner
p162
sVauthor_url
p163
Vhttps://plus.google.com/112446518646932524769
p164
sVtime
p165
I1453223727
sa(dp166
Vrating
p167
I4
sVaspects
p168
(lp169
(dp170
Vrating
p171
I2
sVtype
p172
Voverall
p173
sasVprofile_photo_url
p174
V//lh6.googleusercontent.com/-lOh6BceruF4/AAAAAAAAAAI/AAAAAAAA_30/FNJ4aHYrmQ8/photo.jpg
p175
sVlanguage
p176
Ven
p177
sVtext
p178
VAwesome spacious neighborhood park that is very dog and hiking friendly. There is a little pond area that has a children's park with swings and slides to the side and another area with picnic tables and bbq's. Nice views of downtown from the park and can see it being a good option for hosting children's birthday parties. \u000a\u000a
p179
sVauthor_name
p180
VTina C
p181
sVauthor_url
p182
Vhttps://plus.google.com/100864918851588063967
p183
sVtime
p184
I1412312361
sa(dp185
Vrating
p186
I5
sVaspects
p187
(lp188
(dp189
Vrating
p190
I3
sVtype
p191
Voverall
p192
sasVprofile_photo_url
p193
V//lh6.googleusercontent.com/-fCKJTQNCKNM/AAAAAAAAAAI/AAAAAAAAA1w/7bVFLl4tAvU/photo.jpg
p194
sVlanguage
p195
Ven
p196
sVtext
p197
VVery large and beautiful
p198
sVauthor_name
p199
VEric Douglass
p200
sVauthor_url
p201
Vhttps://plus.google.com/115245865080940105612
p202
sVtime
p203
I1461003247
sa(dp204
Vrating
p205
I5
sVaspects
p206
(lp207
(dp208
Vrating
p209
I3
sVtype
p210
Voverall
p211
sasVprofile_photo_url
p212
V//lh4.googleusercontent.com/-_e3umcftTYo/AAAAAAAAAAI/AAAAAAAAEF0/egyiR4gCg0k/photo.jpg
p213
sVlanguage
p214
Ven
p215
sVtext
p216
VSimple and nice park. You could see a view of Downtown San Francisco from a distance.
p217
sVauthor_name
p218
VDustmouse Playercps
p219
sVauthor_url
p220
Vhttps://plus.google.com/110291378691121866704
p221
sVtime
p222
I1436562780
sasVformatted_phone_number
p223
V(415) 831-2700
p224
sVurl
p225
Vhttps://maps.google.com/?cid=15376763166238386291
p226
sVscope
p227
VGOOGLE
p228
sVaddress_components
p229
(lp230
(dp231
Vlong_name
p232
V100
p233
sVtypes
p234
(lp235
Vstreet_number
p236
asVshort_name
p237
V100
p238
sa(dp239
Vlong_name
p240
VJohn F Shelley Drive
p241
sVtypes
p242
(lp243
Vroute
p244
asVshort_name
p245
VJohn F Shelley Dr
p246
sa(dp247
Vlong_name
p248
VSan Francisco
p249
sVtypes
p250
(lp251
Vlocality
p252
aVpolitical
p253
asVshort_name
p254
VSF
p255
sa(dp256
Vlong_name
p257
VCalifornia
p258
sVtypes
p259
(lp260
Vadministrative_area_level_1
p261
aVpolitical
p262
asVshort_name
p263
VCA
p264
sa(dp265
Vlong_name
p266
VUnited States
p267
sVtypes
p268
(lp269
Vcountry
p270
aVpolitical
p271
asVshort_name
p272
VUS
p273
sa(dp274
Vlong_name
p275
V94134
p276
sVtypes
p277
(lp278
Vpostal_code
p279
asVshort_name
p280
V94134
p281
sasVformatted_address
p282
V100 John F Shelley Dr, San Francisco, CA 94134, United States
p283
sVid
p284
Vce0d34b4c27acbab3d6608ace987c8b031dc21e7
p285
sVtypes
p286
(lp287
Vpark
p288
aVpoint_of_interest
p289
aVestablishment
p290
asVicon
p291
Vhttps://maps.gstatic.com/mapfiles/place_api/icons/generic_recreational-71.png
p292
s.