(dp1
Vrating
p2
cdecimal
Decimal
p3
(S'3.9'
tRp4
sVreference
p5
VCnRpAAAAhRWaxxuhzpnobxaoEJ4l7kBSpwCVEHWUuiJjbfBVPqYw5OyQj9PWjxYPfZzHEYmf3iwBHJbCfIspcji7qQUj6gCg-OYWEoJ3QQtteuWHBj4AoqcNwYVJbPhHuC3pXLTIeGN_NnUL-qLJ3jNdyRYaDBIQhy-rGgmg6PUw0Oa8F6TiEBoUNEgfZ4uw0xsovMFg3zLn8cIVk2A
p6
sVprice_level
p7
I1
sVplace_id
p8
VChIJJRy8wclJ34cRVGNTUXpjcQU
p9
sVurl
p10
Vhttps://maps.google.com/?cid=392204019559523156
p11
sVformatted_address
p12
V3020 East 9TH ST, Oakland, CA 94601, United States
p13
sVid
p14
V5f95994ce62bb54ae9922143a1deae9bac84b711
p15
sVopening_hours
p16
(dp17
Vweekday_text
p18
(lp19
VMonday: 10:00 AM \u2013 9:00 PM
p20
aVTuesday: 10:00 AM \u2013 9:00 PM
p21
aVWednesday: 10:00 AM \u2013 9:00 PM
p22
aVThursday: 10:00 AM \u2013 9:00 PM
p23
aVFriday: 10:00 AM \u2013 9:00 PM
p24
aVSaturday: 10:00 AM \u2013 9:00 PM
p25
aVSunday: 11:00 AM \u2013 7:00 PM
p26
asVopen_now
p27
I01
sVperiods
p28
(lp29
(dp30
Vclose
p31
(dp32
Vday
p33
I0
sVtime
p34
V1900
p35
ssVopen
p36
(dp37
Vday
p38
I0
sVtime
p39
V1100
p40
ssa(dp41
Vclose
p42
(dp43
Vday
p44
I1
sVtime
p45
V2100
p46
ssVopen
p47
(dp48
Vday
p49
I1
sVtime
p50
V1000
p51
ssa(dp52
Vclose
p53
(dp54
Vday
p55
I2
sVtime
p56
V2100
p57
ssVopen
p58
(dp59
Vday
p60
I2
sVtime
p61
V1000
p62
ssa(dp63
Vclose
p64
(dp65
Vday
p66
I3
sVtime
p67
V2100
p68
ssVopen
p69
(dp70
Vday
p71
I3
sVtime
p72
V1000
p73
ssa(dp74
Vclose
p75
(dp76
Vday
p77
I4
sVtime
p78
V2100
p79
ssVopen
p80
(dp81
Vday
p82
I4
sVtime
p83
V1000
p84
ssa(dp85
Vclose
p86
(dp87
Vday
p88
I5
sVtime
p89
V2100
p90
ssVopen
p91
(dp92
Vday
p93
I5
sVtime
p94
V1000
p95
ssa(dp96
Vclose
p97
(dp98
Vday
p99
I6
sVtime
p100
V2100
p101
ssVopen
p102
(dp103
Vday
p104
I6
sVtime
p105
V1000
p106
ssassVvicinity
p107
V3020 East 9TH ST, Oakland
p108
sVscope
p109
VGOOGLE
p110
sVwebsite
p111
Vhttps://www.kgstores.com/kg/store/get/810?utm_source=google&utm_medium=listing&utm_content=810&utm_campaign=CA
p112
sVutc_offset
p113
I-420
sVuser_ratings_total
p114
I9
sVtypes
p115
(lp116
Vclothing_store
p117
aVstore
p118
aVpoint_of_interest
p119
aVestablishment
p120
asVicon
p121
Vhttps://maps.gstatic.com/mapfiles/place_api/icons/shopping-71.png
p122
sVname
p123
VK&G Fashion Superstore
p124
sVgeometry
p125
(dp126
Vaccess_points
p127
(lp128
(dp129
Vtravel_modes
p130
(lp131
VDRIVING
p132
aVBICYCLING
p133
aVWALKING
p134
aVTRANSIT
p135
asVlocation
p136
(dp137
Vlat
p138
g3
(S'37.7742258'
tRp139
sVlng
p140
g3
(S'-122.2303944'
tRp141
ssasVlocation
p142
(dp143
Vlat
p144
g3
(S'37.7750366'
tRp145
sVlng
p146
g3
(S'-122.229411'
tRp147
sssVadr_address
p148
V3020 East 9TH ST, <span class="locality">Oakland</span>, <span class="region">CA</span> <span class="postal-code">94601</span>, <span class="country-name">United States</span>
p149
sVinternational_phone_number
p150
V+1 510-436-5818
p151
sVreviews
p152
(lp153
(dp154
Vrating
p155
I5
sVaspects
p156
(lp157
(dp158
Vrating
p159
I3
sVtype
p160
Voverall
p161
sasVlanguage
p162
Ven
p163
sVtext
p164
Vthey had really nice stuff at a reasonable price. it was up to date fashion for young and old I loved it
p165
sVauthor_name
p166
VElisha Cruz
p167
sVauthor_url
p168
Vhttps://plus.google.com/105760768717206753033
p169
sVtime
p170
I1452128752
sa(dp171
Vrating
p172
I5
sVaspects
p173
(lp174
(dp175
Vrating
p176
I3
sVtype
p177
Voverall
p178
sasVprofile_photo_url
p179
V//lh6.googleusercontent.com/-SWa8r9E2mYc/AAAAAAAAAAI/AAAAAAAALHU/EPVwgZ8lwrs/photo.jpg
p180
sVlanguage
p181
Ven
p182
sVtext
p183
VI walked in and the customer service was great. The sales man and I even have the same name. 
p184
sVauthor_name
p185
VEdwin Kibby
p186
sVauthor_url
p187
Vhttps://plus.google.com/108905982572696606638
p188
sVtime
p189
I1417896631
sa(dp190
Vrating
p191
I4
sVaspects
p192
(lp193
(dp194
Vrating
p195
I2
sVtype
p196
Voverall
p197
sasVprofile_photo_url
p198
V//lh5.googleusercontent.com/-u_YJ4-lO33s/AAAAAAAAAAI/AAAAAAAAAAs/hdKSrNp3Jro/photo.jpg
p199
sVlanguage
p200
Ven
p201
sVtext
p202
VWilling to work with you
p203
sVauthor_name
p204
VWill Gillyard
p205
sVauthor_url
p206
Vhttps://plus.google.com/101073123502086705999
p207
sVtime
p208
I1449815717
sa(dp209
Vrating
p210
I5
sVaspects
p211
(lp212
(dp213
Vrating
p214
I3
sVtype
p215
Voverall
p216
sasVprofile_photo_url
p217
V//lh4.googleusercontent.com/-W44LXZ6GnmE/AAAAAAAAAAI/AAAAAAAADyE/0Vb3xE9OpS0/photo.jpg
p218
sVlanguage
p219
Ven
p220
sVtext
p221
VMy wife always finds me some fly gear like the chocolate velveteen blazer and pants she purchased recently. 
p222
sVauthor_name
p223
VFoster Brown
p224
sVauthor_url
p225
Vhttps://plus.google.com/113827911739562912529
p226
sVtime
p227
I1413183323
sa(dp228
Vrating
p229
I4
sVaspects
p230
(lp231
(dp232
Vrating
p233
I2
sVtype
p234
Voverall
p235
sasVlanguage
p236
Ven
p237
sVtext
p238
VGood
p239
sVauthor_name
p240
Vkenneth cannon
p241
sVauthor_url
p242
Vhttps://plus.google.com/100600026861264651878
p243
sVtime
p244
I1390364883
sasVformatted_phone_number
p245
V(510) 436-5818
p246
sVaddress_components
p247
(lp248
(dp249
Vlong_name
p250
VOakland
p251
sVtypes
p252
(lp253
Vlocality
p254
aVpolitical
p255
asVshort_name
p256
VOakland
p257
sa(dp258
Vlong_name
p259
VCalifornia
p260
sVtypes
p261
(lp262
Vadministrative_area_level_1
p263
aVpolitical
p264
asVshort_name
p265
VCA
p266
sa(dp267
Vlong_name
p268
VUnited States
p269
sVtypes
p270
(lp271
Vcountry
p272
aVpolitical
p273
asVshort_name
p274
VUS
p275
sa(dp276
Vlong_name
p277
V94601
p278
sVtypes
p279
(lp280
Vpostal_code
p281
asVshort_name
p282
V94601
p283
sas.