(dp1
Vwebsite
p2
Vhttp://www.menlopark.org/255/Parks
p3
sVutc_offset
p4
I-420
sVuser_ratings_total
p5
I1
sVname
p6
VKelly Park
p7
sVreference
p8
VCmRdAAAArfyDmuPBy3SoR8HkWJQqivdHHPsiabIXblJl_7j9VrALX99aD-k4946kgzApObdyEJTiifd4NCCdsnpyUAl7764ncgFDKBn712YgqVpKKvRf2HqZLV6qhTFId2PmVh_7EhDXqyfRLxLTAUy_hK7H2BalGhSRKqdX1RZpH4mQ2T3XSmRMqLQiCw
p9
sVphotos
p10
(lp11
(dp12
Vphoto_reference
p13
VCmRdAAAAAiTmi6zSg56QVPr3bFVcbl84P0qdooQILIpLckFPzzFfPl_D13etdn9pMELzmjVYuNGrerX_5egBV0wpWZJN7AeaIfsz5wxbfgsWFfABivf-XFXTZS-B6BNmBHrhVIdVEhC9GZiouqLA_VlWmCtaK0ocGhQliLWhfG3Hc4ucWQMZrkjJZpjSkg
p14
sVwidth
p15
I768
sVhtml_attributions
p16
(lp17
V<a href="https://maps.google.com/maps/contrib/113206381363992277187/photos">alexis cabanto</a>
p18
asVheight
p19
I1024
sa(dp20
Vphoto_reference
p21
VCmRdAAAASsylRvXEdvQA0IgddCYOrft9ebR-v3YhdRPg3MPaXNd2bNHJ8ZXa1Zuq5ZsdDlhvyTrF3f5aZ17qXgqXuQhFUJrOpN59TOG7oI6fabnfFZqh4V2eiMJFqtY3ko_5fOYKEhCDwEM-cXkVH2WbHnieQpneGhSDf6MNJqY8eNQTUk1s2JDY3dpJiA
p22
sVwidth
p23
I640
sVhtml_attributions
p24
(lp25
V<a href="https://maps.google.com/maps/contrib/108712938891310534783/photos">Cony Pelaez</a>
p26
asVheight
p27
I480
sasVgeometry
p28
(dp29
Vaccess_points
p30
(lp31
(dp32
Vtravel_modes
p33
(lp34
VDRIVING
p35
aVBICYCLING
p36
aVWALKING
p37
aVTRANSIT
p38
asVlocation
p39
(dp40
Vlat
p41
cdecimal
Decimal
p42
(S'37.4786416'
tRp43
sVlng
p44
g42
(S'-122.16767'
tRp45
ssasVlocation
p46
(dp47
Vlat
p48
g42
(S'37.4785962'
tRp49
sVlng
p50
g42
(S'-122.1680456'
tRp51
sssVadr_address
p52
V<span class="street-address">100 Terminal Ave</span>, <span class="locality">Menlo Park</span>, <span class="region">CA</span> <span class="postal-code">94025</span>, <span class="country-name">United States</span>
p53
sVplace_id
p54
VChIJq8lDuLO8j4AR0OQehFz2fzk
p55
sVinternational_phone_number
p56
V+1 650-330-2220
p57
sVvicinity
p58
V100 Terminal Avenue, Menlo Park
p59
sVreviews
p60
(lp61
(dp62
Vrating
p63
I4
sVaspects
p64
(lp65
(dp66
Vrating
p67
I2
sVtype
p68
Voverall
p69
sasVprofile_photo_url
p70
V//lh4.googleusercontent.com/-NCcwvN6yc80/AAAAAAAAAAI/AAAAAAAAFGk/dYnRzcqd7Z0/photo.jpg
p71
sVlanguage
p72
Ven
p73
sVtext
p74
VHot soccer players
p75
sVauthor_name
p76
Vdiana perez
p77
sVauthor_url
p78
Vhttps://plus.google.com/104911053623857456916
p79
sVtime
p80
I1390202649
sasVformatted_phone_number
p81
V(650) 330-2220
p82
sVurl
p83
Vhttps://maps.google.com/?cid=4143301059418186960
p84
sVscope
p85
VGOOGLE
p86
sVaddress_components
p87
(lp88
(dp89
Vlong_name
p90
V100
p91
sVtypes
p92
(lp93
Vstreet_number
p94
asVshort_name
p95
V100
p96
sa(dp97
Vlong_name
p98
VTerminal Avenue
p99
sVtypes
p100
(lp101
Vroute
p102
asVshort_name
p103
VTerminal Ave
p104
sa(dp105
Vlong_name
p106
VMenlo Park
p107
sVtypes
p108
(lp109
Vlocality
p110
aVpolitical
p111
asVshort_name
p112
VMenlo Park
p113
sa(dp114
Vlong_name
p115
VCalifornia
p116
sVtypes
p117
(lp118
Vadministrative_area_level_1
p119
aVpolitical
p120
asVshort_name
p121
VCA
p122
sa(dp123
Vlong_name
p124
VUnited States
p125
sVtypes
p126
(lp127
Vcountry
p128
aVpolitical
p129
asVshort_name
p130
VUS
p131
sa(dp132
Vlong_name
p133
V94025
p134
sVtypes
p135
(lp136
Vpostal_code
p137
asVshort_name
p138
V94025
p139
sasVformatted_address
p140
V100 Terminal Ave, Menlo Park, CA 94025, United States
p141
sVid
p142
Vdedae36c9af4ca8c72c1e25c576b14f54da09e3a
p143
sVtypes
p144
(lp145
Vpark
p146
aVpoint_of_interest
p147
aVestablishment
p148
asVicon
p149
Vhttps://maps.gstatic.com/mapfiles/place_api/icons/generic_recreational-71.png
p150
s.