(dp1
Vrating
p2
cdecimal
Decimal
p3
(S'4.5'
tRp4
sVreference
p5
VCmRgAAAAlm0lhmBHi5uNHPX2nYKvzMafs31ysN6in0FlqhAPl_Vx2lCILFujG5-kHGauYRN0vpCdnfiYsB7gwwzVnN2WJmw32I-h_8tjZTr3Rpq1BmLjsgvUcP9I7jadye4-o8x4EhAFg8fCbMCYCjHdWaguBnaVGhR0QHh8ax1dJmEzXAoRzauNt61odQ
p6
sVprice_level
p7
I3
sVplace_id
p8
VChIJB9aNIrZxj4ARI-lPUws_UqE
p9
sVurl
p10
Vhttps://maps.google.com/?cid=11624422906071607587
p11
sVformatted_address
p12
V8150 Cabrillo Highway, Montara Beach, CA 94037, United States
p13
sVid
p14
Vad43953a3841e5aaec49cd18ccba795630ed5468
p15
sVopening_hours
p16
(dp17
Vweekday_text
p18
(lp19
VMonday: Closed
p20
aVTuesday: 5:00 \u2013 9:00 PM
p21
aVWednesday: 5:00 \u2013 9:00 PM
p22
aVThursday: 5:00 \u2013 9:00 PM
p23
aVFriday: 5:00 \u2013 10:00 PM
p24
aVSaturday: 5:00 \u2013 10:00 PM
p25
aVSunday: 5:00 \u2013 9:00 PM
p26
asVopen_now
p27
I01
sVperiods
p28
(lp29
(dp30
Vclose
p31
(dp32
Vday
p33
I0
sVtime
p34
V2100
p35
ssVopen
p36
(dp37
Vday
p38
I0
sVtime
p39
V1700
p40
ssa(dp41
Vclose
p42
(dp43
Vday
p44
I2
sVtime
p45
V2100
p46
ssVopen
p47
(dp48
Vday
p49
I2
sVtime
p50
V1700
p51
ssa(dp52
Vclose
p53
(dp54
Vday
p55
I3
sVtime
p56
V2100
p57
ssVopen
p58
(dp59
Vday
p60
I3
sVtime
p61
V1700
p62
ssa(dp63
Vclose
p64
(dp65
Vday
p66
I4
sVtime
p67
V2100
p68
ssVopen
p69
(dp70
Vday
p71
I4
sVtime
p72
V1700
p73
ssa(dp74
Vclose
p75
(dp76
Vday
p77
I5
sVtime
p78
V2200
p79
ssVopen
p80
(dp81
Vday
p82
I5
sVtime
p83
V1700
p84
ssa(dp85
Vclose
p86
(dp87
Vday
p88
I6
sVtime
p89
V2200
p90
ssVopen
p91
(dp92
Vday
p93
I6
sVtime
p94
V1700
p95
ssassVvicinity
p96
V8150 Cabrillo Highway, Montara Beach
p97
sVscope
p98
VGOOGLE
p99
sVwebsite
p100
Vhttp://www.lacostanerarestaurant.com/
p101
sVutc_offset
p102
I-420
sVuser_ratings_total
p103
I76
sVphotos
p104
(lp105
(dp106
Vphoto_reference
p107
VCmRdAAAASWeQ6600dXrhyGrUnDRUObABPvkRoORscyssoYwELojv-3BrnshSSGu3I-DT9dGr7h5afsUjjHxgm4kzvi7uIo0g3_UMIexlf4QbdOmU1Ya2DLp4vYs9lIqWGCp-B1lJEhDCRxd0plrv3x73UoEB4_VPGhTSXvoZXvq6Jm_SEZC7mIuGwZVq2w
p108
sVwidth
p109
I2000
sVhtml_attributions
p110
(lp111
V<a href="https://maps.google.com/maps/contrib/115917233338903381906/photos">la costanera restaurant</a>
p112
asVheight
p113
I1328
sa(dp114
Vphoto_reference
p115
VCmRdAAAAfajB0GlV1J-FqUESEQEpiGxxI24MFqw3_BHfC7WMxxPBNmobxaAH4ExcpHARtJQQ0vQpV97cA1CbWn7tJDchB8cZXcizKdNgcMRiCyxIsgjJYARwc6l3wmbu-2uPyWe-EhD9Y0TMyRaY83lEb0Gf2gK4GhSPr30LlEDXGXGKm29Ioy2k3n83cQ
p116
sVwidth
p117
I2048
sVhtml_attributions
p118
(lp119
V<a href="https://maps.google.com/maps/contrib/113793540284344888337/photos">Randy Evans</a>
p120
asVheight
p121
I1368
sa(dp122
Vphoto_reference
p123
VCmRdAAAA7sRUNgTdJjXCYWbYAhOQ-IwDEEyaxOb2BoYLCaneXXuo2iu400Vu3vGPuEg3NQ1hAsqxSDJI6HauVil6-esD1cyU_42DVGw2e596GSA2PbF5b_U8shBQZ8kVaZ8QDuBDEhA16Qj8LDLKe8mXQ1QwrYJaGhTWYHscCIRuZLHHTBZG3D8p2E71Hg
p124
sVwidth
p125
I800
sVhtml_attributions
p126
(lp127
V<a href="https://maps.google.com/maps/contrib/115917233338903381906/photos">la costanera restaurant</a>
p128
asVheight
p129
I505
sa(dp130
Vphoto_reference
p131
VCmRdAAAAjrTjD6alaGPCdBy_oZ_cQ15OdQVeOLQq3NcoVfk6zwjB6OAZFHoZ93xR78TUpv_YNKwqHK_BJl8uq5LfqmZsaVj0uYOpX_y7_kymQHd3m7Lw96z0cwzZu_Xf7qMzLlcwEhCMsPigSeriFpeKX71D5BlnGhQ_VGPYUmP2Wrq5BMtYpcTXykdE1w
p132
sVwidth
p133
I4032
sVhtml_attributions
p134
(lp135
V<a href="https://maps.google.com/maps/contrib/100062981297407033856/photos">Tabris Chen</a>
p136
asVheight
p137
I3024
sa(dp138
Vphoto_reference
p139
VCmRdAAAAu_MNdgaLGlmZy_kksF_RRGO9fdSnegBLdcnQ98XDLxtJ_EaAZ9rfkXUjvanyZwytsJJgpn_52oQWMk5sXylExOmnqafhuq2UJx68s7oZyfqoNGkLebW-xCqlnDtke0_tEhBvqQS1ir-6h738-T7bSR3MGhTksE5QKpXmgPvxKOaWhK5jhLExFQ
p140
sVwidth
p141
I800
sVhtml_attributions
p142
(lp143
V<a href="https://maps.google.com/maps/contrib/115917233338903381906/photos">la costanera restaurant</a>
p144
asVheight
p145
I532
sa(dp146
Vphoto_reference
p147
VCmRdAAAAyzL0CflIw4VVrWROrM9owtNccjdOGCclUeaBNktCNYAkX0C1jBb143foRWXZBf_TJMYzJFQ2MPx5ZMWQAYACwdEaKBxPFPxG5TPgHYKbu8NNDE3o0r_0Kf_IestkpaFMEhDN6szf36Zj5t7KpZWHhLQiGhR2mQxYLyOdM_WLFs1oWSfNjiiVmA
p148
sVwidth
p149
I1000
sVhtml_attributions
p150
(lp151
V<a href="https://maps.google.com/maps/contrib/115917233338903381906/photos">la costanera restaurant</a>
p152
asVheight
p153
I1506
sa(dp154
Vphoto_reference
p155
VCmRdAAAAkgkCEAJgNt4Q9ttkbz-dsyDbjfP_SkCH1XwR_0FO8oDtO4DkI9GO7dFGPtrIRvTS_D-AK2eB4hibmUgCFcBVOdKfmMgWRnoRGgg_7km2Orsqx_ivnG-W2ciUHtXfFsZ_EhChPVMzu8hWc_oUDaGXJ5zsGhRNUYC2pKLM-X9cKKm3WM_7ex7Wlw
p156
sVwidth
p157
I2048
sVhtml_attributions
p158
(lp159
V<a href="https://maps.google.com/maps/contrib/113793540284344888337/photos">Randy Evans</a>
p160
asVheight
p161
I1153
sa(dp162
Vphoto_reference
p163
VCmRdAAAAAV3pIPDJN140_0hDS3uK8hn0dnAodCHNN9RFDzaBkkYqD-8g7G2-cy-GlvXzEEkg1_iMAKFSmjy7eLVTSxwcKpes4U_bkWd8-J795MQMGulwv0NWtq1SDoQJP2UM9LNKEhDflEW7BA2DwFBRW7rvOI5IGhS-URKoVA6rE4ew9Lpur_yyAEKnHA
p164
sVwidth
p165
I800
sVhtml_attributions
p166
(lp167
V<a href="https://maps.google.com/maps/contrib/115917233338903381906/photos">la costanera restaurant</a>
p168
asVheight
p169
I532
sa(dp170
Vphoto_reference
p171
VCmRdAAAAcUOKRLgIu55bCosKSvtFA5aGMX1QyLOSjMmKdkbLilop8j2PEx8YoUwn_wtuEb3CSJrRs6oCRyrmBg6S1Dxo78vNgyflRXnrVIWPYo8yix1cVNg1-czglkWFli4VUxQxEhAazNWAS7yopxnFxH3qwx-fGhRdfh_GImMUgxSWb5Uor-XJu0cLWg
p172
sVwidth
p173
I4160
sVhtml_attributions
p174
(lp175
V<a href="https://maps.google.com/maps/contrib/113348736951055038973/photos">Thomas Devaux</a>
p176
asVheight
p177
I3120
sa(dp178
Vphoto_reference
p179
VCmRdAAAA0DADboGe5yTJcNNuwoX4Q8pa6DlNGUUZMbkeL3R7uF06WOyimsER2roC-y_SwP4R3LRYyzW8WfYbeIpirVghk65EdOKOc88Gpzc-npdbh8CtClq_42vq8SPMw67aOC-sEhD_3h4xK4c5fmAKNy3FPZAcGhTHDiQG8TYXV7hpBHXoqza6KjkpUA
p180
sVwidth
p181
I4160
sVhtml_attributions
p182
(lp183
V<a href="https://maps.google.com/maps/contrib/113348736951055038973/photos">Thomas Devaux</a>
p184
asVheight
p185
I3120
sasVtypes
p186
(lp187
Vbar
p188
aVrestaurant
p189
aVfood
p190
aVpoint_of_interest
p191
aVestablishment
p192
asVicon
p193
Vhttps://maps.gstatic.com/mapfiles/place_api/icons/restaurant-71.png
p194
sVname
p195
VLa Costanera
p196
sVgeometry
p197
(dp198
Vaccess_points
p199
(lp200
(dp201
Vtravel_modes
p202
(lp203
VDRIVING
p204
aVBICYCLING
p205
aVWALKING
p206
aVTRANSIT
p207
asVlocation
p208
(dp209
Vlat
p210
g3
(S'37.54598'
tRp211
sVlng
p212
g3
(S'-122.5137368'
tRp213
ssasVlocation
p214
(dp215
Vlat
p216
g3
(S'37.5461223'
tRp217
sVlng
p218
g3
(S'-122.5140789'
tRp219
sssVadr_address
p220
V<span class="street-address">8150 Cabrillo Highway</span>, <span class="locality">Montara Beach</span>, <span class="region">CA</span> <span class="postal-code">94037</span>, <span class="country-name">United States</span>
p221
sVinternational_phone_number
p222
V+1 650-728-1600
p223
sVreviews
p224
(lp225
(dp226
Vrating
p227
I5
sVaspects
p228
(lp229
(dp230
Vrating
p231
I3
sVtype
p232
Voverall
p233
sasVprofile_photo_url
p234
V//lh4.googleusercontent.com/-zYq1IoGGICY/AAAAAAAAAAI/AAAAAAAAAEE/ByXzDBUmZ_s/photo.jpg
p235
sVlanguage
p236
Ven
p237
sVtext
p238
VMy husband and I came here to celebrate our anniversary. Every drink, appetizer and meal that came to our table was delicious. Rich in flavor, fresh and perfect portions. The waiters, waitresses and bus boys were on point. Always smiling, always helpful, knew the menu and ingredients, answered every question we had with no hesitation. The restaurant itself is a work of art. In a perfect location that you have an amazing view, no matter where you sit. We will definitely visit again soon and spread the word.
p239
sVauthor_name
p240
VAshley Pagan
p241
sVauthor_url
p242
Vhttps://plus.google.com/104015811157525680652
p243
sVtime
p244
I1453396112
sa(dp245
Vrating
p246
I4
sVaspects
p247
(lp248
(dp249
Vrating
p250
I2
sVtype
p251
Voverall
p252
sasVprofile_photo_url
p253
V//lh6.googleusercontent.com/-Iklvumd0osE/AAAAAAAAAAI/AAAAAAAAAP8/D8naFOQYdyo/photo.jpg
p254
sVlanguage
p255
Ven
p256
sVtext
p257
VPleasantly surprised by my dinner here the other night.\u000a\u000aWe came as a group of 12 as part of a company offsite. The restaurant was incredibly accommodating and had set aside a large table for us. We had one person order for the entire group and the server was great in terms of making sure we had enough food and telling us how many of each item were in a plate so we could order accordingly. We shared a ton of plates:\u000a\u000aYucca balls - the server told us there were three to an order, but we actually had four on each plate. Creamy yucca with a crisp fry on the outside, serviced with a light curry sauce to add some spice and depth to the heaviness of the yucca root. 5-stars.\u000a\u000aPork belly skewers - pork belly is usually an easy win for me, but these tasted like burnt grill flavor, not fatty delicious pork. 3-stars.\u000a\u000aCeviche pescado -  not fishy at all, fabulous kick, loved the creamy sweet potato on the side. 5-stars. \u000a\u000aCeviche mixto - normally a win for me as I love seafood more than straight fish, but for this, I found the fish in the pescado ceviche soaked up the sauce better, while the seafood here remained somewhat unflavored. I did appreciate the variety of seafood here, with two shrimps, a mussel, a clam, some squid, and some fish. 3-stars.\u000a\u000aChicken chicharrones - crispy fried chicken, not the most moist I've ever had but still tenderly delicious, served with a thousand island type sauce on the side. 4-stars.\u000a\u000aBeef empanadas - different flavor profile than I'm used to, tasted like chili in a buttery flaky crust. Super delicious, 5-stars.\u000a\u000aPulpo a la Parilla - not big pieces of octopus, as expected, but seemed more squid sized. Heavy grill flavor, but not burnt, and a little rubbery on the texture but still had good flavor. 4-stars. \u000a\u000aCamarones - large and juicy with flavorful tomato sauce, and very garlicky bread. Lots of sauce, required extra bread! The bread was perfectly crisp and burned on one side, still fluffy inside. 4-stars.\u000a\u000aLamb Riblettes - suuuuuuper tender and fatty. Four to a serving. Yummmmmm 5-stars.\u000a\u000aLomo Saltado - Traditional, nice darker flavors from the soy in the tomato sauce. A good mix of potato softness and crunchiness on the fries.\u000a\u000aThe only issue we had was when we went to order cocktails, we were told there was no bartender so we had to stick to beer or wine.\u000a\u000aOverall, really delicious, especially for the area!
p258
sVauthor_name
p259
VSamantha Berg
p260
sVauthor_url
p261
Vhttps://plus.google.com/107767768560438055175
p262
sVtime
p263
I1454090086
sa(dp264
Vrating
p265
I5
sVaspects
p266
(lp267
(dp268
Vrating
p269
I3
sVtype
p270
Voverall
p271
sasVprofile_photo_url
p272
V//lh4.googleusercontent.com/-_m7Ohwl1pa0/AAAAAAAAAAI/AAAAAAAAz0s/Nv9P909acqQ/photo.jpg
p273
sVlanguage
p274
Ven
p275
sVtext
p276
VA dreamy and beautiful establishment right next to the soothing sound of waves. Unfortunately we came at night so there wasn't much of a view but I'd imagine it would be stunning at sundown. \u000a\u000aThe Peruvian offerings are gorgeous but feel somewhat Thai inspired, so fans of fusion cusine would be pleased. The menu is mostly in Spanish but our very enthusiastic server is quick to offer us explanations and recommendations. \u000a\u000aHighly recommend the Pescado a lo Macho, a beautiful seafood stew with fish fillet and sweet coconut rice.
p277
sVauthor_name
p278
VTabris Chen
p279
sVauthor_url
p280
Vhttps://plus.google.com/100062981297407033856
p281
sVtime
p282
I1448517316
sa(dp283
Vrating
p284
I2
sVaspects
p285
(lp286
(dp287
Vrating
p288
I0
sVtype
p289
Voverall
p290
sasVprofile_photo_url
p291
V//lh3.googleusercontent.com/-q3k-JBQ0S6I/AAAAAAAAAAI/AAAAAAAAAPc/IvcnAn-CYh0/photo.jpg
p292
sVlanguage
p293
Ven
p294
sVtext
p295
VPretty rough... Octopus was not cleaned (heads full of weird innards). And the gnocchi coated my mouth like peanut butter. Also a 20% gratuity was added without warning for our party of 2. Steak was good tho. 
p296
sVauthor_name
p297
VLeah Leonard
p298
sVauthor_url
p299
Vhttps://plus.google.com/103660167850043540084
p300
sVtime
p301
I1451618002
sa(dp302
Vrating
p303
I5
sVaspects
p304
(lp305
(dp306
Vrating
p307
I3
sVtype
p308
Voverall
p309
sasVlanguage
p310
Ven
p311
sVtext
p312
VPeaceful location, extremely tasty and satisfying food. Yes, it's expensive, but this place is worth it. From the staff to management, all around great service. Anyone not giving this place 5 stars has some issues with, good food and good service. If you want real Peruvian that doesn't cost so much, I recommend flying to Peru... Beautiful country. As far as recommendations here, the basics. Ceviche and beef hearts!! MMM MMM ..... Oh, and don't forget to order yourself any good drink and enjoy the sunset\U0001f44d\U0001f3fd
p313
sVauthor_name
p314
VOscar Terrazas Jr
p315
sVauthor_url
p316
Vhttps://plus.google.com/102946453272419708211
p317
sVtime
p318
I1448761982
sasVformatted_phone_number
p319
V(650) 728-1600
p320
sVaddress_components
p321
(lp322
(dp323
Vlong_name
p324
V8150
p325
sVtypes
p326
(lp327
Vstreet_number
p328
asVshort_name
p329
V8150
p330
sa(dp331
Vlong_name
p332
VCabrillo Highway
p333
sVtypes
p334
(lp335
Vroute
p336
asVshort_name
p337
VCabrillo Highway
p338
sa(dp339
Vlong_name
p340
VMontara Beach
p341
sVtypes
p342
(lp343
Vlocality
p344
aVpolitical
p345
asVshort_name
p346
VMontara Beach
p347
sa(dp348
Vlong_name
p349
VCalifornia
p350
sVtypes
p351
(lp352
Vadministrative_area_level_1
p353
aVpolitical
p354
asVshort_name
p355
VCA
p356
sa(dp357
Vlong_name
p358
VUnited States
p359
sVtypes
p360
(lp361
Vcountry
p362
aVpolitical
p363
asVshort_name
p364
VUS
p365
sa(dp366
Vlong_name
p367
V94037
p368
sVtypes
p369
(lp370
Vpostal_code
p371
asVshort_name
p372
V94037
p373
sas.