(dp1
Vrating
p2
cdecimal
Decimal
p3
(S'4.3'
tRp4
sVreference
p5
VCnRoAAAA3E-Y9vwb-mXGHZW1z2Kpz9iULIXrEpY202CHZuVplNn27s4D8jsF2oUhBOpy8WMSYFwfsyj2CMgnAJfWSuS5te-JqwJzqWmHM2Q5UfVHnQsxdIB13nqqL2YnYS7aaUDiW8M_GXJTfmk1jNsY52lqRBIQwAYIFsDy30hHLMx8FsesSBoUOeWHu0lOIsOVX3o13kz8vfu_G98
p6
sVprice_level
p7
I1
sVplace_id
p8
VChIJSVfXqWaGj4ARTqDK1y_D_ls
p9
sVurl
p10
Vhttps://maps.google.com/?cid=6628950311787208782
p11
sVformatted_address
p12
V1462 High St, Oakland, CA 94601, United States
p13
sVid
p14
V98814cbccc9ad10b777e880903cbddd2d9b8232f
p15
sVopening_hours
p16
(dp17
Vweekday_text
p18
(lp19
VMonday: Closed
p20
aVTuesday: 11:00 AM \u2013 8:00 PM
p21
aVWednesday: 11:00 AM \u2013 8:00 PM
p22
aVThursday: 11:00 AM \u2013 8:00 PM
p23
aVFriday: 11:00 AM \u2013 8:00 PM
p24
aVSaturday: 11:00 AM \u2013 8:00 PM
p25
aVSunday: 11:00 AM \u2013 8:00 PM
p26
asVopen_now
p27
I01
sVperiods
p28
(lp29
(dp30
Vclose
p31
(dp32
Vday
p33
I0
sVtime
p34
V2000
p35
ssVopen
p36
(dp37
Vday
p38
I0
sVtime
p39
V1100
p40
ssa(dp41
Vclose
p42
(dp43
Vday
p44
I2
sVtime
p45
V2000
p46
ssVopen
p47
(dp48
Vday
p49
I2
sVtime
p50
V1100
p51
ssa(dp52
Vclose
p53
(dp54
Vday
p55
I3
sVtime
p56
V2000
p57
ssVopen
p58
(dp59
Vday
p60
I3
sVtime
p61
V1100
p62
ssa(dp63
Vclose
p64
(dp65
Vday
p66
I4
sVtime
p67
V2000
p68
ssVopen
p69
(dp70
Vday
p71
I4
sVtime
p72
V1100
p73
ssa(dp74
Vclose
p75
(dp76
Vday
p77
I5
sVtime
p78
V2000
p79
ssVopen
p80
(dp81
Vday
p82
I5
sVtime
p83
V1100
p84
ssa(dp85
Vclose
p86
(dp87
Vday
p88
I6
sVtime
p89
V2000
p90
ssVopen
p91
(dp92
Vday
p93
I6
sVtime
p94
V1100
p95
ssassVvicinity
p96
V1462 High Street, Oakland
p97
sVscope
p98
VGOOGLE
p99
sVwebsite
p100
Vhttp://www.lenassoulfoodcafe.com/
p101
sVutc_offset
p102
I-420
sVuser_ratings_total
p103
I22
sVphotos
p104
(lp105
(dp106
Vphoto_reference
p107
VCoQBdwAAAN5mK2OrluHdNOioEXFmH6Kum09eBj8bAtBE4Opat3V746kvFhhb8hkHc9jCBxB14-0VUttm9vv11OZC66-w9pjyDttlAmCuJaAD4rgWPf1bBMqhh_SPQDemUaDwrxvihioJUhj4EjWfUFdAcXhlMv96nQDd5_P2ezSgQ1xnglv7EhBg-94akh7b7Ua7ELciqEgUGhQp_0As9bc4GtZIOZPLe1ABbWTJTA
p108
sVwidth
p109
I3264
sVhtml_attributions
p110
(lp111
V<a href="https://maps.google.com/maps/contrib/104805852448964926311/photos">Tim K</a>
p112
asVheight
p113
I2448
sa(dp114
Vphoto_reference
p115
VCmRdAAAAW5gDQQm97qf9HLHTVE2LMJtz7zwM4GUVJqjHtXG7MX5mal4YOlKPZdW4Ff_wdJsp1Bqgu5ykHlflIEMrlJheEUIJ-yOrH5WmLUxZZnNfOkOIMjEBJeBIdG3ZBYiNM4CgEhBe65s2zbfqYHHdwb922dY9GhQuSGzfUI_nZ3Z2W260lwIrcFKLrQ
p116
sVwidth
p117
I1024
sVhtml_attributions
p118
(lp119
V<a href="https://maps.google.com/maps/contrib/117093101179754703855/photos">Lenas Soul Food Cafe</a>
p120
asVheight
p121
I768
sa(dp122
Vphoto_reference
p123
VCoQBdwAAABhsyv0jG1D3hHw6qikgNDh4hjOy-Don9Ah_V_KgYRT3YNQifUng3FFqjs1ZejN_mZofBIEjS9coT-lyfp1GD-zmn21gbKwdJgBp2Q9oC_NQnv6fdaG1oO88xM4xlz2AvyF5SmxdkA02cmiY1H4_Jt50h36p2QMhqv6lAGh9ls2KEhC5doQ7YcbPSgz-GqdcWrjRGhTCGP2cU50Z9uoX5wDAPd0wthRyOw
p124
sVwidth
p125
I3264
sVhtml_attributions
p126
(lp127
V<a href="https://maps.google.com/maps/contrib/118227284255230704047/photos">Kaya Maqungo</a>
p128
asVheight
p129
I1836
sa(dp130
Vphoto_reference
p131
VCmRdAAAAhsLWJzswLOdt_wr-VVZvgvT3pxjn0YbfvQpPWya0vPY6N5JY3NMvxjsE7Hvgtt2Oo4JGuNojdjoyso37asUzM4v2_QHeoQVh-AIahV7okbmoUKp9riuuismzuYCADVNQEhC2l4qnF6csQG-lsfiM4sqrGhTZtPXhvEkQ9nsJCVsaHW0Lino30Q
p132
sVwidth
p133
I800
sVhtml_attributions
p134
(lp135
V<a href="https://maps.google.com/maps/contrib/117093101179754703855/photos">Lenas Soul Food Cafe</a>
p136
asVheight
p137
I600
sa(dp138
Vphoto_reference
p139
VCmRdAAAAfbgC39hJEioXTNhEKnTScxI6FrpFbyXevmi0N7UDwwFPOzY73FEkszLRsIT8beeybX1BEEXmiFWslxQRej3bLMZ53z2jpeZeTjkmyerbLAENi-5k079k8E1xHFDY8CHaEhA33ls2ARDJJaqCh_71Ir-0GhSVub3B36UJoKDfONTzCjh1LocnDw
p140
sVwidth
p141
I1024
sVhtml_attributions
p142
(lp143
V<a href="https://maps.google.com/maps/contrib/117093101179754703855/photos">Lenas Soul Food Cafe</a>
p144
asVheight
p145
I768
sa(dp146
Vphoto_reference
p147
VCmRdAAAASzRqBw5D_k7L71u424tJNEXcusyaSObDC3fchlJxWDOkwgJJv-26NrzVeSHBRV-i6BhiL8_d11oWCO9LsoE43_S1Z2PFfFuKajcKM06tpxQm209aweAfccm-HE04_62FEhBtn1xZ6ACzxAOGC9dkO3t8GhQcKEI0Dg1BQUJb9bgSZL3yLvvW-A
p148
sVwidth
p149
I800
sVhtml_attributions
p150
(lp151
V<a href="https://maps.google.com/maps/contrib/117093101179754703855/photos">Lenas Soul Food Cafe</a>
p152
asVheight
p153
I533
sa(dp154
Vphoto_reference
p155
VCmRdAAAAJoXTPcOVET9BFjc_fedriELx1k1q-F36Wdsw5o--sYHXk4oLFl7Fkh0-RKMBc2m8OaKNVufFz6COfEkqyqA_1Q-rJbGCNTYAHOZqWCrvWe291niLVHRitSxQOFYrfPE5EhAXmk34cSiQNw-HroCUdZ6CGhTqzOiMz_v5aPLP7cLifc9MVe_Fmw
p156
sVwidth
p157
I1024
sVhtml_attributions
p158
(lp159
V<a href="https://maps.google.com/maps/contrib/117093101179754703855/photos">Lenas Soul Food Cafe</a>
p160
asVheight
p161
I681
sa(dp162
Vphoto_reference
p163
VCmRdAAAAVIY9QBYBzvJPXsrfXqW1_tC3gXUnAfbyJjLA_Z9ZbiUjQ8W72AIXpQt1LE3LwptPJxbmnlZrnW44SYtegxuSOUhiaoaNE_TwKu7vxRjRLGME23F8GXFcbWILmsXyBIXREhBSDx0MfYcLpp7kS4Sc-OBwGhRe8MpbjtzX454jxII-ZzDl3lKEGw
p164
sVwidth
p165
I1024
sVhtml_attributions
p166
(lp167
V<a href="https://maps.google.com/maps/contrib/117093101179754703855/photos">Lenas Soul Food Cafe</a>
p168
asVheight
p169
I576
sasVtypes
p170
(lp171
Vcafe
p172
aVrestaurant
p173
aVfood
p174
aVpoint_of_interest
p175
aVestablishment
p176
asVicon
p177
Vhttps://maps.gstatic.com/mapfiles/place_api/icons/restaurant-71.png
p178
sVname
p179
VLena's Soul Food Cafe
p180
sVgeometry
p181
(dp182
Vaccess_points
p183
(lp184
(dp185
Vtravel_modes
p186
(lp187
VDRIVING
p188
aVBICYCLING
p189
aVWALKING
p190
aVTRANSIT
p191
asVlocation
p192
(dp193
Vlat
p194
g3
(S'37.7731447'
tRp195
sVlng
p196
g3
(S'-122.213804'
tRp197
ssasVlocation
p198
(dp199
Vlat
p200
g3
(S'37.7728843'
tRp201
sVlng
p202
g3
(S'-122.2134958'
tRp203
sssVadr_address
p204
V<span class="street-address">1462 High St</span>, <span class="locality">Oakland</span>, <span class="region">CA</span> <span class="postal-code">94601</span>, <span class="country-name">United States</span>
p205
sVinternational_phone_number
p206
V+1 510-842-3510
p207
sVreviews
p208
(lp209
(dp210
Vrating
p211
I5
sVaspects
p212
(lp213
(dp214
Vrating
p215
I3
sVtype
p216
Voverall
p217
sasVlanguage
p218
Ven
p219
sVtext
p220
VThere is reason there was a line wrapped around, this place is delicious. Large, soulful portions ( i recieved 5 pieces of fried chicken and 3 hefty sides for about 15 bucks) and you watch them prepare your plate. Everything was seasoned very well. My only small complaint was that one of peices of fried chicken wasn't as good as another, but that's me being picky. Mac n Cheese is great! Cornbread was perfect, with a hint of sweetness. The place and the tastes gave you a feeling of a Sunday afternoon behind the church,  in july. Unless I missed, the only thing they are missing is some good old southern sweet tea. This is an incredible little spot in Oakland and one not to miss.
p221
sVauthor_name
p222
VClaudious WIliams
p223
sVauthor_url
p224
Vhttps://plus.google.com/100928743622357808929
p225
sVtime
p226
I1459729823
sa(dp227
Vrating
p228
I5
sVaspects
p229
(lp230
(dp231
Vrating
p232
I3
sVtype
p233
Voverall
p234
sasVprofile_photo_url
p235
V//lh5.googleusercontent.com/-kU_XWl8XnYQ/AAAAAAAAAAI/AAAAAAAACK8/Hj17FJ9c0x4/photo.jpg
p236
sVlanguage
p237
Ven
p238
sVtext
p239
VThis food was amazing. The smothered chicken was incredible and I would definitely order that again. The only thing that was so so was the collared greens, and the rest of the food totally made up for it.
p240
sVauthor_name
p241
VRandy Lashley
p242
sVauthor_url
p243
Vhttps://plus.google.com/111404945117942833319
p244
sVtime
p245
I1459656922
sa(dp246
Vrating
p247
I5
sVaspects
p248
(lp249
(dp250
Vrating
p251
I3
sVtype
p252
Voverall
p253
sasVprofile_photo_url
p254
V//lh3.googleusercontent.com/-vIqhr_69_U4/AAAAAAAAAAI/AAAAAAAAAu8/aFEZlxj_kGg/photo.jpg
p255
sVlanguage
p256
Ven
p257
sVtext
p258
VBest fish EVER!!! And the Oxtails are to die for! Only complaint is they run out early on Sunday's.
p259
sVauthor_name
p260
VMaShiAat Oloya Tyehimba-Ford
p261
sVauthor_url
p262
Vhttps://plus.google.com/101299917974283288489
p263
sVtime
p264
I1460936509
sa(dp265
Vrating
p266
I4
sVaspects
p267
(lp268
(dp269
Vrating
p270
I2
sVtype
p271
Voverall
p272
sasVlanguage
p273
Ven
p274
sVtext
p275
VThis place had me by the throat since day 1..I try to stop by at less once week to fix my soul food cravings...You won't be dissapointed trust me.The food is always fresh,and the service is second to none.KEEP UP THE GOOD WORK YALL!
p276
sVauthor_name
p277
VKevin Valdry
p278
sVauthor_url
p279
Vhttps://plus.google.com/113043350339613984022
p280
sVtime
p281
I1453480612
sa(dp282
Vrating
p283
I1
sVaspects
p284
(lp285
(dp286
Vrating
p287
I0
sVtype
p288
Voverall
p289
sasVlanguage
p290
Ven
p291
sVtext
p292
VWaited in line for almost 30 minutes to get to front and they are out almost everything.  They don't have the kitchen capacity to handle the demand.  I left. Too bad.
p293
sVauthor_name
p294
VBeth Williams
p295
sVauthor_url
p296
Vhttps://plus.google.com/115409726363199720571
p297
sVtime
p298
I1460254250
sasVformatted_phone_number
p299
V(510) 842-3510
p300
sVaddress_components
p301
(lp302
(dp303
Vlong_name
p304
V1462
p305
sVtypes
p306
(lp307
Vstreet_number
p308
asVshort_name
p309
V1462
p310
sa(dp311
Vlong_name
p312
VHigh Street
p313
sVtypes
p314
(lp315
Vroute
p316
asVshort_name
p317
VHigh St
p318
sa(dp319
Vlong_name
p320
VOakland
p321
sVtypes
p322
(lp323
Vlocality
p324
aVpolitical
p325
asVshort_name
p326
VOakland
p327
sa(dp328
Vlong_name
p329
VCalifornia
p330
sVtypes
p331
(lp332
Vadministrative_area_level_1
p333
aVpolitical
p334
asVshort_name
p335
VCA
p336
sa(dp337
Vlong_name
p338
VUnited States
p339
sVtypes
p340
(lp341
Vcountry
p342
aVpolitical
p343
asVshort_name
p344
VUS
p345
sa(dp346
Vlong_name
p347
V94601
p348
sVtypes
p349
(lp350
Vpostal_code
p351
asVshort_name
p352
V94601
p353
sas.