(dp1
Vwebsite
p2
Vhttp://www.lodginginnovations.com/
p3
sVutc_offset
p4
I-420
sVname
p5
VLodging Innovations
p6
sVreference
p7
VCnRnAAAA_RIzWI77xnYUBjbJJcK43mfHtul14BNSayZyvL8TmBznMHKhiiv4y2C9NmZrrazK1c7gD1MuydjrtEA0mZCJLC9LJjhhJtjgnwFUZRCb-MbIeU5FMnbS7n5eTuAMe_DovzIRibndlGwwRVuh7qz1AhIQiOtBb4rrT-SuP99BWnHe_xoUmCw6K3sZvszHclahxGpegWjn5eo
p8
sVgeometry
p9
(dp10
Vaccess_points
p11
(lp12
(dp13
Vtravel_modes
p14
(lp15
VDRIVING
p16
aVBICYCLING
p17
aVWALKING
p18
aVTRANSIT
p19
asVlocation
p20
(dp21
Vlat
p22
cdecimal
Decimal
p23
(S'37.3574908'
tRp24
sVlng
p25
g23
(S'-121.9470874'
tRp26
ssasVlocation
p27
(dp28
Vlat
p29
g23
(S'37.35751980000001'
tRp30
sVlng
p31
g23
(S'-121.94697'
tRp32
sssVadr_address
p33
V<span class="street-address">1793 Lafayette St # 105</span>, <span class="locality">Santa Clara</span>, <span class="region">CA</span> <span class="postal-code">95050-3963</span>, <span class="country-name">United States</span>
p34
sVplace_id
p35
VChIJz6YKzrTLj4ARbLEfUsRxK-U
p36
sVinternational_phone_number
p37
V+1 408-999-0116
p38
sVvicinity
p39
V1793 Lafayette Street # 105, Santa Clara
p40
sVformatted_phone_number
p41
V(408) 999-0116
p42
sVurl
p43
Vhttps://maps.google.com/?cid=16513417546689393004
p44
sVscope
p45
VGOOGLE
p46
sVaddress_components
p47
(lp48
(dp49
Vlong_name
p50
V# 105
p51
sVtypes
p52
(lp53
Vsubpremise
p54
asVshort_name
p55
V# 105
p56
sa(dp57
Vlong_name
p58
V1793
p59
sVtypes
p60
(lp61
Vstreet_number
p62
asVshort_name
p63
V1793
p64
sa(dp65
Vlong_name
p66
VLafayette Street
p67
sVtypes
p68
(lp69
Vroute
p70
asVshort_name
p71
VLafayette St
p72
sa(dp73
Vlong_name
p74
VSanta Clara
p75
sVtypes
p76
(lp77
Vlocality
p78
aVpolitical
p79
asVshort_name
p80
VSanta Clara
p81
sa(dp82
Vlong_name
p83
VCalifornia
p84
sVtypes
p85
(lp86
Vadministrative_area_level_1
p87
aVpolitical
p88
asVshort_name
p89
VCA
p90
sa(dp91
Vlong_name
p92
VUnited States
p93
sVtypes
p94
(lp95
Vcountry
p96
aVpolitical
p97
asVshort_name
p98
VUS
p99
sa(dp100
Vlong_name
p101
V95050
p102
sVtypes
p103
(lp104
Vpostal_code
p105
asVshort_name
p106
V95050
p107
sa(dp108
Vlong_name
p109
V3963
p110
sVtypes
p111
(lp112
Vpostal_code_suffix
p113
asVshort_name
p114
V3963
p115
sasVformatted_address
p116
V1793 Lafayette St # 105, Santa Clara, CA 95050, United States
p117
sVid
p118
V9cd5822929cd00290efedd6d9f8300c668dc4358
p119
sVtypes
p120
(lp121
Vlodging
p122
aVpoint_of_interest
p123
aVestablishment
p124
asVicon
p125
Vhttps://maps.gstatic.com/mapfiles/place_api/icons/lodging-71.png
p126
s.