(dp1
Vwebsite
p2
Vhttp://www.loft.com/sale/catl00008
p3
sVutc_offset
p4
I-420
sVuser_ratings_total
p5
I1
sVname
p6
VLoft
p7
sVreference
p8
VCmRXAAAAhsp33bdtTbcClKgNACDYQumBe7Xd3PHf5ws5w7-UaYTJL1BHL4nzL9sRf9lSK57qXHVgs8XgC_S2Ylgbgo4yYcmhv4PET_usuvjGEG7Xc-qhWngILtU7eBVwRIVBuIfLEhDJLnM6F84KD42aT_mM7DivGhTWtdg3oZBRIGxXm45IokT2RL89XQ
p9
sVprice_level
p10
I2
sVgeometry
p11
(dp12
Vaccess_points
p13
(lp14
(dp15
Vtravel_modes
p16
(lp17
VDRIVING
p18
aVBICYCLING
p19
aVWALKING
p20
aVTRANSIT
p21
asVlocation
p22
(dp23
Vlat
p24
cdecimal
Decimal
p25
(S'37.79511300000001'
tRp26
sVlng
p27
g25
(S'-122.3960492'
tRp28
ssasVlocation
p29
(dp30
Vlat
p31
g25
(S'37.7948513'
tRp32
sVlng
p33
g25
(S'-122.3964142'
tRp34
sssVadr_address
p35
V<span class="extended-address">Four Embarcadero Center</span>, <span class="street-address">4 Embarcadero Center</span>, <span class="locality">San Francisco</span>, <span class="region">CA</span> <span class="postal-code">94111</span>, <span class="country-name">United States</span>
p36
sVplace_id
p37
VChIJ-72fAGGAhYARQncxvLwE80Q
p38
sVinternational_phone_number
p39
V+1 415-956-9895
p40
sVvicinity
p41
VFour Embarcadero Center, 4 Embarcadero Center, San Francisco
p42
sVreviews
p43
(lp44
(dp45
Vrating
p46
I1
sVaspects
p47
(lp48
(dp49
Vrating
p50
I0
sVtype
p51
Voverall
p52
sasVprofile_photo_url
p53
V//lh4.googleusercontent.com/-PVuIdgHUQDc/AAAAAAAAAAI/AAAAAAAABX4/MD99Hks9V1A/photo.jpg
p54
sVlanguage
p55
Ven
p56
sVtext
p57
VLove it like i love war t-c, zvg if zetdgy
p58
sVauthor_name
p59
Vanne marie yantespategould
p60
sVauthor_url
p61
Vhttps://plus.google.com/106982578731194384872
p62
sVtime
p63
I1457683922
sasVformatted_phone_number
p64
V(415) 956-9895
p65
sVscope
p66
VGOOGLE
p67
sVurl
p68
Vhttps://maps.google.com/?cid=4968320022577510210
p69
sVopening_hours
p70
(dp71
Vweekday_text
p72
(lp73
VMonday: 8:00 AM \u2013 7:00 PM
p74
aVTuesday: 8:00 AM \u2013 7:00 PM
p75
aVWednesday: 8:00 AM \u2013 7:00 PM
p76
aVThursday: 8:00 AM \u2013 7:00 PM
p77
aVFriday: 8:00 AM \u2013 7:00 PM
p78
aVSaturday: 10:00 AM \u2013 6:00 PM
p79
aVSunday: 12:00 \u2013 6:00 PM
p80
asVopen_now
p81
I00
sVperiods
p82
(lp83
(dp84
Vclose
p85
(dp86
Vday
p87
I0
sVtime
p88
V1800
p89
ssVopen
p90
(dp91
Vday
p92
I0
sVtime
p93
V1200
p94
ssa(dp95
Vclose
p96
(dp97
Vday
p98
I1
sVtime
p99
V1900
p100
ssVopen
p101
(dp102
Vday
p103
I1
sVtime
p104
V0800
p105
ssa(dp106
Vclose
p107
(dp108
Vday
p109
I2
sVtime
p110
V1900
p111
ssVopen
p112
(dp113
Vday
p114
I2
sVtime
p115
V0800
p116
ssa(dp117
Vclose
p118
(dp119
Vday
p120
I3
sVtime
p121
V1900
p122
ssVopen
p123
(dp124
Vday
p125
I3
sVtime
p126
V0800
p127
ssa(dp128
Vclose
p129
(dp130
Vday
p131
I4
sVtime
p132
V1900
p133
ssVopen
p134
(dp135
Vday
p136
I4
sVtime
p137
V0800
p138
ssa(dp139
Vclose
p140
(dp141
Vday
p142
I5
sVtime
p143
V1900
p144
ssVopen
p145
(dp146
Vday
p147
I5
sVtime
p148
V0800
p149
ssa(dp150
Vclose
p151
(dp152
Vday
p153
I6
sVtime
p154
V1800
p155
ssVopen
p156
(dp157
Vday
p158
I6
sVtime
p159
V1000
p160
ssassVaddress_components
p161
(lp162
(dp163
Vlong_name
p164
VFour Embarcadero Center
p165
sVtypes
p166
(lp167
Vpremise
p168
asVshort_name
p169
VFour Embarcadero Center
p170
sa(dp171
Vlong_name
p172
V4
sVtypes
p173
(lp174
Vstreet_number
p175
asVshort_name
p176
V4
sa(dp177
Vlong_name
p178
VEmbarcadero Center
p179
sVtypes
p180
(lp181
Vroute
p182
asVshort_name
p183
VEmbarcadero Center
p184
sa(dp185
Vlong_name
p186
VSan Francisco
p187
sVtypes
p188
(lp189
Vlocality
p190
aVpolitical
p191
asVshort_name
p192
VSF
p193
sa(dp194
Vlong_name
p195
VCalifornia
p196
sVtypes
p197
(lp198
Vadministrative_area_level_1
p199
aVpolitical
p200
asVshort_name
p201
VCA
p202
sa(dp203
Vlong_name
p204
VUnited States
p205
sVtypes
p206
(lp207
Vcountry
p208
aVpolitical
p209
asVshort_name
p210
VUS
p211
sa(dp212
Vlong_name
p213
V94111
p214
sVtypes
p215
(lp216
Vpostal_code
p217
asVshort_name
p218
V94111
p219
sasVformatted_address
p220
VFour Embarcadero Center, 4 Embarcadero Center, San Francisco, CA 94111, United States
p221
sVid
p222
Vfaa4a3e12e35f32cdabfe1e97a28f9d58f09c833
p223
sVtypes
p224
(lp225
Vclothing_store
p226
aVstore
p227
aVpoint_of_interest
p228
aVestablishment
p229
asVicon
p230
Vhttps://maps.gstatic.com/mapfiles/place_api/icons/shopping-71.png
p231
s.