(dp1
Vrating
p2
cdecimal
Decimal
p3
(S'4.4'
tRp4
sVreference
p5
VCnRlAAAAbuuIW1z_fQfwfKkWnMtzvNdXmhivcmxNHHI48ursQ-rVeEm3-5coMh36vrRHKh8h9goHpJUwAzycnsWAm529JxcHSLvOw9sWLBv5mIZsXfE1HZPtMAwmyccBSGBvEwCQ4jCtbQgRHPC5LYjjfPyfZBIQVCEoVs2MnFC-CSZe-0G1ThoUYdamknZCxnGtc0Ds9Mp05IljEcw
p6
sVprice_level
p7
I1
sVplace_id
p8
VChIJraGpLLKAhYARsWqJ-sBBQhM
p9
sVurl
p10
Vhttps://maps.google.com/?cid=1387743932276370097
p11
sVformatted_address
p12
V1799 McAllister St, San Francisco, CA 94117, United States
p13
sVid
p14
Vf368dc027cd46372275cbd63dda680609c925f0c
p15
sVopening_hours
p16
(dp17
Vweekday_text
p18
(lp19
VMonday: 7:00 AM \u2013 6:00 PM
p20
aVTuesday: 7:00 AM \u2013 6:00 PM
p21
aVWednesday: 7:00 AM \u2013 6:00 PM
p22
aVThursday: 7:00 AM \u2013 6:00 PM
p23
aVFriday: 7:00 AM \u2013 6:00 PM
p24
aVSaturday: 7:30 AM \u2013 6:00 PM
p25
aVSunday: 7:30 AM \u2013 6:00 PM
p26
asVopen_now
p27
I01
sVperiods
p28
(lp29
(dp30
Vclose
p31
(dp32
Vday
p33
I0
sVtime
p34
V1800
p35
ssVopen
p36
(dp37
Vday
p38
I0
sVtime
p39
V0730
p40
ssa(dp41
Vclose
p42
(dp43
Vday
p44
I1
sVtime
p45
V1800
p46
ssVopen
p47
(dp48
Vday
p49
I1
sVtime
p50
V0700
p51
ssa(dp52
Vclose
p53
(dp54
Vday
p55
I2
sVtime
p56
V1800
p57
ssVopen
p58
(dp59
Vday
p60
I2
sVtime
p61
V0700
p62
ssa(dp63
Vclose
p64
(dp65
Vday
p66
I3
sVtime
p67
V1800
p68
ssVopen
p69
(dp70
Vday
p71
I3
sVtime
p72
V0700
p73
ssa(dp74
Vclose
p75
(dp76
Vday
p77
I4
sVtime
p78
V1800
p79
ssVopen
p80
(dp81
Vday
p82
I4
sVtime
p83
V0700
p84
ssa(dp85
Vclose
p86
(dp87
Vday
p88
I5
sVtime
p89
V1800
p90
ssVopen
p91
(dp92
Vday
p93
I5
sVtime
p94
V0700
p95
ssa(dp96
Vclose
p97
(dp98
Vday
p99
I6
sVtime
p100
V1800
p101
ssVopen
p102
(dp103
Vday
p104
I6
sVtime
p105
V0730
p106
ssassVvicinity
p107
V1799 McAllister Street, San Francisco
p108
sVscope
p109
VGOOGLE
p110
sVwebsite
p111
Vhttp://www.matchinghalfcafe.com/
p112
sVutc_offset
p113
I-420
sVuser_ratings_total
p114
I60
sVphotos
p115
(lp116
(dp117
Vphoto_reference
p118
VCoQBcwAAAAgu323RSN_SVBsTXvxymskNzkZ3QAiVto5FY9SnvybaHz3bGu9tXPZXuu5F8DOD7lZ3-8p73BoCJeUiNfa_j5fmGu8VWFYgGC64q7sGagsklUXC3TB3omjTYJw2djGk5vGGFKTAz-kNV3e12f5mwwkTrDXR0rA4Y-AVWiLmD5BJEhAl4esslDjKO-wyufheEpoZGhTT6Qw-x9RNFvr0vWGeHLCPTGpYmw
p119
sVwidth
p120
I3264
sVhtml_attributions
p121
(lp122
V<a href="https://maps.google.com/maps/contrib/101854911141174125243/photos">Patrick Daniel</a>
p123
asVheight
p124
I2448
sa(dp125
Vphoto_reference
p126
VCmRdAAAAh2V7QQfqN9ft74kGSYGnOCUzMcHok-Qs3ExA54fgVU2gWAoikL8vgljofp7GeBXlorHGP31wHM79pkolcXaLcS3gHHJaDsEXGV8mw0ASowkJN9WxaNPEUZD0cxodCN_xEhBgaWrnqVb1eGmxR0jGzS8EGhS1DlenoAR7DomRlbkbUW11prH_cQ
p127
sVwidth
p128
I900
sVhtml_attributions
p129
(lp130
V<a href="https://maps.google.com/maps/contrib/102595991512877507066/photos">Matching Half Cafe</a>
p131
asVheight
p132
I527
sa(dp133
Vphoto_reference
p134
VCmRdAAAADHIOeUMLlXwvyUPESCLFpvtaMT_f_46P8IgMiTm5nOlE55gB0oXUmNoaqz-4K57o9Hy-5PYMYUyhMnmbMt5TBlMgWfrdOuhGWzkaC9-xNK02a3hmYIPGASgw7NwNXbYIEhDW0pLHwdrcNKnea7GM2pz4GhToiXpQEAD1AZbYlERcMAhHYrZZYA
p135
sVwidth
p136
I4032
sVhtml_attributions
p137
(lp138
V<a href="https://maps.google.com/maps/contrib/115560529070265427306/photos">Kyle Manna</a>
p139
asVheight
p140
I3024
sa(dp141
Vphoto_reference
p142
VCmRdAAAAN0xUXlpfOuBh5lCAw9C97Dr99y62fU_zEXx6Oggppyyga9R0DDS88egPhd_abECPNhDU7q0e3n-xrxEZzFt_pTsq2M5H8Pu6hvlnrSVn2dNi98THYEWHqbbfUbKNNZ56EhBDffpfgWhihc-1VzM1SwPSGhRJ0o1Hy8Tl82gqPT9dh208AXK5TQ
p143
sVwidth
p144
I768
sVhtml_attributions
p145
(lp146
V<a href="https://maps.google.com/maps/contrib/114069967475853314853/photos">SETH CARUS</a>
p147
asVheight
p148
I1024
sa(dp149
Vphoto_reference
p150
VCmRdAAAAm00Ne48pwT_TRONAQoHLpQykgS1ZtPNwS3O4vNS1IigtrzxfnvNKlwZJd_FPBh4zC8uMoixKMnSLK4HnKcLspBdSGAlXS-P84ykuMzKYWHfFtz1nDs3b3bmuN0HLM9TFEhDJQgN0SpfcRi7uVpXg8KXXGhR1Fl8sMWjXqPs4CM3I9APGOgAZpQ
p151
sVwidth
p152
I2048
sVhtml_attributions
p153
(lp154
V<a href="https://maps.google.com/maps/contrib/102595991512877507066/photos">Matching Half Cafe</a>
p155
asVheight
p156
I1225
sasVtypes
p157
(lp158
Vcafe
p159
aVrestaurant
p160
aVstore
p161
aVfood
p162
aVbar
p163
aVpoint_of_interest
p164
aVestablishment
p165
asVicon
p166
Vhttps://maps.gstatic.com/mapfiles/place_api/icons/cafe-71.png
p167
sVname
p168
VMatching Half Cafe
p169
sVgeometry
p170
(dp171
Vaccess_points
p172
(lp173
(dp174
Vtravel_modes
p175
(lp176
VDRIVING
p177
aVBICYCLING
p178
aVWALKING
p179
aVTRANSIT
p180
asVlocation
p181
(dp182
Vlat
p183
g3
(S'37.7774047'
tRp184
sVlng
p185
g3
(S'-122.4414534'
tRp186
ssasVlocation
p187
(dp188
Vlat
p189
g3
(S'37.77723090000001'
tRp190
sVlng
p191
g3
(S'-122.4414266'
tRp192
sssVadr_address
p193
V<span class="street-address">1799 McAllister St</span>, <span class="locality">San Francisco</span>, <span class="region">CA</span> <span class="postal-code">94117</span>, <span class="country-name">United States</span>
p194
sVinternational_phone_number
p195
V+1 415-674-8699
p196
sVreviews
p197
(lp198
(dp199
Vrating
p200
I3
sVaspects
p201
(lp202
(dp203
Vrating
p204
I1
sVtype
p205
Voverall
p206
sasVprofile_photo_url
p207
V//lh5.googleusercontent.com/-3bstUyTWpJw/AAAAAAAAAAI/AAAAAAAAAEg/Xwnyg0RY8oA/photo.jpg
p208
sVlanguage
p209
Ven
p210
sVtext
p211
VThis is a nice coffee shop in western addition with a local feel. The $2.50 coffee of the day is decent and does the job to wake you up. If you want to come here to get some work done on your laptop however make sure you got plenty of battery. They turned off all the outlets in the common areas to keep folks from spending their day in there. I get they need to make money but would be better just to charge an hourly rate for laptop warriors to camp there. I will return but not too soon as there are plenty of other coffee shops to go and be productive at.
p212
sVauthor_name
p213
VJim Chambers
p214
sVauthor_url
p215
Vhttps://plus.google.com/113600890040051680777
p216
sVtime
p217
I1460665717
sa(dp218
Vrating
p219
I4
sVaspects
p220
(lp221
(dp222
Vrating
p223
I2
sVtype
p224
Voverall
p225
sasVprofile_photo_url
p226
V//lh3.googleusercontent.com/-1cYW8t63-LI/AAAAAAAAAAI/AAAAAAAASxU/Wa5wFRiaKD4/photo.jpg
p227
sVlanguage
p228
Ven
p229
sVtext
p230
VGreat coffee, great food, small space.  A victim of its own popularity, the biggest issue is finding a seat to enjoy your meal.
p231
sVauthor_name
p232
VJason Knox
p233
sVauthor_url
p234
Vhttps://plus.google.com/108114021398587132078
p235
sVtime
p236
I1447711698
sa(dp237
Vrating
p238
I4
sVaspects
p239
(lp240
(dp241
Vrating
p242
I2
sVtype
p243
Voverall
p244
sasVprofile_photo_url
p245
V//lh5.googleusercontent.com/-45OJvKkshIs/AAAAAAAAAAI/AAAAAAAAAGk/F7-8dC9JgOY/photo.jpg
p246
sVlanguage
p247
Ven
p248
sVtext
p249
VGood food, good staffs, like the atmosphere.
p250
sVauthor_name
p251
VChia-Yuan Hsiung
p252
sVauthor_url
p253
Vhttps://plus.google.com/109501157482622146495
p254
sVtime
p255
I1457897349
sa(dp256
Vrating
p257
I5
sVaspects
p258
(lp259
(dp260
Vrating
p261
I3
sVtype
p262
Voverall
p263
sasVprofile_photo_url
p264
V//lh5.googleusercontent.com/-nRVVs9g7a2M/AAAAAAAAAAI/AAAAAAACK8U/66jXTxS8fE0/photo.jpg
p265
sVlanguage
p266
Ven
p267
sVtext
p268
VChill folks, quite place to get stuff done. Great bowl of granola with yogurt.
p269
sVauthor_name
p270
VLuke Beard
p271
sVauthor_url
p272
Vhttps://plus.google.com/118291960673837671524
p273
sVtime
p274
I1451778126
sa(dp275
Vrating
p276
I5
sVaspects
p277
(lp278
(dp279
Vrating
p280
I3
sVtype
p281
Voverall
p282
sasVprofile_photo_url
p283
V//lh6.googleusercontent.com/-5wqu2FryH3w/AAAAAAAAAAI/AAAAAAAAQCw/UcJjZg82GyU/photo.jpg
p284
sVlanguage
p285
Ven
p286
sVtext
p287
VSuper cute cafe near Alamo square that I stopped in to get a beer. Nice IPA selection and great vibes, Very chill with great service. A lot of folks in there hanging out after work to soak up the good energy. 
p288
sVauthor_name
p289
VJulia Zasyatkina
p290
sVauthor_url
p291
Vhttps://plus.google.com/117435530388223357664
p292
sVtime
p293
I1433294281
sasVformatted_phone_number
p294
V(415) 674-8699
p295
sVaddress_components
p296
(lp297
(dp298
Vlong_name
p299
V1799
p300
sVtypes
p301
(lp302
Vstreet_number
p303
asVshort_name
p304
V1799
p305
sa(dp306
Vlong_name
p307
VMcAllister Street
p308
sVtypes
p309
(lp310
Vroute
p311
asVshort_name
p312
VMcAllister St
p313
sa(dp314
Vlong_name
p315
VSan Francisco
p316
sVtypes
p317
(lp318
Vlocality
p319
aVpolitical
p320
asVshort_name
p321
VSF
p322
sa(dp323
Vlong_name
p324
VCalifornia
p325
sVtypes
p326
(lp327
Vadministrative_area_level_1
p328
aVpolitical
p329
asVshort_name
p330
VCA
p331
sa(dp332
Vlong_name
p333
VUnited States
p334
sVtypes
p335
(lp336
Vcountry
p337
aVpolitical
p338
asVshort_name
p339
VUS
p340
sa(dp341
Vlong_name
p342
V94117
p343
sVtypes
p344
(lp345
Vpostal_code
p346
asVshort_name
p347
V94117
p348
sas.