(dp1
Vrating
p2
cdecimal
Decimal
p3
(S'4.4'
tRp4
sVreference
p5
VCmRfAAAATsITBTP9he_QwC7Cyvq0jT2uiOIxSj5nrfstxE9vkK33_s9Bl9TxlX3qUh688evrfrSLe5a6R1efsJISlBf2OgYlkqOzYa_Y5stdaCAZbgOorsppWQndSwBB7xSt6-lNEhDF3kBi-qd3eIqGNs-L6Q2zGhTHKmDCsnMIdKMC_gFqkk7M2aXVvg
p6
sVplace_id
p7
VChIJX5_Yk2GAhYARaRwC-z9Xig8
p8
sVurl
p9
Vhttps://maps.google.com/?cid=1119803389660765289
p10
sVformatted_address
p11
V252 California St, San Francisco, CA 94111, United States
p12
sVid
p13
V4fdabb1b3b5822dc416a7434bbae5bab6010ed7b
p14
sVopening_hours
p15
(dp16
Vweekday_text
p17
(lp18
VMonday: 11:30 AM \u2013 2:00 PM, 5:30 \u2013 10:00 PM
p19
aVTuesday: 11:30 AM \u2013 2:00 PM, 5:30 \u2013 10:00 PM
p20
aVWednesday: 11:30 AM \u2013 2:00 PM, 5:30 \u2013 10:00 PM
p21
aVThursday: 11:30 AM \u2013 2:00 PM, 5:30 \u2013 10:00 PM
p22
aVFriday: 11:30 AM \u2013 2:00 PM, 5:30 \u2013 10:30 PM
p23
aVSaturday: 5:30 \u2013 10:30 PM
p24
aVSunday: 5:30 \u2013 9:30 PM
p25
asVopen_now
p26
I00
sVperiods
p27
(lp28
(dp29
Vclose
p30
(dp31
Vday
p32
I0
sVtime
p33
V2130
p34
ssVopen
p35
(dp36
Vday
p37
I0
sVtime
p38
V1730
p39
ssa(dp40
Vclose
p41
(dp42
Vday
p43
I1
sVtime
p44
V1400
p45
ssVopen
p46
(dp47
Vday
p48
I1
sVtime
p49
V1130
p50
ssa(dp51
Vclose
p52
(dp53
Vday
p54
I1
sVtime
p55
V2200
p56
ssVopen
p57
(dp58
Vday
p59
I1
sVtime
p60
V1730
p61
ssa(dp62
Vclose
p63
(dp64
Vday
p65
I2
sVtime
p66
V1400
p67
ssVopen
p68
(dp69
Vday
p70
I2
sVtime
p71
V1130
p72
ssa(dp73
Vclose
p74
(dp75
Vday
p76
I2
sVtime
p77
V2200
p78
ssVopen
p79
(dp80
Vday
p81
I2
sVtime
p82
V1730
p83
ssa(dp84
Vclose
p85
(dp86
Vday
p87
I3
sVtime
p88
V1400
p89
ssVopen
p90
(dp91
Vday
p92
I3
sVtime
p93
V1130
p94
ssa(dp95
Vclose
p96
(dp97
Vday
p98
I3
sVtime
p99
V2200
p100
ssVopen
p101
(dp102
Vday
p103
I3
sVtime
p104
V1730
p105
ssa(dp106
Vclose
p107
(dp108
Vday
p109
I4
sVtime
p110
V1400
p111
ssVopen
p112
(dp113
Vday
p114
I4
sVtime
p115
V1130
p116
ssa(dp117
Vclose
p118
(dp119
Vday
p120
I4
sVtime
p121
V2200
p122
ssVopen
p123
(dp124
Vday
p125
I4
sVtime
p126
V1730
p127
ssa(dp128
Vclose
p129
(dp130
Vday
p131
I5
sVtime
p132
V1400
p133
ssVopen
p134
(dp135
Vday
p136
I5
sVtime
p137
V1130
p138
ssa(dp139
Vclose
p140
(dp141
Vday
p142
I5
sVtime
p143
V2230
p144
ssVopen
p145
(dp146
Vday
p147
I5
sVtime
p148
V1730
p149
ssa(dp150
Vclose
p151
(dp152
Vday
p153
I6
sVtime
p154
V2230
p155
ssVopen
p156
(dp157
Vday
p158
I6
sVtime
p159
V1730
p160
ssassVvicinity
p161
V252 California Street, San Francisco
p162
sVscope
p163
VGOOGLE
p164
sVwebsite
p165
Vhttp://www.michaelmina.net/
p166
sVutc_offset
p167
I-420
sVuser_ratings_total
p168
I111
sVphotos
p169
(lp170
(dp171
Vphoto_reference
p172
VCmRdAAAAt5dfJMejzsOEmoD9WwoThq1E0uXE6rQq5DgMXifR9Qh0C3UARn1TygkxmLnjzNA9Dt0OEqcrpsd7D2wtQGkMNFmHkaYtSq8lwuWEiApJZO1GIN4hWb-q_HvFcKwtQTmsEhD4BQGtXjvwu1INnj5n0nPeGhRlFxG9V5R1RSirWfJGOt-ftsXUYg
p173
sVwidth
p174
I1306
sVhtml_attributions
p175
(lp176
V<a href="https://maps.google.com/maps/contrib/104111246635874032234/photos">ZAGAT</a>
p177
asVheight
p178
I979
sa(dp179
Vphoto_reference
p180
VCmRdAAAA2eVSmQhopVLJaKnLdFG4oUq8Fxg92j7vBbyhV_LuK0urNmNZr2B857g3evfki_3D5y2YA0FOwzjhhA0fV7lomVQc9MVyv3grFtpMMSB4PfSd_bPEIQorwahXQH9sLUKDEhA2_MbxkkvkzyBiY5ee9a3LGhRUJjiCMP2LZcwgswPxA-Y5X5Mg-A
p181
sVwidth
p182
I1266
sVhtml_attributions
p183
(lp184
V<a href="https://maps.google.com/maps/contrib/104111246635874032234/photos">ZAGAT</a>
p185
asVheight
p186
I942
sa(dp187
Vphoto_reference
p188
VCmRdAAAAf0ZX7XpFHXgTwcBpx7e_wmQkhVjlg_OxvDWOmSd4dbm3VXDe5qrsK4SHLQLYTjytrc9_NqES6xHZPpiWZoodFLXTIglXLghrPS8KSme2PZDCNnkqnwdfe5xI8IcaZKPZEhBIeqeCntV4rcvSrHO7rUsBGhQ1JS5nk6pPt0ZcIGcUZN2dd3Xg-g
p189
sVwidth
p190
I2048
sVhtml_attributions
p191
(lp192
V<a href="https://maps.google.com/maps/contrib/104111246635874032234/photos">ZAGAT</a>
p193
asVheight
p194
I1504
sa(dp195
Vphoto_reference
p196
VCmRdAAAAyvmZ3B51OlVc4D1Dk5sXAfnOjrBVj6FRVtsZHebpK1tvm-wzwe2uNHXorLwg5wyHbRP-ms_v9Ttk5Xq0fKQHDKDhDAkHhy1K6wg1YGJ0aHBJPJxKt9L6kAB674pE3uceEhAMYA58vk9hk-ENi4IsWbk1GhRiO7VVx2ai8rMc3sJsZmpl4ZhGkw
p197
sVwidth
p198
I1257
sVhtml_attributions
p199
(lp200
V<a href="https://maps.google.com/maps/contrib/104111246635874032234/photos">ZAGAT</a>
p201
asVheight
p202
I945
sa(dp203
Vphoto_reference
p204
VCoQBcwAAAMwwjwD2q6wIOrxwvClzjisKdrfXKjZMa_xoVkbanwOiYmy2_BE94pphKh0Rb54h55uKLe1brzc-5y59AIleDShySYG94ZpUq6CJjO9TaAbBfuKOMlbbXM_RnanxBsmGQHW0n58UziLbvVsSzF6_D_lNPnxAmy_C1NlbtaKV1j-UEhCr6B4veKzKv95RF6aF6UDeGhSj-YW3jB2Ddrt3l936o-NPivLVJA
p205
sVwidth
p206
I2448
sVhtml_attributions
p207
(lp208
V<a href="https://maps.google.com/maps/contrib/111717262311636103965/photos">John Gelb</a>
p209
asVheight
p210
I3264
sa(dp211
Vphoto_reference
p212
VCoQBcwAAAGV7onVZglLkv5iZtCrk_2PRLr-OfUz4kmeBq9CExWqoh3_tMswmJkiw-ATh0yLMKA2Q4WBqmrSduA8x8Nz3cvOjI2xGebdwU9WDjW12Gh4BqYSn-zAkwOprD76Qjs4EPmW170uQQdPrsweGIcZ9vZBYdjKWsxP_h0aDZYgnygNQEhC4wVeaOCrOYr4qJrzemZWOGhSWW7ZfO2h9z1rFBCraQNffnWacQw
p213
sVwidth
p214
I2048
sVhtml_attributions
p215
(lp216
V<a href="https://maps.google.com/maps/contrib/111769688520042888595/photos">Bradley Berkin</a>
p217
asVheight
p218
I1536
sa(dp219
Vphoto_reference
p220
VCoQBdwAAAAC1JwlXezgEgYrkZ8ZLAn4sEt3hQxW0-CR0NKvPEwgHRwDDwW-pBOKd2FPKpF_R9gY_mQ5AMTO18bPqk9NVKj-SRlXpHojSazfdRPVNtVe-rDqgdedQynuj-fPlAhUKLPVMqOcEXoqpM1zvI2S4dPWdcpMO1jym0BVntreeeRSTEhDcmSm_HG0yLYAMWO3yw4jtGhROOCpzIswkayg90ww_HR57gV0gsg
p221
sVwidth
p222
I3024
sVhtml_attributions
p223
(lp224
V<a href="https://maps.google.com/maps/contrib/109576891911077510371/photos">Vanessa Merino</a>
p225
asVheight
p226
I5376
sa(dp227
Vphoto_reference
p228
VCmRdAAAAj3qXxrinp1Kpm2xNL16BR7ckPMqBV6sRhPpgDu2oWWfXSnEthpQv6gCg7UhtPu8FM3PUPpSqvE466d-_VuJnKcefrbj85A_ei1fiv2b7AG5cqewHkVqQj3oGU7cdll6rEhCEUiAaKHdlAr4e43WDe8P3GhTFOuNo7f1o4CQ2YJ0_r8QOq4FGxQ
p229
sVwidth
p230
I3264
sVhtml_attributions
p231
(lp232
V<a href="https://maps.google.com/maps/contrib/108086881826934773478/photos">Alex Mackenzie Torres</a>
p233
asVheight
p234
I2448
sa(dp235
Vphoto_reference
p236
VCmRdAAAAEXN2x0K6I66jz_FP9rm2-K61jQe_-pAm_UJXhRbp4a64FaB7zxTlxaqqunPvIsXNZtBKH5Nqe5zs4hZJ9b0yWn6S-jTLchuCMea2MyGhbWkJEBR4om25IYlRN3VxS-2iEhDhP19aVZiLrLzdcCIppnvWGhSvwUUbl0Tm12XRAlwRT4dPbcfJaw
p237
sVwidth
p238
I1306
sVhtml_attributions
p239
(lp240
V<a href="https://maps.google.com/maps/contrib/104111246635874032234/photos">ZAGAT</a>
p241
asVheight
p242
I979
sa(dp243
Vphoto_reference
p244
VCoQBcwAAAJW21rL-GFV-sy9zA3DvGNmdrdoU74xDCla0yGCUNy3IVD5vok_9dbTh3yhp7lXN6OmO5InVycjDeY37UnI7uVfGZqFtUWO5MZrT047tUuU2Mqsccph6nnMBRW1S4QxQjGlUFu1_5kCQk_BFSWo3REdb7o27owBLOg1Nah0iBMInEhCfE-U5fUI07CbB5pokVQlTGhRCjISIek0N7wyhudq9usHySAG7wg
p245
sVwidth
p246
I2988
sVhtml_attributions
p247
(lp248
V<a href="https://maps.google.com/maps/contrib/102514496830484621248/photos">Nicole Sears</a>
p249
asVheight
p250
I5312
sasVtypes
p251
(lp252
Vmeal_delivery
p253
aVbar
p254
aVrestaurant
p255
aVfood
p256
aVpoint_of_interest
p257
aVestablishment
p258
asVicon
p259
Vhttps://maps.gstatic.com/mapfiles/place_api/icons/generic_business-71.png
p260
sVname
p261
VMichael Mina
p262
sVgeometry
p263
(dp264
Vaccess_points
p265
(lp266
(dp267
Vtravel_modes
p268
(lp269
VDRIVING
p270
aVBICYCLING
p271
aVWALKING
p272
aVTRANSIT
p273
asVlocation
p274
(dp275
Vlat
p276
g3
(S'37.7932805'
tRp277
sVlng
p278
g3
(S'-122.3995637'
tRp279
ssasVlocation
p280
(dp281
Vlat
p282
g3
(S'37.7934875'
tRp283
sVlng
p284
g3
(S'-122.3996046'
tRp285
sssVadr_address
p286
V<span class="street-address">252 California St</span>, <span class="locality">San Francisco</span>, <span class="region">CA</span> <span class="postal-code">94111</span>, <span class="country-name">United States</span>
p287
sVinternational_phone_number
p288
V+1 415-397-9222
p289
sVreviews
p290
(lp291
(dp292
Vrating
p293
I5
sVaspects
p294
(lp295
(dp296
Vrating
p297
I3
sVtype
p298
Voverall
p299
sasVprofile_photo_url
p300
V//lh4.googleusercontent.com/-jIIsBB3DgMA/AAAAAAAAAAI/AAAAAAAABH0/MWLTJcTdVYk/photo.jpg
p301
sVlanguage
p302
Ven
p303
sVtext
p304
VWhat's there to stay.  A premium SF restaurant.  Super nice.  Great food.  Great service.  Great for nice dates.  Great for fancy client meals.  Great all around.
p305
sVauthor_name
p306
VEthan Silvers
p307
sVauthor_url
p308
Vhttps://plus.google.com/103592459257293332549
p309
sVtime
p310
I1447865126
sa(dp311
Vrating
p312
I5
sVaspects
p313
(lp314
(dp315
Vrating
p316
I3
sVtype
p317
Voverall
p318
sasVprofile_photo_url
p319
V//lh5.googleusercontent.com/-JWKQYTqjPoI/AAAAAAAAAAI/AAAAAAAAABE/xa11H1haVyU/photo.jpg
p320
sVlanguage
p321
Ven
p322
sVtext
p323
VHaving just moved to the neighborhood I have been curious to try a few local haunts. This is a Michael Mina throw from my place - and will likely become a favorite. The menu is small but carefully curated. The drinks are fantastic Michael Mina and the vibe is easy. The few times I've been here we've had a great time just saddling up to the Michael Mina . Also, shout out to the Manager - not only has the place assembled a great crew, but everyone is so welcoming and attentive!
p324
sVauthor_name
p325
VRob Kendrick
p326
sVauthor_url
p327
Vhttps://plus.google.com/116901204184247160254
p328
sVtime
p329
I1440675360
sa(dp330
Vrating
p331
I4
sVaspects
p332
(lp333
(dp334
Vrating
p335
I2
sVtype
p336
Voverall
p337
sasVprofile_photo_url
p338
V//lh6.googleusercontent.com/-Iklvumd0osE/AAAAAAAAAAI/AAAAAAAAAP8/D8naFOQYdyo/photo.jpg
p339
sVlanguage
p340
Ven
p341
sVtext
p342
VI had a really nice birthday dinner here.\u000a\u000aMy friend notified them ahead of time that it was my birthday and I was welcomed into the restaurant with birthday wishes, to the table with a handwritten birthday card from the manager, wished well multiple times throughout the meal by servers, and treated to a piece of cake for dessert. It was a very nice touch!\u000a\u000aWe did the trio tasting menu and requested wine pairings, which doesn't seem to be standard for that menu. We were both started off with a little welcome trio which included a stone fruit gel, some kind of lobster bite with pesto, and pureed tofu. All were good, though the lobster pesto one was fantastic. We were also served bread with a mascarpone/ricotta/honey mix, which was super creamy and sweet and awesome. I could have just eaten tubs of this all night, but alas..\u000a\u000aI ordered the tuna tartare, the butter-poached lobster, and the cheese plate. The tuna tartare was outstanding, featuring strong sesame flavors, nice texture from the pine nuts, and a light kick from the scotch bonnets. The lobster was good as a whole, but not amazing. Each of the trios had a claw piece and a tail piece. The first of the three was fantastic, with chantarelles and tobiko on top, perfectly playing off the buttery lobster. The second and third were just ok... the second felt TOO creamy and heavy, almost butterscotchy, which took the focus off the lobster. The third was a risotto of sorts, which again, felt too creamy to show off the lobster flavor and was congealed by the time I got to it. The cheese was a solid end to the meal, with a brie-type cheese with tomato and olive, a goat-style cheese with caraway and honey, and a blue-style with chocolate dusting and fig. Each very different and each really delicious in their own way.\u000a\u000aMy friend got the sashimi tasting, the duck/foie, and the dessert plate. The sashimi was very nice, some light, some buttery, and a nice sampling of three different fishes. The duck/foie was outrageously good, each bite better than the last. The first was perfectly rare, the second was wrapped in bacon and had an awesome pop from the accompanying berries, and the foie was perfectly melt in your mouth fatty deliciousness. This was definitely the trio of the night. The desserts were good, but I'm not a big sweet person, so nothing really stood out here for me.\u000a\u000aAll the wine pairings were perfectly done, playing well off the food and keeping us happily tipsy. Overall, this was a delightful meal with great service and I hope to come back and visit again sometime soon!
p343
sVauthor_name
p344
VSamantha Berg
p345
sVauthor_url
p346
Vhttps://plus.google.com/107767768560438055175
p347
sVtime
p348
I1441325239
sa(dp349
Vrating
p350
I4
sVaspects
p351
(lp352
(dp353
Vrating
p354
I2
sVtype
p355
Voverall
p356
sasVprofile_photo_url
p357
V//lh6.googleusercontent.com/-QlTfd3N1oPs/AAAAAAAAAAI/AAAAAAAASpg/MPh9gEvGSHg/photo.jpg
p358
sVlanguage
p359
Ven
p360
sVtext
p361
Vnice decor and ambience. friendly staff. food's great too.
p362
sVauthor_name
p363
VChow Mein
p364
sVauthor_url
p365
Vhttps://plus.google.com/103686174324826885002
p366
sVtime
p367
I1449306896
sa(dp368
Vrating
p369
I5
sVaspects
p370
(lp371
(dp372
Vrating
p373
I3
sVtype
p374
Voverall
p375
sasVprofile_photo_url
p376
V//lh6.googleusercontent.com/-mwd1YXKUtSU/AAAAAAAAAAI/AAAAAAAAB_E/swGRXQclT4k/photo.jpg
p377
sVlanguage
p378
Ven
p379
sVtext
p380
VAbsolutely perfect from start to finish. No complaints what so ever. My wife and I had an incredible dining experience.
p381
sVauthor_name
p382
VPhil Swindle
p383
sVauthor_url
p384
Vhttps://plus.google.com/102172810327145936622
p385
sVtime
p386
I1442840369
sasVformatted_phone_number
p387
V(415) 397-9222
p388
sVaddress_components
p389
(lp390
(dp391
Vlong_name
p392
V252
p393
sVtypes
p394
(lp395
Vstreet_number
p396
asVshort_name
p397
V252
p398
sa(dp399
Vlong_name
p400
VCalifornia Street
p401
sVtypes
p402
(lp403
Vroute
p404
asVshort_name
p405
VCalifornia St
p406
sa(dp407
Vlong_name
p408
VSan Francisco
p409
sVtypes
p410
(lp411
Vlocality
p412
aVpolitical
p413
asVshort_name
p414
VSF
p415
sa(dp416
Vlong_name
p417
VCalifornia
p418
sVtypes
p419
(lp420
Vadministrative_area_level_1
p421
aVpolitical
p422
asVshort_name
p423
VCA
p424
sa(dp425
Vlong_name
p426
VUnited States
p427
sVtypes
p428
(lp429
Vcountry
p430
aVpolitical
p431
asVshort_name
p432
VUS
p433
sa(dp434
Vlong_name
p435
V94111
p436
sVtypes
p437
(lp438
Vpostal_code
p439
asVshort_name
p440
V94111
p441
sas.