(dp1
Vrating
p2
cdecimal
Decimal
p3
(S'4.5'
tRp4
sVreference
p5
VCmRcAAAANRebBBikJNRS0QcndpmT3uQFHAp92GwvxK0UrR9zj0b7BiyrBOHe08cnjVH8IsR92P4Q2I3x9cuNgsLIFw4VirL69XPIEhBVYA4W571eOl2VZQ8y5iio2Nt1MUrJHpm4EhA6qFQmYKOB_cqFLkqwXJh_GhSgcQGjJ7OgulQGp12xt-7eTOJDBQ
p6
sVprice_level
p7
I2
sVplace_id
p8
VChIJU296vBh-j4ARpjagql8QEPY
p9
sVurl
p10
Vhttps://maps.google.com/?cid=17730689736028206758
p11
sVformatted_address
p12
V3228 16th St, San Francisco, CA 94103, United States
p13
sVid
p14
Vacec0bd765bccbbdf742fe4e917812a05f1a8b79
p15
sVopening_hours
p16
(dp17
Vweekday_text
p18
(lp19
VMonday: Closed
p20
aVTuesday: 5:30 \u2013 10:00 PM
p21
aVWednesday: 5:30 \u2013 10:00 PM
p22
aVThursday: 5:30 \u2013 10:00 PM
p23
aVFriday: 5:30 \u2013 11:00 PM
p24
aVSaturday: 5:00 \u2013 11:00 PM
p25
aVSunday: 5:00 \u2013 10:00 PM
p26
asVopen_now
p27
I01
sVperiods
p28
(lp29
(dp30
Vclose
p31
(dp32
Vday
p33
I0
sVtime
p34
V2200
p35
ssVopen
p36
(dp37
Vday
p38
I0
sVtime
p39
V1700
p40
ssa(dp41
Vclose
p42
(dp43
Vday
p44
I2
sVtime
p45
V2200
p46
ssVopen
p47
(dp48
Vday
p49
I2
sVtime
p50
V1730
p51
ssa(dp52
Vclose
p53
(dp54
Vday
p55
I3
sVtime
p56
V2200
p57
ssVopen
p58
(dp59
Vday
p60
I3
sVtime
p61
V1730
p62
ssa(dp63
Vclose
p64
(dp65
Vday
p66
I4
sVtime
p67
V2200
p68
ssVopen
p69
(dp70
Vday
p71
I4
sVtime
p72
V1730
p73
ssa(dp74
Vclose
p75
(dp76
Vday
p77
I5
sVtime
p78
V2300
p79
ssVopen
p80
(dp81
Vday
p82
I5
sVtime
p83
V1730
p84
ssa(dp85
Vclose
p86
(dp87
Vday
p88
I6
sVtime
p89
V2300
p90
ssVopen
p91
(dp92
Vday
p93
I6
sVtime
p94
V1700
p95
ssassVvicinity
p96
V3228 16th Street, San Francisco
p97
sVscope
p98
VGOOGLE
p99
sVwebsite
p100
Vhttp://www.mozzeria.com/
p101
sVutc_offset
p102
I-420
sVuser_ratings_total
p103
I52
sVphotos
p104
(lp105
(dp106
Vphoto_reference
p107
VCmRdAAAA1pKUf5vx2NTgmaytDOWOWAa5qntx5LJmNsOvI_pHD6-HszfkfEHq13hqRbVbhlyJt_wql-vmNEHhQG50UyCXLp5lmVD5USJpEXXYFYxyArb5kx8HiMDk-77HIu4NH7vWEhBtapm_PbVwvqle0n9n85Q5GhR7R8KX7WMTKVTmUXtBr3XG2D3uKw
p108
sVwidth
p109
I2048
sVhtml_attributions
p110
(lp111
V<a href="https://maps.google.com/maps/contrib/107947345471239338927/photos">Melody Stein</a>
p112
asVheight
p113
I1365
sa(dp114
Vphoto_reference
p115
VCmRdAAAAB8UlWBPUnBFnBwAn6a4a_xO-jrvIe-Vjz7_vRe8d3Xk_8KobHcIrefJaMzE-Lm5MjM9EnFBDZOXVAJjtPG9vtpQ4c5iE_OpLsD_BJ2L6Wr7DTBqlWVcFTHXgjtQ8kNghEhBFcctNbbTLIhbG508px2_0GhSf1T76y_5NhaE0GMxSWeOkbH97jw
p116
sVwidth
p117
I3264
sVhtml_attributions
p118
(lp119
V<a href="https://maps.google.com/maps/contrib/113861163979876786447/photos">Todd Hammond</a>
p120
asVheight
p121
I2448
sa(dp122
Vphoto_reference
p123
VCmRdAAAAB9fZXNWj7JBz_fNBz9n6PZZiL0NRqDH19CvWYvwU8ak_qY9--sH2PVhjYCAGeZKbTiJoJ3Lu1nAAsYUZaRLN5ke1cv_8-2NrIJBShpjxRV-EuMqoHhH0PdD_CbyhRpvAEhBELnLeA3u0xyZfSTPNHu6bGhR4ViLWdLtEXWUTjaeiGSxZAMpX5A
p124
sVwidth
p125
I2048
sVhtml_attributions
p126
(lp127
V<a href="https://maps.google.com/maps/contrib/107947345471239338927/photos">Melody Stein</a>
p128
asVheight
p129
I1365
sa(dp130
Vphoto_reference
p131
VCmRdAAAAdPoNr6rrqSJYZnn_kZrzkipaQdAOwGM0zAE02QbS6gOsV_dRjMe6IomewfTbP4YSiVAc3rSJKng2zks4m3a-qiU_cowCS0d0pIUFD7IKCNpCRRB_QEcL8v5kUpeyE566EhDiBN_X_xZmWc6c010fz-jaGhQ9UQTMtHEfNU1LHYgOcI8iqWxb8g
p132
sVwidth
p133
I1536
sVhtml_attributions
p134
(lp135
V<a href="https://maps.google.com/maps/contrib/107947345471239338927/photos">Melody Stein</a>
p136
asVheight
p137
I2048
sa(dp138
Vphoto_reference
p139
VCmRdAAAAeIVa-EQeraGAXemh8vAGr36jCM9VB2zAM_pNp4uT9C1xNBjbzwHXy3EXhqgNf3dZpwX9DK6ia-vRjvkFwLDkExmPjqsYcgQZkdimkxqP7irK7CoOFxx9HETcF2o4fyAtEhDWHCB-VbQkmraEmZ9KSx6xGhQRSFHLDA3oHXYwd41fomDmod61Ew
p140
sVwidth
p141
I3264
sVhtml_attributions
p142
(lp143
V<a href="https://maps.google.com/maps/contrib/113861163979876786447/photos">Todd Hammond</a>
p144
asVheight
p145
I2448
sa(dp146
Vphoto_reference
p147
VCoQBcwAAANzCk_tL5_eGtqbY8PsxvpWftXY2RtxpJZWacEAyv4jvks-hNn9nE0-OG8FeoS8yX3Y6R3MPF5-CakprDbz-Kh1lPCClGzDaE5ATyF5VSnvcZ9B5suSSsjpzkmWTcHKiyGaWFD7_wN2-MiXWZr3ygukwpE7yacmLSjQUtIhgZ22nEhAShELO1yniG1B16W2unoslGhRmBEKfAJF4elml0Ts6VDbvxnu8dg
p148
sVwidth
p149
I3264
sVhtml_attributions
p150
(lp151
V<a href="https://maps.google.com/maps/contrib/113861163979876786447/photos">Todd Hammond</a>
p152
asVheight
p153
I2448
sa(dp154
Vphoto_reference
p155
VCmRdAAAAeKv3L3D-7WYlOERS-anRd8ZGgWT91pvr-ilVAtqPoRi2q7m-7Mr04t1rzfMXUpTB6GMrks2gvVsg-FzqPbQlyoOvtLszGkRsMK1tinEWMHONg69wHtnV-9Fz1EMHOOvYEhA5q9cOoEyFR4zk_dPEJcEUGhSeUfFYlu52mZv60JxW3Uzrtz0RzQ
p156
sVwidth
p157
I768
sVhtml_attributions
p158
(lp159
V<a href="https://maps.google.com/maps/contrib/114832380918896847951/photos">Deby Lepage</a>
p160
asVheight
p161
I1024
sa(dp162
Vphoto_reference
p163
VCmRdAAAAWoeW0MSC5UkFz6ahPFBlzvwxqWEHO4Uth5uHCKgjL52s7J2vWkmOXhpTzlTAiPg1Syxn85GtDw5SLZ68YnOuvAHvWXpw3Qd5UUjWGbvjjjHPZzsXiZGa8s-eee-AXx6tEhCMz8qEhNXwDta2pNyU59VtGhTWKfsItcimyAVaHpQpiSat9SCnzw
p164
sVwidth
p165
I2048
sVhtml_attributions
p166
(lp167
V<a href="https://maps.google.com/maps/contrib/104619438765856213207/photos">Mozzeria</a>
p168
asVheight
p169
I1365
sa(dp170
Vphoto_reference
p171
VCmRdAAAA47MBmNGgIQdw5VHRJimw3VfjgQrI3T_Cr8GaI1rEq2m7qd18cVULCIPqnnuirLbcAhKmriYSOpMwFm-EPKXX76SWDYgkWXbf-UwHk7pxTDQVXZZte89BNU8nDrJaYT4TEhDSYNVDQRhHW70FVu44UqJBGhRIfRYJjOhcOhIsCE4HgbozzJ3MAw
p172
sVwidth
p173
I320
sVhtml_attributions
p174
(lp175
V<a href="https://maps.google.com/maps/contrib/104619438765856213207/photos">Mozzeria</a>
p176
asVheight
p177
I240
sa(dp178
Vphoto_reference
p179
VCoQBcwAAAFRHp3B9Imi7Rr-kJlXcLj5olDNGxblaMp8nGGQIKmdXKgDsQWlKRNL5E-d3Ru___Qd-iyGkCDFy3uVmOQJsQO6-SQgWLTlArQTpPh6mq_DLoIwRJJmfW160KoiYD5YREwL2u3WMVYdxNrGvFu5Hdfu0d0btngnsO-8xww1VYM2cEhD8Rj0Fa01YsF0bKKY-ehwhGhRFVhh2__C-59dCm35MVg8bv1LdFg
p180
sVwidth
p181
I3264
sVhtml_attributions
p182
(lp183
V<a href="https://maps.google.com/maps/contrib/113861163979876786447/photos">Todd Hammond</a>
p184
asVheight
p185
I2448
sasVtypes
p186
(lp187
Vbar
p188
aVrestaurant
p189
aVfood
p190
aVpoint_of_interest
p191
aVestablishment
p192
asVicon
p193
Vhttps://maps.gstatic.com/mapfiles/place_api/icons/restaurant-71.png
p194
sVname
p195
VMozzeria
p196
sVgeometry
p197
(dp198
Vaccess_points
p199
(lp200
(dp201
Vtravel_modes
p202
(lp203
VDRIVING
p204
aVBICYCLING
p205
aVWALKING
p206
aVTRANSIT
p207
asVlocation
p208
(dp209
Vlat
p210
g3
(S'37.7647479'
tRp211
sVlng
p212
g3
(S'-122.4248571'
tRp213
ssasVlocation
p214
(dp215
Vlat
p216
g3
(S'37.7649216'
tRp217
sVlng
p218
g3
(S'-122.4249012'
tRp219
sssVadr_address
p220
V<span class="street-address">3228 16th St</span>, <span class="locality">San Francisco</span>, <span class="region">CA</span> <span class="postal-code">94103-3335</span>, <span class="country-name">United States</span>
p221
sVinternational_phone_number
p222
V+1 415-489-0963
p223
sVreviews
p224
(lp225
(dp226
Vrating
p227
I5
sVaspects
p228
(lp229
(dp230
Vrating
p231
I3
sVtype
p232
Voverall
p233
sasVprofile_photo_url
p234
V//lh4.googleusercontent.com/-l_eTrPKkjcg/AAAAAAAAAAI/AAAAAAAAERU/pJ0x2Qg7LXQ/photo.jpg
p235
sVlanguage
p236
Ven
p237
sVtext
p238
VThe eggplant parmigiana was awesome.  Burrata and pie were really good too.  The service was better than most.  Would definitely come back and try other items.
p239
sVauthor_name
p240
VJung Kim
p241
sVauthor_url
p242
Vhttps://plus.google.com/117257794115423280661
p243
sVtime
p244
I1456541338
sa(dp245
Vrating
p246
I5
sVaspects
p247
(lp248
(dp249
Vrating
p250
I3
sVtype
p251
Voverall
p252
sasVprofile_photo_url
p253
V//lh6.googleusercontent.com/-ROwr1rlorSY/AAAAAAAAAAI/AAAAAAAAAOU/EypT3qE4jLs/photo.jpg
p254
sVlanguage
p255
Ven
p256
sVtext
p257
VWe went to one of their food truck stop and had Margherita pizza and Italian sausage pizza along with lemonade with thyme and ginger iced tea. Yum! Worth every bite!! Will visit again soon. Great service and very welcoming!! 
p258
sVauthor_name
p259
VPatty Germundson
p260
sVauthor_url
p261
Vhttps://plus.google.com/107410407064270560444
p262
sVtime
p263
I1432502366
sa(dp264
Vrating
p265
I5
sVaspects
p266
(lp267
(dp268
Vrating
p269
I3
sVtype
p270
Voverall
p271
sasVprofile_photo_url
p272
V//lh6.googleusercontent.com/-Gv47eS41yCk/AAAAAAAAAAI/AAAAAAAACuM/ec4SGZuHygY/photo.jpg
p273
sVlanguage
p274
Ven
p275
sVtext
p276
VAmazing food! Friendly and fast service. A great learning experience in ASL. Loved it. \u000a\u000aThe pizza was perfect. We had an Italian sausage pizza... The white garlic sauce was killer. Definitely recommend. 
p277
sVauthor_name
p278
VJohn Fisher
p279
sVauthor_url
p280
Vhttps://plus.google.com/112269299667440572803
p281
sVtime
p282
I1449369610
sa(dp283
Vrating
p284
I4
sVaspects
p285
(lp286
(dp287
Vrating
p288
I2
sVtype
p289
Voverall
p290
sasVprofile_photo_url
p291
V//lh4.googleusercontent.com/-7Vd1cE5EiF0/AAAAAAAAAAI/AAAAAAAAuOE/pp343y_JSyo/photo.jpg
p292
sVlanguage
p293
Ven
p294
sVtext
p295
VGreat thin crust pizza. We had the family style $25/per person meal with all the courses and it was fun (and tasty salads and cheeses). Also, got to practice some ASL. 
p296
sVauthor_name
p297
VTodd Hammond
p298
sVauthor_url
p299
Vhttps://plus.google.com/113861163979876786447
p300
sVtime
p301
I1448424977
sa(dp302
Vrating
p303
I5
sVaspects
p304
(lp305
(dp306
Vrating
p307
I3
sVtype
p308
Voverall
p309
sasVprofile_photo_url
p310
V//lh5.googleusercontent.com/-VWGoistVMRM/AAAAAAAAAAI/AAAAAAAABAQ/X8kyuEEKMc0/photo.jpg
p311
sVlanguage
p312
Ven
p313
sVtext
p314
VWe loved this place! The pizza were really good and not the same ingredients you are used to. We ate the one with duck and hoisin suce and loved it. \u000aWe were not that hungey and share a pizza, it was the perfect amount :) 
p315
sVauthor_name
p316
VEirik Askheim
p317
sVauthor_url
p318
Vhttps://plus.google.com/105097849244911067014
p319
sVtime
p320
I1441724136
sasVformatted_phone_number
p321
V(415) 489-0963
p322
sVaddress_components
p323
(lp324
(dp325
Vlong_name
p326
V3228
p327
sVtypes
p328
(lp329
Vstreet_number
p330
asVshort_name
p331
V3228
p332
sa(dp333
Vlong_name
p334
V16th Street
p335
sVtypes
p336
(lp337
Vroute
p338
asVshort_name
p339
V16th St
p340
sa(dp341
Vlong_name
p342
VSan Francisco
p343
sVtypes
p344
(lp345
Vlocality
p346
aVpolitical
p347
asVshort_name
p348
VSF
p349
sa(dp350
Vlong_name
p351
VCalifornia
p352
sVtypes
p353
(lp354
Vadministrative_area_level_1
p355
aVpolitical
p356
asVshort_name
p357
VCA
p358
sa(dp359
Vlong_name
p360
VUnited States
p361
sVtypes
p362
(lp363
Vcountry
p364
aVpolitical
p365
asVshort_name
p366
VUS
p367
sa(dp368
Vlong_name
p369
V94103
p370
sVtypes
p371
(lp372
Vpostal_code
p373
asVshort_name
p374
V94103
p375
sa(dp376
Vlong_name
p377
V3335
p378
sVtypes
p379
(lp380
Vpostal_code_suffix
p381
asVshort_name
p382
V3335
p383
sas.