(dp1
Vwebsite
p2
Vhttps://www.navy-lodge.com/lodge_page.html?p_lodge_number=8
p3
sVutc_offset
p4
I-420
sVuser_ratings_total
p5
I4
sVname
p6
VNavy Lodge
p7
sVreference
p8
VCmReAAAAA3bk61w9186deqhk7QyzTCr8kWcB72inHDuso1ztPQmiKNNN-NbC5HVTBiCDiykw58LT91y1WPHN_MDA97_FIahpXlfZJ1yQBM1j5rBmlmFozDG589wN3qsq49pEfYYlEhBYUb8kBtPEqz-YZ_YDRqfWGhTyFevbQUAmg-vw3ZjyalUdrjl5Zw
p9
sVgeometry
p10
(dp11
Vaccess_points
p12
(lp13
(dp14
Vtravel_modes
p15
(lp16
VDRIVING
p17
aVBICYCLING
p18
aVWALKING
p19
aVTRANSIT
p20
asVlocation
p21
(dp22
Vlat
p23
cdecimal
Decimal
p24
(S'37.41028490000001'
tRp25
sVlng
p26
g24
(S'-122.0655566'
tRp27
ssasVlocation
p28
(dp29
Vlat
p30
g24
(S'37.4105662'
tRp31
sVlng
p32
g24
(S'-122.065553'
tRp33
sssVadr_address
p34
V<span class="street-address">593 Vernon Ave</span>, <span class="locality">Mountain View</span>, <span class="region">CA</span> <span class="postal-code">94043</span>, <span class="country-name">United States</span>
p35
sVplace_id
p36
VChIJczNmRkO3j4ARSoz3BPBebZw
p37
sVinternational_phone_number
p38
V+1 650-962-1542
p39
sVvicinity
p40
V593 Vernon Avenue, Mountain View
p41
sVreviews
p42
(lp43
(dp44
Vrating
p45
I4
sVaspects
p46
(lp47
(dp48
Vrating
p49
I2
sVtype
p50
Voverall
p51
sasVlanguage
p52
Ven
p53
sVtext
p54
VGood location. Large clean rooms. Low cost. Will stay there again when in Mountain View. 
p55
sVauthor_name
p56
VDavid Bair
p57
sVauthor_url
p58
Vhttps://plus.google.com/106115981247738770113
p59
sVtime
p60
I1460779438
sa(dp61
Vrating
p62
I5
sVaspects
p63
(lp64
(dp65
Vrating
p66
I3
sVtype
p67
Voverall
p68
sasVprofile_photo_url
p69
V//lh6.googleusercontent.com/-z4Rf87m3tJo/AAAAAAAAAAI/AAAAAAAAHlk/rWbXrr-pOzM/photo.jpg
p70
sVlanguage
p71
Ven
p72
sVtext
p73
VAffordable military style housing. If you're looking for a reasonably priced place to sleep -  this is your place. 
p74
sVauthor_name
p75
VJ Mat
p76
sVauthor_url
p77
Vhttps://plus.google.com/107633247366732015803
p78
sVtime
p79
I1452560974
sa(dp80
Vrating
p81
I5
sVaspects
p82
(lp83
(dp84
Vrating
p85
I3
sVtype
p86
Voverall
p87
sasVlanguage
p88
Ven
p89
sVtext
p90
V
sVauthor_name
p91
VJesus Marcos Altamirano
p92
sVauthor_url
p93
Vhttps://plus.google.com/115926033305961619646
p94
sVtime
p95
I1452893677
sa(dp96
Vrating
p97
I3
sVaspects
p98
(lp99
(dp100
Vrating
p101
I1
sVtype
p102
Voverall
p103
sasVlanguage
p104
Ven
p105
sVtext
p106
V
sVauthor_name
p107
VParis Gosch
p108
sVauthor_url
p109
Vhttps://plus.google.com/118129785416748856483
p110
sVtime
p111
I1443828289
sasVformatted_phone_number
p112
V(650) 962-1542
p113
sVurl
p114
Vhttps://maps.google.com/?cid=11271769827346713674
p115
sVscope
p116
VGOOGLE
p117
sVaddress_components
p118
(lp119
(dp120
Vlong_name
p121
V593
p122
sVtypes
p123
(lp124
Vstreet_number
p125
asVshort_name
p126
V593
p127
sa(dp128
Vlong_name
p129
VVernon Avenue
p130
sVtypes
p131
(lp132
Vroute
p133
asVshort_name
p134
VVernon Ave
p135
sa(dp136
Vlong_name
p137
VMountain View
p138
sVtypes
p139
(lp140
Vlocality
p141
aVpolitical
p142
asVshort_name
p143
VMountain View
p144
sa(dp145
Vlong_name
p146
VCalifornia
p147
sVtypes
p148
(lp149
Vadministrative_area_level_1
p150
aVpolitical
p151
asVshort_name
p152
VCA
p153
sa(dp154
Vlong_name
p155
VUnited States
p156
sVtypes
p157
(lp158
Vcountry
p159
aVpolitical
p160
asVshort_name
p161
VUS
p162
sa(dp163
Vlong_name
p164
V94043
p165
sVtypes
p166
(lp167
Vpostal_code
p168
asVshort_name
p169
V94043
p170
sasVformatted_address
p171
V593 Vernon Ave, Mountain View, CA 94043, United States
p172
sVid
p173
Vc1ab4e397d8204810252e9b9d07597accdb4fc9b
p174
sVtypes
p175
(lp176
Vlodging
p177
aVpoint_of_interest
p178
aVestablishment
p179
asVicon
p180
Vhttps://maps.gstatic.com/mapfiles/place_api/icons/lodging-71.png
p181
s.