(dp1
Vrating
p2
cdecimal
Decimal
p3
(S'4.4'
tRp4
sVreference
p5
VCmRXAAAAxYO587dJok9c2rvGW6XxqRg1mRdu3_K8NW05wcB_XXm2dKpecLg2JouXdVKl6m5INoKvjLJgqvXJ9uWbCVqCUCr8rxuYRr8C3HJsJ5YuDyYxwY5hdrXXNB-wAJ3KwxfEEhDd8KTvEd0kR1ZDwYwSsuL1GhRobE9cD2oQdvxckYQ9Y-LpSaUqQA
p6
sVplace_id
p7
VChIJ_dQjyK-AhYARBc9DFlxcclg
p8
sVurl
p9
Vhttps://maps.google.com/?cid=6373257973262962437
p10
sVformatted_address
p11
V560 Divisadero St, San Francisco, CA 94117, United States
p12
sVid
p13
Veac84ba2f31990fe26d3b0acd8c1e99962b60bdf
p14
sVopening_hours
p15
(dp16
Vweekday_text
p17
(lp18
VMonday: 5:00 PM \u2013 1:00 AM
p19
aVTuesday: 5:00 PM \u2013 1:00 AM
p20
aVWednesday: 5:00 PM \u2013 1:00 AM
p21
aVThursday: 5:00 PM \u2013 1:00 AM
p22
aVFriday: 5:00 PM \u2013 1:00 AM
p23
aVSaturday: 11:00 AM \u2013 1:00 AM
p24
aVSunday: 11:00 AM \u2013 1:00 AM
p25
asVopen_now
p26
I00
sVperiods
p27
(lp28
(dp29
Vclose
p30
(dp31
Vday
p32
I1
sVtime
p33
V0100
p34
ssVopen
p35
(dp36
Vday
p37
I0
sVtime
p38
V1100
p39
ssa(dp40
Vclose
p41
(dp42
Vday
p43
I2
sVtime
p44
V0100
p45
ssVopen
p46
(dp47
Vday
p48
I1
sVtime
p49
V1700
p50
ssa(dp51
Vclose
p52
(dp53
Vday
p54
I3
sVtime
p55
V0100
p56
ssVopen
p57
(dp58
Vday
p59
I2
sVtime
p60
V1700
p61
ssa(dp62
Vclose
p63
(dp64
Vday
p65
I4
sVtime
p66
V0100
p67
ssVopen
p68
(dp69
Vday
p70
I3
sVtime
p71
V1700
p72
ssa(dp73
Vclose
p74
(dp75
Vday
p76
I5
sVtime
p77
V0100
p78
ssVopen
p79
(dp80
Vday
p81
I4
sVtime
p82
V1700
p83
ssa(dp84
Vclose
p85
(dp86
Vday
p87
I6
sVtime
p88
V0100
p89
ssVopen
p90
(dp91
Vday
p92
I5
sVtime
p93
V1700
p94
ssa(dp95
Vclose
p96
(dp97
Vday
p98
I0
sVtime
p99
V0100
p100
ssVopen
p101
(dp102
Vday
p103
I6
sVtime
p104
V1100
p105
ssassVvicinity
p106
V560 Divisadero Street, San Francisco
p107
sVscope
p108
VGOOGLE
p109
sVwebsite
p110
Vhttp://www.nopasf.com/
p111
sVutc_offset
p112
I-420
sVuser_ratings_total
p113
I698
sVphotos
p114
(lp115
(dp116
Vphoto_reference
p117
VCmRdAAAAPxVkmFVqETk54VWVtdrGgVPoJMxQMSMj9juoOolTWWhPQTACkbV-_HamT76iSQft4O416NpWORHd5DEVhjsuu_C-O3LevAvp2wZ34eeU_MarQKvPnWDy6p9nADEd29wAEhA6TstYK5K5I2Ec_j1E6KT2GhQjkcPr-6Nr8TK0LqY7gfdQs7c-SA
p118
sVwidth
p119
I3264
sVhtml_attributions
p120
(lp121
V<a href="https://maps.google.com/maps/contrib/101684759371052236980/photos">Don V</a>
p122
asVheight
p123
I2448
sa(dp124
Vphoto_reference
p125
VCoQBdwAAALR79rJVOBg7LDWvxS2RtCNpHDhCL8PL5XmDpKhKuUjb5ED48KCLN6Mf8CmFva_7O5jbTtf9hY_JHzEAhJfXo2EnUsSDdpnIMjk_FE_BjwJFEqv5QQKsZ0lxyy6-IO9lfzD3nL5fr0GiW1E-eOnxcR_DWZWLL_vujcQIuWJ8qAUCEhDDICJgVEnCrio08p-aPqP-GhTieMVdoCYyUGOu60qHf8wF-nYEug
p126
sVwidth
p127
I3264
sVhtml_attributions
p128
(lp129
V<a href="https://maps.google.com/maps/contrib/110562899322281866481/photos">Joshua vella</a>
p130
asVheight
p131
I2448
sa(dp132
Vphoto_reference
p133
VCmRdAAAAoLIAN9wbQBVdnOz9X2kxyTdK0YlYrtIbctgvQKLQ3zvv_r9KbxRtDu350CbqSnekniGqCFAl42FnNL-VSmbHNMzrB0d8gxzn_wdHkIdBTPqxI0G2sDOeYqRe3LmfPcc9EhCLxslgwgiG7h9rqh4zAQ6FGhShPvaKp7RtmHflL12rv6VXvqdxbA
p134
sVwidth
p135
I960
sVhtml_attributions
p136
(lp137
V<a href="https://maps.google.com/maps/contrib/104111246635874032234/photos">ZAGAT</a>
p138
asVheight
p139
I640
sa(dp140
Vphoto_reference
p141
VCmRdAAAANumq06GrE-iqN8HZa2Cx-u9LxHvwKIyAuZVADClAkPCDjwhjdYuKPfpE_INceAu1SdsFFTvLELgUGdWcmPn2PI7zj-DSfLMPE6RW7lLn2Cb5Wl2eDPYNFDCAjb7neLBUEhCfnbpSB1o67eXLKmmh3UpOGhQw5qKE3KVPjrvhgPhLeN0h6AmfDw
p142
sVwidth
p143
I839
sVhtml_attributions
p144
(lp145
V<a href="https://maps.google.com/maps/contrib/101963919700806461725/photos">Thomas Boucquey</a>
p146
asVheight
p147
I550
sa(dp148
Vphoto_reference
p149
VCoQBcwAAAATRFvmNJ0Jdnt3-KXPCDtIjmFhbj9JZc12B8NNn2bP4CLNCuBFRsllBH_dyTqKfgPq0_rUUf7sTGeSjJTHim7ndMW4yJDEh8wpB6Oc-2OzQH3SHTz55X69qVefV2b0wlLdS3B6cdJC_6en3gGx-FkJLb-gvBi8tbn15bHuW8ZTDEhCqR_CmxzW4jcAIURNSY0AqGhR3BfKj8ld2Q7Y2sEe8DRXbsG9X-Q
p150
sVwidth
p151
I3024
sVhtml_attributions
p152
(lp153
V<a href="https://maps.google.com/maps/contrib/102299821840658237401/photos">Ryan O&#39;Reilly</a>
p154
asVheight
p155
I4032
sa(dp156
Vphoto_reference
p157
VCmRdAAAAMFFgOSN-ROGt2vVKcavtBMghUdToqKgFkfEmiMlhNeKdUjD0lh46frG_Db1IgY2bShQJp17IbB8bYWrLQ-g3uqp8qPMzIKQBsoZ7l2zuFhjVv1KecXLsgI8nvl-MY1l7EhA6bS7FRtQ6jf7coYY7sexCGhRnBNIHqp4EvdW9ID8xx_YYFVuHeA
p158
sVwidth
p159
I2048
sVhtml_attributions
p160
(lp161
V<a href="https://maps.google.com/maps/contrib/105929929840478959071/photos">Jessica Cu</a>
p162
asVheight
p163
I1536
sa(dp164
Vphoto_reference
p165
VCoQBdwAAALeLoop1sYYYNo0DQLoHJEigxoSqgjaWaJRYfwyt1szALrJusJRR7ZrzGlo5D0lQpoDqjN5iu-1DVIMWuZ0TnU8par71ONdvG-alDo_863FLurTT2ovblRlnMel21HkC_Gho4pf2esRDDCaskbV0G3cD-1CVZ4K-0PTp-rPUBtvOEhDUlpEn2FNSXVjy1X0IR8VjGhQlpnDgeQW2mg-fkY0wANH01oweBQ
p166
sVwidth
p167
I2048
sVhtml_attributions
p168
(lp169
V<a href="https://maps.google.com/maps/contrib/102579519712352926407/photos">lisa gaynon</a>
p170
asVheight
p171
I1536
sa(dp172
Vphoto_reference
p173
VCmRdAAAAf3eWRwa2AN8FKUoXayw27t_WkQr0sV3_9hbEkchyhXTpqxqepcwI0QzPufoMw5lg4cIwTftsf4OtzsrcK7zuRKn902EkMwZR0pn5q3pH_G4UfBLoLmBPODNWedAvMqEeEhDubSGrixbsP8zRX_44H1vhGhSnl0ydjAtGnUwYp2jpVpbugGP2QQ
p174
sVwidth
p175
I4160
sVhtml_attributions
p176
(lp177
V<a href="https://maps.google.com/maps/contrib/113731609127846485889/photos">Fabien Curto Millet</a>
p178
asVheight
p179
I3120
sa(dp180
Vphoto_reference
p181
VCmRdAAAAzHYrgFAue8SEQW-MbefAQ0IKubPR9zOnov6UVyEWQMSoDCw6uGbJHQZKsYkFPlp31m7bruj4X1tSAK3Vbw260agEzdX3CM1Ghi52Kcl5hSG9pe9z9GRmKxh06aPY4kK9EhAP6WL4zYWKF3CWlVsOak7OGhSiLplQND_9mw3YJH5LHnoYU953LQ
p182
sVwidth
p183
I3264
sVhtml_attributions
p184
(lp185
V<a href="https://maps.google.com/maps/contrib/116971979550699571819/photos">Kelly Yan</a>
p186
asVheight
p187
I2448
sa(dp188
Vphoto_reference
p189
VCoQBcwAAACE6ajAqSBdnUaf5MW5SmeA4o0uW6pSKFMIJ-7sXhgFUQYCWn4_ZmjgcIhJ34A7r8YELPhPuR6e-9XmMcMskAlFqHcZrwxqUMHjMK3jbjTvg0F1EgxMxUzoRb3ljI6tWOlw6k0BTZTauC1nsYRuLHPHog7tfZem5MiZgd_M_nb8qEhA_zLDJIm7Y8UTXWlvDal7cGhQb8wP09yFxuibshRuV3KNf5YIACw
p190
sVwidth
p191
I5312
sVhtml_attributions
p192
(lp193
V<a href="https://maps.google.com/maps/contrib/101983877273980272413/photos">Nicolas Bartoli</a>
p194
asVheight
p195
I2988
sasVtypes
p196
(lp197
Vrestaurant
p198
aVfood
p199
aVpoint_of_interest
p200
aVestablishment
p201
asVicon
p202
Vhttps://maps.gstatic.com/mapfiles/place_api/icons/restaurant-71.png
p203
sVname
p204
VNopa
p205
sVgeometry
p206
(dp207
Vaccess_points
p208
(lp209
(dp210
Vtravel_modes
p211
(lp212
VDRIVING
p213
aVBICYCLING
p214
aVWALKING
p215
aVTRANSIT
p216
asVlocation
p217
(dp218
Vlat
p219
g3
(S'37.7748672'
tRp220
sVlng
p221
g3
(S'-122.4377006'
tRp222
ssasVlocation
p223
(dp224
Vlat
p225
g3
(S'37.7748936'
tRp226
sVlng
p227
g3
(S'-122.4374944'
tRp228
sssVadr_address
p229
V<span class="street-address">560 Divisadero St</span>, <span class="locality">San Francisco</span>, <span class="region">CA</span> <span class="postal-code">94117-2213</span>, <span class="country-name">United States</span>
p230
sVinternational_phone_number
p231
V+1 415-864-8643
p232
sVreviews
p233
(lp234
(dp235
Vrating
p236
I5
sVaspects
p237
(lp238
(dp239
Vrating
p240
I3
sVtype
p241
Voverall
p242
sasVprofile_photo_url
p243
V//lh3.googleusercontent.com/-MmqL-i9s4Kc/AAAAAAAAAAI/AAAAAAAAOJ4/rC4cDhXVYqk/photo.jpg
p244
sVlanguage
p245
Ven
p246
sVtext
p247
VI have so much LOVE for Nopa. Great food, great atmosphere and  they are open until midnight! So hard to find restaurants open late in SF. Highly recommend their brunch which is #2 on my list in all of SF. Highly recommend the burger for lunch or dinner. They make some tasty cocktails as well, including one with Blue Bottle Coffee!
p248
sVauthor_name
p249
VCraig Villamor
p250
sVauthor_url
p251
Vhttps://plus.google.com/108109400166270814607
p252
sVtime
p253
I1460925972
sa(dp254
Vrating
p255
I4
sVaspects
p256
(lp257
(dp258
Vrating
p259
I2
sVtype
p260
Voverall
p261
sasVprofile_photo_url
p262
V//lh3.googleusercontent.com/-dDcAB03DPmE/AAAAAAAAAAI/AAAAAAAAB6c/h96-NGPFLDw/photo.jpg
p263
sVlanguage
p264
Ven
p265
sVtext
p266
VGreat food. A bit pricey for the overall flavor but fun atmosphere and attentive and cool wait staff.
p267
sVauthor_name
p268
VJack Lawson
p269
sVauthor_url
p270
Vhttps://plus.google.com/112279789644512908837
p271
sVtime
p272
I1459019742
sa(dp273
Vrating
p274
I4
sVaspects
p275
(lp276
(dp277
Vrating
p278
I2
sVtype
p279
Voverall
p280
sasVprofile_photo_url
p281
V//lh3.googleusercontent.com/-SbcZCxBt2uo/AAAAAAAAAAI/AAAAAAAAuQc/MJrvbQWkD08/photo.jpg
p282
sVlanguage
p283
Ven
p284
sVtext
p285
VThe burger was delicious - thick and juicy. The bacon and cheddar that the offered were a nice touch. The fries were some of the best I've ever had - incredibly crispy yet not hard to bite into. I'm not ordinarily a duck fan, but the smokiness really worked well with that appetizer. I found the meatball soup a little too funky, probably because of the cheese in it. We enjoyed dining at the back on the second level, since it gave us the opportunity to look down on the kitchen from time to time & see what was cooking.
p286
sVauthor_name
p287
VElliot Schwartz
p288
sVauthor_url
p289
Vhttps://plus.google.com/116925116332960548099
p290
sVtime
p291
I1454370126
sa(dp292
Vrating
p293
I1
sVaspects
p294
(lp295
(dp296
Vrating
p297
I0
sVtype
p298
Voverall
p299
sasVprofile_photo_url
p300
V//lh6.googleusercontent.com/-hGOuxTd8mZs/AAAAAAAAAAI/AAAAAAAAAOs/JH8_ZDnOydw/photo.jpg
p301
sVlanguage
p302
Ven
p303
sVtext
p304
VAtmosphere was very chill. The kitchen staff was pretty cool. I ordered the duck, and some over priced pizza (although very good)... I was really turned off by the manager that night. Complete A-Hole. I'm sure he'll know who I am just by reading this. The guy was a grade A jerk. Yelled at me for asking on the status on my duck (it had been some time at this point, even one of the chef's agreed it was longer than it should have been) he told me I was exaggerating and totally blew me off. On top of that, he brought my plate to me with an attitude that had it's own odor. I requested my check, paid the bill with $100 cash, and was handed my change in a few $5 bills and around +$20 in 1 dollar bills. Never been to a restaurant that didnt have enough large bills to hand back to a customer and had to fork out that many singles. I thought I was at a restaurant not a strip club. FYI my visit was on 3.31.16. Enter at your own risk. 
p305
sVauthor_name
p306
VTerry Ortega
p307
sVauthor_url
p308
Vhttps://plus.google.com/113015019285176767423
p309
sVtime
p310
I1459813810
sa(dp311
Vrating
p312
I5
sVaspects
p313
(lp314
(dp315
Vrating
p316
I3
sVtype
p317
Voverall
p318
sasVprofile_photo_url
p319
V//lh5.googleusercontent.com/-_eiEa8luZpw/AAAAAAAAAAI/AAAAAAAADQg/MkFk8JACMAs/photo.jpg
p320
sVlanguage
p321
Ven
p322
sVtext
p323
VGood food. Great opening hours. Nice service. \u000aParking can be tough -- but can't blame the restaurant for it, can you? :-)
p324
sVauthor_name
p325
VMatthias Schwab
p326
sVauthor_url
p327
Vhttps://plus.google.com/109564469526142808570
p328
sVtime
p329
I1459438635
sasVformatted_phone_number
p330
V(415) 864-8643
p331
sVaddress_components
p332
(lp333
(dp334
Vlong_name
p335
V560
p336
sVtypes
p337
(lp338
Vstreet_number
p339
asVshort_name
p340
V560
p341
sa(dp342
Vlong_name
p343
VDivisadero Street
p344
sVtypes
p345
(lp346
Vroute
p347
asVshort_name
p348
VDivisadero St
p349
sa(dp350
Vlong_name
p351
VSan Francisco
p352
sVtypes
p353
(lp354
Vlocality
p355
aVpolitical
p356
asVshort_name
p357
VSF
p358
sa(dp359
Vlong_name
p360
VCalifornia
p361
sVtypes
p362
(lp363
Vadministrative_area_level_1
p364
aVpolitical
p365
asVshort_name
p366
VCA
p367
sa(dp368
Vlong_name
p369
VUnited States
p370
sVtypes
p371
(lp372
Vcountry
p373
aVpolitical
p374
asVshort_name
p375
VUS
p376
sa(dp377
Vlong_name
p378
V94117
p379
sVtypes
p380
(lp381
Vpostal_code
p382
asVshort_name
p383
V94117
p384
sa(dp385
Vlong_name
p386
V2213
p387
sVtypes
p388
(lp389
Vpostal_code_suffix
p390
asVshort_name
p391
V2213
p392
sas.