(dp1
Vrating
p2
cdecimal
Decimal
p3
(S'3.8'
tRp4
sVreference
p5
VCmRcAAAAL60rs9RgqdXU9WUa3ya8bMAyloJ4Da2XEeX-Pz1Uj3Al6-_RK60y5KZ9uqIL1mEwgaVNmubfqcJjt_RLZOK3HQMfqfmnCvipAL7UGa9tQQsl_ZqbxbrBjgGrZo_G4giJEhDsM3bXbOkl2fwGNLYA-dOiGhSQ9IuefQmTQYiwqa5HDc7ETyFyWw
p6
sVprice_level
p7
I1
sVplace_id
p8
VChIJaazJO6WGj4ARoKglFd2txrM
p9
sVurl
p10
Vhttps://maps.google.com/?cid=12954232543231977632
p11
sVformatted_address
p12
V2212 S Shore Center, Alameda, CA 94501, United States
p13
sVid
p14
V5605512a50ab76c0c2f676f4a9b236f9d992f7fb
p15
sVopening_hours
p16
(dp17
Vweekday_text
p18
(lp19
VMonday: 9:00 AM \u2013 9:00 PM
p20
aVTuesday: 9:00 AM \u2013 9:00 PM
p21
aVWednesday: 9:00 AM \u2013 9:00 PM
p22
aVThursday: 9:00 AM \u2013 9:00 PM
p23
aVFriday: 9:00 AM \u2013 9:00 PM
p24
aVSaturday: 9:00 AM \u2013 9:00 PM
p25
aVSunday: 10:00 AM \u2013 8:00 PM
p26
asVopen_now
p27
I01
sVperiods
p28
(lp29
(dp30
Vclose
p31
(dp32
Vday
p33
I0
sVtime
p34
V2000
p35
ssVopen
p36
(dp37
Vday
p38
I0
sVtime
p39
V1000
p40
ssa(dp41
Vclose
p42
(dp43
Vday
p44
I1
sVtime
p45
V2100
p46
ssVopen
p47
(dp48
Vday
p49
I1
sVtime
p50
V0900
p51
ssa(dp52
Vclose
p53
(dp54
Vday
p55
I2
sVtime
p56
V2100
p57
ssVopen
p58
(dp59
Vday
p60
I2
sVtime
p61
V0900
p62
ssa(dp63
Vclose
p64
(dp65
Vday
p66
I3
sVtime
p67
V2100
p68
ssVopen
p69
(dp70
Vday
p71
I3
sVtime
p72
V0900
p73
ssa(dp74
Vclose
p75
(dp76
Vday
p77
I4
sVtime
p78
V2100
p79
ssVopen
p80
(dp81
Vday
p82
I4
sVtime
p83
V0900
p84
ssa(dp85
Vclose
p86
(dp87
Vday
p88
I5
sVtime
p89
V2100
p90
ssVopen
p91
(dp92
Vday
p93
I5
sVtime
p94
V0900
p95
ssa(dp96
Vclose
p97
(dp98
Vday
p99
I6
sVtime
p100
V2100
p101
ssVopen
p102
(dp103
Vday
p104
I6
sVtime
p105
V0900
p106
ssassVvicinity
p107
V2212 South Shore Center, Alameda
p108
sVscope
p109
VGOOGLE
p110
sVwebsite
p111
Vhttp://www.oldnavy.com/products/alameda-ca-store-5024.jsp?tid=onss000002
p112
sVutc_offset
p113
I-420
sVuser_ratings_total
p114
I8
sVphotos
p115
(lp116
(dp117
Vphoto_reference
p118
VCmRdAAAASgGz3RyJXYpYnaXlFeVe_HtiCdGOZhHZLGiWRZmhOKCBIn-j47ErdZC-J4XRgpn6jeMsVTgzgLFEBfxZPGvj_D_8OARUycx22Ay4s9BewAOA1k0whvwcnl_jvRJNhJIaEhA14z-9HWtQLdLspGgwviLuGhQapC7XaWWdm8KC0o2mPESguT-rcA
p119
sVwidth
p120
I4128
sVhtml_attributions
p121
(lp122
V<a href="https://maps.google.com/maps/contrib/107721404123505875377/photos">albert lee</a>
p123
asVheight
p124
I3096
sa(dp125
Vphoto_reference
p126
VCmRdAAAABvip9ztkWqdOwc1d2oPhzmMnSydRR3_HjA5rYcAF3KClIeky3g0mYn3KZvYIJOBtNJ9i3IvOyaSrD8t5Ozj_Z_TVpOHqytFA7EeTHfnjXUt6rANWlA05etSFOlWGVF32EhBrbt_DZuVJc2x8NCO4I5C5GhQK-aVrMoYMzAedshBBLMlUKS1dCw
p127
sVwidth
p128
I2077
sVhtml_attributions
p129
(lp130
V<a href="https://maps.google.com/maps/contrib/107721404123505875377/photos">albert lee</a>
p131
asVheight
p132
I2408
sa(dp133
Vphoto_reference
p134
VCmRdAAAAPfGmp6Mtn-mkLsaXmFJSVCM7k8Zriz3N0m2Z9q4ssi73jFCDPf0jb86aVHJZEqlAV71KZ-D2nQYekuFlZ-r123JDqo2Vht8grp0G7eCTqyK6IHSKrl2_Q7CFGBJu4vwoEhCbI7bBkJXCeFn7_o3-2r0qGhSeXiyFflkru6Tg_EeV3z-VPILhhg
p135
sVwidth
p136
I1224
sVhtml_attributions
p137
(lp138
V<a href="https://maps.google.com/maps/contrib/118072916337399206073/photos">Claudia Tobias</a>
p139
asVheight
p140
I1632
sa(dp141
Vphoto_reference
p142
VCoQBcwAAAAAerw8_tcY9SwQ_Eq4mz6T5Z14r_E73OlhUeu5jeeM_GKPx30dZ05AAd4d4cj80z6z4uTQ7NcqVjhGlVoOHOQseWcdRdmumm5rX-z1AdyW8vTT4J0i-HzzvRtYnAUE-S8S1HyKVbrxqBTKLzrWhWYJO9zRY4cVy1xBfC7wb8rRlEhCij6WBNH807YLU0htqQHuqGhRmhuPbSR54MTHkV5j-c0kc7PEa_w
p143
sVwidth
p144
I400
sVhtml_attributions
p145
(lp146
V<a href="https://maps.google.com/maps/contrib/107821340578828602897/photos">Old Navy</a>
p147
asVheight
p148
I400
sasVtypes
p149
(lp150
Vclothing_store
p151
aVstore
p152
aVpoint_of_interest
p153
aVestablishment
p154
asVicon
p155
Vhttps://maps.gstatic.com/mapfiles/place_api/icons/shopping-71.png
p156
sVname
p157
VOld Navy
p158
sVgeometry
p159
(dp160
Vlocation
p161
(dp162
Vlat
p163
g3
(S'37.7571264'
tRp164
sVlng
p165
g3
(S'-122.2524387'
tRp166
sssVadr_address
p167
V<span class="street-address">2212 S Shore Center</span>, <span class="locality">Alameda</span>, <span class="region">CA</span> <span class="postal-code">94501</span>, <span class="country-name">United States</span>
p168
sVinternational_phone_number
p169
V+1 510-864-0175
p170
sVreviews
p171
(lp172
(dp173
Vrating
p174
I4
sVaspects
p175
(lp176
(dp177
Vrating
p178
I2
sVtype
p179
Voverall
p180
sasVlanguage
p181
Ven
p182
sVtext
p183
VI bought a sweater yesterday at this store, and they left the security tag on, so today I had to take the sweater back so that they could remove the security tag. They didn't even check my receipt. So this means if you want free clothes from Old Navy in Alameda just go ahead and take them.
p184
sVauthor_name
p185
VMichelle Kirby Randall
p186
sVauthor_url
p187
Vhttps://plus.google.com/114083991627851553308
p188
sVtime
p189
I1454869091
sa(dp190
Vrating
p191
I3
sVaspects
p192
(lp193
(dp194
Vrating
p195
I1
sVtype
p196
Voverall
p197
sasVlanguage
p198
Ven
p199
sVtext
p200
VAverage old navy, staff is not super helpful.
p201
sVauthor_name
p202
VBenjamin Clayton
p203
sVauthor_url
p204
Vhttps://plus.google.com/113002072510164205849
p205
sVtime
p206
I1459092494
sa(dp207
Vrating
p208
I1
sVaspects
p209
(lp210
(dp211
Vrating
p212
I0
sVtype
p213
Voverall
p214
sasVlanguage
p215
Ven
p216
sVtext
p217
VOld Navy clothes never fail to disappoint!!  I generally like Old Navy's styles--and their prices--but I've bought 3 pairs of pants that have shrunk, and are now floods (And I'm short anyway...How does a normal sized adult wear these??)\u000aI just washed my new Old Navy hoodie, and the sleeves are now significantly shorter....Grrr...Also, the colors have faded quickly in almost all of my Old Navy clothes...Very annoying.\u000aI know the clothes there are cheap, but come on, this is ridiculous--Even my stuff from H&M and Forever 21 doesn't shrink and fade like Old Navy clothes do!
p218
sVauthor_name
p219
VA Google User
p220
sVtime
p221
I1232993800
sa(dp222
Vrating
p223
I5
sVaspects
p224
(lp225
(dp226
Vrating
p227
I3
sVtype
p228
Voverall
p229
sasVlanguage
p230
Ven
p231
sVtext
p232
VI love it my dads phone don't show the map
p233
sVauthor_name
p234
VA Google User
p235
sVtime
p236
I1335645472
sa(dp237
Vrating
p238
I4
sVaspects
p239
(lp240
(dp241
Vrating
p242
I2
sVtype
p243
Voverall
p244
sasVprofile_photo_url
p245
V//lh6.googleusercontent.com/-eee3ooiy80M/AAAAAAAAAAI/AAAAAAAAAAs/hVQLlEbHlRM/photo.jpg
p246
sVlanguage
p247
Ven
p248
sVtext
p249
V
sVauthor_name
p250
VMarco David
p251
sVauthor_url
p252
Vhttps://plus.google.com/114042470333480196372
p253
sVtime
p254
I1382558470
sasVformatted_phone_number
p255
V(510) 864-0175
p256
sVaddress_components
p257
(lp258
(dp259
Vlong_name
p260
Va
sVtypes
p261
(lp262
Vsubpremise
p263
asVshort_name
p264
Va
sa(dp265
Vlong_name
p266
V2212
p267
sVtypes
p268
(lp269
Vstreet_number
p270
asVshort_name
p271
V2212
p272
sa(dp273
Vlong_name
p274
VSouth Shore Center
p275
sVtypes
p276
(lp277
Vroute
p278
asVshort_name
p279
VS Shore Center
p280
sa(dp281
Vlong_name
p282
VAlameda
p283
sVtypes
p284
(lp285
Vlocality
p286
aVpolitical
p287
asVshort_name
p288
VAlameda
p289
sa(dp290
Vlong_name
p291
VCalifornia
p292
sVtypes
p293
(lp294
Vadministrative_area_level_1
p295
aVpolitical
p296
asVshort_name
p297
VCA
p298
sa(dp299
Vlong_name
p300
VUnited States
p301
sVtypes
p302
(lp303
Vcountry
p304
aVpolitical
p305
asVshort_name
p306
VUS
p307
sa(dp308
Vlong_name
p309
V94501
p310
sVtypes
p311
(lp312
Vpostal_code
p313
asVshort_name
p314
V94501
p315
sas.