(dp1
Vrating
p2
cdecimal
Decimal
p3
(S'3.9'
tRp4
sVreference
p5
VCnRlAAAAp5E9rxCBsSJBOXqQnwfE_eylLJ3J6M-Y7oASlB4yhYGg59KG3j0TmeFl1PKS83-v6FwWkcMVoQfByyUxl30MW-XdbZPFbKImnGYnatgdcSEu_M0meI5Z3Bc6oHjkhpXcQOkprs-EeJ3Cqew617Vi5BIQSk5wud81nzdo2A0tv0TjchoUySGCNqO_2n7ne1ZN8SImSw9PoDg
p6
sVplace_id
p7
VChIJ_af28sJ9hYARSjYUdP5GYTY
p8
sVurl
p9
Vhttps://maps.google.com/?cid=3918491209472161354
p10
sVformatted_address
p11
V5655 College Ave, Oakland, CA 94618, United States
p12
sVid
p13
V9473976fac941a7657ba6252f6fdff9c57c80903
p14
sVopening_hours
p15
(dp16
Vweekday_text
p17
(lp18
VMonday: 8:00 AM \u2013 9:00 PM
p19
aVTuesday: 8:00 AM \u2013 9:00 PM
p20
aVWednesday: 8:00 AM \u2013 9:00 PM
p21
aVThursday: 8:00 AM \u2013 9:00 PM
p22
aVFriday: 8:00 AM \u2013 9:30 PM
p23
aVSaturday: 8:00 AM \u2013 9:30 PM
p24
aVSunday: 8:00 AM \u2013 9:00 PM
p25
asVopen_now
p26
I01
sVperiods
p27
(lp28
(dp29
Vclose
p30
(dp31
Vday
p32
I0
sVtime
p33
V2100
p34
ssVopen
p35
(dp36
Vday
p37
I0
sVtime
p38
V0800
p39
ssa(dp40
Vclose
p41
(dp42
Vday
p43
I1
sVtime
p44
V2100
p45
ssVopen
p46
(dp47
Vday
p48
I1
sVtime
p49
V0800
p50
ssa(dp51
Vclose
p52
(dp53
Vday
p54
I2
sVtime
p55
V2100
p56
ssVopen
p57
(dp58
Vday
p59
I2
sVtime
p60
V0800
p61
ssa(dp62
Vclose
p63
(dp64
Vday
p65
I3
sVtime
p66
V2100
p67
ssVopen
p68
(dp69
Vday
p70
I3
sVtime
p71
V0800
p72
ssa(dp73
Vclose
p74
(dp75
Vday
p76
I4
sVtime
p77
V2100
p78
ssVopen
p79
(dp80
Vday
p81
I4
sVtime
p82
V0800
p83
ssa(dp84
Vclose
p85
(dp86
Vday
p87
I5
sVtime
p88
V2130
p89
ssVopen
p90
(dp91
Vday
p92
I5
sVtime
p93
V0800
p94
ssa(dp95
Vclose
p96
(dp97
Vday
p98
I6
sVtime
p99
V2130
p100
ssVopen
p101
(dp102
Vday
p103
I6
sVtime
p104
V0800
p105
ssassVvicinity
p106
V5655 College Avenue, Oakland
p107
sVscope
p108
VGOOGLE
p109
sVwebsite
p110
Vhttp://www.oliveto.com/
p111
sVutc_offset
p112
I-420
sVuser_ratings_total
p113
I115
sVphotos
p114
(lp115
(dp116
Vphoto_reference
p117
VCmRdAAAAPsu12xQjwY10cK1S28m7v-XDmkt0EYWufzeiRDFeviWHBYrn8prlmdVoodU7VEq5s1mLEemLKblVDaNhsluZa-uEwY7qXDTMxe-ZOiau4EDqfX6hSoxaztEEnwUI7uwhEhB2WhJRQI5SDUNo2ldgoKP7GhSHdaD5F2Jq9gOMVPZxNVG2W17yTg
p118
sVwidth
p119
I800
sVhtml_attributions
p120
(lp121
V<a href="https://maps.google.com/maps/contrib/107602108922241862255/photos">Oliveto Cafe and Restaurant</a>
p122
asVheight
p123
I534
sa(dp124
Vphoto_reference
p125
VCmRdAAAAO1Rp_YKnqU0xjV52SJvoHPww2N1AikAOG2RCx9Gff5bP1cb2r6DO92f3lEWo3PsDGIzdQblzyzkb3ULEQd0bQcO4ku0_qnf2Ifhoqd7xNcO770Qr0IFaTW_jSOoD6PruEhD1XouvoDkFcp45zwMSzN0QGhQ66D_yxHZdLTBK19xBn0UI-EIUgA
p126
sVwidth
p127
I800
sVhtml_attributions
p128
(lp129
V<a href="https://maps.google.com/maps/contrib/107602108922241862255/photos">Oliveto Cafe and Restaurant</a>
p130
asVheight
p131
I534
sasVtypes
p132
(lp133
Vcafe
p134
aVrestaurant
p135
aVfood
p136
aVbar
p137
aVpoint_of_interest
p138
aVestablishment
p139
asVicon
p140
Vhttps://maps.gstatic.com/mapfiles/place_api/icons/restaurant-71.png
p141
sVname
p142
VOliveto Restaurant
p143
sVgeometry
p144
(dp145
Vaccess_points
p146
(lp147
(dp148
Vtravel_modes
p149
(lp150
VDRIVING
p151
aVBICYCLING
p152
aVWALKING
p153
aVTRANSIT
p154
asVlocation
p155
(dp156
Vlat
p157
g3
(S'37.8436454'
tRp158
sVlng
p159
g3
(S'-122.2516948'
tRp160
ssasVlocation
p161
(dp162
Vlat
p163
g3
(S'37.8438624'
tRp164
sVlng
p165
g3
(S'-122.2518558'
tRp166
sssVadr_address
p167
V<span class="street-address">5655 College Ave</span>, <span class="locality">Oakland</span>, <span class="region">CA</span> <span class="postal-code">94618</span>, <span class="country-name">United States</span>
p168
sVinternational_phone_number
p169
V+1 510-547-5356
p170
sVreviews
p171
(lp172
(dp173
Vrating
p174
I2
sVaspects
p175
(lp176
(dp177
Vrating
p178
I0
sVtype
p179
Voverall
p180
sasVprofile_photo_url
p181
V//lh4.googleusercontent.com/-lFdEdrpJ7x0/AAAAAAAAAAI/AAAAAAAAA74/raJROLg36T8/photo.jpg
p182
sVlanguage
p183
Ven
p184
sVtext
p185
VI took friends from out of town as a special treat. We were all very disappointed. The Waiting staff are very unfriendly. The food was good but not excellent. I'm not willing to spend that amount of money for that type of service and just so so food
p186
sVauthor_name
p187
VPat H
p188
sVauthor_url
p189
Vhttps://plus.google.com/108967769988350102722
p190
sVtime
p191
I1460504087
sa(dp192
Vrating
p193
I1
sVaspects
p194
(lp195
(dp196
Vrating
p197
I0
sVtype
p198
Voverall
p199
sasVprofile_photo_url
p200
V//lh6.googleusercontent.com/-A4e8CqX492Q/AAAAAAAAAAI/AAAAAAAAAAw/O7Jv-VNUXL0/photo.jpg
p201
sVlanguage
p202
Ven
p203
sVtext
p204
VI had a terrible dinner last friday night at this place.The hostess was rude as soon as we walked in. All our food was less then average, every last dish was a let down. The lead wait person /manager loudly talked bad about my daughter when all this was brought to her attention and it cost over $300. It was my birthday dinner and we a=were all sorry we went there. We will not go again. The service as also slow. I don know how they stay open.
p205
sVauthor_name
p206
Vlizabeth lubin
p207
sVauthor_url
p208
Vhttps://plus.google.com/112152544983493800138
p209
sVtime
p210
I1460392280
sa(dp211
Vrating
p212
I1
sVaspects
p213
(lp214
(dp215
Vrating
p216
I0
sVtype
p217
Voverall
p218
sasVprofile_photo_url
p219
V//lh6.googleusercontent.com/-TBStCC2MJWI/AAAAAAAAAAI/AAAAAAAAAV0/Ekv_mQC-VLI/photo.jpg
p220
sVlanguage
p221
Ven
p222
sVtext
p223
VTERRIBLE! The head chef, Paul Canals, a friend of mine, was paid less so he left and now it sucks. Deuende is much better.
p224
sVauthor_name
p225
VSive O'Shea
p226
sVauthor_url
p227
Vhttps://plus.google.com/109754296773395603559
p228
sVtime
p229
I1456458913
sa(dp230
Vrating
p231
I4
sVaspects
p232
(lp233
(dp234
Vrating
p235
I2
sVtype
p236
Voverall
p237
sasVprofile_photo_url
p238
V//lh5.googleusercontent.com/-jZFiLoGUPnI/AAAAAAAAAAI/AAAAAAAAAFE/loFsnhcDMz4/photo.jpg
p239
sVlanguage
p240
Ven
p241
sVtext
p242
VI always enjoy my meals here, amazing service, great food, real old school feel to it. The whole hog dinners are my favorite
p243
sVauthor_name
p244
VJonathan Frantz
p245
sVauthor_url
p246
Vhttps://plus.google.com/102132690298101741342
p247
sVtime
p248
I1448348849
sa(dp249
Vrating
p250
I4
sVaspects
p251
(lp252
(dp253
Vrating
p254
I2
sVtype
p255
Voverall
p256
sasVprofile_photo_url
p257
V//lh4.googleusercontent.com/-cdcUo8AY5wI/AAAAAAAAAAI/AAAAAAABESk/4SXAPKUDs_U/photo.jpg
p258
sVlanguage
p259
Ven
p260
sVtext
p261
VVery nice but a bit over priced.
p262
sVauthor_name
p263
VMarty Ballard
p264
sVauthor_url
p265
Vhttps://plus.google.com/117173471266459487540
p266
sVtime
p267
I1456929882
sasVformatted_phone_number
p268
V(510) 547-5356
p269
sVaddress_components
p270
(lp271
(dp272
Vlong_name
p273
V5655
p274
sVtypes
p275
(lp276
Vstreet_number
p277
asVshort_name
p278
V5655
p279
sa(dp280
Vlong_name
p281
VCollege Avenue
p282
sVtypes
p283
(lp284
Vroute
p285
asVshort_name
p286
VCollege Ave
p287
sa(dp288
Vlong_name
p289
VOakland
p290
sVtypes
p291
(lp292
Vlocality
p293
aVpolitical
p294
asVshort_name
p295
VOakland
p296
sa(dp297
Vlong_name
p298
VCalifornia
p299
sVtypes
p300
(lp301
Vadministrative_area_level_1
p302
aVpolitical
p303
asVshort_name
p304
VCA
p305
sa(dp306
Vlong_name
p307
VUnited States
p308
sVtypes
p309
(lp310
Vcountry
p311
aVpolitical
p312
asVshort_name
p313
VUS
p314
sa(dp315
Vlong_name
p316
V94618
p317
sVtypes
p318
(lp319
Vpostal_code
p320
asVshort_name
p321
V94618
p322
sas.