(dp1
Vwebsite
p2
Vhttp://www.ospreypeak.com/
p3
sVutc_offset
p4
I-420
sVuser_ratings_total
p5
I4
sVname
p6
VOsprey Peak Bed & Breakfast
p7
sVreference
p8
VCnRuAAAA7GeZPgy9UkpJQdg3z_H1Gi82ewW6WsvBTyv_VQqjWjuTCZBnwBuNJnLDZmJuc7aKQQLuRUU0OEY6CjyB44oNMxBNQ6gl4Q9u6dQ12EYWgzCN1xInaBmYowhGpSbn9zqyzeAtXtoxS9qZ9vm2k1VV2RIQf7KSdxXU3wDD4sfD9iFAVBoUTVqC7BIY87j57GAp6rzP2KAwA8M
p9
sVphotos
p10
(lp11
(dp12
Vphoto_reference
p13
VCmRdAAAALugCGpaYcx73_eM3JpedyFQWHr_WBUkO9lQxuqR-WGjSt2qfY0kE4GP3A-rC9QmH-LXTJhyaDJsSSIo3EKM7bjOkOdBp1LPuBdY4qiCMDoqbrAAI-sDjB5Hqmh6_uqrVEhAnWmsp5hDJKJGkEpORIiK1GhSRTCLgbU_Ndii8mEjljQ7jCV5NTw
p14
sVwidth
p15
I800
sVhtml_attributions
p16
(lp17
V<a href="https://maps.google.com/maps/contrib/112508087892225027748/photos">Osprey Peak Bed &amp; Breakfast</a>
p18
asVheight
p19
I1066
sa(dp20
Vphoto_reference
p21
VCmRdAAAAhaXzQSfmWuaTNtsPcmgf9ev7YV8S2pvKI4iQAVHr6kPWf2yn1bztclSwWQzFCw3_-olMw0MVg3FluZ_eJRZJFMr-qOcluof1LbHOLGX7FBbW94N96HfpilaPh7ZR9Cc6EhC8X3POYKg7xRGIHrYtWdRTGhStEbi0cHiAErNY9AYy5j3Yi0aQFw
p22
sVwidth
p23
I1648
sVhtml_attributions
p24
(lp25
V<a href="https://maps.google.com/maps/contrib/112508087892225027748/photos">Osprey Peak Bed &amp; Breakfast</a>
p26
asVheight
p27
I1944
sa(dp28
Vphoto_reference
p29
VCmRdAAAAADVEa-osGGMviGKzN7RtpxuOzx3FDkebcNWTofY-AzB6fNP8n7FJQn413R9SfnXq0dgr4FWeBSJvOqtSu55DN3llMZL7j56u3dgcI9UFxwPPVQO4C6floF-5f83FEQPpEhAZC3cBCLuH6cb7BsdACmknGhSW6pa59RMq6zdvOjDJHb4JxPF8cg
p30
sVwidth
p31
I800
sVhtml_attributions
p32
(lp33
V<a href="https://maps.google.com/maps/contrib/112508087892225027748/photos">Osprey Peak Bed &amp; Breakfast</a>
p34
asVheight
p35
I600
sasVgeometry
p36
(dp37
Vlocation
p38
(dp39
Vlat
p40
cdecimal
Decimal
p41
(S'38.10618900000001'
tRp42
sVlng
p43
g41
(S'-122.8712282'
tRp44
sssVadr_address
p45
V<span class="street-address">10 Miwok Way</span>, <span class="locality">Inverness</span>, <span class="region">CA</span> <span class="postal-code">94937</span>, <span class="country-name">United States</span>
p46
sVplace_id
p47
VChIJ9Uqn95XPhYARM1MqcCcsum8
p48
sVinternational_phone_number
p49
V+1 415-669-1467
p50
sVvicinity
p51
V10 Miwok Way, Inverness
p52
sVreviews
p53
(lp54
(dp55
Vrating
p56
I5
sVaspects
p57
(lp58
(dp59
Vrating
p60
I3
sVtype
p61
Voverall
p62
sasVprofile_photo_url
p63
V//lh3.googleusercontent.com/-j4DUDaNu-jg/AAAAAAAAAAI/AAAAAAAAugI/RKLCYaedy5c/photo.jpg
p64
sVlanguage
p65
Ven
p66
sVtext
p67
VWe visit Point Reyes frequently, but this was out first experience with Osprey Peak B&B. We stayed there 2 nights on our anniversary weekend. We stayed in the Woods Room, which has a private deck. The Japanese decor is quite nice. The location is up the hill in the woods. It's very quiet and secluded. Perfect for our weekend getaway.\u000a\u000aDavid and Nancy are great hosts. We were offered refreshments each evening and enjoyed watching the hummingbirds at the feeders over a glass of wine. The breakfast was fantastic. They have so many options to choose from, but be careful or you'll end up with too much food! On the morning of our anniversary, they even brought out a brownie with a candle to help our celebration. How sweet.\u000a\u000aI would definitely recommend Osprey Peak B&B for a comfortable, quiet weekend at Point Reyes Seashore. I expect we will be visiting again in the not too distant future.
p68
sVauthor_name
p69
VEd Miller
p70
sVauthor_url
p71
Vhttps://plus.google.com/115826028064429447653
p72
sVtime
p73
I1447785935
sa(dp74
Vrating
p75
I5
sVaspects
p76
(lp77
(dp78
Vrating
p79
I3
sVtype
p80
Voverall
p81
sasVlanguage
p82
Ven
p83
sVtext
p84
VWe had a wonderful stay. The hosts and the breakfast they made went above and beyond. A contemporary, relaxing place in a really pretty setting, and yes we saw ospreys! And so many hummingbirds! Would love to go back.
p85
sVauthor_name
p86
VA Google User
p87
sVtime
p88
I1311048216
sa(dp89
Vrating
p90
I5
sVaspects
p91
(lp92
(dp93
Vrating
p94
I3
sVtype
p95
Voverall
p96
sasVlanguage
p97
Ven
p98
sVtext
p99
VQuiet, relaxing, attention to detail, great breakfast, great value
p100
sVauthor_name
p101
VA Google User
p102
sVtime
p103
I1306348699
sa(dp104
Vrating
p105
I4
sVaspects
p106
(lp107
(dp108
Vrating
p109
I2
sVtype
p110
Voverall
p111
sasVprofile_photo_url
p112
V//lh3.googleusercontent.com/-Rl0wJnT3_H8/AAAAAAAAAAI/AAAAAAAAAD8/znsh-Bjg0F0/photo.jpg
p113
sVlanguage
p114
Ven
p115
sVtext
p116
V
sVauthor_name
p117
VScott Hatch
p118
sVauthor_url
p119
Vhttps://plus.google.com/114568994118121471711
p120
sVtime
p121
I1445133046
sasVformatted_phone_number
p122
V(415) 669-1467
p123
sVurl
p124
Vhttps://maps.google.com/?cid=8050795831775351603
p125
sVscope
p126
VGOOGLE
p127
sVaddress_components
p128
(lp129
(dp130
Vlong_name
p131
V10
p132
sVtypes
p133
(lp134
Vstreet_number
p135
asVshort_name
p136
V10
p137
sa(dp138
Vlong_name
p139
VMiwok Way
p140
sVtypes
p141
(lp142
Vroute
p143
asVshort_name
p144
VMiwok Way
p145
sa(dp146
Vlong_name
p147
VInverness
p148
sVtypes
p149
(lp150
Vlocality
p151
aVpolitical
p152
asVshort_name
p153
VInverness
p154
sa(dp155
Vlong_name
p156
VCalifornia
p157
sVtypes
p158
(lp159
Vadministrative_area_level_1
p160
aVpolitical
p161
asVshort_name
p162
VCA
p163
sa(dp164
Vlong_name
p165
VUnited States
p166
sVtypes
p167
(lp168
Vcountry
p169
aVpolitical
p170
asVshort_name
p171
VUS
p172
sa(dp173
Vlong_name
p174
V94937
p175
sVtypes
p176
(lp177
Vpostal_code
p178
asVshort_name
p179
V94937
p180
sasVformatted_address
p181
V10 Miwok Way, Inverness, CA 94937, United States
p182
sVid
p183
Vef836d194338fcd6c17586693a1c8a69b6a4c352
p184
sVtypes
p185
(lp186
Vlodging
p187
aVpoint_of_interest
p188
aVestablishment
p189
asVicon
p190
Vhttps://maps.gstatic.com/mapfiles/place_api/icons/lodging-71.png
p191
s.