(dp1
Vrating
p2
cdecimal
Decimal
p3
(S'4.3'
tRp4
sVreference
p5
VCnRqAAAAPn11DzGxLjrqNY3Kn-bZmEbmbbLPZ4Utqbn4G1SKWctVYPtHJwfDani9sxQmehpc_ZTl6N4yigeNJiRK95vLIFT4claF2pvIKHf5r4muFXHLayEYLuBvXl108C0O-56VVNT5OEZaF47NoTuFwBWv4xIQwD6SlNkTNQFzTsmVvDgsTxoUr_-hSF3OZNyU3eGe1Qh4fn5ViWs
p6
sVprice_level
p7
I2
sVplace_id
p8
VChIJdRhjXze7j4ARV5jApcV4IRw
p9
sVurl
p10
Vhttps://maps.google.com/?cid=2027034097578186839
p11
sVformatted_address
p12
V441 Emerson St, Palo Alto, CA 94301, United States
p13
sVid
p14
V05a2124a82b129482506986a9d37e128a0a57e90
p15
sVopening_hours
p16
(dp17
Vweekday_text
p18
(lp19
VMonday: 11:00 AM \u2013 10:00 PM
p20
aVTuesday: 11:00 AM \u2013 10:00 PM
p21
aVWednesday: 11:00 AM \u2013 10:00 PM
p22
aVThursday: 11:00 AM \u2013 10:00 PM
p23
aVFriday: 11:00 AM \u2013 11:00 PM
p24
aVSaturday: 11:00 AM \u2013 11:00 PM
p25
aVSunday: 11:00 AM \u2013 10:00 PM
p26
asVopen_now
p27
I01
sVperiods
p28
(lp29
(dp30
Vclose
p31
(dp32
Vday
p33
I0
sVtime
p34
V2200
p35
ssVopen
p36
(dp37
Vday
p38
I0
sVtime
p39
V1100
p40
ssa(dp41
Vclose
p42
(dp43
Vday
p44
I1
sVtime
p45
V2200
p46
ssVopen
p47
(dp48
Vday
p49
I1
sVtime
p50
V1100
p51
ssa(dp52
Vclose
p53
(dp54
Vday
p55
I2
sVtime
p56
V2200
p57
ssVopen
p58
(dp59
Vday
p60
I2
sVtime
p61
V1100
p62
ssa(dp63
Vclose
p64
(dp65
Vday
p66
I3
sVtime
p67
V2200
p68
ssVopen
p69
(dp70
Vday
p71
I3
sVtime
p72
V1100
p73
ssa(dp74
Vclose
p75
(dp76
Vday
p77
I4
sVtime
p78
V2200
p79
ssVopen
p80
(dp81
Vday
p82
I4
sVtime
p83
V1100
p84
ssa(dp85
Vclose
p86
(dp87
Vday
p88
I5
sVtime
p89
V2300
p90
ssVopen
p91
(dp92
Vday
p93
I5
sVtime
p94
V1100
p95
ssa(dp96
Vclose
p97
(dp98
Vday
p99
I6
sVtime
p100
V2300
p101
ssVopen
p102
(dp103
Vday
p104
I6
sVtime
p105
V1100
p106
ssassVvicinity
p107
V441 Emerson Street, Palo Alto
p108
sVscope
p109
VGOOGLE
p110
sVwebsite
p111
Vhttp://www.patxispizza.com/
p112
sVutc_offset
p113
I-420
sVuser_ratings_total
p114
I312
sVphotos
p115
(lp116
(dp117
Vphoto_reference
p118
VCmRdAAAA909UB1FzqAywYTvzpFcc_T8EHLtzRgxNNpBVKwkjLhfYXq_ApARaVDyGIIChS-cBJzc42ab4VXHoEZekdWrhAgE8dkeZXDtp6GEtzsKDd-WVw4MQ4KAdkV22buPY3WvAEhAJJ3NFAqHL3_y7GzzMsp_8GhQjBIjxq007ulH8siSojgYhNSr4pQ
p119
sVwidth
p120
I1024
sVhtml_attributions
p121
(lp122
V<a href="https://maps.google.com/maps/contrib/117619932018504933542/photos">Patxi&#39;s Pizza Palo Alto</a>
p123
asVheight
p124
I683
sa(dp125
Vphoto_reference
p126
VCmRdAAAAXB8UK9q61hgTYgPwLffxDboVxptMLTGOBiQ3XYJWHHLCzUBrMgu35lRT0xs7qYfFTF7P_gw6YzUQ2_ZvYXc8WC4FOovrVT5IZsafPqvaXim0lvgFH7ggtnD1hUVMoEqvEhAJ00ssyYzEDoE3TgJbSrqRGhSXAJGE0c-VaSSetnysBGCmVFy2xw
p127
sVwidth
p128
I1024
sVhtml_attributions
p129
(lp130
V<a href="https://maps.google.com/maps/contrib/117619932018504933542/photos">Patxi&#39;s Pizza Palo Alto</a>
p131
asVheight
p132
I683
sa(dp133
Vphoto_reference
p134
VCmRdAAAAnwJaLbwVbs_VRmr8fRQB31KtxHZcruItnh8wWdQF6T4w6ZKm8GQP2-jfaUzuRJNtQLMeQ9BYjGP7CZRV87t2iazZarQbbIXWVt1D3h5VYWK5FVVGkORSRhKr_BqRLEQzEhAeVyxTqKSVXXTSSkEpqCnHGhTieGp4mM1hEWQx_vFWx4riVq0nyg
p135
sVwidth
p136
I3120
sVhtml_attributions
p137
(lp138
V<a href="https://maps.google.com/maps/contrib/108476892568623540954/photos">Mark Casey</a>
p139
asVheight
p140
I4160
sa(dp141
Vphoto_reference
p142
VCoQBcwAAAGYvkzOl9cj-W_ObjmOwvawGK7c4gy3DyS2WhSxNJdEsdGlGTs6gy_eh9AqeNj8F88sefZ8L6N5r3me3wWaxY7hAsvmuIY8CZ49WSjxeMdlaey06OU-ufKi0a23tj2eQUsm5MKlGTIBu3otD8tDkboK1moJ-8GCV_8cM-L04HILyEhD3EsuNfEKbAkP7849tJhreGhSt35mR7XoLXzGKCWH0Lz63xrOzaQ
p143
sVwidth
p144
I5312
sVhtml_attributions
p145
(lp146
V<a href="https://maps.google.com/maps/contrib/113838455425975505441/photos">Ben Lee</a>
p147
asVheight
p148
I2988
sa(dp149
Vphoto_reference
p150
VCmRdAAAA9i9Y1rpFuPeSXsWP04Xw95_pGh8gyz5_zz8ajw_A7_nM_znuPFxSONtdTjtil5flon6WBX97IolF-cmcNKz8QaVUbWVe9QIxHYht-2J51LETZlIo6H_OFkYD8EhQH5OHEhCD-6YlJhNqxV1iY--rVoTPGhTYXbtkgH-HSv0zBhtXWTgn0pJrpA
p151
sVwidth
p152
I1024
sVhtml_attributions
p153
(lp154
V<a href="https://maps.google.com/maps/contrib/117619932018504933542/photos">Patxi&#39;s Pizza Palo Alto</a>
p155
asVheight
p156
I683
sa(dp157
Vphoto_reference
p158
VCmRdAAAApc9z1tSIoGNpYlNtQ3gWPhnpXSHJca1O_-ccHeCMXN1TIMZdLVUhM2SKzUzNWISAiCy9_rWrdlWM7-WEqtbEYmIP_r7qK6wnrXkfWtE7P5YDRuJkFmM54xoB-cBKUi8qEhAJI6Kp_LuF1FUGVIoLaCC9GhQFWeqmO9lrG81J5K_-_EJNkMzEyg
p159
sVwidth
p160
I1024
sVhtml_attributions
p161
(lp162
V<a href="https://maps.google.com/maps/contrib/117619932018504933542/photos">Patxi&#39;s Pizza Palo Alto</a>
p163
asVheight
p164
I683
sa(dp165
Vphoto_reference
p166
VCmRdAAAAYJdg9d11cngfFZka2mZhqX6SC2Fhw9_Pb1YOt0j7Uup42RY3REdactCLMQDQc6xiH1anyvLkjfTldsbiHhPpKNGEQbw4nV9sj7aE5E2XiO4ZdHcLFTHhwx3fMQuyBk2VEhBpit42GDd9aG_ItycTOB1oGhRyU6kaxBliZzZjm6pD-dYuH26M9Q
p167
sVwidth
p168
I3264
sVhtml_attributions
p169
(lp170
V<a href="https://maps.google.com/maps/contrib/113582596608964716808/photos">Nikhil Joshi</a>
p171
asVheight
p172
I2448
sa(dp173
Vphoto_reference
p174
VCmRdAAAAesDYWLld0bmsDiHo5cbJS3XoVpo3l98qqRE5KmtPffb6Sbq3NA8xsGs9FrBGq5w8DPqvHk1I7hiTRooMp8qhrB0gr0mBuLHkA83cYwxhgoVd5dq7cMckv24h4xxK50A4EhCJbJD5C7Jh7jpO8hZiMZODGhT_hJyhTjcPUNXnzHWM_TCRMoyjCQ
p175
sVwidth
p176
I1870
sVhtml_attributions
p177
(lp178
V<a href="https://maps.google.com/maps/contrib/117619932018504933542/photos">Patxi&#39;s Pizza Palo Alto</a>
p179
asVheight
p180
I1068
sa(dp181
Vphoto_reference
p182
VCmRdAAAAZ1F8pQbQmgcveMkvjiAf7tZexMNBEmrHgjowyJLBzyAnmASJOkFK_HLIQBP7e891Xap8qMva_ZZVs3BB5nXi-Xs5VcWJqYXjEl0w5M7mP9MWTjqcNBLIZepRsBdMzNMMEhBlaz9tbyhgIWmT189T6hV8GhRvubu8U3IXOJolIcMdBrkTWWpoeQ
p183
sVwidth
p184
I4160
sVhtml_attributions
p185
(lp186
V<a href="https://maps.google.com/maps/contrib/102409968839736040946/photos">Parth Shukla</a>
p187
asVheight
p188
I3088
sa(dp189
Vphoto_reference
p190
VCmRdAAAA91t3WINAuyJtSB3tRm1llotkY9OGXwHMZTwrAjdaklF2zXXMATRurYwp0VJz4K9HJbO8vctX4QJGV49sGEglnb4Oqg-mvlk3jPawdzSMqt3Tx7vLJh7Ben2gFKiQFcCaEhDpB4CNas6HUEYSieFZ83VQGhTEewi8JUa-InW7Gs2qtWB_sCvYKA
p191
sVwidth
p192
I4160
sVhtml_attributions
p193
(lp194
V<a href="https://maps.google.com/maps/contrib/102409968839736040946/photos">Parth Shukla</a>
p195
asVheight
p196
I3120
sasVtypes
p197
(lp198
Vbar
p199
aVrestaurant
p200
aVfood
p201
aVpoint_of_interest
p202
aVestablishment
p203
asVicon
p204
Vhttps://maps.gstatic.com/mapfiles/place_api/icons/restaurant-71.png
p205
sVname
p206
VPatxi's Pizza Palo Alto
p207
sVgeometry
p208
(dp209
Vaccess_points
p210
(lp211
(dp212
Vtravel_modes
p213
(lp214
VDRIVING
p215
aVBICYCLING
p216
aVWALKING
p217
aVTRANSIT
p218
asVlocation
p219
(dp220
Vlat
p221
g3
(S'37.4450572'
tRp222
sVlng
p223
g3
(S'-122.1633654'
tRp224
ssasVlocation
p225
(dp226
Vlat
p227
g3
(S'37.44517630000001'
tRp228
sVlng
p229
g3
(S'-122.1632455'
tRp230
sssVadr_address
p231
V<span class="street-address">441 Emerson St</span>, <span class="locality">Palo Alto</span>, <span class="region">CA</span> <span class="postal-code">94301</span>, <span class="country-name">United States</span>
p232
sVinternational_phone_number
p233
V+1 650-473-9999
p234
sVreviews
p235
(lp236
(dp237
Vrating
p238
I5
sVaspects
p239
(lp240
(dp241
Vrating
p242
I3
sVtype
p243
Voverall
p244
sasVprofile_photo_url
p245
V//lh6.googleusercontent.com/-K3H7Nn5Efz8/AAAAAAAAAAI/AAAAAAAAH5s/HmU1M5IF7vo/photo.jpg
p246
sVlanguage
p247
Ven
p248
sVtext
p249
VBest Deep Dish pizza I've had in years. It takes a while to make (about 45-60 minutes) but its so worth it. Great atmosphere, delicious food.
p250
sVauthor_name
p251
VStuart Alldritt
p252
sVauthor_url
p253
Vhttps://plus.google.com/110309083190427509117
p254
sVtime
p255
I1447677206
sa(dp256
Vrating
p257
I4
sVaspects
p258
(lp259
(dp260
Vrating
p261
I2
sVtype
p262
Voverall
p263
sasVlanguage
p264
Ven
p265
sVtext
p266
VAwesome deep dish. Sadly it takes a while to cook but that is not the fault of the restaurant 
p267
sVauthor_name
p268
VShawn
p269
sVauthor_url
p270
Vhttps://plus.google.com/104260449922990521862
p271
sVtime
p272
I1455762548
sa(dp273
Vrating
p274
I5
sVaspects
p275
(lp276
(dp277
Vrating
p278
I3
sVtype
p279
Voverall
p280
sasVprofile_photo_url
p281
V//lh3.googleusercontent.com/-zO0T-t2XRWg/AAAAAAAAAAI/AAAAAAAAL4k/7d7XDX6wkNg/photo.jpg
p282
sVlanguage
p283
Ven
p284
sVtext
p285
VNice pizza, you can choose thin crust or classic Boston Pizza, the service is outstanding and the food is fresh and all tu can expect from a pizza hub. 
p286
sVauthor_name
p287
VCamilo Clavijo
p288
sVauthor_url
p289
Vhttps://plus.google.com/101768354591265981416
p290
sVtime
p291
I1454819129
sa(dp292
Vrating
p293
I5
sVaspects
p294
(lp295
(dp296
Vrating
p297
I3
sVtype
p298
Voverall
p299
sasVprofile_photo_url
p300
V//lh5.googleusercontent.com/-bEIMz6E-mQg/AAAAAAAAAAI/AAAAAAAAAtY/WDI6C5fuPGo/photo.jpg
p301
sVlanguage
p302
Ven
p303
sVtext
p304
VBest Chicago-style pizza I've had on the west coast. A really superb deep dish.
p305
sVauthor_name
p306
VCraig Chasseur
p307
sVauthor_url
p308
Vhttps://plus.google.com/100915442960875857546
p309
sVtime
p310
I1461048871
sa(dp311
Vrating
p312
I5
sVaspects
p313
(lp314
(dp315
Vrating
p316
I3
sVtype
p317
Voverall
p318
sasVprofile_photo_url
p319
V//lh4.googleusercontent.com/-gEhR0Jl4DUI/AAAAAAAAAAI/AAAAAAAEFLc/aBOnSngoUfM/photo.jpg
p320
sVlanguage
p321
Ven
p322
sVtext
p323
VThe pizza is terrific. The restaurant is very family friendly. The biggest negative is they are a bit show.
p324
sVauthor_name
p325
VMark Casey
p326
sVauthor_url
p327
Vhttps://plus.google.com/108476892568623540954
p328
sVtime
p329
I1443314147
sasVformatted_phone_number
p330
V(650) 473-9999
p331
sVaddress_components
p332
(lp333
(dp334
Vlong_name
p335
V441
p336
sVtypes
p337
(lp338
Vstreet_number
p339
asVshort_name
p340
V441
p341
sa(dp342
Vlong_name
p343
VEmerson Street
p344
sVtypes
p345
(lp346
Vroute
p347
asVshort_name
p348
VEmerson St
p349
sa(dp350
Vlong_name
p351
VPalo Alto
p352
sVtypes
p353
(lp354
Vlocality
p355
aVpolitical
p356
asVshort_name
p357
VPalo Alto
p358
sa(dp359
Vlong_name
p360
VCalifornia
p361
sVtypes
p362
(lp363
Vadministrative_area_level_1
p364
aVpolitical
p365
asVshort_name
p366
VCA
p367
sa(dp368
Vlong_name
p369
VUnited States
p370
sVtypes
p371
(lp372
Vcountry
p373
aVpolitical
p374
asVshort_name
p375
VUS
p376
sa(dp377
Vlong_name
p378
V94301
p379
sVtypes
p380
(lp381
Vpostal_code
p382
asVshort_name
p383
V94301
p384
sas.