(dp1
Vrating
p2
I4
sVreference
p3
VCnRjAAAAor45kRi6k-iJzfCo75fyg3cyBqoczCMoHUfSJt6q4TyZsjZTqRUTXPxItEJSjS_DCr9A-SRvkbLwQqgt13b5YllPUdWMpQJri252roi_oMK8aHpB-cV25yDEei-iTBs-bojLUTmtADMJod69QSVyrhIQt6bnLsNyxiQ-Hfks0Zw_qBoUkQap-nsPXJDpbr8r7GIK6ACXHRE
p4
sVprice_level
p5
I3
sVplace_id
p6
VChIJO9xQ2ayAj4ARXWuEJPi_MRc
p7
sVurl
p8
Vhttps://maps.google.com/?cid=1671328009216617309
p9
sVformatted_address
p10
V2295 Broadway, Oakland, CA 94612, United States
p11
sVid
p12
V72fec92cfd9cc74d81383c094d8878773cf84cd1
p13
sVopening_hours
p14
(dp15
Vweekday_text
p16
(lp17
VMonday: 11:30 AM \u2013 2:00 PM, 5:00 \u2013 9:00 PM
p18
aVTuesday: 11:30 AM \u2013 2:00 PM, 5:00 \u2013 9:00 PM
p19
aVWednesday: 11:30 AM \u2013 2:00 PM, 5:00 \u2013 9:00 PM
p20
aVThursday: 11:30 AM \u2013 2:00 PM, 5:00 \u2013 9:00 PM
p21
aVFriday: 11:30 AM \u2013 2:00 PM, 5:00 \u2013 10:30 PM
p22
aVSaturday: 10:30 AM \u2013 2:00 PM, 5:00 \u2013 10:30 PM
p23
aVSunday: 10:30 AM \u2013 2:30 PM, 5:00 \u2013 9:00 PM
p24
asVopen_now
p25
I00
sVperiods
p26
(lp27
(dp28
Vclose
p29
(dp30
Vday
p31
I0
sVtime
p32
V1430
p33
ssVopen
p34
(dp35
Vday
p36
I0
sVtime
p37
V1030
p38
ssa(dp39
Vclose
p40
(dp41
Vday
p42
I0
sVtime
p43
V2100
p44
ssVopen
p45
(dp46
Vday
p47
I0
sVtime
p48
V1700
p49
ssa(dp50
Vclose
p51
(dp52
Vday
p53
I1
sVtime
p54
V1400
p55
ssVopen
p56
(dp57
Vday
p58
I1
sVtime
p59
V1130
p60
ssa(dp61
Vclose
p62
(dp63
Vday
p64
I1
sVtime
p65
V2100
p66
ssVopen
p67
(dp68
Vday
p69
I1
sVtime
p70
V1700
p71
ssa(dp72
Vclose
p73
(dp74
Vday
p75
I2
sVtime
p76
V1400
p77
ssVopen
p78
(dp79
Vday
p80
I2
sVtime
p81
V1130
p82
ssa(dp83
Vclose
p84
(dp85
Vday
p86
I2
sVtime
p87
V2100
p88
ssVopen
p89
(dp90
Vday
p91
I2
sVtime
p92
V1700
p93
ssa(dp94
Vclose
p95
(dp96
Vday
p97
I3
sVtime
p98
V1400
p99
ssVopen
p100
(dp101
Vday
p102
I3
sVtime
p103
V1130
p104
ssa(dp105
Vclose
p106
(dp107
Vday
p108
I3
sVtime
p109
V2100
p110
ssVopen
p111
(dp112
Vday
p113
I3
sVtime
p114
V1700
p115
ssa(dp116
Vclose
p117
(dp118
Vday
p119
I4
sVtime
p120
V1400
p121
ssVopen
p122
(dp123
Vday
p124
I4
sVtime
p125
V1130
p126
ssa(dp127
Vclose
p128
(dp129
Vday
p130
I4
sVtime
p131
V2100
p132
ssVopen
p133
(dp134
Vday
p135
I4
sVtime
p136
V1700
p137
ssa(dp138
Vclose
p139
(dp140
Vday
p141
I5
sVtime
p142
V1400
p143
ssVopen
p144
(dp145
Vday
p146
I5
sVtime
p147
V1130
p148
ssa(dp149
Vclose
p150
(dp151
Vday
p152
I5
sVtime
p153
V2230
p154
ssVopen
p155
(dp156
Vday
p157
I5
sVtime
p158
V1700
p159
ssa(dp160
Vclose
p161
(dp162
Vday
p163
I6
sVtime
p164
V1400
p165
ssVopen
p166
(dp167
Vday
p168
I6
sVtime
p169
V1030
p170
ssa(dp171
Vclose
p172
(dp173
Vday
p174
I6
sVtime
p175
V2230
p176
ssVopen
p177
(dp178
Vday
p179
I6
sVtime
p180
V1700
p181
ssassVvicinity
p182
V2295 Broadway, Oakland
p183
sVscope
p184
VGOOGLE
p185
sVwebsite
p186
Vhttp://www.picanrestaurant.com/
p187
sVutc_offset
p188
I-420
sVuser_ratings_total
p189
I96
sVphotos
p190
(lp191
(dp192
Vphoto_reference
p193
VCoQBcwAAAGheUHS1zfs3B-lF2RMqmqpNcONx0RqPtEsnB2xFYWM0fWh2IXijN6t5gM1d7iYVCpZnMuJAp0Hb23Iaskc7IUVWn5jtJyny9q3r9Sj9zuY42sH1Q9xPvuqYowa6f4E9kqPje2JeLn8cdrtNNJ0Fx_NwAMOclvmXvPIHpWkDEKTqEhD72jO4Gig6GbsZkYqiP-0UGhSvg8JdXUfSGvzNBAF1Tt7sfePenA
p194
sVwidth
p195
I4032
sVhtml_attributions
p196
(lp197
V<a href="https://maps.google.com/maps/contrib/102837592139129677983/photos">Richard Navarro</a>
p198
asVheight
p199
I3024
sa(dp200
Vphoto_reference
p201
VCoQBcwAAAF9gR6n47uxsvSj-7jvBYDSmHCLHJOmJ2H_ufs2DmFwOCKhMeNex-j_bkVPAwglO_iTuEjja66nQLCzVyP35PjqK48BSR5o4AW9uHiYCF2NT0heNkcm3sycCjYzfTgIgxIeTTaiyiYhzIa1SSnZycZKeebM_2zWJ-T4vUsL6tM11EhCsUEtR7JM1QkGFE_KY84CKGhS1iB3j_lFN8JA35B_LOQSQ0S_kgQ
p202
sVwidth
p203
I4032
sVhtml_attributions
p204
(lp205
V<a href="https://maps.google.com/maps/contrib/102837592139129677983/photos">Richard Navarro</a>
p206
asVheight
p207
I3024
sa(dp208
Vphoto_reference
p209
VCoQBcwAAADY7h8xrwIixkHGqNEZoGwRYk_PF27NVhdONvDLIftz4wE6B1Gb3Wb2br0zf1teWf1N5xeOijDCB-iF3PfgBTQFwkevADqTYnngWKByFcXLnvbHLnmfQ2WuNaZfi5qo7zAkt0lA_mgZY3MYbT6HCf0PpOFq9WXyF832qscC0C921EhC71Rt-Mb8OBVhlfgYYumlMGhS84zgNKJxlR7ZgQ-bydG1IPDoeXA
p210
sVwidth
p211
I4032
sVhtml_attributions
p212
(lp213
V<a href="https://maps.google.com/maps/contrib/102837592139129677983/photos">Richard Navarro</a>
p214
asVheight
p215
I3024
sa(dp216
Vphoto_reference
p217
VCoQBdwAAAMqUhAPEv8X9j2CkParF7Zh6WdVylSOQQhH-B4MqRgyG6UU4YSCJDtgqvY8plDhV87GIY3EjLS2Vaz36eXfb52anGaXRRJ-uOxGvN8zqERRhg5uc8FtSIZzYPSg1-_ghTHmSSMkL9xp7uSuVpIbIOp6mWMKLX2uXjyLEmTfVRp7BEhAYPij97JWm0hB0cQaIKg-5GhTfFtSSOXkKCDpZadU4qRXkIIcOnQ
p218
sVwidth
p219
I4160
sVhtml_attributions
p220
(lp221
V<a href="https://maps.google.com/maps/contrib/103529389879987926172/photos">Chris Penn</a>
p222
asVheight
p223
I2340
sa(dp224
Vphoto_reference
p225
VCoQBcwAAAFtjId0dByZ_WIvmECWDH8Xv7UAaT_Ys03gI-8KZLgz3K7H9_4HHG6MxAP30ZDPeSCcfahmYDN1n95opA5yuS_61Xi7Yb7Si_pyxKfjLzpWOjZxlggVTDaqukkpaZ9iQ4GrvxpoojWTaMDzoyUGf_4FFHwWrziNVYLtbZMOlBQUvEhBIe_cu31HxYc3wj2h5GNMlGhRiMMb0p5FsXKh4ueQPV1JW6eTEdw
p226
sVwidth
p227
I2048
sVhtml_attributions
p228
(lp229
V<a href="https://maps.google.com/maps/contrib/102837592139129677983/photos">Richard Navarro</a>
p230
asVheight
p231
I1536
sa(dp232
Vphoto_reference
p233
VCoQBcwAAAJEmV2KdgJXEzZQaxrWc7Y3eW7CpM1JMrr-Q0u-iQmfBpMs3DnkUofjMNOFxDU7cwn2YzkP9sABujnV3F2lEwIZgSDt0U_-By6GXPEWkfM0uORtMdW992sml37Nv9zQAAajdFnzsFaDDv4F46hYCpHi1CK_PGh9OI9xZwOLpsAupEhB3c3puoiwMJnEoHuwWIYgbGhQyft9BPHe1PKJXcXMy9RnnlhBQuA
p234
sVwidth
p235
I2048
sVhtml_attributions
p236
(lp237
V<a href="https://maps.google.com/maps/contrib/102837592139129677983/photos">Richard Navarro</a>
p238
asVheight
p239
I1536
sa(dp240
Vphoto_reference
p241
VCmRdAAAAhdUci7kjPEGPfPg4zWeVTNT8DmriVkEexRuwn63IA5tFP7__6xjRg8VbRpzkqvdDQUoJY3WSyAPq4Xmt4swfzViFB0FCiDKCAV3f4vzTKBQoO8wpfeQ3DQ4HofhmLL_JEhAO7S9288xev0gXSHJxzKc0GhQD1oLxMbJsPCDLmDIyEFfRKZoFaQ
p242
sVwidth
p243
I2048
sVhtml_attributions
p244
(lp245
V<a href="https://maps.google.com/maps/contrib/115490090530441457812/photos">Grayson Lang</a>
p246
asVheight
p247
I2048
sa(dp248
Vphoto_reference
p249
VCoQBcwAAADKpwddV27UQ6cKtUSUUXTzmDAJJCfFN4Wv5FqxJsJFecerW6fVmMAOISrDVE3VjpZFZnBx2AZAPk2V1l666a5uZX1ay4MRGj15nAHiL7q2UphHkeB_fs_5tOBEPg9SkWZ3LdgSIfEUGETMxOtIzNtxSRj1r03NN5ZBx55Bve1RmEhCiiZn3dI0dDF4F7Gxq7BoQGhTgUPhm_y-I0UmLvUZo69Dd9Brycw
p250
sVwidth
p251
I3024
sVhtml_attributions
p252
(lp253
V<a href="https://maps.google.com/maps/contrib/102837592139129677983/photos">Richard Navarro</a>
p254
asVheight
p255
I4032
sa(dp256
Vphoto_reference
p257
VCoQBcwAAAB1eDpjLs38yW9LoGIGdmzlwMaN450ihUqCwPUx2Xp7iuKmmCICEs3g11T0MjXVez7DMHIWuYVurLPdHUx6t39C1GmA_pH6EaJmiM-ENshXagfX_rL8Q2vjR7nvDehTlURrmmq_iO5_Dbz_e5EBSy9gv0mWZWJJl-fytoGFCJ7B3EhBtbYTx7REwb6wrHuagzdRrGhS15wlACM95ICyugCY21-s7CC8l_Q
p258
sVwidth
p259
I4032
sVhtml_attributions
p260
(lp261
V<a href="https://maps.google.com/maps/contrib/102837592139129677983/photos">Richard Navarro</a>
p262
asVheight
p263
I3024
sa(dp264
Vphoto_reference
p265
VCoQBcwAAAFhXz1oUpGsakeUXxiDRyQC5f8erCgJxGVbXU49o8Za5vbDWC-oFf7cgQAr6x_pvswmNerEV2Bol9n2dsXSFuqFtgceDRrYd1wF090ReOb5SkdI4jC7q6_R5b2FVbWVi25LMyXLAblLFslTT_ShH8Gk2yuxrcCZb7HYIkEnDaqWLEhDcdbxzPzPOVjrvvRYWlMAKGhQvCy_pe4Fu25nY6lt-TioM-Ovvig
p266
sVwidth
p267
I3024
sVhtml_attributions
p268
(lp269
V<a href="https://maps.google.com/maps/contrib/102837592139129677983/photos">Richard Navarro</a>
p270
asVheight
p271
I4032
sasVtypes
p272
(lp273
Vnight_club
p274
aVbar
p275
aVrestaurant
p276
aVfood
p277
aVpoint_of_interest
p278
aVestablishment
p279
asVicon
p280
Vhttps://maps.gstatic.com/mapfiles/place_api/icons/restaurant-71.png
p281
sVname
p282
VPican Restaurant
p283
sVgeometry
p284
(dp285
Vaccess_points
p286
(lp287
(dp288
Vtravel_modes
p289
(lp290
VDRIVING
p291
aVBICYCLING
p292
aVWALKING
p293
aVTRANSIT
p294
asVlocation
p295
(dp296
Vlat
p297
cdecimal
Decimal
p298
(S'37.8119906'
tRp299
sVlng
p300
g298
(S'-122.2664602'
tRp301
ssasVlocation
p302
(dp303
Vlat
p304
g298
(S'37.8120742'
tRp305
sVlng
p306
g298
(S'-122.2666748'
tRp307
sssVadr_address
p308
V<span class="street-address">2295 Broadway</span>, <span class="locality">Oakland</span>, <span class="region">CA</span> <span class="postal-code">94612</span>, <span class="country-name">United States</span>
p309
sVinternational_phone_number
p310
V+1 510-834-1000
p311
sVreviews
p312
(lp313
(dp314
Vrating
p315
I1
sVaspects
p316
(lp317
(dp318
Vrating
p319
I0
sVtype
p320
Voverall
p321
sasVprofile_photo_url
p322
V//lh3.googleusercontent.com/-cXMOPjtycs4/AAAAAAAAAAI/AAAAAAAAADI/NvFj99yHINc/photo.jpg
p323
sVlanguage
p324
Ven
p325
sVtext
p326
VWent here for dinner about a week ago.  The bartender (and the drinks he made) were fantastic, but that's pretty much where it ended.  Our waitress told us 3 times she was getting us water, but we ended up having to ask for it anyway - it came after we'd already finished the appetizer.  We ordered wine at the same time as our food, but somehow it also took forever to arrive.  When it did, the server simply poured it, not even bothering to pour a taste before serving.  Then she left the bottle on the table with only a quarter inch of wine in it - it should have simply been emptied (easy to do with a party of 5.) \u000a\u000aAdditionally, our dirty utensils stayed with us throughout the meal - they weren't cleared between courses, and we sat with our dirty plates in front of us well after we'd all finished.  It took the manager coming over (to apologize for the water/wine incident) to realize that they needed to be cleared.  Finally, of the two deserts we ordered, one of them was incorrect!  And this was a slow night- we were one of a handful of tables, and support staff seemed abundant.  \u000a\u000aThe manager was very gracious though, and did apologize profusely for our experience, going so far as to pour us a bottle of champagne.  However, when paying Pican prices, I'm really paying for the experience, aka:service.  The food, while delicious, is easily found at other places for much less.  I'd been wanting to go to Pican for years, but they cured me of that!
p327
sVauthor_name
p328
VHaley Woods
p329
sVauthor_url
p330
Vhttps://plus.google.com/110244731434849618435
p331
sVtime
p332
I1455904416
sa(dp333
Vrating
p334
I4
sVaspects
p335
(lp336
(dp337
Vrating
p338
I2
sVtype
p339
Voverall
p340
sasVprofile_photo_url
p341
V//lh3.googleusercontent.com/-CwC90BjMTGg/AAAAAAAAAAI/AAAAAAAAeXQ/koby2N_TE5c/photo.jpg
p342
sVlanguage
p343
Ven
p344
sVtext
p345
VI really enjoyed the ribs here! They offer it currently as an appetizer but it could be an entree if you just add a side to it.\u000a\u000aThey have a really great bourbon selection as well!\u000a\u000aI also had some of the scallops which were just okay. I think I would've enjoyed it more if it wasn't drenched in sauce.\u000a\u000aThe service was quick and friendly! It came out to be really pricey. I'll be back if I'm in the mood for some bourbon and ribs!!!
p346
sVauthor_name
p347
VRichard Navarro
p348
sVauthor_url
p349
Vhttps://plus.google.com/102837592139129677983
p350
sVtime
p351
I1460174156
sa(dp352
Vrating
p353
I3
sVaspects
p354
(lp355
(dp356
Vrating
p357
I1
sVtype
p358
Voverall
p359
sasVprofile_photo_url
p360
V//lh4.googleusercontent.com/-4EwbHMH_cCc/AAAAAAAAAAI/AAAAAAAAACg/EKm_y8GZrl0/photo.jpg
p361
sVlanguage
p362
Ven
p363
sVtext
p364
VI think my parents would really like it. Having roots in Virginia, this just didn't quite do it for me in the way of comfort or southern food. Great service. Indoor and outdoor seating. Good for groups.
p365
sVauthor_name
p366
VAreca H'lael Smit
p367
sVauthor_url
p368
Vhttps://plus.google.com/112051087046541784134
p369
sVtime
p370
I1447740917
sa(dp371
Vrating
p372
I5
sVaspects
p373
(lp374
(dp375
Vrating
p376
I3
sVtype
p377
Voverall
p378
sasVprofile_photo_url
p379
V//lh5.googleusercontent.com/-HPhn16zm4ts/AAAAAAAAAAI/AAAAAAAAvpE/dzpcwmNh9N0/photo.jpg
p380
sVlanguage
p381
Ven
p382
sVtext
p383
VOutstanding food and service, nice ambiance, but a little overpriced for what you get.  Still a great place to indulge every once in a while.
p384
sVauthor_name
p385
VMike W
p386
sVauthor_url
p387
Vhttps://plus.google.com/114027858096616322497
p388
sVtime
p389
I1459537435
sa(dp390
Vrating
p391
I3
sVaspects
p392
(lp393
(dp394
Vrating
p395
I1
sVtype
p396
Voverall
p397
sasVlanguage
p398
Ven
p399
sVtext
p400
VI came in with a lot of expectations due to rave reviews from family and friends. Went in on Sunday for brunch. Lets start with the amazing parts. Decor and design of the bar was amazing. It's a beautiful place to hang out and eat. The service is amazing. Alot of the people who worked here looked like models. They had a special elegance. \u000aSo for the review on food. \u000aThe fried chicken Benedict on English muffin. Holadinase sauce was on point and the poached egg was good. However the fried chicken was only OK. I felt like the batter didn't have enough kick and flavour and I think if they used a nice flaky biscuit instead the dish would have come together better. \u000a\u000aThe fried catfish batter lacked real flavour. It was merely OK. \u000a\u000aGrits were the star. Had a nice little spice kick and it went great with everything.\u000a\u000aFried green tomatoes did not  disappoint. It had a great texture and the dish had a lot of flavour. Best dish I tried.\u000a\u000aChicken fried steak was tender but I felt like the dish was just average. \u000a\u000aIn summary, service was amazing, but most of the food disappointed me. I would give it four stars but I felt thay with the prices I paid I would have gotten much better food. Family believes I went on an off day and I should give it another shot. Ill try it again sometime. 
p401
sVauthor_name
p402
VMongol Lee
p403
sVauthor_url
p404
Vhttps://plus.google.com/117085132270232983077
p405
sVtime
p406
I1451352513
sasVformatted_phone_number
p407
V(510) 834-1000
p408
sVaddress_components
p409
(lp410
(dp411
Vlong_name
p412
V2295
p413
sVtypes
p414
(lp415
Vstreet_number
p416
asVshort_name
p417
V2295
p418
sa(dp419
Vlong_name
p420
VBroadway
p421
sVtypes
p422
(lp423
Vroute
p424
asVshort_name
p425
VBroadway
p426
sa(dp427
Vlong_name
p428
VOakland
p429
sVtypes
p430
(lp431
Vlocality
p432
aVpolitical
p433
asVshort_name
p434
VOakland
p435
sa(dp436
Vlong_name
p437
VCalifornia
p438
sVtypes
p439
(lp440
Vadministrative_area_level_1
p441
aVpolitical
p442
asVshort_name
p443
VCA
p444
sa(dp445
Vlong_name
p446
VUnited States
p447
sVtypes
p448
(lp449
Vcountry
p450
aVpolitical
p451
asVshort_name
p452
VUS
p453
sa(dp454
Vlong_name
p455
V94612
p456
sVtypes
p457
(lp458
Vpostal_code
p459
asVshort_name
p460
V94612
p461
sas.