(dp1
Vrating
p2
cdecimal
Decimal
p3
(S'4.4'
tRp4
sVreference
p5
VCmRcAAAA_lSdFmBwhnjAMwHJjz2foHC5FMHlfXSpbB70oNGJrCgpYPwBY7pDWhz0KQO3frpNchvLPLzEQyB32Zk83v24zWHLXrt-HL70r2yiPMR5YQ8OvCoJeYcAqdsblzMpWjS9EhD38Zi8IjOqVO71zlge4stfGhTgIobiqdba5lzSFSkiXFYfIhqYzQ
p6
sVplace_id
p7
VChIJYdYrAeF9hYARXSv17bySojU
p8
sVurl
p9
Vhttps://maps.google.com/?cid=3864812770381081437
p10
sVformatted_address
p11
V5008 Telegraph Ave, Oakland, CA 94609, United States
p12
sVid
p13
Vbc06516a610094bf52f6c5ad21b85c209cbd8b9f
p14
sVopening_hours
p15
(dp16
Vweekday_text
p17
(lp18
VMonday: 8:00 AM \u2013 12:00 PM, 5:30 \u2013 10:00 PM
p19
aVTuesday: 8:00 AM \u2013 12:00 PM, 5:30 \u2013 10:00 PM
p20
aVWednesday: 8:00 AM \u2013 12:00 PM, 5:30 \u2013 10:00 PM
p21
aVThursday: 8:00 AM \u2013 12:00 PM, 5:30 \u2013 10:00 PM
p22
aVFriday: 8:00 AM \u2013 12:00 PM, 5:30 \u2013 10:30 PM
p23
aVSaturday: 8:00 AM \u2013 12:00 PM, 5:30 \u2013 10:30 PM
p24
aVSunday: Closed
p25
asVopen_now
p26
I00
sVperiods
p27
(lp28
(dp29
Vclose
p30
(dp31
Vday
p32
I1
sVtime
p33
V1200
p34
ssVopen
p35
(dp36
Vday
p37
I1
sVtime
p38
V0800
p39
ssa(dp40
Vclose
p41
(dp42
Vday
p43
I1
sVtime
p44
V2200
p45
ssVopen
p46
(dp47
Vday
p48
I1
sVtime
p49
V1730
p50
ssa(dp51
Vclose
p52
(dp53
Vday
p54
I2
sVtime
p55
V1200
p56
ssVopen
p57
(dp58
Vday
p59
I2
sVtime
p60
V0800
p61
ssa(dp62
Vclose
p63
(dp64
Vday
p65
I2
sVtime
p66
V2200
p67
ssVopen
p68
(dp69
Vday
p70
I2
sVtime
p71
V1730
p72
ssa(dp73
Vclose
p74
(dp75
Vday
p76
I3
sVtime
p77
V1200
p78
ssVopen
p79
(dp80
Vday
p81
I3
sVtime
p82
V0800
p83
ssa(dp84
Vclose
p85
(dp86
Vday
p87
I3
sVtime
p88
V2200
p89
ssVopen
p90
(dp91
Vday
p92
I3
sVtime
p93
V1730
p94
ssa(dp95
Vclose
p96
(dp97
Vday
p98
I4
sVtime
p99
V1200
p100
ssVopen
p101
(dp102
Vday
p103
I4
sVtime
p104
V0800
p105
ssa(dp106
Vclose
p107
(dp108
Vday
p109
I4
sVtime
p110
V2200
p111
ssVopen
p112
(dp113
Vday
p114
I4
sVtime
p115
V1730
p116
ssa(dp117
Vclose
p118
(dp119
Vday
p120
I5
sVtime
p121
V1200
p122
ssVopen
p123
(dp124
Vday
p125
I5
sVtime
p126
V0800
p127
ssa(dp128
Vclose
p129
(dp130
Vday
p131
I5
sVtime
p132
V2230
p133
ssVopen
p134
(dp135
Vday
p136
I5
sVtime
p137
V1730
p138
ssa(dp139
Vclose
p140
(dp141
Vday
p142
I6
sVtime
p143
V1200
p144
ssVopen
p145
(dp146
Vday
p147
I6
sVtime
p148
V0800
p149
ssa(dp150
Vclose
p151
(dp152
Vday
p153
I6
sVtime
p154
V2230
p155
ssVopen
p156
(dp157
Vday
p158
I6
sVtime
p159
V1730
p160
ssassVvicinity
p161
V5008 Telegraph Avenue, Oakland
p162
sVscope
p163
VGOOGLE
p164
sVwebsite
p165
Vhttp://www.pizzaiolooakland.com/
p166
sVutc_offset
p167
I-420
sVuser_ratings_total
p168
I157
sVphotos
p169
(lp170
(dp171
Vphoto_reference
p172
VCoQBcwAAANkcMRkVKJjHBBcLnQuwsHB-LIB88ZoupZPUUC6xijODbv-5Uo1QcOFPFysddcXPi9b_p8_I12Y1hGC7tYXh0oO7MIX23pI-BKJpSndOoJD9fgYHWeGw3jCgVwynpO3Dv4yg3L6yHiXad20zLW_1SxQC17Sws3iNTJe0YUJXH3-4EhCcJ7fVmRXSAGhn2rG4DqjOGhSboAL5NMHJpdVFcjjK24EVT8HSNA
p173
sVwidth
p174
I4032
sVhtml_attributions
p175
(lp176
V<a href="https://maps.google.com/maps/contrib/108618177694476337420/photos">Nicholas Richter</a>
p177
asVheight
p178
I3024
sa(dp179
Vphoto_reference
p180
VCoQBcwAAAEkPJp4Dqhmi29Nt23Wbo4Fd9Q-YiQGVNMBwgbxJHRgdnq0njYg6rwhRe9zbySEbX5m5iyZFX0fVbDCtmmVr4VJPHB6T_qcMUPy5nXMxYSsxS4prBEvMOqxsOJF8T40g3XjwguPzpGXDyLePysgM59ZQTjHKozV9mIeJ9jdtNWPXEhDbia_DtgTzLJ3FY0aMEy95GhTyDxzy9WImjKY_2st_taOz8kqnmQ
p181
sVwidth
p182
I4032
sVhtml_attributions
p183
(lp184
V<a href="https://maps.google.com/maps/contrib/108618177694476337420/photos">Nicholas Richter</a>
p185
asVheight
p186
I3024
sa(dp187
Vphoto_reference
p188
VCmRdAAAAPqEQRz_0OVhHsJ12_lffLyz7jw7hYuJYR1Rbhng9b1g_8yW4z-psHBTMia08tGFhnqHRTGaxhmsqTyPiS647F1hBNC6EMY26RFNci-sBnR9Nke-j6t7uD1rQD-N7dCluEhDpFKzmGiq0GvPJJxCGuOS5GhQjdaD5xfXjP16bigB4NgBXv8h3iw
p189
sVwidth
p190
I3232
sVhtml_attributions
p191
(lp192
V<a href="https://maps.google.com/maps/contrib/105469374892018285199/photos">Jaimie I</a>
p193
asVheight
p194
I2424
sa(dp195
Vphoto_reference
p196
VCmRdAAAAQIc-s0WM9tow5ww78Sngpp5hdtHjDKNIZhTKLONl1Zd-csn1wmPwv57vU4Z48dHOJcYfDb04V30wJg4oC7wf8gcXWOHaHYWW49BQEb5o0JxyYqMInC79AXvAyXUVM31aEhDizPZvQiZy9OvYrtQa5KbtGhRZ_2ffCesQlySpMkCq8CiUDLDOoQ
p197
sVwidth
p198
I1024
sVhtml_attributions
p199
(lp200
V<a href="https://maps.google.com/maps/contrib/115479056828057538050/photos">Sam Buckwalter</a>
p201
asVheight
p202
I683
sa(dp203
Vphoto_reference
p204
VCoQBcwAAAEz0CcAN57fZnMGHL36jhDFUGbYAc7Rirhkxbus5Xr6briADmST7RVCt9msg34Rx_jCj9xuv34459KRrC3sqK0VDmwPatzpQgg663_-vRekiuQvpzZaiusSReZ8YbEikun2YB7sFUj1t9nPstfMSlt-MkLhyknGiZLjryMGhFPaSEhDN8JJ4TDPz-XNlYcqTq_CKGhR78Gq6O8bkMinRgnQ63l3OcEAICA
p205
sVwidth
p206
I4032
sVhtml_attributions
p207
(lp208
V<a href="https://maps.google.com/maps/contrib/108618177694476337420/photos">Nicholas Richter</a>
p209
asVheight
p210
I3024
sa(dp211
Vphoto_reference
p212
VCmRdAAAAIKYuZ1WSTZhYIWMJ_4-BvsCAYgDgCm1c14oVzqi0PmQWbFIqLJA_gqj5VQpQ7uDqqch9vv1PYDktA7vXAiWFnhKW4x1zqspeOkEf4CeSbquvU4CiXRz3s7w4sheeOKdWEhBgrLsyc3otViYDj7CY66gxGhTbqPtmUo1RaRM3k3yMjAxv9kscpw
p213
sVwidth
p214
I3232
sVhtml_attributions
p215
(lp216
V<a href="https://maps.google.com/maps/contrib/105469374892018285199/photos">Jaimie I</a>
p217
asVheight
p218
I2424
sa(dp219
Vphoto_reference
p220
VCoQBcwAAAL4SanECjfiCGy0YhENbN7T43Vc8YomZ1o6i8WJV-bs8IiAcjBH1he22mxcpy7rW4O9PeUlar2tHZTE5oLqL7a1zf-NXFVsM5ps8CA0lliSYBrubmus52oo6gcgfZoeFIAO5xf45drNN9tQW05vHYUwh663eBAn-ESrsoMpSgigaEhDjRNX2N7Qjdbr4fa0zySA3GhSNcQlpC6-KsrogfXZUgfrHkuL0xg
p221
sVwidth
p222
I4032
sVhtml_attributions
p223
(lp224
V<a href="https://maps.google.com/maps/contrib/108618177694476337420/photos">Nicholas Richter</a>
p225
asVheight
p226
I3024
sa(dp227
Vphoto_reference
p228
VCoQBdwAAAFb1t04CCCk7yTHECP-Z9EdTZG320cWxFIOYpvOBRKRTnrU7a2uwHj1TvWHkHHwgSFrxqN2gK173svSgVBBfaRADsVfIY6xcunkLiccBMXkBzTlYllt-l50tSP0wYwkCY3APh04iUbDcYufQl1AR5kKdOV9SvfH6q_g9DOBKLTlREhDOFflYDGXUqSH1E_oBo57oGhQdzjmkheRARmZOAcgOSCX8PIJ6tg
p229
sVwidth
p230
I3088
sVhtml_attributions
p231
(lp232
V<a href="https://maps.google.com/maps/contrib/106935816241980541520/photos">Brendan Callum</a>
p233
asVheight
p234
I3541
sasVtypes
p235
(lp236
Vmeal_takeaway
p237
aVbar
p238
aVrestaurant
p239
aVfood
p240
aVpoint_of_interest
p241
aVestablishment
p242
asVicon
p243
Vhttps://maps.gstatic.com/mapfiles/place_api/icons/restaurant-71.png
p244
sVname
p245
VPizzaiolo
p246
sVgeometry
p247
(dp248
Vaccess_points
p249
(lp250
(dp251
Vtravel_modes
p252
(lp253
VDRIVING
p254
aVBICYCLING
p255
aVWALKING
p256
aVTRANSIT
p257
asVlocation
p258
(dp259
Vlat
p260
g3
(S'37.83663850000001'
tRp261
sVlng
p262
g3
(S'-122.2624521'
tRp263
ssasVlocation
p264
(dp265
Vlat
p266
g3
(S'37.8365993'
tRp267
sVlng
p268
g3
(S'-122.2622135'
tRp269
sssVadr_address
p270
V<span class="street-address">5008 Telegraph Ave</span>, <span class="locality">Oakland</span>, <span class="region">CA</span> <span class="postal-code">94609</span>, <span class="country-name">United States</span>
p271
sVinternational_phone_number
p272
V+1 510-652-4888
p273
sVreviews
p274
(lp275
(dp276
Vrating
p277
I5
sVaspects
p278
(lp279
(dp280
Vrating
p281
I3
sVtype
p282
Voverall
p283
sasVprofile_photo_url
p284
V//lh5.googleusercontent.com/-_oWm_bw-AYs/AAAAAAAAAAI/AAAAAAAALhA/Hoo9HYKMEgo/photo.jpg
p285
sVlanguage
p286
Ven
p287
sVtext
p288
VEverything I had here was delicious. Mozzarella with asparagus and prosciutto (creamy, super fresh), rigatoni with chunks of juicy chicken, pizza with sausage and a farm egg (of course).\u000a\u000aI would also come here just to have their drinks. Their homemade ginger mint soda with some bourbon or gin is delicious.
p289
sVauthor_name
p290
VBrendan Callum
p291
sVauthor_url
p292
Vhttps://plus.google.com/106935816241980541520
p293
sVtime
p294
I1460828174
sa(dp295
Vrating
p296
I5
sVaspects
p297
(lp298
(dp299
Vrating
p300
I3
sVtype
p301
Voverall
p302
sasVprofile_photo_url
p303
V//lh5.googleusercontent.com/-HPhn16zm4ts/AAAAAAAAAAI/AAAAAAAAvpE/dzpcwmNh9N0/photo.jpg
p304
sVlanguage
p305
Ven
p306
sVtext
p307
VNot only is the pizza awesome here, but the other dishes are great as well.  They can be on the smaller size, but it's delicious.  It's always bustling, so be prepared to wait.
p308
sVauthor_name
p309
VMike W
p310
sVauthor_url
p311
Vhttps://plus.google.com/114027858096616322497
p312
sVtime
p313
I1458684734
sa(dp314
Vrating
p315
I4
sVaspects
p316
(lp317
(dp318
Vrating
p319
I2
sVtype
p320
Voverall
p321
sasVprofile_photo_url
p322
V//lh5.googleusercontent.com/-wft_5gE8MSc/AAAAAAAAAAI/AAAAAAAAEMQ/yck_Vhaw4bA/photo.jpg
p323
sVlanguage
p324
Ven
p325
sVtext
p326
VGreat expensive toast.  It's really good but it's also really expensive but you should go.  Make sure you get an apple fritter.  
p327
sVauthor_name
p328
VAaron Holby
p329
sVauthor_url
p330
Vhttps://plus.google.com/112169102305790906770
p331
sVtime
p332
I1460779314
sa(dp333
Vrating
p334
I5
sVaspects
p335
(lp336
(dp337
Vrating
p338
I3
sVtype
p339
Voverall
p340
sasVprofile_photo_url
p341
V//lh4.googleusercontent.com/-70Wohs6LRos/AAAAAAAAAAI/AAAAAAAAUUA/1vus4IXHyV4/photo.jpg
p342
sVlanguage
p343
Ven
p344
sVtext
p345
VGreat vibe, delicious food, amazing pizzas, excellent service.  Definitely going back here again soon.  
p346
sVauthor_name
p347
VBryan Connolly
p348
sVauthor_url
p349
Vhttps://plus.google.com/112910635590652546908
p350
sVtime
p351
I1456434748
sa(dp352
Vrating
p353
I4
sVaspects
p354
(lp355
(dp356
Vrating
p357
I2
sVtype
p358
Voverall
p359
sasVprofile_photo_url
p360
V//lh5.googleusercontent.com/-XfxvS6t3Rsc/AAAAAAAAAAI/AAAAAAAALIg/lxxNxu42co8/photo.jpg
p361
sVlanguage
p362
Ven
p363
sVtext
p364
VMy wife and I went here on on a limb, because we wanted something lite to eat. It was super easy to make a reservation online and then when we got there we were seated right away. The service was on par, at times I felt like I was waiting on the waitress, but again it was pretty busy. \u000a\u000aThe food was magnificent. Best marg pizza we've ever had. \u000aThe atmosphere was enjoyable and rustic, differently felt comfortable. \u000a\u000aI'd recommend this to anyone and we will go again when we're in town. 
p365
sVauthor_name
p366
VGreg Rakozy
p367
sVauthor_url
p368
Vhttps://plus.google.com/113090048848839008076
p369
sVtime
p370
I1439830247
sasVformatted_phone_number
p371
V(510) 652-4888
p372
sVaddress_components
p373
(lp374
(dp375
Vlong_name
p376
V5008
p377
sVtypes
p378
(lp379
Vstreet_number
p380
asVshort_name
p381
V5008
p382
sa(dp383
Vlong_name
p384
VTelegraph Avenue
p385
sVtypes
p386
(lp387
Vroute
p388
asVshort_name
p389
VTelegraph Ave
p390
sa(dp391
Vlong_name
p392
VOakland
p393
sVtypes
p394
(lp395
Vlocality
p396
aVpolitical
p397
asVshort_name
p398
VOakland
p399
sa(dp400
Vlong_name
p401
VCalifornia
p402
sVtypes
p403
(lp404
Vadministrative_area_level_1
p405
aVpolitical
p406
asVshort_name
p407
VCA
p408
sa(dp409
Vlong_name
p410
VUnited States
p411
sVtypes
p412
(lp413
Vcountry
p414
aVpolitical
p415
asVshort_name
p416
VUS
p417
sa(dp418
Vlong_name
p419
V94609
p420
sVtypes
p421
(lp422
Vpostal_code
p423
asVshort_name
p424
V94609
p425
sas.