(dp1
Vrating
p2
cdecimal
Decimal
p3
(S'3.9'
tRp4
sVreference
p5
VCmRbAAAAFXIq9TjJHnH5qZIpQBXmTOJIFZQiJbnQ-Nu_nNpIgicqlCZ-Mj5rxXIrQCShRbNapshfbPgEwWVAdIFxaJ3rv8tYIWaGx08QSwCzIPKGXEcvooibdvImrMR3wah6rV_GEhAC-a1Npj2I_ynFEcx_mDI3GhSi-q7SDFZySiSvLy3a8C4Z68d1sA
p6
sVprice_level
p7
I1
sVplace_id
p8
VChIJb_Dl_Di7j4ARxK1rSZ4Orbk
p9
sVurl
p10
Vhttps://maps.google.com/?cid=13379366140987026884
p11
sVformatted_address
p12
V482 University Ave, Palo Alto, CA 94301, United States
p13
sVid
p14
V98e622875e2543a8f9e73d369ecf14499296b121
p15
sVopening_hours
p16
(dp17
Vweekday_text
p18
(lp19
VMonday: 11:00 AM \u2013 10:00 PM
p20
aVTuesday: 11:00 AM \u2013 10:00 PM
p21
aVWednesday: 11:00 AM \u2013 10:00 PM
p22
aVThursday: 11:00 AM \u2013 10:00 PM
p23
aVFriday: 11:00 AM \u2013 11:00 PM
p24
aVSaturday: 11:30 AM \u2013 11:00 PM
p25
aVSunday: 11:30 AM \u2013 10:00 PM
p26
asVopen_now
p27
I00
sVperiods
p28
(lp29
(dp30
Vclose
p31
(dp32
Vday
p33
I0
sVtime
p34
V2200
p35
ssVopen
p36
(dp37
Vday
p38
I0
sVtime
p39
V1130
p40
ssa(dp41
Vclose
p42
(dp43
Vday
p44
I1
sVtime
p45
V2200
p46
ssVopen
p47
(dp48
Vday
p49
I1
sVtime
p50
V1100
p51
ssa(dp52
Vclose
p53
(dp54
Vday
p55
I2
sVtime
p56
V2200
p57
ssVopen
p58
(dp59
Vday
p60
I2
sVtime
p61
V1100
p62
ssa(dp63
Vclose
p64
(dp65
Vday
p66
I3
sVtime
p67
V2200
p68
ssVopen
p69
(dp70
Vday
p71
I3
sVtime
p72
V1100
p73
ssa(dp74
Vclose
p75
(dp76
Vday
p77
I4
sVtime
p78
V2200
p79
ssVopen
p80
(dp81
Vday
p82
I4
sVtime
p83
V1100
p84
ssa(dp85
Vclose
p86
(dp87
Vday
p88
I5
sVtime
p89
V2300
p90
ssVopen
p91
(dp92
Vday
p93
I5
sVtime
p94
V1100
p95
ssa(dp96
Vclose
p97
(dp98
Vday
p99
I6
sVtime
p100
V2300
p101
ssVopen
p102
(dp103
Vday
p104
I6
sVtime
p105
V1130
p106
ssassVvicinity
p107
V482 University Avenue, Palo Alto
p108
sVscope
p109
VGOOGLE
p110
sVwebsite
p111
Vhttp://www.plutosfreshfood.com/
p112
sVutc_offset
p113
I-420
sVuser_ratings_total
p114
I226
sVphotos
p115
(lp116
(dp117
Vphoto_reference
p118
VCmRdAAAALhjBZonc5jnQoFnxm3AVPdbaqPkUJEDrDoMBSQqy7pQcEctRK9FoAKIzHBjED2Szu4s4hFwyBt5ALVHc1ZKOnS8jkuCzMRRfEQKbHEaWe2gIl7ckgVg16K88G4ejbxZ_EhC490mgNeit3FxaEM8oWZlnGhTZJVjVVLviUivQZ8X-N9VJliIIsA
p119
sVwidth
p120
I3264
sVhtml_attributions
p121
(lp122
V<a href="https://maps.google.com/maps/contrib/106028823491918683457/photos">Theodore Wu</a>
p123
asVheight
p124
I2448
sa(dp125
Vphoto_reference
p126
VCmRdAAAAvjK32wqR9Qbn5vpyxcnj8bvrnGhNOGfH92V5Eqoop2TglJOOgfp9q6nR9fOtlb9S3ykLTkOvRi5aN0JRaUjgoS4J1UGMZsi8okJ6Z_hfd6FV6Asi-GxZs3aUU9FLn8xfEhBoxLgoht9Y2d6vM8EXINiIGhTJSgV788s6CQElYJHksdCQQTJf0g
p127
sVwidth
p128
I3024
sVhtml_attributions
p129
(lp130
V<a href="https://maps.google.com/maps/contrib/110796382494248671176/photos">Ibrahim !</a>
p131
asVheight
p132
I4032
sa(dp133
Vphoto_reference
p134
VCmRdAAAAQMW-aoxPcrkguIKmjDO3gmw5HoFXoocqxSA6BQqcghj8LjT5JUkBz7WjCAn9pxswmKG3TuF2D8wAEHO6KCk87L3x6wDYEasu1WE8jBaybYsWTroYbPj7gxsYF2DcPTaJEhAD41p-bNSTvck12NkHpzkGGhS9tziwy5mp26yUiJ6psuo5FhtUdg
p135
sVwidth
p136
I3024
sVhtml_attributions
p137
(lp138
V<a href="https://maps.google.com/maps/contrib/110796382494248671176/photos">Ibrahim !</a>
p139
asVheight
p140
I4032
sa(dp141
Vphoto_reference
p142
VCoQBcwAAAJz-k1QtSAvaa3Q_9Yy4y04iZYl_a50hgWplIq0hIaAcFhVfWBUV-PACT55rGvUsffyMhyfc8vFxfnYv5JHfxqfNTGtr6nAr2Y_9xrJIv39s8Vfptiq8U2yr66VLyPDV1gT0tROFwxfdpj8MR27ILDCDIPuERoL-YWIjg3DBroTqEhCUQm0VgAD5d1RvNwKRbJdqGhSW1ElVohO7gB3fWq6lp80fljhYFA
p143
sVwidth
p144
I1600
sVhtml_attributions
p145
(lp146
V<a href="https://maps.google.com/maps/contrib/100500770256468143772/photos">Emily Allstot</a>
p147
asVheight
p148
I1200
sa(dp149
Vphoto_reference
p150
VCmRdAAAAvd2X40neAqjQ4nDzwr4hnRQMew-ADPY-TBDsOcpUuKaCTlSYtb9p3KYe7MqTbt6YJEi9xjF2aNaejPrcT0qpfkfai78SRx7AdrFEudeUtIvngUsXT5LhRmyiWlL8iAVqEhDWy5L2PbvYebP27NMvtbvDGhR61lemmSKN9zbnkhgQvlMF9WZedg
p151
sVwidth
p152
I3264
sVhtml_attributions
p153
(lp154
V<a href="https://maps.google.com/maps/contrib/106028823491918683457/photos">Theodore Wu</a>
p155
asVheight
p156
I2448
sa(dp157
Vphoto_reference
p158
VCmRdAAAA_LiloOpQylkRoyztPXoX_1FZvanzo5NaoZZnbAHby3sS62_P7R_nY-Mw7cUwv0t9KX7aRtgaZKS1hMcn7TXGYlDNiPWBrEhbRSSxiEA3BAtXPnu3OuX7jT7FwFAeEaQMEhB7KWB-kpp0-333wyqwJ_BlGhT6hf8TVLBdsAOo4KwRnImh_Ar9yg
p159
sVwidth
p160
I3024
sVhtml_attributions
p161
(lp162
V<a href="https://maps.google.com/maps/contrib/110796382494248671176/photos">Ibrahim !</a>
p163
asVheight
p164
I4032
sa(dp165
Vphoto_reference
p166
VCmRdAAAAiuaIsDsbN4tLHbbJY_eUfU27Z47pthnIA_p2Nztgle47nm1NnaDlCEJ1bYJAPQ0YKGb3OFG_MajhGvqOqw8-horP2lRcfuTSuVNZWknFbHyBh_Q3ERQB7wOWzDJUlMc1EhC85yRTSiwa8d8RiMPTTPOlGhQnHmUguNQyW6EmvqH6yNyZh6FUDA
p167
sVwidth
p168
I972
sVhtml_attributions
p169
(lp170
V<a href="https://maps.google.com/maps/contrib/115584845914183643191/photos">Jade Wang</a>
p171
asVheight
p172
I1296
sa(dp173
Vphoto_reference
p174
VCmRdAAAAXKbMoBIAdT7zrJDKWMOjaN-DZ828AYOzvXqIcJjh6fnHCti39BkpmZQWCNMiyo8r_Tu_OEMC8imCF8DSpW_xEOrLQqOhICFRPT9Wi99cCMZPIaNlTzDSQUDKkEMY3m5BEhAmWy2T40h1vg6iqbj9XIedGhQZy2sRd6UyHjADm4dmXXs5OPaXxQ
p175
sVwidth
p176
I972
sVhtml_attributions
p177
(lp178
V<a href="https://maps.google.com/maps/contrib/115584845914183643191/photos">Jade Wang</a>
p179
asVheight
p180
I1296
sa(dp181
Vphoto_reference
p182
VCmRdAAAAwAeaGvcZN61dFMskQKTYySotmiGrimuBOvKf5pK9uchoLBfiyqWmf9qd3ImQmZLIoYZ-SJhGYhyATVzXmuP_r-w9JCjyaI6jziTxmBzF0DqQj22tDVVxo77AGhmvHLWpEhBgmBZlKRQmWhf0kypekgaHGhQtPExMGJNM9ZhbxvAu5MHpoPcUaQ
p183
sVwidth
p184
I3024
sVhtml_attributions
p185
(lp186
V<a href="https://maps.google.com/maps/contrib/110796382494248671176/photos">Ibrahim !</a>
p187
asVheight
p188
I4032
sasVtypes
p189
(lp190
Vrestaurant
p191
aVfood
p192
aVpoint_of_interest
p193
aVestablishment
p194
asVicon
p195
Vhttps://maps.gstatic.com/mapfiles/place_api/icons/restaurant-71.png
p196
sVname
p197
VPluto's
p198
sVgeometry
p199
(dp200
Vaccess_points
p201
(lp202
(dp203
Vtravel_modes
p204
(lp205
VDRIVING
p206
aVBICYCLING
p207
aVWALKING
p208
aVTRANSIT
p209
asVlocation
p210
(dp211
Vlat
p212
g3
(S'37.4480882'
tRp213
sVlng
p214
g3
(S'-122.1594608'
tRp215
ssasVlocation
p216
(dp217
Vlat
p218
g3
(S'37.4479782'
tRp219
sVlng
p220
g3
(S'-122.159285'
tRp221
sssVadr_address
p222
V<span class="street-address">482 University Ave</span>, <span class="locality">Palo Alto</span>, <span class="region">CA</span> <span class="postal-code">94301-1812</span>, <span class="country-name">United States</span>
p223
sVinternational_phone_number
p224
V+1 650-853-1556
p225
sVreviews
p226
(lp227
(dp228
Vrating
p229
I5
sVaspects
p230
(lp231
(dp232
Vrating
p233
I3
sVtype
p234
Voverall
p235
sasVprofile_photo_url
p236
V//lh5.googleusercontent.com/-e_Qz6XIZJqo/AAAAAAAAAAI/AAAAAAABk4c/hy77B4ri5Yg/photo.jpg
p237
sVlanguage
p238
Ven
p239
sVtext
p240
VThe first time I tried Pluto's, I was walking down the street and a small group was exiting the restaurant right as I passed and were loudly exclaiming how completely delicious the meal they had just eaten was. I was so surprised to hear such rave reviews I had to try it myself. I was not disappointed. They have a variety of sandwiches, salads and soups. I've had different combinations of the three and everything is top notch. Very affordable, great service. 
p241
sVauthor_name
p242
VCraig Foster
p243
sVauthor_url
p244
Vhttps://plus.google.com/111642936581150005827
p245
sVtime
p246
I1448223255
sa(dp247
Vrating
p248
I4
sVaspects
p249
(lp250
(dp251
Vrating
p252
I2
sVtype
p253
Voverall
p254
sasVprofile_photo_url
p255
V//lh6.googleusercontent.com/-RqT3uUOVGLE/AAAAAAAAAAI/AAAAAAAArT4/Cv9ylKswBNA/photo.jpg
p256
sVlanguage
p257
Ven
p258
sVtext
p259
VThe sandwiches and salads are delicious, and the prices are very good (especially for University Ave in Palo Alto). Not a fan of the way the queue works or the decor - so prefer to take out.
p260
sVauthor_name
p261
VMarin Licina
p262
sVauthor_url
p263
Vhttps://plus.google.com/117445793222509472513
p264
sVtime
p265
I1459285587
sa(dp266
Vrating
p267
I4
sVaspects
p268
(lp269
(dp270
Vrating
p271
I2
sVtype
p272
Voverall
p273
sasVprofile_photo_url
p274
V//lh4.googleusercontent.com/-vIJoN0o4xiw/AAAAAAAAAAI/AAAAAAAFsIk/zLXI_nHCxXs/photo.jpg
p275
sVlanguage
p276
Ven
p277
sVtext
p278
VVery kid friendly with lots of good options. The salads are also awesome. Some of the rest of the food is just okay though
p279
sVauthor_name
p280
VIan Lake
p281
sVauthor_url
p282
Vhttps://plus.google.com/108723596340082219264
p283
sVtime
p284
I1461130271
sa(dp285
Vrating
p286
I5
sVaspects
p287
(lp288
(dp289
Vrating
p290
I3
sVtype
p291
Voverall
p292
sasVprofile_photo_url
p293
V//lh4.googleusercontent.com/-rQ0dImqv_Ag/AAAAAAAAAAI/AAAAAAAAJTE/ic0eX19VAzE/photo.jpg
p294
sVlanguage
p295
Ven
p296
sVtext
p297
VThis is a fun, space themed sandwich joint located outside the Stanford campus. It has a college student atmosphere and good food for fairly cheap. Would recommend trying out.
p298
sVauthor_name
p299
VTyler Webb
p300
sVauthor_url
p301
Vhttps://plus.google.com/104151887925004037182
p302
sVtime
p303
I1448908894
sa(dp304
Vrating
p305
I3
sVaspects
p306
(lp307
(dp308
Vrating
p309
I1
sVtype
p310
Voverall
p311
sasVprofile_photo_url
p312
V//lh3.googleusercontent.com/-Gt0r5ww8b4o/AAAAAAAAAAI/AAAAAAAAAoY/WrL3zmP7DiA/photo.jpg
p313
sVlanguage
p314
Ven
p315
sVtext
p316
Vexcellent food but they could smile a bit. Unfriendly staff. 
p317
sVauthor_name
p318
VIgor PS
p319
sVauthor_url
p320
Vhttps://plus.google.com/100117422768213725760
p321
sVtime
p322
I1460234495
sasVformatted_phone_number
p323
V(650) 853-1556
p324
sVaddress_components
p325
(lp326
(dp327
Vlong_name
p328
V482
p329
sVtypes
p330
(lp331
Vstreet_number
p332
asVshort_name
p333
V482
p334
sa(dp335
Vlong_name
p336
VUniversity Avenue
p337
sVtypes
p338
(lp339
Vroute
p340
asVshort_name
p341
VUniversity Ave
p342
sa(dp343
Vlong_name
p344
VPalo Alto
p345
sVtypes
p346
(lp347
Vlocality
p348
aVpolitical
p349
asVshort_name
p350
VPalo Alto
p351
sa(dp352
Vlong_name
p353
VCalifornia
p354
sVtypes
p355
(lp356
Vadministrative_area_level_1
p357
aVpolitical
p358
asVshort_name
p359
VCA
p360
sa(dp361
Vlong_name
p362
VUnited States
p363
sVtypes
p364
(lp365
Vcountry
p366
aVpolitical
p367
asVshort_name
p368
VUS
p369
sa(dp370
Vlong_name
p371
V94301
p372
sVtypes
p373
(lp374
Vpostal_code
p375
asVshort_name
p376
V94301
p377
sa(dp378
Vlong_name
p379
V1812
p380
sVtypes
p381
(lp382
Vpostal_code_suffix
p383
asVshort_name
p384
V1812
p385
sas.