(dp1
Vrating
p2
cdecimal
Decimal
p3
(S'4.6'
tRp4
sVreference
p5
VCmRaAAAAYH1_CI-fgxLgfE8zwShPX4Y2WJBF5-lqSxLqQPa4hIARRQS0YW_eYdBgnRLhjXEDN7kprEek1bzdci4FEAwHSJZK52tMbhEJn3otAWSSOOVKa1LKdSazVwXsPo2wxlsSEhA-EKZuCFvLXl9U3ouNzZRMGhSK1RaJTuo5SIfBLFMbkU9B3EERJA
p6
sVplace_id
p7
VChIJ8biHnb-AhYARSpU8MDPb5vs
p8
sVurl
p9
Vhttps://maps.google.com/?cid=18151436361062454602
p10
sVformatted_address
p11
V470 Pacific Ave, San Francisco, CA 94133, United States
p12
sVid
p13
V571ff24e697bce0789b774124d1b77e0951c3b2e
p14
sVopening_hours
p15
(dp16
Vweekday_text
p17
(lp18
VMonday: 5:30 \u2013 9:30 PM
p19
aVTuesday: 5:30 \u2013 9:30 PM
p20
aVWednesday: 5:30 \u2013 9:30 PM
p21
aVThursday: 5:30 \u2013 9:30 PM
p22
aVFriday: 5:00 \u2013 9:30 PM
p23
aVSaturday: 5:00 \u2013 9:30 PM
p24
aVSunday: Closed
p25
asVopen_now
p26
I00
sVperiods
p27
(lp28
(dp29
Vclose
p30
(dp31
Vday
p32
I1
sVtime
p33
V2130
p34
ssVopen
p35
(dp36
Vday
p37
I1
sVtime
p38
V1730
p39
ssa(dp40
Vclose
p41
(dp42
Vday
p43
I2
sVtime
p44
V2130
p45
ssVopen
p46
(dp47
Vday
p48
I2
sVtime
p49
V1730
p50
ssa(dp51
Vclose
p52
(dp53
Vday
p54
I3
sVtime
p55
V2130
p56
ssVopen
p57
(dp58
Vday
p59
I3
sVtime
p60
V1730
p61
ssa(dp62
Vclose
p63
(dp64
Vday
p65
I4
sVtime
p66
V2130
p67
ssVopen
p68
(dp69
Vday
p70
I4
sVtime
p71
V1730
p72
ssa(dp73
Vclose
p74
(dp75
Vday
p76
I5
sVtime
p77
V2130
p78
ssVopen
p79
(dp80
Vday
p81
I5
sVtime
p82
V1700
p83
ssa(dp84
Vclose
p85
(dp86
Vday
p87
I6
sVtime
p88
V2130
p89
ssVopen
p90
(dp91
Vday
p92
I6
sVtime
p93
V1700
p94
ssassVvicinity
p95
V470 Pacific Avenue, San Francisco
p96
sVscope
p97
VGOOGLE
p98
sVwebsite
p99
Vhttp://www.quincerestaurant.com/
p100
sVutc_offset
p101
I-420
sVuser_ratings_total
p102
I136
sVphotos
p103
(lp104
(dp105
Vphoto_reference
p106
VCmRdAAAAHqzJ9hsHo0SXXe7sJexqxVdS_jX9upRonqdAStr0zZ1bsOUBNJACu8G-1cIgPZ_g1zniAyol01RSrrN5qq3hBVW8eU5bj1uX5gGYbobbyy6j2XqMY8CAFKwpR6sLOrdoEhCUiQeG2WP1Gtg0bo9ULAK0GhQnRts4GReJ_pb_4aBVp3235iuQmg
p107
sVwidth
p108
I1050
sVhtml_attributions
p109
(lp110
V<a href="https://maps.google.com/maps/contrib/103856723985897973366/photos">Quince</a>
p111
asVheight
p112
I788
sa(dp113
Vphoto_reference
p114
VCmRdAAAASrynJk826BfO1i578rj0diYY2N22ULS_aDzXnKEXo_710iIWHxnbjp0o5T6TbbgqUs8CTHaHZRwGOHkVdaEGw1u8EDh1xH8C1jRdstUe215ucfUXmy8MBp9hRY0bRw-REhDX0c--ka-f5ZWlnlcwJtS9GhTUGewbdUvw7Q_v1Y66c8yBWVqmcA
p115
sVwidth
p116
I960
sVhtml_attributions
p117
(lp118
V<a href="https://maps.google.com/maps/contrib/115076861954284504726/photos">Anton Volkov</a>
p119
asVheight
p120
I639
sa(dp121
Vphoto_reference
p122
VCmRdAAAAFqGvhk11m1BxtEjJOOzOFGfQlzD-TZVovkl36lBf600wgY814JBHIlCIs1qQWGHxY8US_5ilUmPfrp6TpnfwLxEtyVU70SjjWBYV0UArcmSMi1kQwdxd9O9p6-yaIudxEhA_eaZ90PG1mhOwNh17a7yWGhQmYB3ilI3nX9Vz1HUKdR3XMGGgBQ
p123
sVwidth
p124
I960
sVhtml_attributions
p125
(lp126
V<a href="https://maps.google.com/maps/contrib/115076861954284504726/photos">Anton Volkov</a>
p127
asVheight
p128
I720
sa(dp129
Vphoto_reference
p130
VCmRdAAAAI1m5bAFOxCXMWNENqIPQSAQ_LlSZMV5feKY2oXz4BSA82D1FG5uSHaAT3XodTqA47_11pWh7t_peDYCnMRig3C2sAY5RTSLA5HAjq8ul3_HVj90eJDZRRDY0lrOOs7TVEhB_S2zNYbfIrPhU9n35R6h0GhSYI43d4VoJbHRlMw9ssOX1qJmmSA
p131
sVwidth
p132
I960
sVhtml_attributions
p133
(lp134
V<a href="https://maps.google.com/maps/contrib/115076861954284504726/photos">Anton Volkov</a>
p135
asVheight
p136
I960
sa(dp137
Vphoto_reference
p138
VCmRdAAAAMFByGIO9D2giLDT6PFbP4wByDA98BPaXadL4UIa3oLEuu05-1GttQLz3MndgGk-DxKTrfDCSTS2uxAAWujLIqqiz6v70Ofy3BCWcSeq0tXjt3_ZYgkPwNtK8IIxyeP2LEhCqxynQK2tUj6bu2n8otNldGhSvMuEvFPJMxcdSI5RD2OLTdqit4Q
p139
sVwidth
p140
I3264
sVhtml_attributions
p141
(lp142
V<a href="https://maps.google.com/maps/contrib/118256730145347651078/photos">Jim Lui</a>
p143
asVheight
p144
I2448
sa(dp145
Vphoto_reference
p146
VCmRdAAAAu1YkZ9cdyxSEoqdkT9I2_XxuTjPCpKl1ZdIseXygS42Vru0qF9iKJZAKYVFjKxnOXnShVX24ynYdYSnOvNsyC4rfAbKkW2LIwORLpjYkpXk_fNPm-u5jmgHSLt8ib84_EhAYeHKIpyJutg-Q_BF7gmW5GhT5k1Zm9hCB3i5fWyyr4nAxszYoZA
p147
sVwidth
p148
I960
sVhtml_attributions
p149
(lp150
V<a href="https://maps.google.com/maps/contrib/115076861954284504726/photos">Anton Volkov</a>
p151
asVheight
p152
I960
sa(dp153
Vphoto_reference
p154
VCmRdAAAA2Z_o4PxX64n0Fbsw9AYrU-Y2n6NSB1p-ts1VuFx4h4Jk7TkBBco9TwxH3itpoDkNc0seno0Pgf1CMXPSXpnyRpEbZGeWbAcbcbmMLDf7Qc2S2W8uXyd8lg6VqmlM0otiEhDuVXxnD1-p7Y04ErTOSBIOGhSF-tWNrHdM5_RjySEfCULxKkncWw
p155
sVwidth
p156
I3264
sVhtml_attributions
p157
(lp158
V<a href="https://maps.google.com/maps/contrib/118256730145347651078/photos">Jim Lui</a>
p159
asVheight
p160
I2448
sa(dp161
Vphoto_reference
p162
VCmRdAAAA8juazpTiHfgpzk7QakfSjRN-N4UCkGDe8olFxkpzbYJe9Htc97BlMjmMGYdNH1mDp_FglvDlePkaKzDU30n4nYaOYVqz-QXhRlsryrMpkPCiNiKgm-FDAMz1mu3hYkVgEhBiRw_4JesK4BFeU3WYlfYKGhTY4lx2gEZ9JjrqFjABoTppvJBH4w
p163
sVwidth
p164
I3264
sVhtml_attributions
p165
(lp166
V<a href="https://maps.google.com/maps/contrib/118256730145347651078/photos">Jim Lui</a>
p167
asVheight
p168
I2448
sa(dp169
Vphoto_reference
p170
VCmRdAAAAJPDwHW8bILulAobE1JRU11q9Q525CEZ3sIf1CYS0wfbyrSKdfJ3KbF_CsIuqIbkPxfJ-oaF68qCdgzVZ8ohRBaQmkI4H7UHnwAQ2UAu6vMrrPT_thbygVOeExY855EeqEhCPIov7mQw2gKzRePXzPt1QGhR-ZPp2qHjj7aXt_KbS2dpR2ZC_nA
p171
sVwidth
p172
I960
sVhtml_attributions
p173
(lp174
V<a href="https://maps.google.com/maps/contrib/115076861954284504726/photos">Anton Volkov</a>
p175
asVheight
p176
I960
sa(dp177
Vphoto_reference
p178
VCmRdAAAAdSfxvqshvoW2JsjVGZc73lxKQq0gHh7mL1Xhk_Ap1GLCHL4iHenOLwnxG3wqJ0fpeHWu1qz5kYAalLDSHKSpn3QtZCT3eFFxyuqFXyv80IgPBbnl41jl_vRqASi3alAxEhDydFpQlerj1LGdGamK0Y2bGhS5kOVR1I2THfgQxmFduQlZ2qS2ng
p179
sVwidth
p180
I3264
sVhtml_attributions
p181
(lp182
V<a href="https://maps.google.com/maps/contrib/118256730145347651078/photos">Jim Lui</a>
p183
asVheight
p184
I2448
sasVtypes
p185
(lp186
Vrestaurant
p187
aVfood
p188
aVpoint_of_interest
p189
aVestablishment
p190
asVicon
p191
Vhttps://maps.gstatic.com/mapfiles/place_api/icons/restaurant-71.png
p192
sVname
p193
VQuince
p194
sVgeometry
p195
(dp196
Vaccess_points
p197
(lp198
(dp199
Vtravel_modes
p200
(lp201
VDRIVING
p202
aVBICYCLING
p203
aVWALKING
p204
aVTRANSIT
p205
asVlocation
p206
(dp207
Vlat
p208
g3
(S'37.7973632'
tRp209
sVlng
p210
g3
(S'-122.4033258'
tRp211
ssasVlocation
p212
(dp213
Vlat
p214
g3
(S'37.797515'
tRp215
sVlng
p216
g3
(S'-122.4033559'
tRp217
sssVadr_address
p218
V<span class="street-address">470 Pacific Ave</span>, <span class="locality">San Francisco</span>, <span class="region">CA</span> <span class="postal-code">94133</span>, <span class="country-name">United States</span>
p219
sVinternational_phone_number
p220
V+1 415-775-8500
p221
sVreviews
p222
(lp223
(dp224
Vrating
p225
I5
sVaspects
p226
(lp227
(dp228
Vrating
p229
I3
sVtype
p230
Voverall
p231
sasVprofile_photo_url
p232
V//lh6.googleusercontent.com/-1qA-xPH9Wdw/AAAAAAAAAAI/AAAAAAAAAEE/qkBlyU16-hs/photo.jpg
p233
sVlanguage
p234
Ven
p235
sVtext
p236
VA wonderful experience highlighted by excellent service. We went there for the Valentine's Day tasting menu and had high hopes for a great time based on previous reviews, 2 Michelin stars, and images of the restaurant/food.  With these high expectations, it's easy to be let down but even though we were one of the last couples to be served (a series of courses that had been done all night) the service was still fresh and the food was presented so beautifully that I forgot my expectations and was just swept away. This is what you want from a restaurant of this caliber.\u000a\u000aThe interior was also far better than the Google interior images show. The layout of the seating and bar location has changed so that the tables have more separation which allowed a more intimate feeling at the table. The decor, lighting, and color palette are also very rich and romantic.\u000a\u000aI had wine paired with the meal and being more of a craft cocktail man, it's a smart call for me to let an expert choose the pairing. I was amazed at how well each pairing complimented each other.  I also got to try wines that I never would have chosen for myself. The king crab with the Sauvignon, the tortelli with Bourgogne Blanc, fantastic!\u000a\u000aIf this is your last meal ever, or your first with someone special, you'll be hard pressed to find a better end or new beginning.  Or if you just want to share an amazing evening with someone, this will probably exceed your expectations.\u000a\u000a
p237
sVauthor_name
p238
VAaron Hinkle
p239
sVauthor_url
p240
Vhttps://plus.google.com/116503507824751401855
p241
sVtime
p242
I1455556245
sa(dp243
Vrating
p244
I5
sVaspects
p245
(lp246
(dp247
Vrating
p248
I3
sVtype
p249
Voverall
p250
sasVprofile_photo_url
p251
V//lh5.googleusercontent.com/-R04NiTxLiJo/AAAAAAAAAAI/AAAAAAAAAqs/nNbyKfOyowo/photo.jpg
p252
sVlanguage
p253
Ven
p254
sVtext
p255
VEntirely delighted by how good the service is. The courses were creative, thoughtful, and delicious. But the service really made our meal a special occasion that we will remember. We are already looking for the next reason to come back. 
p256
sVauthor_name
p257
VSteven Wong
p258
sVauthor_url
p259
Vhttps://plus.google.com/118312690461878409466
p260
sVtime
p261
I1450590085
sa(dp262
Vrating
p263
I3
sVaspects
p264
(lp265
(dp266
Vrating
p267
I1
sVtype
p268
Voverall
p269
sasVprofile_photo_url
p270
V//lh6.googleusercontent.com/-i1YLy-xmLhA/AAAAAAAAAAI/AAAAAAAAV6U/1JVdXlvGC0U/photo.jpg
p271
sVlanguage
p272
Ven
p273
sVtext
p274
VThis was almost everything you'd want from a two Michelin star restaurant, great service, amazing ambiance, extensive (over priced) wine list and a great selection of other drinks with some fine single malt scotches to boot. \u000aHowever, I was not overwhelmed with the food. The seafood options to start were tasty, but overall I found the inventiveness of the food to be a bit lacking and the overall flavor profiles to be a little bland. This is not to say it was bad food, just that I was expecting slightly more from the flavor.\u000aI was also not completely full when I left this restaurant, which is very different to most other tasting menus I have experienced. \u000aThe hot chocolate on the way out was a nice touch though, and just to reiterate, the service was impeccable!
p275
sVauthor_name
p276
VDevin Ramdutt
p277
sVauthor_url
p278
Vhttps://plus.google.com/115619047556375390506
p279
sVtime
p280
I1445441921
sa(dp281
Vrating
p282
I4
sVaspects
p283
(lp284
(dp285
Vrating
p286
I2
sVtype
p287
Voverall
p288
sasVprofile_photo_url
p289
V//lh4.googleusercontent.com/-639GUnmbXkQ/AAAAAAAAAAI/AAAAAAAADhc/Rb_FflbpWAk/photo.jpg
p290
sVlanguage
p291
Ven
p292
sVtext
p293
VThis is a high end restaurant. They accommodate vegetarians well & also those who don't drink alcohol. We had their vegetarian tasting menu. The food was very good & creative, using unique items such as herbs & other ingredients. You have to leave 3 hours to dine here. Afterwards, we were shown the kitchen - very clean & organized. Come here for a dining experience or special occasion. I did not give it a 5 as one item came to us which was not vegetarian, but they more than made up for that error with the manager personally checking everything after. I also don't give it a 5 given the high price. The Taj Campton Place still stands as my favorite high end place in this area.
p294
sVauthor_name
p295
VMihir Meghani
p296
sVauthor_url
p297
Vhttps://plus.google.com/112704870730510086957
p298
sVtime
p299
I1436076422
sa(dp300
Vrating
p301
I5
sVaspects
p302
(lp303
(dp304
Vrating
p305
I3
sVtype
p306
Voverall
p307
sasVprofile_photo_url
p308
V//lh6.googleusercontent.com/-tHZcSXcIm5I/AAAAAAAAAAI/AAAAAAAAAEU/xEy7ymOqdKE/photo.jpg
p309
sVlanguage
p310
Ven
p311
sVtext
p312
VAmazing experience from start to end. We had vegetarian option and it was delicious.
p313
sVauthor_name
p314
VNishit Shah
p315
sVauthor_url
p316
Vhttps://plus.google.com/110138701028628616869
p317
sVtime
p318
I1447613574
sasVformatted_phone_number
p319
V(415) 775-8500
p320
sVaddress_components
p321
(lp322
(dp323
Vlong_name
p324
V470
p325
sVtypes
p326
(lp327
Vstreet_number
p328
asVshort_name
p329
V470
p330
sa(dp331
Vlong_name
p332
VPacific Avenue
p333
sVtypes
p334
(lp335
Vroute
p336
asVshort_name
p337
VPacific Ave
p338
sa(dp339
Vlong_name
p340
VSan Francisco
p341
sVtypes
p342
(lp343
Vlocality
p344
aVpolitical
p345
asVshort_name
p346
VSF
p347
sa(dp348
Vlong_name
p349
VCalifornia
p350
sVtypes
p351
(lp352
Vadministrative_area_level_1
p353
aVpolitical
p354
asVshort_name
p355
VCA
p356
sa(dp357
Vlong_name
p358
VUnited States
p359
sVtypes
p360
(lp361
Vcountry
p362
aVpolitical
p363
asVshort_name
p364
VUS
p365
sa(dp366
Vlong_name
p367
V94133
p368
sVtypes
p369
(lp370
Vpostal_code
p371
asVshort_name
p372
V94133
p373
sas.