(dp1
Vrating
p2
cdecimal
Decimal
p3
(S'4.5'
tRp4
sVreference
p5
VCnRoAAAAhhei_9lSTwR33q3-btXeHgsuTpd45fSVNi7FYcuYak2nZgbWptiKPp2fk6B1_kPALSYT7ACwqmZ6T54JkkYWxbK55EhaKMA01iPLeKAaJ9r4fHmJ5owcP0xDADZN0d_qQNvTBTFjbgOtmzpKrYK1GhIQ8utVxBFwiYuj2RzPmtpqaBoUAnvSWNphsLHsvv3kBSPHpjEK8SU
p6
sVplace_id
p7
VChIJq342JeGAhYARwdtH9tlX7gg
p8
sVurl
p9
Vhttps://maps.google.com/?cid=643548390411983809
p10
sVformatted_address
p11
V800 North Point St, San Francisco, CA 94109, United States
p12
sVid
p13
V25be2a94b0c307fb1bd92fef211a7e98ecf99674
p14
sVopening_hours
p15
(dp16
Vweekday_text
p17
(lp18
VMonday: 5:30 \u2013 10:00 PM
p19
aVTuesday: 5:30 \u2013 10:00 PM
p20
aVWednesday: 5:30 \u2013 10:00 PM
p21
aVThursday: 5:30 \u2013 10:00 PM
p22
aVFriday: 5:30 \u2013 10:00 PM
p23
aVSaturday: 5:30 \u2013 10:00 PM
p24
aVSunday: 5:30 \u2013 10:00 PM
p25
asVopen_now
p26
I00
sVperiods
p27
(lp28
(dp29
Vclose
p30
(dp31
Vday
p32
I0
sVtime
p33
V2200
p34
ssVopen
p35
(dp36
Vday
p37
I0
sVtime
p38
V1730
p39
ssa(dp40
Vclose
p41
(dp42
Vday
p43
I1
sVtime
p44
V2200
p45
ssVopen
p46
(dp47
Vday
p48
I1
sVtime
p49
V1730
p50
ssa(dp51
Vclose
p52
(dp53
Vday
p54
I2
sVtime
p55
V2200
p56
ssVopen
p57
(dp58
Vday
p59
I2
sVtime
p60
V1730
p61
ssa(dp62
Vclose
p63
(dp64
Vday
p65
I3
sVtime
p66
V2200
p67
ssVopen
p68
(dp69
Vday
p70
I3
sVtime
p71
V1730
p72
ssa(dp73
Vclose
p74
(dp75
Vday
p76
I4
sVtime
p77
V2200
p78
ssVopen
p79
(dp80
Vday
p81
I4
sVtime
p82
V1730
p83
ssa(dp84
Vclose
p85
(dp86
Vday
p87
I5
sVtime
p88
V2200
p89
ssVopen
p90
(dp91
Vday
p92
I5
sVtime
p93
V1730
p94
ssa(dp95
Vclose
p96
(dp97
Vday
p98
I6
sVtime
p99
V2200
p100
ssVopen
p101
(dp102
Vday
p103
I6
sVtime
p104
V1730
p105
ssassVvicinity
p106
V800 North Point Street, San Francisco
p107
sVscope
p108
VGOOGLE
p109
sVwebsite
p110
Vhttp://www.garydanko.com/
p111
sVutc_offset
p112
I-420
sVuser_ratings_total
p113
I812
sVphotos
p114
(lp115
(dp116
Vphoto_reference
p117
VCmRdAAAAW0LRAzuAByp9OhH7UomG4Es5PZnwdgolMcQXRrDRK3jVWrCKbBRz4Y4FZivRKSVLDt-bF4SWJq_zC55US-z6DCycaTE0mK0r3PD8BoIH9sSG32txHX5mADPgu5uUY88iEhBe05jZscdBV42mV2LQSAQvGhQnw_COe0r3L-wl1P5mVBoMOV9EEA
p118
sVwidth
p119
I3264
sVhtml_attributions
p120
(lp121
V<a href="https://maps.google.com/maps/contrib/110968339669321947548/photos">DraGemini H</a>
p122
asVheight
p123
I2448
sa(dp124
Vphoto_reference
p125
VCmRdAAAAh-5qjSx2HIhd8L3_lNnFj_2w_z7kIKwaG1A4OqwmsLQZKGzg6fZKOCQOeFTmc8WT1-l9YvW2yHqMaPyYK2vvYDhGBltxUevNbMGfTRJelxPMxag57LcZ-yunbLCRvgkwEhC0VZfdIADQHYAfQ6vnNrUMGhT6ERznWTFmt9xH5ZRBU6RIveKPHw
p126
sVwidth
p127
I2048
sVhtml_attributions
p128
(lp129
V<a href="https://maps.google.com/maps/contrib/101802336627278695204/photos">Amanda Spurlock</a>
p130
asVheight
p131
I1365
sa(dp132
Vphoto_reference
p133
VCmRdAAAA2YUUyBFd1NLwzPG9RNaTQk28ukhe0rqh-bORcKdFzTmshgHe8zn1byUELyPlhS4kzWSplfoZSOxrgfRblO-bXYgyOLh0GllM4KUTEiWZE64cX-pm2F3d9qg4URea-kXFEhAtx64dA7iUGOmZyU8f7mb-GhQShYNLqrXzqQYbOwFBMkqvWW5-qQ
p134
sVwidth
p135
I2048
sVhtml_attributions
p136
(lp137
V<a href="https://maps.google.com/maps/contrib/105928811308006518314/photos">Minh T. Nguyen</a>
p138
asVheight
p139
I1536
sa(dp140
Vphoto_reference
p141
VCmRdAAAAAZ6HDsy5dF1jaKnruOAWw-fbAD3qVl_nawHHsgpWRf7IwsZUECFnjqmGJBiCSqQ2Je9Pxrrah4xX0eNTfirzTnYBGEn0Fd8oZa2WJta5kImeatBTVvqt7lL1PdlTjN3vEhCitf46Qf4hmE6hwGVWWM67GhT-HAb3k_W3gwOoe6wstLH0QhbLyg
p142
sVwidth
p143
I2048
sVhtml_attributions
p144
(lp145
V<a href="https://maps.google.com/maps/contrib/101802336627278695204/photos">Amanda Spurlock</a>
p146
asVheight
p147
I1365
sa(dp148
Vphoto_reference
p149
VCoQBdwAAAO7AZUXxnPG63TaCbYOHmCQFlxsXnhipl4ihPgHXrDtZs-Agh259FgYXbhXK5coau02vA2XBhyrTrfmCTxzVYu93VFGCqi5L4kIDVIFZln2o8HoYuHO6b03WaijN5xyb_kcsHx-Al4VswhiYpwAiLVsxR4XYM1VlnK_9i0iyvb48EhCAfWBiCAIMfWRMi-E2J7GTGhSkinjZqr3KryGV5A0e8XNAvtyo9Q
p150
sVwidth
p151
I640
sVhtml_attributions
p152
(lp153
V<a href="https://maps.google.com/maps/contrib/110112319523911495305/photos">thaopania</a>
p154
asVheight
p155
I1136
sa(dp156
Vphoto_reference
p157
VCmRdAAAACZoQISCd8onQ0QCYsG3ZJyiHx8eMHooxaRO99tpQP-Grghs6GvNPz-kX1axsA_bo5Bwhl-3N2twMllnyrg1gGK0FFH5s7fKEeCmb8nXTVgzPIGeQ1eSSrNjE21pAXFVoEhBdv72v-KFCX9KmuvyNR2yKGhT9YP4F6VsiqS4XCQK0rEBVwNRkOA
p158
sVwidth
p159
I960
sVhtml_attributions
p160
(lp161
V<a href="https://maps.google.com/maps/contrib/115076861954284504726/photos">Anton Volkov</a>
p162
asVheight
p163
I716
sa(dp164
Vphoto_reference
p165
VCmRdAAAAa7EeSrg-tUISC-Bn0GztfHk0-CqZb8OggWTOY9ABevOnz7HtIep8BkwCj_XlZo0BD4NvpmGaMBH1X7tHO3tOOL16x2l7IZQntTS56ueJxNV1t5bwfPDusEaiGTBr5fZuEhD367FpFMsWU_WDGyUJ8qosGhRve63WYQsrJBP1iJ355dpl_w7yWQ
p166
sVwidth
p167
I2048
sVhtml_attributions
p168
(lp169
V<a href="https://maps.google.com/maps/contrib/105928811308006518314/photos">Minh T. Nguyen</a>
p170
asVheight
p171
I1536
sa(dp172
Vphoto_reference
p173
VCoQBdwAAAI3hFkj3vJguaHNt3Qxu2abZA1gZiQyJurdEYdTdSs3YBvA1PHFuHXZRXiT_goYYX5o6sQgM3J6t2ny0NVxVveB4TcdatkNKWmmdUgdCcrgVpYI2KdI04dex284qRUJe1Aq37ZeKc08iSQiG9msrXArQVLczi_a-yJPOnK8VMgqoEhAwXFwQkzGIvaUwQu9vg_WGGhSTIR6ieP1zEewJ7vewo1rgjWexEw
p174
sVwidth
p175
I2048
sVhtml_attributions
p176
(lp177
V<a href="https://maps.google.com/maps/contrib/108267769668958145689/photos">Carrie Z</a>
p178
asVheight
p179
I2048
sa(dp180
Vphoto_reference
p181
VCmRdAAAAOGiOiLjc78NUFuDMrWSvZ-NNoC21ofWavUBghv9TE0zjhHPwLX6P9ccMabKIX9NTE-0M4zW2FqWxZj4yU3lGTX_lXz8zNVF7sCJr-x10D772C301KzpiETr8NCZCsT_VEhB2QXSWPVN6S-uFymCuofHWGhSqnbMhnt9Wf5lIgtqMR-NK-My24g
p182
sVwidth
p183
I3264
sVhtml_attributions
p184
(lp185
V<a href="https://maps.google.com/maps/contrib/101684759371052236980/photos">Don V</a>
p186
asVheight
p187
I2448
sa(dp188
Vphoto_reference
p189
VCmRdAAAA4fvLBUafcSJjnrlP0FVx5zxVnmckI31w-3tMM8FaXLuA1vsaOHPY9Vfne-ojdSY4ZLx7sRzf0uItyMxJ6baFVvBrZc2nFeRx5aEClA6JfT-eLQyvXonSvJwrPt6e93WzEhBxdBxndFHtLh4fLjAnGrpmGhSSS8hwCPysje1zZzTPrlRgTOF-mg
p190
sVwidth
p191
I2048
sVhtml_attributions
p192
(lp193
V<a href="https://maps.google.com/maps/contrib/112045984972535831576/photos">Jesse Lira</a>
p194
asVheight
p195
I1536
sasVtypes
p196
(lp197
Vrestaurant
p198
aVfood
p199
aVpoint_of_interest
p200
aVestablishment
p201
asVicon
p202
Vhttps://maps.gstatic.com/mapfiles/place_api/icons/restaurant-71.png
p203
sVname
p204
VRestaurant Gary Danko
p205
sVgeometry
p206
(dp207
Vaccess_points
p208
(lp209
(dp210
Vtravel_modes
p211
(lp212
VDRIVING
p213
aVBICYCLING
p214
aVWALKING
p215
aVTRANSIT
p216
asVlocation
p217
(dp218
Vlat
p219
g3
(S'37.8057209'
tRp220
sVlng
p221
g3
(S'-122.4205978'
tRp222
ssasVlocation
p223
(dp224
Vlat
p225
g3
(S'37.8058724'
tRp226
sVlng
p227
g3
(S'-122.4206313'
tRp228
sssVadr_address
p229
V<span class="street-address">800 North Point St</span>, <span class="locality">San Francisco</span>, <span class="region">CA</span> <span class="postal-code">94109-1228</span>, <span class="country-name">United States</span>
p230
sVinternational_phone_number
p231
V+1 415-749-2060
p232
sVreviews
p233
(lp234
(dp235
Vrating
p236
I5
sVaspects
p237
(lp238
(dp239
Vrating
p240
I3
sVtype
p241
Voverall
p242
sasVprofile_photo_url
p243
V//lh6.googleusercontent.com/-MX5MTuwBofc/AAAAAAAAAAI/AAAAAAAAAFo/3_EP4eaqUwY/photo.jpg
p244
sVlanguage
p245
Ven
p246
sVtext
p247
VThe prices are what you would expect for a high-end restaurant/fixed price menu. The food was exemplary. We had fois gras (which almost melts in your mouth), crab risotto, scallops, lobster, filet, cheeses and almost every dessert imaginable. It was all worth going back for, though probably only for a special occasion.  
p248
sVauthor_name
p249
VLeighann Breeze
p250
sVauthor_url
p251
Vhttps://plus.google.com/116073309429759671127
p252
sVtime
p253
I1461106374
sa(dp254
Vrating
p255
I5
sVaspects
p256
(lp257
(dp258
Vrating
p259
I3
sVtype
p260
Voverall
p261
sasVprofile_photo_url
p262
V//lh3.googleusercontent.com/-Qlw3SZ4nOso/AAAAAAAAAAI/AAAAAAAAHeA/qrfZui2seNo/photo.jpg
p263
sVlanguage
p264
Ven
p265
sVtext
p266
VAmazing food with top notch service. The lobster entree is a must order if you come here. A bit pricey, but it is worth the experience - you won't be disappointed.
p267
sVauthor_name
p268
VEric L.
p269
sVauthor_url
p270
Vhttps://plus.google.com/117797253574294856749
p271
sVtime
p272
I1455159422
sa(dp273
Vrating
p274
I5
sVaspects
p275
(lp276
(dp277
Vrating
p278
I3
sVtype
p279
Voverall
p280
sasVprofile_photo_url
p281
V//lh6.googleusercontent.com/-8bXtesBedIQ/AAAAAAAAAAI/AAAAAAAAGJo/Bm7AkANkono/photo.jpg
p282
sVlanguage
p283
Ven
p284
sVtext
p285
VCame here for my birthday. Absolutely perfect. I love this place and when I have exercised enough for a little award, I'll be sure to return! They give you a choice of 3, 4 or 5 course meal. We were told if we ordered the 3 course meal, our dishes would be sized accordingly but I swear that was not the case with me. We had the 4 course and I think 3 of those dishes were full sized! You get to choose what dishes you like from the entire menu so if you have an extreme sweet tooth, you can do 5 courses of dessert.\u000a\u000aNothing we ordered wasn't great so I don't know how to recommend food. Lobster was good. Their take home breakfast banana cake is really really good. \u000a\u000aOur reservation was for 10:30pm but because our table wasn't ready until past 11pm, we were served free samplers. I can tell you the bellini and caviar is AMAZING. Pretty sure you can order it on top of your courses. \u000aRemember - you have to make reservations months ahead of time or else you'll end up eating past midnight like us.
p286
sVauthor_name
p287
VEvelyn Wai
p288
sVauthor_url
p289
Vhttps://plus.google.com/109769320033022689556
p290
sVtime
p291
I1455934243
sa(dp292
Vrating
p293
I4
sVaspects
p294
(lp295
(dp296
Vrating
p297
I2
sVtype
p298
Voverall
p299
sasVprofile_photo_url
p300
V//lh5.googleusercontent.com/-eP_YJnRTQzk/AAAAAAAAAAI/AAAAAAAAABE/inYGGPdU3tE/photo.jpg
p301
sVlanguage
p302
Ven
p303
sVtext
p304
VI have been meaning to write this review foreverrrrr (almost a year) and it's unfortunate I waited this long b/c I don't remember all the great details I wanted to share :( The service here was perfect .. not overbearing and always available before I know it. Had my coat waiting for me as soon as I walked towards the door. Food was great .. and absolutely loved my "to-go snack" .. some sort of pumpkin bread .. so moist .. I just remember I wanted to go back and buy more of the bread. Must make reservations in advance as they book up so quickly and have a rather long wait list. Must try and it's really not that expensive compared to other similar restaurants!
p305
sVauthor_name
p306
VCarl Beverly
p307
sVauthor_url
p308
Vhttps://plus.google.com/110225551524163728486
p309
sVtime
p310
I1459253013
sa(dp311
Vrating
p312
I3
sVaspects
p313
(lp314
(dp315
Vrating
p316
I1
sVtype
p317
Voverall
p318
sasVprofile_photo_url
p319
V//lh4.googleusercontent.com/-z3yexgR8VZY/AAAAAAAAAAI/AAAAAAAAABM/zzVodoIY5rY/photo.jpg
p320
sVlanguage
p321
Ven
p322
sVtext
p323
VRestaurant was ok but certainly not on par with French laundry. Servers were not knowledgeable with the items on the plate. Wines suggested with pairings tasted like old vermouth. There are so many good restaurants in San Francisco - try elsewhere.
p324
sVauthor_name
p325
VBrian Smith
p326
sVauthor_url
p327
Vhttps://plus.google.com/100438702560667334512
p328
sVtime
p329
I1459918728
sasVformatted_phone_number
p330
V(415) 749-2060
p331
sVaddress_components
p332
(lp333
(dp334
Vlong_name
p335
V800
p336
sVtypes
p337
(lp338
Vstreet_number
p339
asVshort_name
p340
V800
p341
sa(dp342
Vlong_name
p343
VNorth Point Street
p344
sVtypes
p345
(lp346
Vroute
p347
asVshort_name
p348
VNorth Point St
p349
sa(dp350
Vlong_name
p351
VSan Francisco
p352
sVtypes
p353
(lp354
Vlocality
p355
aVpolitical
p356
asVshort_name
p357
VSF
p358
sa(dp359
Vlong_name
p360
VCalifornia
p361
sVtypes
p362
(lp363
Vadministrative_area_level_1
p364
aVpolitical
p365
asVshort_name
p366
VCA
p367
sa(dp368
Vlong_name
p369
VUnited States
p370
sVtypes
p371
(lp372
Vcountry
p373
aVpolitical
p374
asVshort_name
p375
VUS
p376
sa(dp377
Vlong_name
p378
V94109
p379
sVtypes
p380
(lp381
Vpostal_code
p382
asVshort_name
p383
V94109
p384
sa(dp385
Vlong_name
p386
V1228
p387
sVtypes
p388
(lp389
Vpostal_code_suffix
p390
asVshort_name
p391
V1228
p392
sas.