(dp1
Vrating
p2
cdecimal
Decimal
p3
(S'4.3'
tRp4
sVreference
p5
VCmRcAAAAFiTu1HMVt4ZMr2_un9qkmOspD4FOPpajGpFaUcw1ZC2M5uzjG65DGiEgDobhldko5DMT0AeWLilFmEhjvz6o4vsH4Fi-CdDMZdNjNPz7JaA957Uqnn2JDj2ceGlJAHVhEhAYeuVidnT2gdLTSoSz_6ZsGhQfJ7smNn3C-aanZVol0VzJWlTQ4g
p6
sVprice_level
p7
I1
sVplace_id
p8
VChIJd7ebnImAhYARhr91iINx01g
p9
sVurl
p10
Vhttps://maps.google.com/?cid=6400584305167679366
p11
sVformatted_address
p12
V246 Kearny St, San Francisco, CA 94108, United States
p13
sVid
p14
V741018f384fe613129a17228d7163627c81c8413
p15
sVopening_hours
p16
(dp17
Vweekday_text
p18
(lp19
VMonday: 5:00 PM \u2013 2:00 AM
p20
aVTuesday: 3:00 PM \u2013 2:00 AM
p21
aVWednesday: 3:00 PM \u2013 2:00 AM
p22
aVThursday: 3:00 PM \u2013 2:00 AM
p23
aVFriday: 3:00 PM \u2013 2:00 AM
p24
aVSaturday: 6:00 PM \u2013 2:00 AM
p25
aVSunday: Closed
p26
asVopen_now
p27
I00
sVperiods
p28
(lp29
(dp30
Vclose
p31
(dp32
Vday
p33
I2
sVtime
p34
V0200
p35
ssVopen
p36
(dp37
Vday
p38
I1
sVtime
p39
V1700
p40
ssa(dp41
Vclose
p42
(dp43
Vday
p44
I3
sVtime
p45
V0200
p46
ssVopen
p47
(dp48
Vday
p49
I2
sVtime
p50
V1500
p51
ssa(dp52
Vclose
p53
(dp54
Vday
p55
I4
sVtime
p56
V0200
p57
ssVopen
p58
(dp59
Vday
p60
I3
sVtime
p61
V1500
p62
ssa(dp63
Vclose
p64
(dp65
Vday
p66
I5
sVtime
p67
V0200
p68
ssVopen
p69
(dp70
Vday
p71
I4
sVtime
p72
V1500
p73
ssa(dp74
Vclose
p75
(dp76
Vday
p77
I6
sVtime
p78
V0200
p79
ssVopen
p80
(dp81
Vday
p82
I5
sVtime
p83
V1500
p84
ssa(dp85
Vclose
p86
(dp87
Vday
p88
I0
sVtime
p89
V0200
p90
ssVopen
p91
(dp92
Vday
p93
I6
sVtime
p94
V1800
p95
ssassVvicinity
p96
V246 Kearny Street, San Francisco
p97
sVscope
p98
VGOOGLE
p99
sVwebsite
p100
Vhttp://www.rickhousebar.com/
p101
sVutc_offset
p102
I-420
sVuser_ratings_total
p103
I247
sVphotos
p104
(lp105
(dp106
Vphoto_reference
p107
VCmRdAAAATERxzS520cENiCGlN088inGc_7m1mI8dXsLgcUZl9VWvCIfpOkgOhEVZM1mnpEmxCQrHJzpkg9et8JQWV1I3-5NSFemmtnUumrPmpZPB25RGiRaDzIe1gilnqwAmH8GyEhBv5FTpjrgyKET_Mj0aweziGhSb1EoYbxJR05YXmcgjuqmoBqOGLg
p108
sVwidth
p109
I640
sVhtml_attributions
p110
(lp111
V<a href="https://maps.google.com/maps/contrib/104610770820025607608/photos">Rickhouse</a>
p112
asVheight
p113
I518
sa(dp114
Vphoto_reference
p115
VCmRdAAAAIJ_39YNsEcxeQQ00py66PIVR8VBTVL_6_2y8HhSG5-CkI1w0twzlqn-baFa_h-r1C8ORaKj9dpKTJ8G6WYnUeQ23ZkZzlHD38d0dJU83kUZ3S1TllFmT6Q1R_XIUy_CdEhDrzNtSRdQ04wgMb_fVcUmEGhQGeAClpQrSg1k44NIZIxiyV2m1bQ
p116
sVwidth
p117
I1836
sVhtml_attributions
p118
(lp119
V<a href="https://maps.google.com/maps/contrib/112912621733959793584/photos">P-A Despatis-Dupont</a>
p120
asVheight
p121
I3264
sa(dp122
Vphoto_reference
p123
VCmRdAAAARcc7B8bqEhPAePaUC_ySzvb1nkklbuaJpP27uw7HV47PkOEQPtKW97M_8uBuhtMJxY3WmNn5tr6_2YqKjzA1poZ4CyxtheXpQWZ-CAmM8rbCQpR-h3jW1mMJpy7Z2kgUEhCXjq6ToX4567UPq-fb1U93GhQE2C2dVbOcVLMMLa3YDxt6n7GJgQ
p124
sVwidth
p125
I2448
sVhtml_attributions
p126
(lp127
V<a href="https://maps.google.com/maps/contrib/113006083662698661009/photos">Yotam Kadishay</a>
p128
asVheight
p129
I3264
sa(dp130
Vphoto_reference
p131
VCmRdAAAAYrv72FRI8Z6TAXNLlU-NfBLFJ0mXDKmytB6sT2Y_D11Kt12XfcKSOSMU_aShOS2caZu3XwpEnr51Jh5LyJj1PaDugdvSJq3uQlSz-5w6jg9gauAa6VoOZecPc1pxXpgyEhBmF2KAkNDrRR7KfVv-GN9bGhRFY3NidWFmY40KQrZcLOCqbe67iA
p132
sVwidth
p133
I1032
sVhtml_attributions
p134
(lp135
V<a href="https://maps.google.com/maps/contrib/116692028806048885496/photos">- -</a>
p136
asVheight
p137
I581
sa(dp138
Vphoto_reference
p139
VCmRdAAAAcNJ7sIpG-1EF8GqSTlgLywemEkNXdGCMQNlxwFLETF0Swnfb6XcaU4NhJwOsViQFWmeycUvY1Sm2KoWz6QYoGVg5aSpN4p6DKCUwhfSqSqUJ7ULJGYKoiVjVib3Un3RfEhCUtgdOdCKPiJHjUtfXRQ4cGhSCHqH_ipf4c-gEONyoRxXGZL_5qg
p140
sVwidth
p141
I3264
sVhtml_attributions
p142
(lp143
V<a href="https://maps.google.com/maps/contrib/113006083662698661009/photos">Yotam Kadishay</a>
p144
asVheight
p145
I2448
sa(dp146
Vphoto_reference
p147
VCmRdAAAA4t_O_3DmuaQXH82D0tF0-PhglYu1UZ3LmDS9zGcHEJJueng6KiHnlXV7Mh42AIjLuY5lsk0jWOYXQLsumvO5QfgQlsjB9RHr7GgizdgXIaUXHJ9Svb2n-Y0clTihizlJEhA3apKCU_c82Q3oFVzwazyCGhR54ZSmssD60LaCcGuf_6KwkbM6Hw
p148
sVwidth
p149
I1080
sVhtml_attributions
p150
(lp151
V<a href="https://maps.google.com/maps/contrib/106302393629274189633/photos">Rick Henrikson</a>
p152
asVheight
p153
I608
sa(dp154
Vphoto_reference
p155
VCmRdAAAAdmTPtTXXg26gX4jK9lzxuOL-jFXnbB_Q8xSfIDIqzchE_dkJ3iHcXRKh2ISo9zSjEPUpFHRda6US2DgY9gEXtRKcuH2hDl6X4o3Gp1yTcGLBqrJEQwq5R-M_9V5BqNExEhAuhAW_iVDbeFgruMK56--WGhTUDvt5AAvCTSQP3WiUpZSNcCm5Sg
p156
sVwidth
p157
I3264
sVhtml_attributions
p158
(lp159
V<a href="https://maps.google.com/maps/contrib/113006083662698661009/photos">Yotam Kadishay</a>
p160
asVheight
p161
I2448
sa(dp162
Vphoto_reference
p163
VCmRdAAAAkp3zhMfV-XD8ia0KfhFdadXl4r4KovLO_JdiEPegkbU4F00VErdj8xC36gdq1qpYDGjT1SUAiBve-lcMwp6ua3-pyLy0YAbWkUdPD5TZonB1lE8t-bK6k2m0guoiGQALEhAkdiKCcMyJ5aguKCjew29WGhSKfxUSmHKcw8QFCIc1vsoguQQsWg
p164
sVwidth
p165
I3264
sVhtml_attributions
p166
(lp167
V<a href="https://maps.google.com/maps/contrib/115833749747021473157/photos">Daniel O&#39;Hanlon</a>
p168
asVheight
p169
I2448
sa(dp170
Vphoto_reference
p171
VCmRdAAAAzZiHVSitufq44RgGicgW9HgHq___QWnewWml4OKezaVbooUHExkKs6HhsHpbrJWpfityQUgwZhsFoOAZ9KJ0X4c16Q4gHQW37kG-ARLsRiXh8ISMztpx19JBEJo67efSEhA3Oh2UufTy7sHDFeywsfSMGhSBfowyDuUyPmJcRYqTB9Ab9sjBcA
p172
sVwidth
p173
I4000
sVhtml_attributions
p174
(lp175
V<a href="https://maps.google.com/maps/contrib/108320224573839197933/photos">Randy F.</a>
p176
asVheight
p177
I3000
sa(dp178
Vphoto_reference
p179
VCmRdAAAAdLDT85YX0l0oIrDOj-O3IiWJq-tGby5iTyQSYYy8uLn5M4wDHYeVMEl97ky5fcZ_NqMs_3yrF6og5NCO0pnv-57O68thvPraWwe_bRCkhvfBvxwV8bIypN8tJK1NUsnpEhA1rZu-dObCJpVwua2ZrGEdGhR0TUw6NE3m50E-iZiZd44QbgrtoA
p180
sVwidth
p181
I640
sVhtml_attributions
p182
(lp183
V<a href="https://maps.google.com/maps/contrib/118181913634481139670/photos">James Corbitt</a>
p184
asVheight
p185
I852
sasVtypes
p186
(lp187
Vbar
p188
aVnight_club
p189
aVfood
p190
aVpoint_of_interest
p191
aVestablishment
p192
asVicon
p193
Vhttps://maps.gstatic.com/mapfiles/place_api/icons/bar-71.png
p194
sVname
p195
VRickhouse
p196
sVgeometry
p197
(dp198
Vaccess_points
p199
(lp200
(dp201
Vtravel_modes
p202
(lp203
VDRIVING
p204
aVBICYCLING
p205
aVWALKING
p206
aVTRANSIT
p207
asVlocation
p208
(dp209
Vlat
p210
g3
(S'37.7904783'
tRp211
sVlng
p212
g3
(S'-122.4040198'
tRp213
ssasVlocation
p214
(dp215
Vlat
p216
g3
(S'37.7904967'
tRp217
sVlng
p218
g3
(S'-122.4038635'
tRp219
sssVadr_address
p220
V<span class="street-address">246 Kearny St</span>, <span class="locality">San Francisco</span>, <span class="region">CA</span> <span class="postal-code">94108</span>, <span class="country-name">United States</span>
p221
sVinternational_phone_number
p222
V+1 415-398-2827
p223
sVreviews
p224
(lp225
(dp226
Vrating
p227
I4
sVaspects
p228
(lp229
(dp230
Vrating
p231
I2
sVtype
p232
Voverall
p233
sasVprofile_photo_url
p234
V//lh6.googleusercontent.com/-O19lSPPFSUk/AAAAAAAAAAI/AAAAAAAABA8/1ldX2Es1Emk/photo.jpg
p235
sVlanguage
p236
Ven
p237
sVtext
p238
VDecent gin collection, good live music, bar tenders seemed very busy but able to manage. They were kind enough to answer a few questions, give advise and let me view some bottles before choosing (I can be a picky customer, but try not annoy if possible). The bathroom downstairs was a little dirty but that was the customers faults and I'm full sure it didn't stay that way for long as the the rest of the bar was immaculately clean. 
p239
sVauthor_name
p240
VColm Lougheed
p241
sVauthor_url
p242
Vhttps://plus.google.com/110941284938332842735
p243
sVtime
p244
I1454291351
sa(dp245
Vrating
p246
I1
sVaspects
p247
(lp248
(dp249
Vrating
p250
I0
sVtype
p251
Voverall
p252
sasVprofile_photo_url
p253
V//lh3.googleusercontent.com/-YNup_Sn3jyk/AAAAAAAAAAI/AAAAAAAAtxc/oC0ZQyk1A54/photo.jpg
p254
sVlanguage
p255
Ven
p256
sVtext
p257
Vperhaps this experience has completely soiled my opinion of rickhouse but in general, this place is just OK. the drinks are what you would expect for the price you are paying and the location is very convenient for after work drinks. \u000a\u000aon my last visit, i asked the bartender to make me one of their house drinks but without any additional sweetener, like many of us do, to lower our sugar intake where we can and in my particular instance, this being a health related request.\u000a\u000aa request to which he retorted "no, we do not take liberties with our signature cocktails and besides, it won't taste good." \u000a\u000aoh apologies mr. bartender, i didn't realize your taste buds were omniscient. unfortunately because i was meeting friends there, i did not leave and persisted with my order. repeatedly he advised me on my palate, insisting that the drink would taste really bad if i eliminated the little bit of sweetener he insisted upon adding. i couldn't even believe my ears - if you think your drink will taste horrible without sweetener, is it because your ingredients suck? very confusing. and after an uncomfortable exchange, guess what, he made me my gin + grapefruit + lime without additional sweeter and it tasted just fine!! \u000a\u000aadvice : be nice and mix the drink you are getting paid to mix. 
p258
sVauthor_name
p259
Vjustine higueras
p260
sVauthor_url
p261
Vhttps://plus.google.com/104664041938470996684
p262
sVtime
p263
I1450327508
sa(dp264
Vrating
p265
I5
sVaspects
p266
(lp267
(dp268
Vrating
p269
I3
sVtype
p270
Voverall
p271
sasVprofile_photo_url
p272
V//lh3.googleusercontent.com/-XS-XMVowwgQ/AAAAAAAAAAI/AAAAAAAAOus/Ik_ykQIHSEc/photo.jpg
p273
sVlanguage
p274
Ven
p275
sVtext
p276
VJohn is my favorite bartender. And he's so handsome and rugged. Oh and the drinks are pretty tasty too!
p277
sVauthor_name
p278
VCyrus Nazarian
p279
sVauthor_url
p280
Vhttps://plus.google.com/101798604464879388909
p281
sVtime
p282
I1459574414
sa(dp283
Vrating
p284
I4
sVaspects
p285
(lp286
(dp287
Vrating
p288
I2
sVtype
p289
Voverall
p290
sasVprofile_photo_url
p291
V//lh5.googleusercontent.com/-45sf9_BOVGU/AAAAAAAAAAI/AAAAAAAAAEE/I0QJxEas4yA/photo.jpg
p292
sVlanguage
p293
Ven
p294
sVtext
p295
VSolid cocktail bar. Rickhouse has a large selection of spirits and can make great drinks to order. Try asking for their house old fashioned and you won't be disappointed. 
p296
sVauthor_name
p297
VMichael Lewis
p298
sVauthor_url
p299
Vhttps://plus.google.com/117111418505014074680
p300
sVtime
p301
I1459954948
sa(dp302
Vrating
p303
I5
sVaspects
p304
(lp305
(dp306
Vrating
p307
I3
sVtype
p308
Voverall
p309
sasVprofile_photo_url
p310
V//lh5.googleusercontent.com/-E8VQBqYtrhM/AAAAAAAAAAI/AAAAAAAAJi0/W7YVrmcOs4g/photo.jpg
p311
sVlanguage
p312
Ven
p313
sVtext
p314
VPopular place for happy hour. If you can manage to get a spot to sit and camp out then you won't be disappointed. Great whiskey and tequila drinks. The service isn't always fast but you get quality for your wait.
p315
sVauthor_name
p316
VMolly Shelestak
p317
sVauthor_url
p318
Vhttps://plus.google.com/112591623530300982449
p319
sVtime
p320
I1455840499
sasVformatted_phone_number
p321
V(415) 398-2827
p322
sVaddress_components
p323
(lp324
(dp325
Vlong_name
p326
V246
p327
sVtypes
p328
(lp329
Vstreet_number
p330
asVshort_name
p331
V246
p332
sa(dp333
Vlong_name
p334
VKearny Street
p335
sVtypes
p336
(lp337
Vroute
p338
asVshort_name
p339
VKearny St
p340
sa(dp341
Vlong_name
p342
VSan Francisco
p343
sVtypes
p344
(lp345
Vlocality
p346
aVpolitical
p347
asVshort_name
p348
VSF
p349
sa(dp350
Vlong_name
p351
VCalifornia
p352
sVtypes
p353
(lp354
Vadministrative_area_level_1
p355
aVpolitical
p356
asVshort_name
p357
VCA
p358
sa(dp359
Vlong_name
p360
VUnited States
p361
sVtypes
p362
(lp363
Vcountry
p364
aVpolitical
p365
asVshort_name
p366
VUS
p367
sa(dp368
Vlong_name
p369
V94108
p370
sVtypes
p371
(lp372
Vpostal_code
p373
asVshort_name
p374
V94108
p375
sas.