(dp1
Vrating
p2
cdecimal
Decimal
p3
(S'4.6'
tRp4
sVreference
p5
VCnRlAAAAM5XfDEJ0a1sKR7FEQU7Tjaelpz_oVPwbN0DMAnaoiiHV3Lm2VFRCnTT0EDJgP8DSvDka2arLTqy0RBmGBBLC3DDlnMJ_tBsbm8Ey6PKgGUaItB8B58ZG4KRfpQ34S6LkC2UpYkyDe8n0Ei0LOEKDYhIQpK9IQzmM-SeDJe8W8o8m_xoUw0mBifMlDy4YckdBvwC7nsAJn58
p6
sVplace_id
p7
VChIJhalipRF-hYARBiJntQ-uIRM
p8
sVurl
p9
Vhttps://maps.google.com/?cid=1378574343443259910
p10
sVformatted_address
p11
V3627 San Pablo Ave, Emeryville, CA 94608, United States
p12
sVid
p13
V85324505533883ccbf8ba4dafb3ade9f220e70e2
p14
sVopening_hours
p15
(dp16
Vweekday_text
p17
(lp18
VMonday: 2:00 \u2013 9:45 PM
p19
aVTuesday: 2:00 \u2013 9:45 PM
p20
aVWednesday: 2:00 \u2013 9:45 PM
p21
aVThursday: 2:00 \u2013 9:45 PM
p22
aVFriday: 2:00 \u2013 9:45 PM
p23
aVSaturday: 2:00 \u2013 9:45 PM
p24
aVSunday: 1:00 \u2013 8:45 PM
p25
asVopen_now
p26
I00
sVperiods
p27
(lp28
(dp29
Vclose
p30
(dp31
Vday
p32
I0
sVtime
p33
V2045
p34
ssVopen
p35
(dp36
Vday
p37
I0
sVtime
p38
V1300
p39
ssa(dp40
Vclose
p41
(dp42
Vday
p43
I1
sVtime
p44
V2145
p45
ssVopen
p46
(dp47
Vday
p48
I1
sVtime
p49
V1400
p50
ssa(dp51
Vclose
p52
(dp53
Vday
p54
I2
sVtime
p55
V2145
p56
ssVopen
p57
(dp58
Vday
p59
I2
sVtime
p60
V1400
p61
ssa(dp62
Vclose
p63
(dp64
Vday
p65
I3
sVtime
p66
V2145
p67
ssVopen
p68
(dp69
Vday
p70
I3
sVtime
p71
V1400
p72
ssa(dp73
Vclose
p74
(dp75
Vday
p76
I4
sVtime
p77
V2145
p78
ssVopen
p79
(dp80
Vday
p81
I4
sVtime
p82
V1400
p83
ssa(dp84
Vclose
p85
(dp86
Vday
p87
I5
sVtime
p88
V2145
p89
ssVopen
p90
(dp91
Vday
p92
I5
sVtime
p93
V1400
p94
ssa(dp95
Vclose
p96
(dp97
Vday
p98
I6
sVtime
p99
V2145
p100
ssVopen
p101
(dp102
Vday
p103
I6
sVtime
p104
V1400
p105
ssassVvicinity
p106
V3627 San Pablo Avenue, Emeryville
p107
sVscope
p108
VGOOGLE
p109
sVwebsite
p110
Vhttp://www.restaurantinemeryvilleca.com/
p111
sVutc_offset
p112
I-420
sVuser_ratings_total
p113
I18
sVphotos
p114
(lp115
(dp116
Vphoto_reference
p117
VCoQBcwAAACO0tMUXMdxOhTqH7AwN0n4NyV5w-VLE3_TQ9S4sCQl3VH4uLKoYCnJUABDejPKgLCb47Djxuf1R6RBccxQc2bGjosh4PbYmiLpnRwdbm7hgKaf4Cs5F9wZe2ZzZl4D_lexBdCfzRVEYcZO-FkTsx2uLj2SpSLqctrYbchRiH2TSEhDoF0qRqe--DMLwaXrJRi4qGhQJ7A1UAqhgnnKonLMhlwlHSlFWDA
p118
sVwidth
p119
I5312
sVhtml_attributions
p120
(lp121
V<a href="https://maps.google.com/maps/contrib/114083226144224226827/photos">Caryn Kellogg</a>
p122
asVheight
p123
I2988
sa(dp124
Vphoto_reference
p125
VCoQBcwAAAE831Iq42brjzp2rv9Jdx7MP4H0c7D-H7Kwi84qyZd7sWmjRzfzmldTjDpq_J5pKITuHF9AlZiWypEkbgbRez1ebPh9HZlz-ZNkhnU7396FfJAAhoYav9KOeFez1sZeDo5uKy8uAhDoxUhGGAWtDfhKXZodNkOl4UU4j-atDG27LEhCHlVzOa7kzjzLNPbgayGyTGhTGogQQkDlXKzZD7xGDKFG1C_6BDA
p126
sVwidth
p127
I2560
sVhtml_attributions
p128
(lp129
V<a href="https://maps.google.com/maps/contrib/116024568510675844763/photos">Geniece White</a>
p130
asVheight
p131
I1536
sa(dp132
Vphoto_reference
p133
VCoQBcwAAAOrAAmRDk1uxiMlh8crm1NKiIqMh2q_kBhhdyJSauAIrlf21MgqpcnTpgAKUU6FUzGyn_K10hB114IGizqfGBgQKdGs1PDfXS9OQdF9Ps37492Bau5zb5c0InSJRaFreaun-LO1i7lE6phxZKSBHUPhetr8NIGpRDah-u5hJ1GCYEhAsAw2VZSg6T5hs7cnQ5b_wGhT2kqFynf5n50l5Ua21mu0Mz0AGaQ
p134
sVwidth
p135
I1536
sVhtml_attributions
p136
(lp137
V<a href="https://maps.google.com/maps/contrib/116024568510675844763/photos">Geniece White</a>
p138
asVheight
p139
I2560
sasVtypes
p140
(lp141
Vrestaurant
p142
aVfood
p143
aVpoint_of_interest
p144
aVestablishment
p145
asVicon
p146
Vhttps://maps.gstatic.com/mapfiles/place_api/icons/restaurant-71.png
p147
sVname
p148
VScend's Restaurant
p149
sVgeometry
p150
(dp151
Vaccess_points
p152
(lp153
(dp154
Vtravel_modes
p155
(lp156
VDRIVING
p157
aVBICYCLING
p158
aVWALKING
p159
aVTRANSIT
p160
asVlocation
p161
(dp162
Vlat
p163
g3
(S'37.8277366'
tRp164
sVlng
p165
g3
(S'-122.2788787'
tRp166
ssasVlocation
p167
(dp168
Vlat
p169
g3
(S'37.8276999'
tRp170
sVlng
p171
g3
(S'-122.2790617'
tRp172
sssVadr_address
p173
V<span class="street-address">3627 San Pablo Ave</span>, <span class="locality">Emeryville</span>, <span class="region">CA</span> <span class="postal-code">94608-3901</span>, <span class="country-name">United States</span>
p174
sVinternational_phone_number
p175
V+1 510-547-9238
p176
sVreviews
p177
(lp178
(dp179
Vrating
p180
I5
sVaspects
p181
(lp182
(dp183
Vrating
p184
I3
sVtype
p185
Voverall
p186
sasVlanguage
p187
Ven
p188
sVtext
p189
VExcellent service in the bar...food excellent...bartender the Best in the Bay!
p190
sVauthor_name
p191
VValda McCauley
p192
sVauthor_url
p193
Vhttps://plus.google.com/116327636154100000064
p194
sVtime
p195
I1448861190
sa(dp196
Vrating
p197
I4
sVaspects
p198
(lp199
(dp200
Vrating
p201
I2
sVtype
p202
Voverall
p203
sasVprofile_photo_url
p204
V//lh4.googleusercontent.com/-573Rps8VLBg/AAAAAAAAAAI/AAAAAAAACxM/WJ24bctT4V4/photo.jpg
p205
sVlanguage
p206
Ven
p207
sVtext
p208
VGreat food...soulful
p209
sVauthor_name
p210
VPhillip Tucker
p211
sVauthor_url
p212
Vhttps://plus.google.com/101146383369200287094
p213
sVtime
p214
I1454465798
sa(dp215
Vrating
p216
I5
sVaspects
p217
(lp218
(dp219
Vrating
p220
I3
sVtype
p221
Voverall
p222
sasVprofile_photo_url
p223
V//lh5.googleusercontent.com/-HfQCj-ypji8/AAAAAAAAAAI/AAAAAAABCDU/pyQ98odZ_vI/photo.jpg
p224
sVlanguage
p225
Ven
p226
sVtext
p227
VThe best fried chicken in the bay area. Somehow it remains an underrated gem.
p228
sVauthor_name
p229
VJohn Khoo
p230
sVauthor_url
p231
Vhttps://plus.google.com/109269919883407617278
p232
sVtime
p233
I1447741237
sa(dp234
Vrating
p235
I5
sVaspects
p236
(lp237
(dp238
Vrating
p239
I3
sVtype
p240
Voverall
p241
sasVlanguage
p242
Ven
p243
sVtext
p244
VSo.good..affordable.
p245
sVauthor_name
p246
VOctavia Simmons
p247
sVauthor_url
p248
Vhttps://plus.google.com/112744284383466099361
p249
sVtime
p250
I1461296917
sa(dp251
Vrating
p252
I5
sVaspects
p253
(lp254
(dp255
Vrating
p256
I3
sVtype
p257
Voverall
p258
sasVlanguage
p259
Ven
p260
sVtext
p261
VThis place is nirvana. Saying the food is good is a slap in the face of this eatery. I don't possess the vocabulary to do this place justice. And the wait staff is like a throwback of a happier time. No pretense, just real people serving real food. The atmosphere is so inviting it's ridiculous. I only wish they were open longer. I'd give this place 6 stars if I could. 
p262
sVauthor_name
p263
VLeon Blunt
p264
sVauthor_url
p265
Vhttps://plus.google.com/100579921101405062452
p266
sVtime
p267
I1415504199
sasVformatted_phone_number
p268
V(510) 547-9238
p269
sVaddress_components
p270
(lp271
(dp272
Vlong_name
p273
V3627
p274
sVtypes
p275
(lp276
Vstreet_number
p277
asVshort_name
p278
V3627
p279
sa(dp280
Vlong_name
p281
VSan Pablo Avenue
p282
sVtypes
p283
(lp284
Vroute
p285
asVshort_name
p286
VSan Pablo Ave
p287
sa(dp288
Vlong_name
p289
VEmeryville
p290
sVtypes
p291
(lp292
Vlocality
p293
aVpolitical
p294
asVshort_name
p295
VEmeryville
p296
sa(dp297
Vlong_name
p298
VCalifornia
p299
sVtypes
p300
(lp301
Vadministrative_area_level_1
p302
aVpolitical
p303
asVshort_name
p304
VCA
p305
sa(dp306
Vlong_name
p307
VUnited States
p308
sVtypes
p309
(lp310
Vcountry
p311
aVpolitical
p312
asVshort_name
p313
VUS
p314
sa(dp315
Vlong_name
p316
V94608
p317
sVtypes
p318
(lp319
Vpostal_code
p320
asVshort_name
p321
V94608
p322
sa(dp323
Vlong_name
p324
V3901
p325
sVtypes
p326
(lp327
Vpostal_code_suffix
p328
asVshort_name
p329
V3901
p330
sas.