(dp1
Vrating
p2
cdecimal
Decimal
p3
(S'3.7'
tRp4
sVreference
p5
VCnRjAAAA5rTJU3-0p9Vdj5VNudfYNJeurUzUov3waU0TfxqRnvfyN_RPUJrzzKohSHrF0xzSpx3MZD_sOBvTMihe6QjxmfiGiD3oZXXXPtjeQUteRsYdEvUB5FWcFKBf94sRRcl62yVVV1Bm12uZPcpTNJ_s_BIQCq-idVk5jfrXni1odf4_JxoU_D0BT8EZjcsPI3LVPZ3tzVUIzPk
p6
sVprice_level
p7
I2
sVplace_id
p8
VChIJt5_ZSQaGj4ARFoCQj0jMxww
p9
sVurl
p10
Vhttps://maps.google.com/?cid=920929260838879254
p11
sVformatted_address
p12
V6403 Foothill Blvd, Oakland, CA 94605, United States
p13
sVid
p14
V061ed59f34db7e433e31cbf491f896044c2677ab
p15
sVopening_hours
p16
(dp17
Vweekday_text
p18
(lp19
VMonday: Closed
p20
aVTuesday: Closed
p21
aVWednesday: 9:00 AM \u2013 9:00 PM
p22
aVThursday: 9:00 AM \u2013 9:00 PM
p23
aVFriday: 9:00 AM \u2013 9:00 PM
p24
aVSaturday: 9:00 AM \u2013 9:00 PM
p25
aVSunday: 9:00 AM \u2013 7:00 PM
p26
asVopen_now
p27
I01
sVperiods
p28
(lp29
(dp30
Vclose
p31
(dp32
Vday
p33
I0
sVtime
p34
V1900
p35
ssVopen
p36
(dp37
Vday
p38
I0
sVtime
p39
V0900
p40
ssa(dp41
Vclose
p42
(dp43
Vday
p44
I3
sVtime
p45
V2100
p46
ssVopen
p47
(dp48
Vday
p49
I3
sVtime
p50
V0900
p51
ssa(dp52
Vclose
p53
(dp54
Vday
p55
I4
sVtime
p56
V2100
p57
ssVopen
p58
(dp59
Vday
p60
I4
sVtime
p61
V0900
p62
ssa(dp63
Vclose
p64
(dp65
Vday
p66
I5
sVtime
p67
V2100
p68
ssVopen
p69
(dp70
Vday
p71
I5
sVtime
p72
V0900
p73
ssa(dp74
Vclose
p75
(dp76
Vday
p77
I6
sVtime
p78
V2100
p79
ssVopen
p80
(dp81
Vday
p82
I6
sVtime
p83
V0900
p84
ssassVvicinity
p85
V6403 Foothill Boulevard, Oakland
p86
sVscope
p87
VGOOGLE
p88
sVwebsite
p89
Vhttp://www.soulsrestaurant.org/
p90
sVutc_offset
p91
I-420
sVuser_ratings_total
p92
I25
sVphotos
p93
(lp94
(dp95
Vphoto_reference
p96
VCmRdAAAAdOqBPujnX8so5h487aJzTDP1dxfbPVtDsL_bLMFtSo5lK3Byg78N9tfOPbmbuibDFmymF_KQQ1D8j7Lqp0ezp_GuV_o_aWLmDnwh7vpMBqZ6H6ol-KasufdiPv-7JNYiEhB-j7f-Z4eGt3bcV9RKY0mmGhRY46wfF_i07sUjACk6YNplkmO58A
p97
sVwidth
p98
I2048
sVhtml_attributions
p99
(lp100
V<a href="https://maps.google.com/maps/contrib/106096542592245128056/photos">Souls Restaurant</a>
p101
asVheight
p102
I1536
sa(dp103
Vphoto_reference
p104
VCmRdAAAAZcfCMtdWGrBYM0a29XgG4KWE7O2WjrXn1WiaNxK83YFLuAhDuOzeNSZDMI4upyvrMO1MsJ7AO5vIOoiuz2sANyPsa4FmdDELpJkHFaXT4uIYEO3Pt8gc9MIAv__B3aA4EhB1lEgGF4U4zYuYmagWaZhlGhRdxiyalf_0qNmeRMvG2OeavMHOHg
p105
sVwidth
p106
I640
sVhtml_attributions
p107
(lp108
V<a href="https://maps.google.com/maps/contrib/106096542592245128056/photos">Souls Restaurant</a>
p109
asVheight
p110
I386
sa(dp111
Vphoto_reference
p112
VCmRdAAAA8HIbMBgNmhQloTkxCcbf1jT2b-X-kEoUDNXRR4AlyJcnVSN8WGyC36ffumuu1mVijdDLjcwhEtkb0GI56sE-DrmooRyMclYU9ajIFExXD4aTTiiEh1ilvC-XX4QRn571EhCkipgeNPS_i_FhY9dnTTBqGhQjG1RmoTY11j3k0ffsqOtXfdKCtg
p113
sVwidth
p114
I908
sVhtml_attributions
p115
(lp116
V<a href="https://maps.google.com/maps/contrib/106096542592245128056/photos">Souls Restaurant</a>
p117
asVheight
p118
I716
sa(dp119
Vphoto_reference
p120
VCmRdAAAAe-zxXflgOkQHifNUTP58qSFOMvPeTy-dV5OOgk2dOFoeol5e_aZyi6IBWHlwjy0sFuiM66udUXJHqzOZe-K2bP53IPdlyTQ_AOY1TavSjWMf6EfOq9UUhyKnzcccp3NBEhA1bJp0TIKmvbFNYVZUUJmNGhSGGrqQWfLS0471-VQCKZhgBip6aQ
p121
sVwidth
p122
I640
sVhtml_attributions
p123
(lp124
V<a href="https://maps.google.com/maps/contrib/106096542592245128056/photos">Souls Restaurant</a>
p125
asVheight
p126
I420
sa(dp127
Vphoto_reference
p128
VCmRdAAAAe9qO2duYAyPIU3X-kbEotgsq6o-qTGm4GlhG9wQQfzdqd-IUtqz_cmf5237K5qlmJvJ7X-29AEMDcrM98ugiRbMgpdRdr24smX1ScKXwzQ8cUl1jLSulYyNQJQjdNg41EhAMkeurCdN81xa-vLoYNygWGhTq9uYf2g06rBkX4Q5P4Bydmarmcw
p129
sVwidth
p130
I1024
sVhtml_attributions
p131
(lp132
V<a href="https://maps.google.com/maps/contrib/109897197730507960200/photos">roy black</a>
p133
asVheight
p134
I768
sa(dp135
Vphoto_reference
p136
VCmRdAAAAGFxo1sknKcWj6QyWbGYjM5Q_z5se1WJAihtaHu8tcNW3GP_7KdJ5brGY8tO6aCw-sJZtDzjprr_PiRi2MEnpBFWG13e8HrlsiGxHhWbVRqMg9pusrCWsZ7CpdRSl7PVGEhAjurQGG0GvVPCGuo34ipXdGhReREiN5y84MtgMMEOjAgZ0yGRnow
p137
sVwidth
p138
I559
sVhtml_attributions
p139
(lp140
V<a href="https://maps.google.com/maps/contrib/106096542592245128056/photos">Souls Restaurant</a>
p141
asVheight
p142
I406
sa(dp143
Vphoto_reference
p144
VCmRdAAAAgmhd44ZK3EICWTS0jvaDa2tkn1eN1K4Arrqy-TklaEwksctdw2Kxcx-vQFpL9ZX_vXzhXvkk1loXEqZHgblXTx1KowuamRO-jg2WBF4-GYET5JIuvXk-FSDNKtgD1tWmEhCscyQctvQGCkYEiFQ_-aojGhSKlVcKc4kRyKwNiuXrTzFNP8Jy7g
p145
sVwidth
p146
I2048
sVhtml_attributions
p147
(lp148
V<a href="https://maps.google.com/maps/contrib/106096542592245128056/photos">Souls Restaurant</a>
p149
asVheight
p150
I1489
sa(dp151
Vphoto_reference
p152
VCmRdAAAAQU8k97hDtYDzo5go2dYteYg3x7H5YHaD-RdeJnq7RVVWzABIukmPdjn1vRLnJJ_CFZHlVfmubs45AbeuRrSnOTFEqw417P5x-e78DMEoJLbnX2U0Iaf3_FNlQv7rwv6LEhDeRKKw32Qhq97QxH1drIm9GhTjBcmX9A3HmDvTqalIulvzn62G3A
p153
sVwidth
p154
I1489
sVhtml_attributions
p155
(lp156
V<a href="https://maps.google.com/maps/contrib/106096542592245128056/photos">Souls Restaurant</a>
p157
asVheight
p158
I2048
sa(dp159
Vphoto_reference
p160
VCmRdAAAAawfvK_ySYvXb6hTg0F7WjyxnwR6PjwMEC4wqYSPacciAYNjPt4_ogJEp3NRJ1r-btRpk8CZzsoyOs74aFo0EA7OqLdbco0el169kA8CGyEFGy4YqLN9VRIvdViNDAAT3EhCv26J_8gygCAjaaISPLsAeGhQjduxsRoycoNxWriEG9_Cumr38wQ
p161
sVwidth
p162
I2048
sVhtml_attributions
p163
(lp164
V<a href="https://maps.google.com/maps/contrib/106096542592245128056/photos">Souls Restaurant</a>
p165
asVheight
p166
I1152
sa(dp167
Vphoto_reference
p168
VCmRdAAAANsCSmn1KO68COJGNYY41OuwcPcn_PnmWKnMzht4U80YxCyYpVbSCTc0iUgiChlR915vrUfiSpf4pz2W42r6sANOmv_ZMh8VzlH0imqOyfJm4DRkfScrsowkr9HN3iBkUEhDZp7tXIh7BHBUca4UAJw_IGhSNQVPyjeIfYVleHb320WnCD6sEvw
p169
sVwidth
p170
I846
sVhtml_attributions
p171
(lp172
V<a href="https://maps.google.com/maps/contrib/106096542592245128056/photos">Souls Restaurant</a>
p173
asVheight
p174
I852
sasVtypes
p175
(lp176
Vrestaurant
p177
aVfood
p178
aVpoint_of_interest
p179
aVestablishment
p180
asVicon
p181
Vhttps://maps.gstatic.com/mapfiles/place_api/icons/restaurant-71.png
p182
sVname
p183
VSouls Restaurant
p184
sVgeometry
p185
(dp186
Vaccess_points
p187
(lp188
(dp189
Vtravel_modes
p190
(lp191
VDRIVING
p192
aVBICYCLING
p193
aVWALKING
p194
aVTRANSIT
p195
asVlocation
p196
(dp197
Vlat
p198
g3
(S'37.7707558'
tRp199
sVlng
p200
g3
(S'-122.1843542'
tRp201
ssasVlocation
p202
(dp203
Vlat
p204
g3
(S'37.7705775'
tRp205
sVlng
p206
g3
(S'-122.1843916'
tRp207
sssVadr_address
p208
V<span class="street-address">6403 Foothill Blvd</span>, <span class="locality">Oakland</span>, <span class="region">CA</span> <span class="postal-code">94605</span>, <span class="country-name">United States</span>
p209
sVinternational_phone_number
p210
V+1 510-777-1300
p211
sVreviews
p212
(lp213
(dp214
Vrating
p215
I5
sVaspects
p216
(lp217
(dp218
Vrating
p219
I3
sVtype
p220
Voverall
p221
sasVlanguage
p222
Ven
p223
sVtext
p224
VThe WeeBees and I went for the first time and 1 had Chitterlings and the other 1 and I had OxTails the food was delicious melt in your mouth. The young ladies servers were fantastic very helpful. I will be going back
p225
sVauthor_name
p226
VMonica Byrd
p227
sVauthor_url
p228
Vhttps://plus.google.com/104741167614149843108
p229
sVtime
p230
I1461465369
sa(dp231
Vrating
p232
I5
sVaspects
p233
(lp234
(dp235
Vrating
p236
I3
sVtype
p237
Voverall
p238
sasVprofile_photo_url
p239
V//lh6.googleusercontent.com/-FDRuwfle4dM/AAAAAAAAAAI/AAAAAAAAATw/p2g0-CX-Tx8/photo.jpg
p240
sVlanguage
p241
Ven
p242
sVtext
p243
VLate Post - Went for the first time back in October 2015, celebrating my Mom's Bornday! The service was great, smothered short ribs & oxtails were crazy tender and the sides oh my goodness! It is definitely my new favorite place to go when visiting in Oakland CA!
p244
sVauthor_name
p245
VKim Parker
p246
sVauthor_url
p247
Vhttps://plus.google.com/115541198524025417141
p248
sVtime
p249
I1456798720
sa(dp250
Vrating
p251
I1
sVaspects
p252
(lp253
(dp254
Vrating
p255
I0
sVtype
p256
Voverall
p257
sasVlanguage
p258
Ven
p259
sVtext
p260
VThe service was horrible, we were seated at 6:15 on a saturday,  party of 4. We were given 4 corn bread biscuits ( delicious ) with no place setting.  Our dinner arrived at 7 :40. Will never go back.
p261
sVauthor_name
p262
Vtracy jackson
p263
sVauthor_url
p264
Vhttps://plus.google.com/112203298181333528914
p265
sVtime
p266
I1457235792
sa(dp267
Vrating
p268
I5
sVaspects
p269
(lp270
(dp271
Vrating
p272
I3
sVtype
p273
Voverall
p274
sasVprofile_photo_url
p275
V//lh4.googleusercontent.com/-CAFwc0iBn84/AAAAAAAAAAI/AAAAAAAAD_I/ho4bNuTT4ts/photo.jpg
p276
sVlanguage
p277
Ven
p278
sVtext
p279
VShared with the management that I found the resteraunt through their listing in Support Black Owned Business Directory. Their food is delicious. I will be back and if you are a tech head bring your Hotspot with you:-) 
p280
sVauthor_name
p281
VBrian K. Hill
p282
sVauthor_url
p283
Vhttps://plus.google.com/103706092742091519562
p284
sVtime
p285
I1449259979
sa(dp286
Vrating
p287
I5
sVaspects
p288
(lp289
(dp290
Vrating
p291
I3
sVtype
p292
Voverall
p293
sasVprofile_photo_url
p294
V//lh3.googleusercontent.com/-XQNrBsq945w/AAAAAAAAAAI/AAAAAAAAAA8/JkRtsntaxio/photo.jpg
p295
sVlanguage
p296
Ven
p297
sVtext
p298
VEverything on the menu was great. Chittlings poppin
p299
sVauthor_name
p300
VPerry Krystel
p301
sVauthor_url
p302
Vhttps://plus.google.com/114676332297080700689
p303
sVtime
p304
I1455921207
sasVformatted_phone_number
p305
V(510) 777-1300
p306
sVaddress_components
p307
(lp308
(dp309
Vlong_name
p310
V6403
p311
sVtypes
p312
(lp313
Vstreet_number
p314
asVshort_name
p315
V6403
p316
sa(dp317
Vlong_name
p318
VFoothill Boulevard
p319
sVtypes
p320
(lp321
Vroute
p322
asVshort_name
p323
VFoothill Blvd
p324
sa(dp325
Vlong_name
p326
VOakland
p327
sVtypes
p328
(lp329
Vlocality
p330
aVpolitical
p331
asVshort_name
p332
VOakland
p333
sa(dp334
Vlong_name
p335
VCalifornia
p336
sVtypes
p337
(lp338
Vadministrative_area_level_1
p339
aVpolitical
p340
asVshort_name
p341
VCA
p342
sa(dp343
Vlong_name
p344
VUnited States
p345
sVtypes
p346
(lp347
Vcountry
p348
aVpolitical
p349
asVshort_name
p350
VUS
p351
sa(dp352
Vlong_name
p353
V94605
p354
sVtypes
p355
(lp356
Vpostal_code
p357
asVshort_name
p358
V94605
p359
sas.