(dp1
Vrating
p2
cdecimal
Decimal
p3
(S'4.1'
tRp4
sVreference
p5
VCnRiAAAAejFVLrBHOX8VZwV_zEXhpDzSDUhSXsCR-cGVtljhBm67WQcQ9-9nwTiNbhs-K39GydQyDCZqe8WFt2w6PgABo4ULc-ZaqDnLeLuB5Bu6TuZ9nN4ivucdSu68yipljglrhGrW8X4r-FGQjjFQqPFQ-BIQ8zEbk7EJp8UK-lIJ74EdRRoU_99JOM-32AUmJdbhHYwZztkJQ_U
p6
sVprice_level
p7
I2
sVplace_id
p8
VChIJU90Z6HiAhYARqIREroX-Sww
p9
sVurl
p10
Vhttps://maps.google.com/?cid=886081601816265896
p11
sVformatted_address
p12
V108 S Park St, San Francisco, CA 94107, United States
p13
sVid
p14
V54299954b2be214af13e70bd04983fa8fd20eb2c
p15
sVopening_hours
p16
(dp17
Vweekday_text
p18
(lp19
VMonday: 11:30 AM \u2013 2:30 PM
p20
aVTuesday: 11:30 AM \u2013 2:30 PM, 5:30 \u2013 9:30 PM
p21
aVWednesday: 11:30 AM \u2013 2:30 PM, 5:30 \u2013 9:30 PM
p22
aVThursday: 11:30 AM \u2013 2:30 PM, 5:30 \u2013 9:30 PM
p23
aVFriday: 11:30 AM \u2013 2:30 PM, 5:30 \u2013 9:30 PM
p24
aVSaturday: 5:30 \u2013 9:30 PM
p25
aVSunday: Closed
p26
asVopen_now
p27
I01
sVperiods
p28
(lp29
(dp30
Vclose
p31
(dp32
Vday
p33
I1
sVtime
p34
V1430
p35
ssVopen
p36
(dp37
Vday
p38
I1
sVtime
p39
V1130
p40
ssa(dp41
Vclose
p42
(dp43
Vday
p44
I2
sVtime
p45
V1430
p46
ssVopen
p47
(dp48
Vday
p49
I2
sVtime
p50
V1130
p51
ssa(dp52
Vclose
p53
(dp54
Vday
p55
I2
sVtime
p56
V2130
p57
ssVopen
p58
(dp59
Vday
p60
I2
sVtime
p61
V1730
p62
ssa(dp63
Vclose
p64
(dp65
Vday
p66
I3
sVtime
p67
V1430
p68
ssVopen
p69
(dp70
Vday
p71
I3
sVtime
p72
V1130
p73
ssa(dp74
Vclose
p75
(dp76
Vday
p77
I3
sVtime
p78
V2130
p79
ssVopen
p80
(dp81
Vday
p82
I3
sVtime
p83
V1730
p84
ssa(dp85
Vclose
p86
(dp87
Vday
p88
I4
sVtime
p89
V1430
p90
ssVopen
p91
(dp92
Vday
p93
I4
sVtime
p94
V1130
p95
ssa(dp96
Vclose
p97
(dp98
Vday
p99
I4
sVtime
p100
V2130
p101
ssVopen
p102
(dp103
Vday
p104
I4
sVtime
p105
V1730
p106
ssa(dp107
Vclose
p108
(dp109
Vday
p110
I5
sVtime
p111
V1430
p112
ssVopen
p113
(dp114
Vday
p115
I5
sVtime
p116
V1130
p117
ssa(dp118
Vclose
p119
(dp120
Vday
p121
I5
sVtime
p122
V2130
p123
ssVopen
p124
(dp125
Vday
p126
I5
sVtime
p127
V1730
p128
ssa(dp129
Vclose
p130
(dp131
Vday
p132
I6
sVtime
p133
V2130
p134
ssVopen
p135
(dp136
Vday
p137
I6
sVtime
p138
V1730
p139
ssassVvicinity
p140
V108 South Park Street, San Francisco
p141
sVscope
p142
VGOOGLE
p143
sVwebsite
p144
Vhttp://www.southparkcafe.com/
p145
sVutc_offset
p146
I-420
sVuser_ratings_total
p147
I34
sVphotos
p148
(lp149
(dp150
Vphoto_reference
p151
VCmRdAAAAjq0T5zsW8_61QbtXW-wzXnwdh10qDQaOYp-qtMBCXgdOk7z5r8fZUKlKZzU-zQWNOJlj5cvE4OzhmzqJ6J6TKsfBoC3IjdXsx0apxZqpPpOiZYjONTfLkzRES-CPAKieEhBq36AkUCL04pV6_EzrgIDxGhSsrzPt86AO7ndkYKYdnNE7Vh_hYA
p152
sVwidth
p153
I525
sVhtml_attributions
p154
(lp155
V<a href="https://maps.google.com/maps/contrib/109030299229153836386/photos">South Park Cafe</a>
p156
asVheight
p157
I524
sa(dp158
Vphoto_reference
p159
VCmRdAAAA8fKXCmEJI0lCCrc2S2JVs6xayrQIfocNAA4fGhboZ36mT4p2-E1vcE9YyD1yJKuN81wBoLvjabTWmW-Z5NXUEYdclPoyG_kIciZsMvPlIx-F44qLDkGXTjhp5TsIhiYKEhBpb-8LYwbH5_MbKr5zu2iTGhSlspWME6TkS8Sgm0Ghjqk_PgaTHw
p160
sVwidth
p161
I1000
sVhtml_attributions
p162
(lp163
V<a href="https://maps.google.com/maps/contrib/109030299229153836386/photos">South Park Cafe</a>
p164
asVheight
p165
I665
sa(dp166
Vphoto_reference
p167
VCmRdAAAAGwti_Rxuc3C7Wvk23kl5YV5fmCjtv-bbAvmYMExttajBPtMMduVCLo_m5RKYZPCWcHR8b9UVGQ3l_oSFb29rIarw82wLZUmg-bBdTZW7bWhLVRIVf8vF8o9x0fb6WR0qEhCqqHYctGBYaMJ8fvGMl1tDGhSwN4znN-kWx7RHkOheUx0e49CJiA
p168
sVwidth
p169
I768
sVhtml_attributions
p170
(lp171
V<a href="https://maps.google.com/maps/contrib/109030299229153836386/photos">South Park Cafe</a>
p172
asVheight
p173
I524
sa(dp174
Vphoto_reference
p175
VCmRdAAAAKCdfouyUfexaUcumQKiEFCwmzoHyBJIbnWrjGDXJXLv1wS3yOtPLMSNrF607HThHm0k2qi_aZUdu7S77CVVtoprR4xlmPuLcAQ3eWoH08ZraAz2MU9XjuA-JMbgMTbuMEhBjIp6NCXICdIOS_NWCFFAhGhTHxJtqmO-VhRgDz8qISnCKPG4fuQ
p176
sVwidth
p177
I960
sVhtml_attributions
p178
(lp179
V<a href="https://maps.google.com/maps/contrib/109030299229153836386/photos">South Park Cafe</a>
p180
asVheight
p181
I640
sa(dp182
Vphoto_reference
p183
VCoQBdwAAAFwU8JqzThkgrJFdWde7jgYDQkM1d_apBy6phCJJyCj9CfJx3asLJf5e44S3vumjAwpBgspqqc37iTxST3N1ta4IzcXYEzBHnUQwjzbfgv_x_QCUaHDQjKDdye-futM90VEo8Vmod-WRyFdFiDdwQTv-N2zotLh2LFKFrwBWe7niEhBTIpV6gza1__ftQagIJEzrGhQXYpB3nGsGZex8yUxvGAZ4UmDreQ
p184
sVwidth
p185
I4032
sVhtml_attributions
p186
(lp187
V<a href="https://maps.google.com/maps/contrib/115810423974204928764/photos">Robert Glidden</a>
p188
asVheight
p189
I3024
sa(dp190
Vphoto_reference
p191
VCmRdAAAAR3-XLok-Xry53jjJBw3ok_kEOW9ZQc35ecGJYhGxjg2ykv_DLS0-LpnWLniVke2QzXUPGV_tsXWDvMoqBBlx0xOx2aBr3DME80dP_cL_-LIBS4l6DI2LCL8Iwd4jmxH9EhBKDtHr0TSivYkihAVTbWVeGhRa5DDRg-GLA0WC8UzOSI01h-WZJg
p192
sVwidth
p193
I1000
sVhtml_attributions
p194
(lp195
V<a href="https://maps.google.com/maps/contrib/109030299229153836386/photos">South Park Cafe</a>
p196
asVheight
p197
I750
sa(dp198
Vphoto_reference
p199
VCmRdAAAAS3s6hb6VlJGWewpYhHx5wQRxZLWzYFAB_-gXn_bS_87GuB9wft4rBRFMuH8xFDdWA5ZoQszfjwzudqBIKOaMh6RdOcy8CbM9-lK5CL7GBQj91w3CMrpnlSLm8NJ7zETHEhDGJESrnJzS022qU1sxsvOvGhSz4Xip6GH_uvRC9rJa2qav5FZ_TQ
p200
sVwidth
p201
I320
sVhtml_attributions
p202
(lp203
V<a href="https://maps.google.com/maps/contrib/109030299229153836386/photos">South Park Cafe</a>
p204
asVheight
p205
I480
sa(dp206
Vphoto_reference
p207
VCmRdAAAABxMbJTobdWMfjVHEYwAniOZ8dV1RiBON56AudUjKAF7_4xBksgyT9oFq2HuNBw8kSvQ5W6hO58oo6sCTY-s68ZWs6sCscoujAALhhGvltbvdXK-2Rb-cj3WGX3VnJ9snEhA8HTsvQ4hNBO_CKEmBLxPDGhR15DhydVuw8pFah3jOVD_dDf37gg
p208
sVwidth
p209
I1401
sVhtml_attributions
p210
(lp211
V<a href="https://maps.google.com/maps/contrib/113372998108262978309/photos">South Park Cafe .</a>
p212
asVheight
p213
I957
sa(dp214
Vphoto_reference
p215
VCmRdAAAA2C_6TjcYzCIpdgnOdNilIpZOixWrXXrEcVWij2WJc6R9Ros_J-7P-AzHxOhrXUwu3hMruzDjt4jViRsqx2QXWa0IyRfYH9RKfLHLSX0j1WTqDXk9pi6mU5nkSCvMMUCFEhCQTw8K9wN6HQvQGz6bENvAGhTkYzSbIzR756b9kVkZD4JNm4N7bg
p216
sVwidth
p217
I960
sVhtml_attributions
p218
(lp219
V<a href="https://maps.google.com/maps/contrib/109030299229153836386/photos">South Park Cafe</a>
p220
asVheight
p221
I640
sa(dp222
Vphoto_reference
p223
VCmRdAAAA4NNi-cE9oOAxiwPh6GanE6Fz71iaxTifN0f2ueL8Bj_Rh0Pwd7d7FxBGOSjFc5HJGSXyPHxYYlEfpYC8HruNsAEFFZFolCL1hx0dhBZL-lLGR9tUVgKwTBfMqSqSV2-nEhDqKvcsEyIH_-k0sC1MXZxDGhTaKNW83EMo2WoAXCxXu57sYMQXAA
p224
sVwidth
p225
I768
sVhtml_attributions
p226
(lp227
V<a href="https://maps.google.com/maps/contrib/109030299229153836386/photos">South Park Cafe</a>
p228
asVheight
p229
I524
sasVtypes
p230
(lp231
Vcafe
p232
aVbar
p233
aVrestaurant
p234
aVfood
p235
aVpoint_of_interest
p236
aVestablishment
p237
asVicon
p238
Vhttps://maps.gstatic.com/mapfiles/place_api/icons/cafe-71.png
p239
sVname
p240
VSouth Park Cafe
p241
sVgeometry
p242
(dp243
Vaccess_points
p244
(lp245
(dp246
Vtravel_modes
p247
(lp248
VDRIVING
p249
aVBICYCLING
p250
aVWALKING
p251
aVTRANSIT
p252
asVlocation
p253
(dp254
Vlat
p255
g3
(S'37.7815472'
tRp256
sVlng
p257
g3
(S'-122.3943166'
tRp258
ssasVlocation
p259
(dp260
Vlat
p261
g3
(S'37.78160800000001'
tRp262
sVlng
p263
g3
(S'-122.394394'
tRp264
sssVadr_address
p265
V<span class="street-address">108 S Park St</span>, <span class="locality">San Francisco</span>, <span class="region">CA</span> <span class="postal-code">94107</span>, <span class="country-name">United States</span>
p266
sVinternational_phone_number
p267
V+1 415-495-7275
p268
sVreviews
p269
(lp270
(dp271
Vrating
p272
I4
sVaspects
p273
(lp274
(dp275
Vrating
p276
I2
sVtype
p277
Voverall
p278
sasVprofile_photo_url
p279
V//lh5.googleusercontent.com/-QtYaVMJq2PE/AAAAAAAAAAI/AAAAAAAAAAA/fXAgyod1Zoo/photo.jpg
p280
sVlanguage
p281
Ven
p282
sVtext
p283
VGreat cafe for lunch. The service is efficient and super nice. The food is terrific. It's a little on the pricier side but worth it.
p284
sVauthor_name
p285
VAlice Wu
p286
sVauthor_url
p287
Vhttps://plus.google.com/100409533098351608176
p288
sVtime
p289
I1461124478
sa(dp290
Vrating
p291
I3
sVaspects
p292
(lp293
(dp294
Vrating
p295
I1
sVtype
p296
Voverall
p297
sasVprofile_photo_url
p298
V//lh3.googleusercontent.com/-ls6n5G9c-1U/AAAAAAAAAAI/AAAAAAAAMWU/mB3cPJbUYbM/photo.jpg
p299
sVlanguage
p300
Ven
p301
sVtext
p302
VThis is your typical casual cafe. I'm not a big fan of their hours (they don't open until 11:30am) and the service could have been better/faster, but it's in a prime location and the food isn't bad.
p303
sVauthor_name
p304
VMitchell Lee
p305
sVauthor_url
p306
Vhttps://plus.google.com/103592908849353394650
p307
sVtime
p308
I1447725730
sa(dp309
Vrating
p310
I3
sVaspects
p311
(lp312
(dp313
Vrating
p314
I1
sVtype
p315
Voverall
p316
sasVprofile_photo_url
p317
V//lh3.googleusercontent.com/-YYAS_dlRfIQ/AAAAAAAAAAI/AAAAAAAB5FI/zvIJus-KkwA/photo.jpg
p318
sVlanguage
p319
Ven
p320
sVtext
p321
VThis place is located in a cute little park area, a nice departure from the industrial SOMA area. The ambiance was nice and the restaurant isn't too crowded. I would recommend it for business dinners.\u000a\u000aI wanted to like this place more but the food was just ok and very pricey. I had chicken, a glass of wine, and shared a salad with a friend and the total was $50,  on the higher end for San Francisco restaurants. \u000a\u000aIf you're looking for a casual French dining place with delicious food, try Chez Maman in Hayes. 
p322
sVauthor_name
p323
VYang Wang
p324
sVauthor_url
p325
Vhttps://plus.google.com/104445710109349844108
p326
sVtime
p327
I1399746099
sa(dp328
Vrating
p329
I5
sVaspects
p330
(lp331
(dp332
Vrating
p333
I3
sVtype
p334
Voverall
p335
sasVprofile_photo_url
p336
V//lh5.googleusercontent.com/-cQNLOQzkGpE/AAAAAAAAAAI/AAAAAAABja0/D3xjB7TqgA8/photo.jpg
p337
sVlanguage
p338
Ven
p339
sVtext
p340
VSuch a staple cafe for Southpark. You'll find startup founders, VCs, board members, and bums all having their lunch here. The talk here is usually about the next big thing or how terribly the gentrification of their favorite neighborhood in SF is - it's one of those kind of places.\u000a\u000aThe food, nice solid comfort food, the ordering process is that you stand in line in front of the counter, and grab a menu and when your turn is up you order your stuff and then find a seat. The service is nice enough though a bit spartan. The prices are decent.\u000a\u000aWhen you find your self pitching to True Ventures or one of the other good VCs there, or doing your startup in one of the cramped rooms there - this is a great place to get your food fix.
p341
sVauthor_name
p342
VChris Chabot
p343
sVauthor_url
p344
Vhttps://plus.google.com/108189587050871927619
p345
sVtime
p346
I1385123106
sa(dp347
Vrating
p348
I5
sVaspects
p349
(lp350
(dp351
Vrating
p352
I3
sVtype
p353
Voverall
p354
sasVprofile_photo_url
p355
V//lh6.googleusercontent.com/-ViY8MyzMxpc/AAAAAAAAAAI/AAAAAAAAAlo/uK-p8lE6Aus/photo.jpg
p356
sVlanguage
p357
Ven
p358
sVtext
p359
VThis place is a killer combo of classy and convenient. You order at the bar, pay, get a number, and grab a seat. The food is outstanding - the menu changes seasonally, and it's always remarkable. Big portions served in a healthy, flavorful way. \u000a\u000aKeep it up!
p360
sVauthor_name
p361
VApartment List
p362
sVauthor_url
p363
Vhttps://plus.google.com/112694053000388770135
p364
sVtime
p365
I1400003854
sasVformatted_phone_number
p366
V(415) 495-7275
p367
sVaddress_components
p368
(lp369
(dp370
Vlong_name
p371
V108
p372
sVtypes
p373
(lp374
Vstreet_number
p375
asVshort_name
p376
V108
p377
sa(dp378
Vlong_name
p379
VSouth Park Street
p380
sVtypes
p381
(lp382
Vroute
p383
asVshort_name
p384
VS Park St
p385
sa(dp386
Vlong_name
p387
VSan Francisco
p388
sVtypes
p389
(lp390
Vlocality
p391
aVpolitical
p392
asVshort_name
p393
VSF
p394
sa(dp395
Vlong_name
p396
VCalifornia
p397
sVtypes
p398
(lp399
Vadministrative_area_level_1
p400
aVpolitical
p401
asVshort_name
p402
VCA
p403
sa(dp404
Vlong_name
p405
VUnited States
p406
sVtypes
p407
(lp408
Vcountry
p409
aVpolitical
p410
asVshort_name
p411
VUS
p412
sa(dp413
Vlong_name
p414
V94107
p415
sVtypes
p416
(lp417
Vpostal_code
p418
asVshort_name
p419
V94107
p420
sas.