(dp1
Vrating
p2
cdecimal
Decimal
p3
(S'4.1'
tRp4
sVutc_offset
p5
I-420
sVuser_ratings_total
p6
I19
sVname
p7
VStephanos Soul Food Restaurant
p8
sVreference
p9
VCoQBcgAAAMwRfMtZBbR998ZuFB8KGLt9MpI7n6J3iD60Pr2N32noULqKF0j9lBI4k4I35lCpohzHMeMfCp36RVuMVgAHGJvqp0UTghC_h3unUI-bAN50IV2NiwHSqxokl-I1i_kkqyLrNj2VswFRhosUT0Y-V40qt39ijAuIAQRl5b5WjMw0EhBD6ummQHfgpME_bfdbJMQcGhTnewjjMH8ixne_Ctlf4pp6PCqqsg
p10
sVgeometry
p11
(dp12
Vaccess_points
p13
(lp14
(dp15
Vtravel_modes
p16
(lp17
VDRIVING
p18
aVBICYCLING
p19
aVWALKING
p20
aVTRANSIT
p21
asVlocation
p22
(dp23
Vlat
p24
g3
(S'38.1227737'
tRp25
sVlng
p26
g3
(S'-122.26287'
tRp27
ssasVlocation
p28
(dp29
Vlat
p30
g3
(S'38.122887'
tRp31
sVlng
p32
g3
(S'-122.2626963'
tRp33
sssVadr_address
p34
V<span class="street-address">2272 Sacramento St</span>, <span class="locality">Vallejo</span>, <span class="region">CA</span> <span class="postal-code">94590</span>, <span class="country-name">United States</span>
p35
sVplace_id
p36
VChIJeeTuHFVzhYARoFmbo5JHxfk
p37
sVinternational_phone_number
p38
V+1 707-647-2272
p39
sVvicinity
p40
V2272 Sacramento Street, Vallejo
p41
sVreviews
p42
(lp43
(dp44
Vrating
p45
I3
sVaspects
p46
(lp47
(dp48
Vrating
p49
I1
sVtype
p50
Voverall
p51
sasVprofile_photo_url
p52
V//lh3.googleusercontent.com/-GJ3g2Mi7urc/AAAAAAAAAAI/AAAAAAAABRY/ghm1tEeK7z4/photo.jpg
p53
sVlanguage
p54
Ven
p55
sVtext
p56
VThe food is ok the service is sub par at best. Its a neighborhood spot and is run like it, as if we are lucky it's here, because there is nothing else better.... (partly true if you don't have a car and can't go elsewhere) If only they cared more about their customer service this could be an amazing place. Their social media presence is awful Facebook hasn't been updated since Christmas, can't find a menu online, if you are able to fine their website there is no phone number on it. The food is what keeps me coming back, but the service has me shaking my head every time.... 
p57
sVauthor_name
p58
VC Toni Jefferson
p59
sVauthor_url
p60
Vhttps://plus.google.com/116412399458767016446
p61
sVtime
p62
I1456462470
sa(dp63
Vrating
p64
I1
sVaspects
p65
(lp66
(dp67
Vrating
p68
I0
sVtype
p69
Voverall
p70
sasVprofile_photo_url
p71
V//lh4.googleusercontent.com/-IAxrEj5fayg/AAAAAAAAAAI/AAAAAAAACRM/WityOWfOYsI/photo.jpg
p72
sVlanguage
p73
Ven
p74
sVtext
p75
VLets hope the food is much better than the phone service. Usually I would automatically take my business elsewhere after getting hung up on, but I am hungry for soul food. After dinner rating pending.....\u000a\u000aIts about 30 minutes later and I have taken a few bites of my smothered pork chops with rice and gravy with a side of yams. First let me say the female that hung up on earlier said that she did have time to help me with my menu choices because the place was so busy. I hot to Stephanos exactly 14 minutes after I actually place my order and the place was completely empty. Now that  I have my food I know that everything is leftovers from who knows when.....in a very bad way. It taste awful. 2 for 2 very bad service abd even worst food. I  want my $20 back, its not going to good use at Stephanos 
p76
sVauthor_name
p77
VTonya Williams
p78
sVauthor_url
p79
Vhttps://plus.google.com/105518459996433355873
p80
sVtime
p81
I1455598790
sa(dp82
Vrating
p83
I5
sVaspects
p84
(lp85
(dp86
Vrating
p87
I3
sVtype
p88
Voverall
p89
sasVprofile_photo_url
p90
V//lh5.googleusercontent.com/-_64pzL3BUpk/AAAAAAAAAAI/AAAAAAAAAHQ/Xj1034-R7Cs/photo.jpg
p91
sVlanguage
p92
Ven
p93
sVtext
p94
VThe food is always on point!! And they stingy with their portions!... I just wish they opened sooner and on Sundays!  Soul food is always good on Sundays!
p95
sVauthor_name
p96
VJ FOLKS
p97
sVauthor_url
p98
Vhttps://plus.google.com/114180020080326476355
p99
sVtime
p100
I1450566602
sa(dp101
Vrating
p102
I1
sVaspects
p103
(lp104
(dp105
Vrating
p106
I0
sVtype
p107
Voverall
p108
sasVprofile_photo_url
p109
V//lh3.googleusercontent.com/-e_TozbHTj0k/AAAAAAAAAAI/AAAAAAAAVik/3ugvixqjDXo/photo.jpg
p110
sVlanguage
p111
Ven
p112
sVtext
p113
VPoor customer service oh how I'm mad at THE HOUSE OF SOUL for not being open on Mondays!!!!!!! this mac and cheese is gross the yams wasn't as sweet as I thought and the black eyes peas r gross... this restaurant has nothing on the house of soul!!! 
p114
sVauthor_name
p115
VTwonesha Johnson-Hendricks
p116
sVauthor_url
p117
Vhttps://plus.google.com/116888325201670751678
p118
sVtime
p119
I1454984230
sa(dp120
Vrating
p121
I4
sVaspects
p122
(lp123
(dp124
Vrating
p125
I2
sVtype
p126
Voverall
p127
sasVprofile_photo_url
p128
V//lh6.googleusercontent.com/-jutrdJG7TCI/AAAAAAAAAAI/AAAAAAAAAEk/lSO1QwJov8s/photo.jpg
p129
sVlanguage
p130
Ven
p131
sVtext
p132
VIke and tina we have u on ya back don't get two.only place that have em
p133
sVauthor_name
p134
VDee Leakz
p135
sVauthor_url
p136
Vhttps://plus.google.com/114006508169303259266
p137
sVtime
p138
I1457160091
sasVformatted_phone_number
p139
V(707) 647-2272
p140
sVscope
p141
VGOOGLE
p142
sVurl
p143
Vhttps://maps.google.com/?cid=17997870180991719840
p144
sVopening_hours
p145
(dp146
Vweekday_text
p147
(lp148
VMonday: 3:00 PM \u2013 1:30 AM
p149
aVTuesday: 3:00 PM \u2013 1:30 AM
p150
aVWednesday: 3:00 PM \u2013 1:30 AM
p151
aVThursday: 3:00 PM \u2013 1:30 AM
p152
aVFriday: 3:00 PM \u2013 1:30 AM
p153
aVSaturday: 3:00 PM \u2013 1:30 AM
p154
aVSunday: 3:00 PM \u2013 1:30 AM
p155
asVopen_now
p156
I00
sVperiods
p157
(lp158
(dp159
Vclose
p160
(dp161
Vday
p162
I1
sVtime
p163
V0130
p164
ssVopen
p165
(dp166
Vday
p167
I0
sVtime
p168
V1500
p169
ssa(dp170
Vclose
p171
(dp172
Vday
p173
I2
sVtime
p174
V0130
p175
ssVopen
p176
(dp177
Vday
p178
I1
sVtime
p179
V1500
p180
ssa(dp181
Vclose
p182
(dp183
Vday
p184
I3
sVtime
p185
V0130
p186
ssVopen
p187
(dp188
Vday
p189
I2
sVtime
p190
V1500
p191
ssa(dp192
Vclose
p193
(dp194
Vday
p195
I4
sVtime
p196
V0130
p197
ssVopen
p198
(dp199
Vday
p200
I3
sVtime
p201
V1500
p202
ssa(dp203
Vclose
p204
(dp205
Vday
p206
I5
sVtime
p207
V0130
p208
ssVopen
p209
(dp210
Vday
p211
I4
sVtime
p212
V1500
p213
ssa(dp214
Vclose
p215
(dp216
Vday
p217
I6
sVtime
p218
V0130
p219
ssVopen
p220
(dp221
Vday
p222
I5
sVtime
p223
V1500
p224
ssa(dp225
Vclose
p226
(dp227
Vday
p228
I0
sVtime
p229
V0130
p230
ssVopen
p231
(dp232
Vday
p233
I6
sVtime
p234
V1500
p235
ssassVaddress_components
p236
(lp237
(dp238
Vlong_name
p239
V2272
p240
sVtypes
p241
(lp242
Vstreet_number
p243
asVshort_name
p244
V2272
p245
sa(dp246
Vlong_name
p247
VSacramento Street
p248
sVtypes
p249
(lp250
Vroute
p251
asVshort_name
p252
VSacramento St
p253
sa(dp254
Vlong_name
p255
VVallejo
p256
sVtypes
p257
(lp258
Vlocality
p259
aVpolitical
p260
asVshort_name
p261
VVallejo
p262
sa(dp263
Vlong_name
p264
VCalifornia
p265
sVtypes
p266
(lp267
Vadministrative_area_level_1
p268
aVpolitical
p269
asVshort_name
p270
VCA
p271
sa(dp272
Vlong_name
p273
VUnited States
p274
sVtypes
p275
(lp276
Vcountry
p277
aVpolitical
p278
asVshort_name
p279
VUS
p280
sa(dp281
Vlong_name
p282
V94590
p283
sVtypes
p284
(lp285
Vpostal_code
p286
asVshort_name
p287
V94590
p288
sasVformatted_address
p289
V2272 Sacramento St, Vallejo, CA 94590, United States
p290
sVid
p291
Vc3c1dc9553eb6fb568a1e1e3d196d2cb822e6e86
p292
sVtypes
p293
(lp294
Vbar
p295
aVrestaurant
p296
aVfood
p297
aVpoint_of_interest
p298
aVestablishment
p299
asVicon
p300
Vhttps://maps.gstatic.com/mapfiles/place_api/icons/restaurant-71.png
p301
s.