(dp1
Vrating
p2
cdecimal
Decimal
p3
(S'3.8'
tRp4
sVreference
p5
VCnRoAAAAf9mACPXLAROu4roPQXC-j0obLHqLPcQuy486j_d04PbgAdDB-3Gt1nEUutE1dxCSAvhzNgXoMn2_FsNAvgCR3d9BSXkJg-46tBSll_YG-b3mny0iuN-N9mSQWwM0YiAooKgoP7DgP44PtRabjn4eJBIQC5ULeKX2SWNtPBdiITR29xoUFrovthY6ZXWPtHHNio1skkVMtxA
p6
sVprice_level
p7
I2
sVplace_id
p8
VChIJufcwKCXJj4AR2udyrSEul7E
p9
sVurl
p10
Vhttps://maps.google.com/?cid=12796747588375341018
p11
sVformatted_address
p12
V692 Barber Ln, Milpitas, CA 95035, United States
p13
sVid
p14
V721b71e77a8da6eed7883ab866408616e02ddd58
p15
sVopening_hours
p16
(dp17
Vweekday_text
p18
(lp19
VMonday: 11:30 AM \u2013 3:00 PM, 5:00 \u2013 11:00 PM
p20
aVTuesday: 11:30 AM \u2013 3:00 PM, 5:00 \u2013 11:00 PM
p21
aVWednesday: 11:30 AM \u2013 3:00 PM, 5:00 \u2013 11:00 PM
p22
aVThursday: 11:30 AM \u2013 3:00 PM, 5:00 \u2013 11:00 PM
p23
aVFriday: 11:30 AM \u2013 3:00 PM, 5:00 \u2013 11:00 PM
p24
aVSaturday: 5:00 \u2013 11:00 PM
p25
aVSunday: 11:30 AM \u2013 3:00 PM, 5:00 \u2013 11:00 PM
p26
asVopen_now
p27
I01
sVperiods
p28
(lp29
(dp30
Vclose
p31
(dp32
Vday
p33
I0
sVtime
p34
V1500
p35
ssVopen
p36
(dp37
Vday
p38
I0
sVtime
p39
V1130
p40
ssa(dp41
Vclose
p42
(dp43
Vday
p44
I0
sVtime
p45
V2300
p46
ssVopen
p47
(dp48
Vday
p49
I0
sVtime
p50
V1700
p51
ssa(dp52
Vclose
p53
(dp54
Vday
p55
I1
sVtime
p56
V1500
p57
ssVopen
p58
(dp59
Vday
p60
I1
sVtime
p61
V1130
p62
ssa(dp63
Vclose
p64
(dp65
Vday
p66
I1
sVtime
p67
V2300
p68
ssVopen
p69
(dp70
Vday
p71
I1
sVtime
p72
V1700
p73
ssa(dp74
Vclose
p75
(dp76
Vday
p77
I2
sVtime
p78
V1500
p79
ssVopen
p80
(dp81
Vday
p82
I2
sVtime
p83
V1130
p84
ssa(dp85
Vclose
p86
(dp87
Vday
p88
I2
sVtime
p89
V2300
p90
ssVopen
p91
(dp92
Vday
p93
I2
sVtime
p94
V1700
p95
ssa(dp96
Vclose
p97
(dp98
Vday
p99
I3
sVtime
p100
V1500
p101
ssVopen
p102
(dp103
Vday
p104
I3
sVtime
p105
V1130
p106
ssa(dp107
Vclose
p108
(dp109
Vday
p110
I3
sVtime
p111
V2300
p112
ssVopen
p113
(dp114
Vday
p115
I3
sVtime
p116
V1700
p117
ssa(dp118
Vclose
p119
(dp120
Vday
p121
I4
sVtime
p122
V1500
p123
ssVopen
p124
(dp125
Vday
p126
I4
sVtime
p127
V1130
p128
ssa(dp129
Vclose
p130
(dp131
Vday
p132
I4
sVtime
p133
V2300
p134
ssVopen
p135
(dp136
Vday
p137
I4
sVtime
p138
V1700
p139
ssa(dp140
Vclose
p141
(dp142
Vday
p143
I5
sVtime
p144
V1500
p145
ssVopen
p146
(dp147
Vday
p148
I5
sVtime
p149
V1130
p150
ssa(dp151
Vclose
p152
(dp153
Vday
p154
I5
sVtime
p155
V2300
p156
ssVopen
p157
(dp158
Vday
p159
I5
sVtime
p160
V1700
p161
ssa(dp162
Vclose
p163
(dp164
Vday
p165
I6
sVtime
p166
V2300
p167
ssVopen
p168
(dp169
Vday
p170
I6
sVtime
p171
V1700
p172
ssassVvicinity
p173
V692 Barber Lane, Milpitas
p174
sVscope
p175
VGOOGLE
p176
sVwebsite
p177
Vhttp://www.thaicafemilpitas.com/
p178
sVutc_offset
p179
I-420
sVuser_ratings_total
p180
I50
sVphotos
p181
(lp182
(dp183
Vphoto_reference
p184
VCmRdAAAAcqtzVaE03KMCBnQIIy8PCnwskFkhldNlYOFB5LD984SSETqTaMKR_W5hycmNeW27yTaEXFGh7pcrC0if9VCyF8wAGpsPGVIPPon8zkVyogNdhcTxGVIqBAflTuXwCSWUEhBZSB7AciCUnjKXn7rVDKvgGhRgfe4ncmfxyWp7_O7QA80tR9ADJw
p185
sVwidth
p186
I4320
sVhtml_attributions
p187
(lp188
V<a href="https://maps.google.com/maps/contrib/113777894844656925355/photos">Jeremey Ebenezer</a>
p189
asVheight
p190
I2432
sa(dp191
Vphoto_reference
p192
VCoQBcwAAABL95OavzqUyLVSl3Ira1A43Gyj-leMVi5UwmgVa_E-Gfxv_-5zSVkdwgUQamY-2GqqFJ9jV7FrMhN1y8PDuOX4D7aseMUd4P61nJ6EBONk3iv6XOqTvgGXrwNJslZvs-nytx5z9c0kzrkp600kQyYKGV0yw3dN8sEieGTK5NzQGEhDQnimX-ZDfFnAcXaRPFqjQGhTbTRwMSbS0fq9S0vq4Sna3Z8aNvQ
p193
sVwidth
p194
I3264
sVhtml_attributions
p195
(lp196
V<a href="https://maps.google.com/maps/contrib/114978248182006861955/photos">Billy M</a>
p197
asVheight
p198
I2448
sa(dp199
Vphoto_reference
p200
VCmRdAAAAgellIFdVIS7z-cV77WehnsRtzz4_RLSFaSbZUahGP9reXPUcOqUYHELF4C_G45R9kPm3LQsK5SAUvYT7uJYT2H6wkc3qJDOyQg0f7Acg7c1vEQHLN3N9ser-lmUwV_K1EhAtnNCIxlvDOiYl_qccyTGnGhRw0mzs_5HweuiholafBFYbbPh9gg
p201
sVwidth
p202
I4320
sVhtml_attributions
p203
(lp204
V<a href="https://maps.google.com/maps/contrib/113777894844656925355/photos">Jeremey Ebenezer</a>
p205
asVheight
p206
I2432
sa(dp207
Vphoto_reference
p208
VCoQBcwAAAG1fDIp3Ip35aGVUJ0aYVgJHUD0elKQgMAJdE344lS98cuDFr_FBkhdzcszi1P0NeqJ4RODvnbqEvsM4-8Jg5mj3jZ7NG6SPWGz9-L_gK0C6NTrVT8IfCi80VVDaVfnCmkrVHU1i2S_TwybPGh_PDYY-DXnoxL_t7fS1etUNYkBpEhCutdyI1wmEBQeiHpm8BKKQGhRl730CbLwUDMxtalllK9JttChq0w
p209
sVwidth
p210
I2448
sVhtml_attributions
p211
(lp212
V<a href="https://maps.google.com/maps/contrib/114978248182006861955/photos">Billy M</a>
p213
asVheight
p214
I3264
sa(dp215
Vphoto_reference
p216
VCmRdAAAAIK1BL_IKDlTJfhKdLAGTTX2EZKLjHEFcynS_Ff4axDkcqLOebtci1XEeAC6abcopUHolNCqbSQLp35E_kmks-y__QP2_9Wk1ojxRG0jvSxK-Xslp6K4Iib8PUC1Zow0tEhC1MKffs3wuDvsczgPzNrZ3GhQzr3jylwLJxTJ1TCVisuz89V3qcg
p217
sVwidth
p218
I2448
sVhtml_attributions
p219
(lp220
V<a href="https://maps.google.com/maps/contrib/113240396546555263447/photos">Alan Lau</a>
p221
asVheight
p222
I3264
sasVtypes
p223
(lp224
Vrestaurant
p225
aVfood
p226
aVpoint_of_interest
p227
aVestablishment
p228
asVicon
p229
Vhttps://maps.gstatic.com/mapfiles/place_api/icons/restaurant-71.png
p230
sVname
p231
VThai Cafe Restaurant
p232
sVgeometry
p233
(dp234
Vaccess_points
p235
(lp236
(dp237
Vtravel_modes
p238
(lp239
VDRIVING
p240
aVBICYCLING
p241
aVWALKING
p242
aVTRANSIT
p243
asVlocation
p244
(dp245
Vlat
p246
g3
(S'37.4193083'
tRp247
sVlng
p248
g3
(S'-121.9164948'
tRp249
ssasVlocation
p250
(dp251
Vlat
p252
g3
(S'37.4191397'
tRp253
sVlng
p254
g3
(S'-121.9159796'
tRp255
sssVadr_address
p256
V<span class="street-address">692 Barber Ln</span>, <span class="locality">Milpitas</span>, <span class="region">CA</span> <span class="postal-code">95035</span>, <span class="country-name">United States</span>
p257
sVinternational_phone_number
p258
V+1 408-955-9992
p259
sVreviews
p260
(lp261
(dp262
Vrating
p263
I3
sVaspects
p264
(lp265
(dp266
Vrating
p267
I1
sVtype
p268
Voverall
p269
sasVprofile_photo_url
p270
V//lh4.googleusercontent.com/-iqwfwpHOuUQ/AAAAAAAAAAI/AAAAAAAAAQQ/7cus4OI1WyY/photo.jpg
p271
sVlanguage
p272
Ven
p273
sVtext
p274
VPlace is a bit tight so it gets loud also.  Food was good and service was quick.
p275
sVauthor_name
p276
VAli Asghar
p277
sVauthor_url
p278
Vhttps://plus.google.com/100814817344142100526
p279
sVtime
p280
I1461246274
sa(dp281
Vrating
p282
I1
sVaspects
p283
(lp284
(dp285
Vrating
p286
I0
sVtype
p287
Voverall
p288
sasVprofile_photo_url
p289
V//lh6.googleusercontent.com/-fd8awyY4eOE/AAAAAAAAAAI/AAAAAAAAAzY/utuea5TF8jY/photo.jpg
p290
sVlanguage
p291
Ven
p292
sVtext
p293
Vwe called in an order via beyondmenu for pickup. they called us back a few minutes later to get the details that beyondmenu did not support (eg, brown rice versus jasmine rice). they said the order would be ready in 15 minutes. we arrived there give to ten minutes later, prepared to wait. however, after a half hour, they finally told us that the kitchen was backed up and they did not know when they would be able to serve us. so we cancelled the order and left.
p294
sVauthor_name
p295
VEd Schmollinger
p296
sVauthor_url
p297
Vhttps://plus.google.com/101457460921343625921
p298
sVtime
p299
I1456676728
sa(dp300
Vrating
p301
I3
sVaspects
p302
(lp303
(dp304
Vrating
p305
I1
sVtype
p306
Voverall
p307
sasVprofile_photo_url
p308
V//lh6.googleusercontent.com/-R9a-u9GgRr8/AAAAAAAAAAI/AAAAAAAAFEw/1q1u-Fv2fjY/photo.jpg
p309
sVlanguage
p310
Ven
p311
sVtext
p312
VFood is good, but customer service is poor. Took them 10+ minutes to take my order. When I did put in my order, the waitress had communication problems and wouldn't acknowledge what I was saying. \u000a$20 minimum to pay with card. \u000a\u000aThe food is really good though. \u000aOrder the Roti w curry appetizer!\u000a
p313
sVauthor_name
p314
VBilly M
p315
sVauthor_url
p316
Vhttps://plus.google.com/114978248182006861955
p317
sVtime
p318
I1459907453
sa(dp319
Vrating
p320
I1
sVaspects
p321
(lp322
(dp323
Vrating
p324
I0
sVtype
p325
Voverall
p326
sasVprofile_photo_url
p327
V//lh6.googleusercontent.com/-8oi4mbJuLLY/AAAAAAAAAAI/AAAAAAAAAAA/STK7ngKIFcI/photo.jpg
p328
sVlanguage
p329
Ven
p330
sVtext
p331
VBad Service, Bad attitude! Don't waste your time or money. Took forever to get water, and good came out not as ordered, then they argued about it. Super disappointed and will return.
p332
sVauthor_name
p333
VJohn Doe
p334
sVauthor_url
p335
Vhttps://plus.google.com/113737148706708194316
p336
sVtime
p337
I1450847203
sa(dp338
Vrating
p339
I5
sVaspects
p340
(lp341
(dp342
Vrating
p343
I3
sVtype
p344
Voverall
p345
sasVprofile_photo_url
p346
V//lh4.googleusercontent.com/-kTvl3RlA5sw/AAAAAAAAAAI/AAAAAAAAHUw/NjOXY9oyF3U/photo.jpg
p347
sVlanguage
p348
Ven
p349
sVtext
p350
VThe best Thai food I've found in the South Bay since moving back from Thailand. Get yourself some Som Tam, Khao Neow, Tom Yam Moo, and drift away to deliciousness heaven. Add some Thai Tea for good measure.
p351
sVauthor_name
p352
VJonathan F
p353
sVauthor_url
p354
Vhttps://plus.google.com/104170245213186853026
p355
sVtime
p356
I1447780741
sasVformatted_phone_number
p357
V(408) 955-9992
p358
sVaddress_components
p359
(lp360
(dp361
Vlong_name
p362
V692
p363
sVtypes
p364
(lp365
Vstreet_number
p366
asVshort_name
p367
V692
p368
sa(dp369
Vlong_name
p370
VBarber Lane
p371
sVtypes
p372
(lp373
Vroute
p374
asVshort_name
p375
VBarber Ln
p376
sa(dp377
Vlong_name
p378
VMilpitas
p379
sVtypes
p380
(lp381
Vlocality
p382
aVpolitical
p383
asVshort_name
p384
VMilpitas
p385
sa(dp386
Vlong_name
p387
VCalifornia
p388
sVtypes
p389
(lp390
Vadministrative_area_level_1
p391
aVpolitical
p392
asVshort_name
p393
VCA
p394
sa(dp395
Vlong_name
p396
VUnited States
p397
sVtypes
p398
(lp399
Vcountry
p400
aVpolitical
p401
asVshort_name
p402
VUS
p403
sa(dp404
Vlong_name
p405
V95035
p406
sVtypes
p407
(lp408
Vpostal_code
p409
asVshort_name
p410
V95035
p411
sas.