(dp1
Vrating
p2
cdecimal
Decimal
p3
(S'4.2'
tRp4
sVreference
p5
VCmRcAAAA4o-pj9U1B0Ls9tRjrQQe6jlz8IKFbQyPIq6OXkmAEyr3haO55zKojVxGEwBFd2XuG6rsnfsUsxKfeqExSo3AWWVeiHNhPYfuTrIr9OfjD3Lu8llUxCGLqfw80jRQVZPOEhAlnDkzLH1IplraNLPkV09KGhTM51QVZP9r0yjL0MivEWBE661eog
p6
sVprice_level
p7
I1
sVplace_id
p8
VChIJZZ_cOYaAhYARnyfbDrAkvJ8
p9
sVurl
p10
Vhttps://maps.google.com/?cid=11510115086234232735
p11
sVformatted_address
p12
V39, 780 Mission St, San Francisco, CA 94103, United States
p13
sVid
p14
Vf3ca11aff070c9f8f8288dcb4dc0b082cd80de74
p15
sVopening_hours
p16
(dp17
Vweekday_text
p18
(lp19
VMonday: 4:00 PM \u2013 1:00 AM
p20
aVTuesday: 4:00 PM \u2013 1:00 AM
p21
aVWednesday: 4:00 PM \u2013 1:00 AM
p22
aVThursday: 4:00 PM \u2013 1:30 AM
p23
aVFriday: 4:00 PM \u2013 1:30 AM
p24
aVSaturday: 4:00 PM \u2013 1:30 AM
p25
aVSunday: 4:00 PM \u2013 1:00 AM
p26
asVopen_now
p27
I00
sVperiods
p28
(lp29
(dp30
Vclose
p31
(dp32
Vday
p33
I1
sVtime
p34
V0100
p35
ssVopen
p36
(dp37
Vday
p38
I0
sVtime
p39
V1600
p40
ssa(dp41
Vclose
p42
(dp43
Vday
p44
I2
sVtime
p45
V0100
p46
ssVopen
p47
(dp48
Vday
p49
I1
sVtime
p50
V1600
p51
ssa(dp52
Vclose
p53
(dp54
Vday
p55
I3
sVtime
p56
V0100
p57
ssVopen
p58
(dp59
Vday
p60
I2
sVtime
p61
V1600
p62
ssa(dp63
Vclose
p64
(dp65
Vday
p66
I4
sVtime
p67
V0100
p68
ssVopen
p69
(dp70
Vday
p71
I3
sVtime
p72
V1600
p73
ssa(dp74
Vclose
p75
(dp76
Vday
p77
I5
sVtime
p78
V0130
p79
ssVopen
p80
(dp81
Vday
p82
I4
sVtime
p83
V1600
p84
ssa(dp85
Vclose
p86
(dp87
Vday
p88
I6
sVtime
p89
V0130
p90
ssVopen
p91
(dp92
Vday
p93
I5
sVtime
p94
V1600
p95
ssa(dp96
Vclose
p97
(dp98
Vday
p99
I0
sVtime
p100
V0130
p101
ssVopen
p102
(dp103
Vday
p104
I6
sVtime
p105
V1600
p106
ssassVvicinity
p107
V39, 780 Mission Street, San Francisco
p108
sVscope
p109
VGOOGLE
p110
sVwebsite
p111
Vhttp://www.sfviewlounge.com/
p112
sVutc_offset
p113
I-420
sVuser_ratings_total
p114
I90
sVphotos
p115
(lp116
(dp117
Vphoto_reference
p118
VCoQBcwAAABtxfvLNNGqwI5hLE0NWFuqYevOwQmGUR-qgg0Bfe6pTZSkDWq9e7R4UB77a4dgxsen_jgY27A7n9nSH9sQhZhwxX7YMe-MALiJO6FvhT6aaEmGqbpWQAB3wmQysT6VYbqMQWC0TR1NsvPtxnxpAIYBGAtG5sN-cDCH5Ovk1njkBEhAJarkDwxoCEtfp48VgRhMIGhSXUNCGEUb7zRUG2d0r0Z6EQTc6NQ
p119
sVwidth
p120
I960
sVhtml_attributions
p121
(lp122
V<a href="https://maps.google.com/maps/contrib/108082240112345450179/photos">Alexander Bekhterev</a>
p123
asVheight
p124
I622
sa(dp125
Vphoto_reference
p126
VCmRdAAAAj1rjN2C6YvP5Mhe1bJBrpTVDtTsqrOuiQctbLd0s6l6yZ3rWECOl-GUxy6V7JbqwuYXiDzLjzLmqfIhcyKXK1vktXrl1QPS7KsclXuF-pSA3C-1KU8uzoOWbEs5hlxm_EhDJ59Y_1ZIIW4hjc0JNlx2CGhRJO4M3zm7-MPp4HHvHeMDCqRw4OA
p127
sVwidth
p128
I4160
sVhtml_attributions
p129
(lp130
V<a href="https://maps.google.com/maps/contrib/107584390553799801997/photos">James Li</a>
p131
asVheight
p132
I3088
sa(dp133
Vphoto_reference
p134
VCmRdAAAAjL5zr1tkPyaaNgkeGUeQu3tLbIi72fxSNA6SAHKSu9L7-hHvx3dwW-ZEp0Uaeq2xG63X8AE2H2DMfQnLger70pkmnVv39_XOvn70i3Tu5j-rcHqJT8S4Jqrv07trDKdnEhAOEDEFREaJ744jqo3Lrx8LGhQjHRLJtTERwZtNG8h1QlHstL1NzQ
p135
sVwidth
p136
I4160
sVhtml_attributions
p137
(lp138
V<a href="https://maps.google.com/maps/contrib/107584390553799801997/photos">James Li</a>
p139
asVheight
p140
I3120
sa(dp141
Vphoto_reference
p142
VCmRdAAAAXA9d4sb65sETo1UXcdvSaZ_wUkw6-1Eufv9xH9SpAv4cxcNOic6pOynQ3ks6J9gOWsEu7sK-T6N4U_Fjy6GusX_rG9rBrc79khuuQNg-LbV2tiiQ8IfsCrVFn2RfVTOHEhDReuwejVW5XPqTdyc69KiLGhQo3TEjFPlCTz6OHFrHWCoLEZcFTg
p143
sVwidth
p144
I5280
sVhtml_attributions
p145
(lp146
V<a href="https://maps.google.com/maps/contrib/108086881826934773478/photos">Alex Mackenzie Torres</a>
p147
asVheight
p148
I2436
sa(dp149
Vphoto_reference
p150
VCmRdAAAAxK9EhNnvpnDlUevPLrEsyWhP7BQ9Zq0sl3nKUXXoo60WpeWL5uE8Mr2A1XvBZFVN8PcsvjlchcARqRdY-jzzUx3Z-tKf4eEV59Jjq5f6_8uGnY4MCvIYWfA_yBxwlH73EhCS20eEoq5bzKqiQ6n6BKDSGhQyfjmEng1KGVWOb-OPvFh6kBwGWw
p151
sVwidth
p152
I4032
sVhtml_attributions
p153
(lp154
V<a href="https://maps.google.com/maps/contrib/110075723435494449220/photos">Michelle Wong</a>
p155
asVheight
p156
I3024
sa(dp157
Vphoto_reference
p158
VCmRdAAAA4qC8-sKGJPoe053pS_iPdMnPxt81D-dExvMeIIFzOCvBgtxnqLu20vL6U7oPU_Eaz_l8O0Uje27zZQLDdY-dM5cMI-Ki2KXCGhB-YZ0_tPZgpzbNRH61_mU-bTj4mshtEhCbHPpdz9bW5uBoZsMmvhEkGhR6a22tvWl2Hx22Je12tg87OsXE-g
p159
sVwidth
p160
I1280
sVhtml_attributions
p161
(lp162
V<a href="https://maps.google.com/maps/contrib/110689295590200279003/photos">Brad Bloesser</a>
p163
asVheight
p164
I720
sa(dp165
Vphoto_reference
p166
VCmRdAAAANlBHvaq0dq8OD5Xb2j4EMociwx06eblJY9ehmK7jnXQ6eT6UKWyy_845L0VWEd_J4138pap_yGrDgWR9jRfL6vA5WhV5HY3Orv_86Bzt6Govfu48FLfm1ePDOqdbtQPEEhAB8v1QLnhUURc4J4tjl0TDGhTUSmNMR9wowVOFjCfJY7K2MjMPdA
p167
sVwidth
p168
I2448
sVhtml_attributions
p169
(lp170
V<a href="https://maps.google.com/maps/contrib/113083799066924715589/photos">Adam Simmons</a>
p171
asVheight
p172
I3264
sa(dp173
Vphoto_reference
p174
VCmRdAAAAo6XAhj1eGVbmNCWJ9I-YuOk9CIb5V5fF5ZbxWGwzPYOCmeL7nUFULiLLVSzFBeaFmZ8oj4jtjNcOi1ohku-nxmcH0693N1tYBdBhKdUh-K2HM3bEYK_eNsFxeN5FiNnNEhA7BbNNdVAk668b7jFltiNCGhS8WKXSUPCsS3amo7Aolmzu3G0NvA
p175
sVwidth
p176
I1080
sVhtml_attributions
p177
(lp178
V<a href="https://maps.google.com/maps/contrib/110922179931240501761/photos">Riku Inoue</a>
p179
asVheight
p180
I608
sa(dp181
Vphoto_reference
p182
VCmRdAAAA0aDrBrlKBEjA-sdW8cYfKMSiKCvEmldvHgCvInJStdL2heVJtGl5l01ctljcjGRmXlM5Wz5h_fJhj_pVgB86uz1hRELW70SVDArmGiiu1XnEQEum07gZ6uBtVAjQTZxGEhD4LHI89hURc_eJXzEaYj4BGhQWe8dj9u2rLnkj5sv1o456pUEpIQ
p183
sVwidth
p184
I1654
sVhtml_attributions
p185
(lp186
V<a href="https://maps.google.com/maps/contrib/109166266278744345684/photos">Bradley Dial</a>
p187
asVheight
p188
I726
sa(dp189
Vphoto_reference
p190
VCmRdAAAAlHOB6q0xnFq2xRnIDnIagHju7u6zzKJSOy139vahzaVX3i5L_gChmh1WyCc9WKPsC4GaWrN70zKss-vyzhpvSirl7o516gsBItM_dY9b2lIsbHkeciczTEfrTZi_cpqxEhATdJdAJNbDFD6Qa_cJmhI2GhRM7MfKaqu6gQdV8VXsfxF8QOjcsQ
p191
sVwidth
p192
I3120
sVhtml_attributions
p193
(lp194
V<a href="https://maps.google.com/maps/contrib/110830048777487140155/photos">Andrei Savu</a>
p195
asVheight
p196
I4160
sasVtypes
p197
(lp198
Vrestaurant
p199
aVnight_club
p200
aVbar
p201
aVfood
p202
aVpoint_of_interest
p203
aVestablishment
p204
asVicon
p205
Vhttps://maps.gstatic.com/mapfiles/place_api/icons/bar-71.png
p206
sVname
p207
VThe View
p208
sVgeometry
p209
(dp210
Vaccess_points
p211
(lp212
(dp213
Vtravel_modes
p214
(lp215
VDRIVING
p216
aVBICYCLING
p217
aVWALKING
p218
aVTRANSIT
p219
asVlocation
p220
(dp221
Vlat
p222
g3
(S'37.7847462'
tRp223
sVlng
p224
g3
(S'-122.4040025'
tRp225
ssasVlocation
p226
(dp227
Vlat
p228
g3
(S'37.7850079'
tRp229
sVlng
p230
g3
(S'-122.4043332'
tRp231
sssVadr_address
p232
V39, <span class="street-address">780 Mission St</span>, <span class="locality">San Francisco</span>, <span class="region">CA</span> <span class="postal-code">94103</span>, <span class="country-name">United States</span>
p233
sVinternational_phone_number
p234
V+1 415-896-1600
p235
sVreviews
p236
(lp237
(dp238
Vrating
p239
I3
sVaspects
p240
(lp241
(dp242
Vrating
p243
I1
sVtype
p244
Voverall
p245
sasVprofile_photo_url
p246
V//lh3.googleusercontent.com/-5xTB1MnO62Q/AAAAAAAAAAI/AAAAAAAACgE/lXjqOhMHhYI/photo.jpg
p247
sVlanguage
p248
Ven
p249
sVtext
p250
VHave I arrived to Batman's Cave? \u000aI really enjoyed the overall view of the location, where you can easily spot the lit up golden gate bridge. I came on a good weekend where fogs were no where in sight and all that were visible were the San Francisco lights. \u000a\u000aI realized I don't come up north often enough when I can't stop staring out to the vast open sea. \u000aI digress, the drinks here were a bit on the pricy side, but again- sf is overall pricy ...
p251
sVauthor_name
p252
VRe becca
p253
sVauthor_url
p254
Vhttps://plus.google.com/100944996559980288840
p255
sVtime
p256
I1460499005
sa(dp257
Vrating
p258
I5
sVaspects
p259
(lp260
(dp261
Vrating
p262
I3
sVtype
p263
Voverall
p264
sasVprofile_photo_url
p265
V//lh4.googleusercontent.com/-dfRFzJ0ZMRU/AAAAAAAAAAI/AAAAAAAAAiM/ew_Fr0mepuw/photo.jpg
p266
sVlanguage
p267
Ven
p268
sVtext
p269
VThe View is located on the 39th floor of the Marriott hotel. You just have to walk past the lobby and into the elevators. This place is actually not that known in my opinion. I've met people who have lived in San Francisco for years and have never been here!\u000a\u000aThis is the place where I try to take my friends who have never been to San Francisco. The breathtaking 360 view is surreal especially at night.\u000a\u000aYes, this place can be packed. However, if you go here during a weekday, it's not as bad as you think. I finally was able to sit down here with my friends and grabbed a drink. I got the Moscone Mule which consisted of vodka and ginger beer. It was pretty strong, but it was good at the same time. For someone who likes sweet drinks, this was made brilliantly.\u000a\u000aI definitely recommend coming here and bringing your friends. Be aware that the drinks are pricey but hey, you pay for the view right?
p270
sVauthor_name
p271
VAj Cartas
p272
sVauthor_url
p273
Vhttps://plus.google.com/110703158319043680789
p274
sVtime
p275
I1458350125
sa(dp276
Vrating
p277
I5
sVaspects
p278
(lp279
(dp280
Vrating
p281
I3
sVtype
p282
Voverall
p283
sasVprofile_photo_url
p284
V//lh4.googleusercontent.com/-O1agHpZpFCA/AAAAAAAAAAI/AAAAAAAAhAQ/wg3SBUz0fGQ/photo.jpg
p285
sVlanguage
p286
Ven
p287
sVtext
p288
VThe view here is a must see if new to SF. Nice cocktails and friendly atmosphere. A bit pricey but worth it as a treat. :-)
p289
sVauthor_name
p290
VJason Mayes
p291
sVauthor_url
p292
Vhttps://plus.google.com/110804953626559077511
p293
sVtime
p294
I1456285800
sa(dp295
Vrating
p296
I5
sVaspects
p297
(lp298
(dp299
Vrating
p300
I3
sVtype
p301
Voverall
p302
sasVprofile_photo_url
p303
V//lh4.googleusercontent.com/-R8titjUt1sg/AAAAAAAAAAI/AAAAAAAABH8/LgL9Xrp0-5w/photo.jpg
p304
sVlanguage
p305
Ven
p306
sVtext
p307
VOne of the BEST places to explore.  Love their panoramic view lounge.\u000aThey also serve mock tails for kids to enjoy.  \u000aLOVE;-)
p308
sVauthor_name
p309
Vnaruemon promsawasdi
p310
sVauthor_url
p311
Vhttps://plus.google.com/115772126312197997685
p312
sVtime
p313
I1458493856
sa(dp314
Vrating
p315
I5
sVaspects
p316
(lp317
(dp318
Vrating
p319
I3
sVtype
p320
Voverall
p321
sasVprofile_photo_url
p322
V//lh4.googleusercontent.com/-Y73zsA3-gGU/AAAAAAAAAAI/AAAAAAAAFPw/ANc-gbKveNA/photo.jpg
p323
sVlanguage
p324
Ven
p325
sVtext
p326
VAmazing view, good drinks, great appetizers. You're paying a slight premium for the view but it's worth it and in line with downtown bars.
p327
sVauthor_name
p328
VSebastian Fung
p329
sVauthor_url
p330
Vhttps://plus.google.com/114180634877318000688
p331
sVtime
p332
I1459653070
sasVformatted_phone_number
p333
V(415) 896-1600
p334
sVaddress_components
p335
(lp336
(dp337
Vlong_name
p338
V39
p339
sVtypes
p340
(lp341
Vfloor
p342
asVshort_name
p343
V39
p344
sa(dp345
Vlong_name
p346
V780
p347
sVtypes
p348
(lp349
Vstreet_number
p350
asVshort_name
p351
V780
p352
sa(dp353
Vlong_name
p354
VMission Street
p355
sVtypes
p356
(lp357
Vroute
p358
asVshort_name
p359
VMission St
p360
sa(dp361
Vlong_name
p362
VSan Francisco
p363
sVtypes
p364
(lp365
Vlocality
p366
aVpolitical
p367
asVshort_name
p368
VSF
p369
sa(dp370
Vlong_name
p371
VCalifornia
p372
sVtypes
p373
(lp374
Vadministrative_area_level_1
p375
aVpolitical
p376
asVshort_name
p377
VCA
p378
sa(dp379
Vlong_name
p380
VUnited States
p381
sVtypes
p382
(lp383
Vcountry
p384
aVpolitical
p385
asVshort_name
p386
VUS
p387
sa(dp388
Vlong_name
p389
V94103
p390
sVtypes
p391
(lp392
Vpostal_code
p393
asVshort_name
p394
V94103
p395
sas.