(dp1
Vwebsite
p2
Vhttp://www.thelimited.com/
p3
sVutc_offset
p4
I-420
sVname
p5
VThe Limited
p6
sVprice_level
p7
I2
sVphotos
p8
(lp9
(dp10
Vphoto_reference
p11
VCmRcAAAAJME2TV5w5NM1jUkVpG8laL2IzUBkY_7sRlN8UpX7vodvkmlBYxpBO_pLW04M_eApJZZgXrDVPDMYEshWK3OUkUda11QhESAaBUXdVXBBRf9GKO8ikb9Vj53Y2XsVfjszEhA_FbPL4H65oah3X7oUYBTAGhRdyQpv4ctFf5LQQj_Feld3UjbmfA
p12
sVwidth
p13
I170
sVhtml_attributions
p14
(lp15
V<a href="https://maps.google.com/maps/contrib/109275424132358177749/photos">The Limited</a>
p16
asVheight
p17
I85
sasVgeometry
p18
(dp19
Vaccess_points
p20
(lp21
(dp22
Vtravel_modes
p23
(lp24
VDRIVING
p25
aVBICYCLING
p26
aVWALKING
p27
aVTRANSIT
p28
asVlocation
p29
(dp30
Vlat
p31
cdecimal
Decimal
p32
(S'37.69528409999999'
tRp33
sVlng
p34
g32
(S'-121.9251453'
tRp35
ssasVlocation
p36
(dp37
Vlat
p38
g32
(S'37.69525170000001'
tRp39
sVlng
p40
g32
(S'-121.9252305'
tRp41
sssVadr_address
p42
V<span class="street-address">2621 Stoneridge Mall Rd</span>, <span class="locality">Pleasanton</span>, <span class="region">CA</span> <span class="postal-code">94588</span>, <span class="country-name">United States</span>
p43
sVplace_id
p44
VChIJQfTev3Tsj4AR6B-IcgRfR8s
p45
sVinternational_phone_number
p46
V+1 925-734-0733
p47
sVvicinity
p48
V2621 Stoneridge Mall Road, Pleasanton
p49
sVformatted_phone_number
p50
V(925) 734-0733
p51
sVscope
p52
VGOOGLE
p53
sVtypes
p54
(lp55
Vclothing_store
p56
aVjewelry_store
p57
aVstore
p58
aVpoint_of_interest
p59
aVestablishment
p60
asVopening_hours
p61
(dp62
Vweekday_text
p63
(lp64
VMonday: 10:00 AM \u2013 9:00 PM
p65
aVTuesday: 10:00 AM \u2013 9:00 PM
p66
aVWednesday: 10:00 AM \u2013 9:00 PM
p67
aVThursday: 10:00 AM \u2013 9:00 PM
p68
aVFriday: 10:00 AM \u2013 9:00 PM
p69
aVSaturday: 10:00 AM \u2013 9:00 PM
p70
aVSunday: 11:00 AM \u2013 7:00 PM
p71
asVopen_now
p72
I01
sVperiods
p73
(lp74
(dp75
Vclose
p76
(dp77
Vday
p78
I0
sVtime
p79
V1900
p80
ssVopen
p81
(dp82
Vday
p83
I0
sVtime
p84
V1100
p85
ssa(dp86
Vclose
p87
(dp88
Vday
p89
I1
sVtime
p90
V2100
p91
ssVopen
p92
(dp93
Vday
p94
I1
sVtime
p95
V1000
p96
ssa(dp97
Vclose
p98
(dp99
Vday
p100
I2
sVtime
p101
V2100
p102
ssVopen
p103
(dp104
Vday
p105
I2
sVtime
p106
V1000
p107
ssa(dp108
Vclose
p109
(dp110
Vday
p111
I3
sVtime
p112
V2100
p113
ssVopen
p114
(dp115
Vday
p116
I3
sVtime
p117
V1000
p118
ssa(dp119
Vclose
p120
(dp121
Vday
p122
I4
sVtime
p123
V2100
p124
ssVopen
p125
(dp126
Vday
p127
I4
sVtime
p128
V1000
p129
ssa(dp130
Vclose
p131
(dp132
Vday
p133
I5
sVtime
p134
V2100
p135
ssVopen
p136
(dp137
Vday
p138
I5
sVtime
p139
V1000
p140
ssa(dp141
Vclose
p142
(dp143
Vday
p144
I6
sVtime
p145
V2100
p146
ssVopen
p147
(dp148
Vday
p149
I6
sVtime
p150
V1000
p151
ssassVurl
p152
Vhttps://maps.google.com/?cid=14647780785751859176
p153
sVaddress_components
p154
(lp155
(dp156
Vlong_name
p157
V2621
p158
sVtypes
p159
(lp160
Vstreet_number
p161
asVshort_name
p162
V2621
p163
sa(dp164
Vlong_name
p165
VStoneridge Mall Road
p166
sVtypes
p167
(lp168
Vroute
p169
asVshort_name
p170
VStoneridge Mall Rd
p171
sa(dp172
Vlong_name
p173
VPleasanton
p174
sVtypes
p175
(lp176
Vlocality
p177
aVpolitical
p178
asVshort_name
p179
VPleasanton
p180
sa(dp181
Vlong_name
p182
VCalifornia
p183
sVtypes
p184
(lp185
Vadministrative_area_level_1
p186
aVpolitical
p187
asVshort_name
p188
VCA
p189
sa(dp190
Vlong_name
p191
VUnited States
p192
sVtypes
p193
(lp194
Vcountry
p195
aVpolitical
p196
asVshort_name
p197
VUS
p198
sa(dp199
Vlong_name
p200
V94588
p201
sVtypes
p202
(lp203
Vpostal_code
p204
asVshort_name
p205
V94588
p206
sasVformatted_address
p207
V2621 Stoneridge Mall Rd, Pleasanton, CA 94588, United States
p208
sVid
p209
V95ef9276da70920534d638713855db53cacf906b
p210
sVreference
p211
VCmRfAAAAcc6aPl6lXqBn9esTAnYJF5P-KZW9em_mH2a2vLMOMjp1pQ4mRhf-8-fz1-FCC-R4MGU0L68k73lvQqEPd0sL2VyAzW7CFwC62YapsQEpJ_sDLR_mmGRC5aDljH0DMbvmEhCfFiFucXZcAH67EYpx413MGhQhrRPfHLLFlRd4duzwynBnAdSXBA
p212
sVicon
p213
Vhttps://maps.gstatic.com/mapfiles/place_api/icons/shopping-71.png
p214
s.