(dp1
Vrating
p2
cdecimal
Decimal
p3
(S'4.3'
tRp4
sVreference
p5
VCnRjAAAABy7h8HFawBwS2DDK4vsGC2xl5t7zWSGLnMqKs6NH2CMitxyI71CnD7HmQ7uMFqHEf5sQQwWuOZ_edRHhlEUkljKmf8e-QR_yWVEJZDiF_XY7P9Dg2wV1KjA00tczvTD97tbDk_DztcSUrnvOvgEcahIQB6Xr5BtuIxa7R95twNNVxxoUi1Wn-0KU76H5HLnywOBNGMyyvsU
p6
sVprice_level
p7
I2
sVplace_id
p8
VChIJs7XIGo6AhYAR61UlzRqmdb0
p9
sVurl
p10
Vhttps://maps.google.com/?cid=13652000479484663275
p11
sVformatted_address
p12
V408 Merchant St, San Francisco, CA 94111, United States
p13
sVid
p14
V11a3999ced0164dc2ca8be529188e68323720062
p15
sVopening_hours
p16
(dp17
Vweekday_text
p18
(lp19
VMonday: 4:00 \u2013 10:00 PM
p20
aVTuesday: 4:00 PM \u2013 12:00 AM
p21
aVWednesday: 4:00 PM \u2013 12:00 AM
p22
aVThursday: 4:00 PM \u2013 12:00 AM
p23
aVFriday: 4:00 PM \u2013 12:00 AM
p24
aVSaturday: 4:00 PM \u2013 12:00 AM
p25
aVSunday: Closed
p26
asVopen_now
p27
I00
sVperiods
p28
(lp29
(dp30
Vclose
p31
(dp32
Vday
p33
I1
sVtime
p34
V2200
p35
ssVopen
p36
(dp37
Vday
p38
I1
sVtime
p39
V1600
p40
ssa(dp41
Vclose
p42
(dp43
Vday
p44
I3
sVtime
p45
V0000
p46
ssVopen
p47
(dp48
Vday
p49
I2
sVtime
p50
V1600
p51
ssa(dp52
Vclose
p53
(dp54
Vday
p55
I4
sVtime
p56
V0000
p57
ssVopen
p58
(dp59
Vday
p60
I3
sVtime
p61
V1600
p62
ssa(dp63
Vclose
p64
(dp65
Vday
p66
I5
sVtime
p67
V0000
p68
ssVopen
p69
(dp70
Vday
p71
I4
sVtime
p72
V1600
p73
ssa(dp74
Vclose
p75
(dp76
Vday
p77
I6
sVtime
p78
V0000
p79
ssVopen
p80
(dp81
Vday
p82
I5
sVtime
p83
V1600
p84
ssa(dp85
Vclose
p86
(dp87
Vday
p88
I0
sVtime
p89
V0000
p90
ssVopen
p91
(dp92
Vday
p93
I6
sVtime
p94
V1600
p95
ssassVvicinity
p96
V408 Merchant Street, San Francisco
p97
sVscope
p98
VGOOGLE
p99
sVwebsite
p100
Vhttp://www.thehiddenvine.com/
p101
sVutc_offset
p102
I-420
sVuser_ratings_total
p103
I48
sVphotos
p104
(lp105
(dp106
Vphoto_reference
p107
VCmRdAAAAcyhfLSz9Y4kroLS1yGwqLAPYJ2rc67h0zYRXni_mYQtGMLX5hA33hkWaDwjHSAAF4tZOzFEVh3In7C74o7XKJNSjxsDJQz5ZfRDqn6ehH3IwWCQOajA79EKbw2c06HOWEhAI6Djo-bV9_s2QWWl29QcYGhSzvhuKzEfqEfJ6RwwfWQJqOupk6w
p108
sVwidth
p109
I972
sVhtml_attributions
p110
(lp111
V<a href="https://maps.google.com/maps/contrib/115877612390906203055/photos">Walkertwo SFO</a>
p112
asVheight
p113
I1296
sa(dp114
Vphoto_reference
p115
VCmRdAAAAwWwGGHm_L7OH07Yn1BPpMXq8Jj8dXZtyZC3q3OlnaJgH0ZT32ilTqxdeQd0JI2clsa7UuUX8-qcDBzRclXJWgY8a-PvZGy2_BzEKNYh8IYvZAa7YYHxf7kOeyKNpnNOeEhDZTadFbb5SPs4h08zNRhssGhQhIiPopgdaQ170T3pcXPKltW5DlA
p116
sVwidth
p117
I4032
sVhtml_attributions
p118
(lp119
V<a href="https://maps.google.com/maps/contrib/104841008752399520805/photos">Derek Bulner</a>
p120
asVheight
p121
I3024
sa(dp122
Vphoto_reference
p123
VCmRdAAAA8is_zINrMhJ_iBndpa_EdKJzqeF-NDliOJDvL32dzuYSG0J-tHLmZ4Pam9EhHORNdSJj0nzZoOxqg2ZrFoNTLiuW2Nhja1GNmDE-nYJREJwp1f8PMCuKizTD6nceWjqVEhB844HebywyKsB0rlMw9Y4pGhQhPKIvxGzSNlwCp8J4PJ3ydUpM0Q
p124
sVwidth
p125
I2992
sVhtml_attributions
p126
(lp127
V<a href="https://maps.google.com/maps/contrib/104841008752399520805/photos">Derek Bulner</a>
p128
asVheight
p129
I4000
sa(dp130
Vphoto_reference
p131
VCmRdAAAAG-nmi5Q3iJ-e9R24Wq-7OVSNwAQadlJpUyf2kYck0NIAr-kQ3JOx6F4yhzUWKd-ppcF8LTSli7Bz3N1oNRc526dQMo6-FIxU9yBJoa-3XUgbT7x2qXp0S4d_j0-RoUUREhAk0VZUROj7LRBRsdVZhIAgGhRR3REWYXlmmm2VXXSrWjVAgyLXSQ
p132
sVwidth
p133
I1265
sVhtml_attributions
p134
(lp135
V<a href="https://maps.google.com/maps/contrib/104355471212877684197/photos">Ellen Warner</a>
p136
asVheight
p137
I949
sa(dp138
Vphoto_reference
p139
VCmRdAAAAybV-givkIyHU9rGJRCuTd6r5GRpnFovXGhcHfznItEhYViBRH2oyzBhLm-KzK23J_aOurzeyc8y4HAG2cmU0fHtfVmZAvpNiYTQJzKGNuZ5JMeRhIUyBew9ea0_3FOr7EhALg9Y6eTp1dFu8nTnwweZSGhR2_UYvcvJwso0BWyF-I2hJQOLQkA
p140
sVwidth
p141
I2992
sVhtml_attributions
p142
(lp143
V<a href="https://maps.google.com/maps/contrib/104841008752399520805/photos">Derek Bulner</a>
p144
asVheight
p145
I4000
sa(dp146
Vphoto_reference
p147
VCmRdAAAAXhz_0NbKAAC_-5DX8r8Oi4MJ6wJ6IW-h1HNxJ3yj1KXUTM4v3K4J3gHMY-8H0XDRefKdJhYSYjFbxKRvLpeWX3a0_q25HD-JUpbIR4YBAhP1LRh0yL2MZkz24v5-JY5lEhDwbf3TOwPrKRUG14zA46gxGhRNSzDyDFVeqGhee4yM1pvXF3jnhg
p148
sVwidth
p149
I2048
sVhtml_attributions
p150
(lp151
V<a href="https://maps.google.com/maps/contrib/118402799814227967631/photos">Hungjui Yu</a>
p152
asVheight
p153
I2048
sa(dp154
Vphoto_reference
p155
VCmRdAAAA7ItA_x6382kzuGyI0IqACMQ-kKsh69XnSTX5yoyT2bFQZ_yUC9r2jwgqi4gwDGx5rCW3D3Uf10DVF4ZGb-qaJWY39-CgoW0Oa5tOGeGqlXf82Ve9hxfwXAndwAeEwP9wEhCEw0b6otB5-ObLLVqN3TIBGhRI8pdGRv1LpsqS6efhhwpdV3ji_w
p156
sVwidth
p157
I4160
sVhtml_attributions
p158
(lp159
V<a href="https://maps.google.com/maps/contrib/108746602310311777747/photos">Patrick Giuliano</a>
p160
asVheight
p161
I2340
sa(dp162
Vphoto_reference
p163
VCmRdAAAAIPRkA6euklu0hgqQRh_l3j6UBmJcfSWbHUq46d85ypfx_zPuW7qter5n6Hd5dPajdFut9UJD0B3zCD6H2Tz-sBtpdu1X5GIrfrkZ2vSCQB_AFz7PU9yjS7dHmEtALLx0EhBDB12HM1KsxYBjg7hLUSzxGhScNN5js1aTeFiYDckULYBJdVqbhQ
p164
sVwidth
p165
I2448
sVhtml_attributions
p166
(lp167
V<a href="https://maps.google.com/maps/contrib/118402799814227967631/photos">Hungjui Yu</a>
p168
asVheight
p169
I2448
sa(dp170
Vphoto_reference
p171
VCmRdAAAAn3hsMzJw7wKwQSTuFQnA2wcqDeM-Abo9jmJTXREh1Qj5SGUQdbwPtSUjK6Vw2IlF0P180iSp2z-WGexBgrs9A62qeZIWDW_81gmQuV0NgPbGi_TBg20NMlsc7TYnaB54EhCw8_TdpkZUyDaFugVYqD9lGhRIbBukjiTDbslVYSP8WlROGHav6Q
p172
sVwidth
p173
I2992
sVhtml_attributions
p174
(lp175
V<a href="https://maps.google.com/maps/contrib/104841008752399520805/photos">Derek Bulner</a>
p176
asVheight
p177
I4000
sasVtypes
p178
(lp179
Vfood
p180
aVbar
p181
aVpoint_of_interest
p182
aVestablishment
p183
asVicon
p184
Vhttps://maps.gstatic.com/mapfiles/place_api/icons/bar-71.png
p185
sVname
p186
VThe Hidden Vine
p187
sVgeometry
p188
(dp189
Vaccess_points
p190
(lp191
(dp192
Vtravel_modes
p193
(lp194
VDRIVING
p195
aVBICYCLING
p196
aVWALKING
p197
aVTRANSIT
p198
asVlocation
p199
(dp200
Vlat
p201
g3
(S'37.7955621'
tRp202
sVlng
p203
g3
(S'-122.4007542'
tRp204
ssasVlocation
p205
(dp206
Vlat
p207
g3
(S'37.7955621'
tRp208
sVlng
p209
g3
(S'-122.4007542'
tRp210
sssVadr_address
p211
V<span class="street-address">408 Merchant St</span>, <span class="locality">San Francisco</span>, <span class="region">CA</span> <span class="postal-code">94111</span>, <span class="country-name">United States</span>
p212
sVinternational_phone_number
p213
V+1 415-674-3567
p214
sVreviews
p215
(lp216
(dp217
Vrating
p218
I4
sVaspects
p219
(lp220
(dp221
Vrating
p222
I2
sVtype
p223
Voverall
p224
sasVprofile_photo_url
p225
V//lh6.googleusercontent.com/-AVUxXoyheZU/AAAAAAAAAAI/AAAAAAAADCU/zan2054CpHw/photo.jpg
p226
sVlanguage
p227
Ven
p228
sVtext
p229
VVery decent wine bar. The atmosphere is delightful and the service is perfect. The bartender offer us a free drink cuz our original order sold out. 
p230
sVauthor_name
p231
VHungjui Yu
p232
sVauthor_url
p233
Vhttps://plus.google.com/118402799814227967631
p234
sVtime
p235
I1456328027
sa(dp236
Vrating
p237
I4
sVaspects
p238
(lp239
(dp240
Vrating
p241
I2
sVtype
p242
Voverall
p243
sasVprofile_photo_url
p244
V//lh3.googleusercontent.com/-f7qCmVHrRGI/AAAAAAAAAAI/AAAAAAAAAC4/gZDYJP4XGVA/photo.jpg
p245
sVlanguage
p246
Ven
p247
sVtext
p248
VAs its name mentions, this place is a hidden wine bar that has a wide selection. The nice decor, bocce court, and great wine make Hidden Vine an ideal location to host a group event.
p249
sVauthor_name
p250
VStanley Pang
p251
sVauthor_url
p252
Vhttps://plus.google.com/107849343600091153640
p253
sVtime
p254
I1458951468
sa(dp255
Vrating
p256
I5
sVaspects
p257
(lp258
(dp259
Vrating
p260
I3
sVtype
p261
Voverall
p262
sasVprofile_photo_url
p263
V//lh5.googleusercontent.com/-eZcrjasxTv4/AAAAAAAAAAI/AAAAAAAAI28/_Hd_bDHA31c/photo.jpg
p264
sVlanguage
p265
Ven
p266
sVtext
p267
VLoved the intimate setting, selection of flights and delish flatbread. 
p268
sVauthor_name
p269
VKatiya McKinney
p270
sVauthor_url
p271
Vhttps://plus.google.com/109952984799527839184
p272
sVtime
p273
I1458622156
sa(dp274
Vrating
p275
I4
sVaspects
p276
(lp277
(dp278
Vrating
p279
I2
sVtype
p280
Voverall
p281
sasVprofile_photo_url
p282
V//lh6.googleusercontent.com/-p8-Yz_nVhJo/AAAAAAAAAAI/AAAAAAAAABA/M3niiXQ03wE/photo.jpg
p283
sVlanguage
p284
Ven
p285
sVtext
p286
VThis place is awesome for a wine bar and apps experience. Really blown away by the wine selections here, and particularly what you can get by the glass. Really liked the vibe and everything about this spot as a way to start the evening.
p287
sVauthor_name
p288
VRichard Wilson
p289
sVauthor_url
p290
Vhttps://plus.google.com/118368529011682677937
p291
sVtime
p292
I1448862576
sa(dp293
Vrating
p294
I5
sVaspects
p295
(lp296
(dp297
Vrating
p298
I3
sVtype
p299
Voverall
p300
sasVprofile_photo_url
p301
V//lh6.googleusercontent.com/-8w8gdGZ-gWA/AAAAAAAAAAI/AAAAAAAAAGE/Kw53mBTIkYo/photo.jpg
p302
sVlanguage
p303
Ven
p304
sVtext
p305
VSuch a cozy wine bar, good date spot and a place to come with friends and just chat. Love sitting by the fireplace!
p306
sVauthor_name
p307
VElizabeth Stark
p308
sVauthor_url
p309
Vhttps://plus.google.com/105928301547575896670
p310
sVtime
p311
I1448394722
sasVformatted_phone_number
p312
V(415) 674-3567
p313
sVaddress_components
p314
(lp315
(dp316
Vlong_name
p317
V408
p318
sVtypes
p319
(lp320
Vstreet_number
p321
asVshort_name
p322
V408
p323
sa(dp324
Vlong_name
p325
VMerchant Street
p326
sVtypes
p327
(lp328
Vroute
p329
asVshort_name
p330
VMerchant St
p331
sa(dp332
Vlong_name
p333
VSan Francisco
p334
sVtypes
p335
(lp336
Vlocality
p337
aVpolitical
p338
asVshort_name
p339
VSF
p340
sa(dp341
Vlong_name
p342
VCalifornia
p343
sVtypes
p344
(lp345
Vadministrative_area_level_1
p346
aVpolitical
p347
asVshort_name
p348
VCA
p349
sa(dp350
Vlong_name
p351
VUnited States
p352
sVtypes
p353
(lp354
Vcountry
p355
aVpolitical
p356
asVshort_name
p357
VUS
p358
sa(dp359
Vlong_name
p360
V94111
p361
sVtypes
p362
(lp363
Vpostal_code
p364
asVshort_name
p365
V94111
p366
sas.