(dp1
Vrating
p2
cdecimal
Decimal
p3
(S'3.9'
tRp4
sVreference
p5
VCnRnAAAArj827zGsJmYug4ShfDlIm4L0gECXhhVHwHI6w_8NrekNGgWNWzl99WfyOHE5iCuXJCzrmcKApxw0ZhIH_n67xXUHPgrNkLEf5FcnNz9NTSnzQhhTQLyTyF3LbRpPrnpQRYVw0TL0q1DgdgAn30Af4xIQ26ll6KKbxAm-KKI91IFQhxoUwxljUVgpsjXbK_eeN1wjgJVwxJI
p6
sVplace_id
p7
VChIJ8WTz_oeEhYAR1M95VSYTlzs
p8
sVurl
p9
Vhttps://maps.google.com/?cid=4293921825084788692
p10
sVformatted_address
p11
V1651 Tiburon Blvd, Tiburon, CA 94920, United States
p12
sVid
p13
Vf2b9692720750a4ec826d5c53d836cd235fc32cf
p14
sVopening_hours
p15
(dp16
Vweekday_text
p17
(lp18
VMonday: Open 24 hours
p19
aVTuesday: Open 24 hours
p20
aVWednesday: Open 24 hours
p21
aVThursday: Open 24 hours
p22
aVFriday: Open 24 hours
p23
aVSaturday: Open 24 hours
p24
aVSunday: Open 24 hours
p25
asVopen_now
p26
I01
sVperiods
p27
(lp28
(dp29
Vopen
p30
(dp31
Vday
p32
I0
sVtime
p33
V0000
p34
ssassVvicinity
p35
V1651 Tiburon Boulevard, Tiburon
p36
sVscope
p37
VGOOGLE
p38
sVwebsite
p39
Vhttp://lodgeattiburon.com/
p40
sVutc_offset
p41
I-420
sVuser_ratings_total
p42
I37
sVphotos
p43
(lp44
(dp45
Vphoto_reference
p46
VCmRdAAAAylUVcJN0XQBmHD6Qk_xRx37w06HgFYZ4gCr3SI7TjE0Q8bUbz_1sGDt2yqdzX1yrHPEdtM-C7eXoq8ggdjmRiwkLwxZtscd77hdWphaem94Gysq8z4jmvzMsgjer89mAEhB-hECHULdtwNFCf84k2jH0GhQv8dLfBwnANipJpoZxqszY3hgHjw
p47
sVwidth
p48
I1000
sVhtml_attributions
p49
(lp50
V<a href="https://maps.google.com/maps/contrib/104251304779329847985/photos">The Lodge At Tiburon</a>
p51
asVheight
p52
I667
sa(dp53
Vphoto_reference
p54
VCmRdAAAAaHnAblNIxXN1ZlM_eHPEXK5hRfoU7Sk3_2c1Mf-Oc_UWNBQCt8_u_meuCtYo_TwhCLNoQxLOjNtw-YZsT88mJKVLKG_v5jsbIXLdlWT1svQYy242wLm4n2ZLwf6j4oe4EhBotk2gLXu2x5D1RjZO8qkEGhR-2AuTCormmAEoelnDYz1Uo2XoeA
p55
sVwidth
p56
I582
sVhtml_attributions
p57
(lp58
V<a href="https://maps.google.com/maps/contrib/104251304779329847985/photos">The Lodge At Tiburon</a>
p59
asVheight
p60
I581
sa(dp61
Vphoto_reference
p62
VCmRdAAAAHUWGSD5JbB_uzgzJaAFTijxSbsVGheW4OFzzHL-FCkQdPUFKs_EtZ0Rfsj3Kr9DCvzeKzWs5dIO0gz6fvgHLN6IhgK-oZYD02m5T5zgpP1O4bjm3JoDrDvtzZo5bj72lEhB7M_431ZPB-EYIEDrE6moKGhRjvqKz_zfQ7QRejD2doXtJY9Vkrw
p63
sVwidth
p64
I1000
sVhtml_attributions
p65
(lp66
V<a href="https://maps.google.com/maps/contrib/104251304779329847985/photos">The Lodge At Tiburon</a>
p67
asVheight
p68
I667
sa(dp69
Vphoto_reference
p70
VCmRdAAAAn9BNX025PUAmnp1k91mgzQh4x4ntRmVbjc-dQOtp0wRR68vT5qWgJd9sJ5btBB4OWdoIr3BNn-f7JveyLxabA3NFYFShEK1qTwSAUkoTCBVY-ucun9uufHhd8qXXQ6TiEhDva8Iblosw0GsdK3gQnoZ3GhR8tTOh-Rf-bqmYtYNDCYMt12__EA
p71
sVwidth
p72
I2400
sVhtml_attributions
p73
(lp74
V<a href="https://maps.google.com/maps/contrib/104251304779329847985/photos">The Lodge At Tiburon</a>
p75
asVheight
p76
I1600
sa(dp77
Vphoto_reference
p78
VCmRdAAAAK9mgFNrQHESDBurfX9-m4y16rIDcbBXR2zd0qvgxwnJVFi2uyWYFueOni-B-_Brm0TUu3aJXM67Yevc_QqkQlYB1jotGSvXW-SqQwkexO-KjLG8GRmp1SzRFOi41nwt5EhDY_fAhJBkqMhAiG9x9CcTJGhRvHmyiaNFbKgvReCrW9GgRaCki8g
p79
sVwidth
p80
I2304
sVhtml_attributions
p81
(lp82
V<a href="https://maps.google.com/maps/contrib/104251304779329847985/photos">The Lodge At Tiburon</a>
p83
asVheight
p84
I1536
sa(dp85
Vphoto_reference
p86
VCmRdAAAAz6Za2dUU87I5Fjd2Dg8K4eJ6eRVGu07X2Nr6CsSkQbLjNRfY0Yksp6es_a9t9n2p-dt1ICnHfB-FPUpXduC3VG7KLnAOOtnVIqzAz_b9B94OrjxePC9x7fGb0fkL0LnHEhD2_fXwOhy4npR6mZG1kLDhGhSqQbZnqg7t-wedfiUupHyJJVs4cA
p87
sVwidth
p88
I1024
sVhtml_attributions
p89
(lp90
V<a href="https://maps.google.com/maps/contrib/104251304779329847985/photos">The Lodge At Tiburon</a>
p91
asVheight
p92
I678
sa(dp93
Vphoto_reference
p94
VCmRdAAAA_3wfWdh0SkVmy1CCJVG1rRQiIawPEo2MTkzJID5RFj6fty_OSO6ckP_PlhcPiUpEI1PI_oepQb5f63t2vvD2lnNFtjNCtPKixtdrEeTJWJ5pVlAwBE5JxzW_wEIomF6HEhAPlRGICaBr2L8oTdUBC09eGhQSQJHcb0Z6Sg0cLUrZMLGH_QmGcA
p95
sVwidth
p96
I1024
sVhtml_attributions
p97
(lp98
V<a href="https://maps.google.com/maps/contrib/104251304779329847985/photos">The Lodge At Tiburon</a>
p99
asVheight
p100
I680
sa(dp101
Vphoto_reference
p102
VCmRdAAAAocbyZqJegf7QpwNbDHIUg7jOQ5k_W0ITjYNC8BuXa5KLQ64Rii6y9tIUsabr3JJG9AHNzg48zVEs1wI9uP6zrod2e2mR05C4i0edD6RKxx3Or0UAVFqIDnF0QLwpPVpyEhD049n-NIN8gMksU-iYttBVGhQKP1uc3gGrZ39JRaKWFQE82UmWIQ
p103
sVwidth
p104
I1000
sVhtml_attributions
p105
(lp106
V<a href="https://maps.google.com/maps/contrib/104251304779329847985/photos">The Lodge At Tiburon</a>
p107
asVheight
p108
I667
sa(dp109
Vphoto_reference
p110
VCmRdAAAAKQzkPtn9fxUN-Uy0qXrHB7sn_NvOEM9KWeh1vFUEcT4-F3vyQfSdpM1W-ufz3VmSSO2FAo5AKXlPwWj_4_u55HPPF-fs-WnI2RNPThYogjAS7WsEes0bhMMEMbpIT7U7EhBQqB6xhzOOquVyH1Jsu65LGhQVAGxPOaiM3trFp2t3fd7wx_bVBw
p111
sVwidth
p112
I5760
sVhtml_attributions
p113
(lp114
V<a href="https://maps.google.com/maps/contrib/104251304779329847985/photos">The Lodge At Tiburon</a>
p115
asVheight
p116
I3840
sa(dp117
Vphoto_reference
p118
VCmRdAAAAgQp0k2en8rL_w4XFFs6R6mPR6HFcS3ePTJO9vSNgUzq3qAfbgihYKZZdOh9Ua_BIm7WWfi9CaA4JHhnZEgVRzX8LcreVKkgiKSdu8GMV3O4s1JrqN_ztDgGVLqP281rIEhB2onbYETVYJFkohFhGwb3aGhTXDiwK8fPlFLg0Gah2Dt0AYcTn5g
p119
sVwidth
p120
I2048
sVhtml_attributions
p121
(lp122
V<a href="https://maps.google.com/maps/contrib/104251304779329847985/photos">The Lodge At Tiburon</a>
p123
asVheight
p124
I1365
sasVtypes
p125
(lp126
Vlodging
p127
aVpoint_of_interest
p128
aVestablishment
p129
asVicon
p130
Vhttps://maps.gstatic.com/mapfiles/place_api/icons/lodging-71.png
p131
sVname
p132
VThe Lodge At Tiburon
p133
sVgeometry
p134
(dp135
Vaccess_points
p136
(lp137
(dp138
Vtravel_modes
p139
(lp140
VDRIVING
p141
aVBICYCLING
p142
aVWALKING
p143
aVTRANSIT
p144
asVlocation
p145
(dp146
Vlat
p147
g3
(S'37.8746428'
tRp148
sVlng
p149
g3
(S'-122.4577277'
tRp150
ssasVlocation
p151
(dp152
Vlat
p153
g3
(S'37.8748914'
tRp154
sVlng
p155
g3
(S'-122.4575448'
tRp156
sssVadr_address
p157
V<span class="street-address">1651 Tiburon Blvd</span>, <span class="locality">Tiburon</span>, <span class="region">CA</span> <span class="postal-code">94920</span>, <span class="country-name">United States</span>
p158
sVinternational_phone_number
p159
V+1 800-762-7770
p160
sVreviews
p161
(lp162
(dp163
Vrating
p164
I5
sVaspects
p165
(lp166
(dp167
Vrating
p168
I3
sVtype
p169
Voverall
p170
sasVprofile_photo_url
p171
V//lh4.googleusercontent.com/-uEHeez7ap5E/AAAAAAAAAAI/AAAAAAAAADw/Bcz6m_d5Txs/photo.jpg
p172
sVlanguage
p173
Ven
p174
sVtext
p175
VA very clean newly redesigned perfectly scaled hotel with all the requisites for a multi-day conference.  Pluses include a real fire pit in the back next to a good sized pool and fireplaces on an upper floor outdoor deck for additional gathering space.  The staff at the front desk, especially Joanne and Megan (as well as everyone in the hallways who service our rooms) were all incredibly friendly, helpful and patient!  They really put the word accommodating back into accomodations!  We were there for a 3-day conference and the food that was prepared by the kitchen was surprisingly fresh, somewhat local, and tasty.  GF, veggie and perfectly prepared chicken with crisp greens, goat cheese and always needing refill: the Green Goddess dressing. (should be bottled and sold with a donation to preserving the local ecosystem).  A couple of good walking/running trails nearby and Cafe Acri is across the street.  Convenient and will be perfect when the ferry resumes operation!\u000a
p176
sVauthor_name
p177
VHiroko Kurihara
p178
sVauthor_url
p179
Vhttps://plus.google.com/102431739600880958680
p180
sVtime
p181
I1457373389
sa(dp182
Vrating
p183
I2
sVaspects
p184
(lp185
(dp186
Vrating
p187
I0
sVtype
p188
Voverall
p189
sasVlanguage
p190
Ven
p191
sVtext
p192
VThe room was not add clean as should have been. Used coffee cup to measure water to make tea. The water heated fine but looked brown and had coffee smell. Had used the pot for tea before and this did not happen. I rubbed my finger around the top inside of coffee cup and it Was sticky. It smelled of coffee. No coffee had been used only had tea for two days. I then rubbed my finger on cup I was going to drink from. It was obvious from touch and smell this was the same cup I had been using yesterday and that morning. Housekeeping had already cleaned my room. They only made bed and maybe wiped toilet. The coffee cup which has had coffee in it has been used before I mostly checked in. Makes me wonder about the cup I drank from. When I checked in there was hair in four places in the bathroom and sink area. The bath floor was not clean you could see stuff on it.
p193
sVauthor_name
p194
VCat Palum
p195
sVauthor_url
p196
Vhttps://plus.google.com/117927335731865950244
p197
sVtime
p198
I1458227940
sa(dp199
Vrating
p200
I4
sVaspects
p201
(lp202
(dp203
Vrating
p204
I2
sVtype
p205
Voverall
p206
sasVprofile_photo_url
p207
V//lh6.googleusercontent.com/-DPES7IIjAhc/AAAAAAAAAAI/AAAAAAACheE/LHCKvYW14QA/photo.jpg
p208
sVlanguage
p209
Ven
p210
sVtext
p211
VPleasant but the rooms seemed far more simple than the rest of the resort. It lacked the plush comfort that you would expect from a place of this caliber. 
p212
sVauthor_name
p213
VJustin Janger
p214
sVauthor_url
p215
Vhttps://plus.google.com/107427053917196814752
p216
sVtime
p217
I1459575841
sa(dp218
Vrating
p219
I4
sVaspects
p220
(lp221
(dp222
Vrating
p223
I2
sVtype
p224
Voverall
p225
sasVlanguage
p226
Ven
p227
sVtext
p228
VGreat location, warm lobby, and nice bar/restaurant.  Room was small and certain features like the indoor/outdoor carpet were disappointing given the cost.  Front desk staff were helpful but not extremely friendly (with the exception of Max who was delightful).  We would definitely stay there again.
p229
sVauthor_name
p230
VKevin Beale
p231
sVauthor_url
p232
Vhttps://plus.google.com/110744094039509415390
p233
sVtime
p234
I1447726021
sa(dp235
Vrating
p236
I4
sVaspects
p237
(lp238
(dp239
Vrating
p240
I2
sVtype
p241
Voverall
p242
sasVprofile_photo_url
p243
V//lh5.googleusercontent.com/-oT5DCJOjsjg/AAAAAAAAAAI/AAAAAAAAIKQ/ZP3UgpeHKqE/photo.jpg
p244
sVlanguage
p245
Ven
p246
sVtext
p247
VHotel is clean and tidy. Location is great and the addition of a pool and garden is a huge plus.
p248
sVauthor_name
p249
VOwen Clark
p250
sVauthor_url
p251
Vhttps://plus.google.com/101389960000243180072
p252
sVtime
p253
I1458703959
sasVformatted_phone_number
p254
V(800) 762-7770
p255
sVaddress_components
p256
(lp257
(dp258
Vlong_name
p259
V1651
p260
sVtypes
p261
(lp262
Vstreet_number
p263
asVshort_name
p264
V1651
p265
sa(dp266
Vlong_name
p267
VTiburon Boulevard
p268
sVtypes
p269
(lp270
Vroute
p271
asVshort_name
p272
VTiburon Blvd
p273
sa(dp274
Vlong_name
p275
VTiburon
p276
sVtypes
p277
(lp278
Vsublocality_level_1
p279
aVsublocality
p280
aVpolitical
p281
asVshort_name
p282
VTiburon
p283
sa(dp284
Vlong_name
p285
VCalifornia
p286
sVtypes
p287
(lp288
Vadministrative_area_level_1
p289
aVpolitical
p290
asVshort_name
p291
VCA
p292
sa(dp293
Vlong_name
p294
VUnited States
p295
sVtypes
p296
(lp297
Vcountry
p298
aVpolitical
p299
asVshort_name
p300
VUS
p301
sa(dp302
Vlong_name
p303
V94920
p304
sVtypes
p305
(lp306
Vpostal_code
p307
asVshort_name
p308
V94920
p309
sas.