(dp1
Vrating
p2
cdecimal
Decimal
p3
(S'4.2'
tRp4
sVreference
p5
VCnRkAAAABtpE4ZALd9jvWMYgUr1izQUi19zpzSgToHoQb5IZWBKcXt_06IKgQOA8YuWJ72ceOyQBUfL6Jk4GsahnRrG1f0sjN9sJ9gvA7BNzOHYFWRpBCPwx8iqFyENFZaCrSOYF0rwcQ54MgFIjBBJ1K51H6hIQzIcZO0aGH8LPLlsEwk5iqxoURal-2RidKUk2zmrVF6qjtQ78GDA
p6
sVplace_id
p7
VChIJWTGPjmaAhYARnYsfhjHT8JM
p8
sVurl
p9
Vhttps://maps.google.com/?cid=10660252527643036573
p10
sVformatted_address
p11
V1 Vallejo - San Francisco Ferry Building #3, San Francisco, CA 94111, United States
p12
sVid
p13
V3eb511e33fd310d59f54f8fb940b93420af852cf
p14
sVopening_hours
p15
(dp16
Vweekday_text
p17
(lp18
VMonday: 11:00 AM \u2013 2:30 PM, 5:30 \u2013 10:00 PM
p19
aVTuesday: 11:00 AM \u2013 2:30 PM, 5:30 \u2013 10:00 PM
p20
aVWednesday: 11:00 AM \u2013 2:30 PM, 5:30 \u2013 10:00 PM
p21
aVThursday: 11:00 AM \u2013 2:30 PM, 5:30 \u2013 10:00 PM
p22
aVFriday: 11:00 AM \u2013 2:30 PM, 5:30 \u2013 10:00 PM
p23
aVSaturday: 11:00 AM \u2013 2:30 PM, 5:30 \u2013 10:00 PM
p24
aVSunday: 11:30 AM \u2013 3:00 PM, 5:30 \u2013 10:00 PM
p25
asVopen_now
p26
I01
sVperiods
p27
(lp28
(dp29
Vclose
p30
(dp31
Vday
p32
I0
sVtime
p33
V1500
p34
ssVopen
p35
(dp36
Vday
p37
I0
sVtime
p38
V1130
p39
ssa(dp40
Vclose
p41
(dp42
Vday
p43
I0
sVtime
p44
V2200
p45
ssVopen
p46
(dp47
Vday
p48
I0
sVtime
p49
V1730
p50
ssa(dp51
Vclose
p52
(dp53
Vday
p54
I1
sVtime
p55
V1430
p56
ssVopen
p57
(dp58
Vday
p59
I1
sVtime
p60
V1100
p61
ssa(dp62
Vclose
p63
(dp64
Vday
p65
I1
sVtime
p66
V2200
p67
ssVopen
p68
(dp69
Vday
p70
I1
sVtime
p71
V1730
p72
ssa(dp73
Vclose
p74
(dp75
Vday
p76
I2
sVtime
p77
V1430
p78
ssVopen
p79
(dp80
Vday
p81
I2
sVtime
p82
V1100
p83
ssa(dp84
Vclose
p85
(dp86
Vday
p87
I2
sVtime
p88
V2200
p89
ssVopen
p90
(dp91
Vday
p92
I2
sVtime
p93
V1730
p94
ssa(dp95
Vclose
p96
(dp97
Vday
p98
I3
sVtime
p99
V1430
p100
ssVopen
p101
(dp102
Vday
p103
I3
sVtime
p104
V1100
p105
ssa(dp106
Vclose
p107
(dp108
Vday
p109
I3
sVtime
p110
V2200
p111
ssVopen
p112
(dp113
Vday
p114
I3
sVtime
p115
V1730
p116
ssa(dp117
Vclose
p118
(dp119
Vday
p120
I4
sVtime
p121
V1430
p122
ssVopen
p123
(dp124
Vday
p125
I4
sVtime
p126
V1100
p127
ssa(dp128
Vclose
p129
(dp130
Vday
p131
I4
sVtime
p132
V2200
p133
ssVopen
p134
(dp135
Vday
p136
I4
sVtime
p137
V1730
p138
ssa(dp139
Vclose
p140
(dp141
Vday
p142
I5
sVtime
p143
V1430
p144
ssVopen
p145
(dp146
Vday
p147
I5
sVtime
p148
V1100
p149
ssa(dp150
Vclose
p151
(dp152
Vday
p153
I5
sVtime
p154
V2200
p155
ssVopen
p156
(dp157
Vday
p158
I5
sVtime
p159
V1730
p160
ssa(dp161
Vclose
p162
(dp163
Vday
p164
I6
sVtime
p165
V1430
p166
ssVopen
p167
(dp168
Vday
p169
I6
sVtime
p170
V1100
p171
ssa(dp172
Vclose
p173
(dp174
Vday
p175
I6
sVtime
p176
V2200
p177
ssVopen
p178
(dp179
Vday
p180
I6
sVtime
p181
V1730
p182
ssassVvicinity
p183
V1 Vallejo - San Francisco Ferry Building #3, San Francisco
p184
sVscope
p185
VGOOGLE
p186
sVwebsite
p187
Vhttp://www.slanteddoor.com/
p188
sVutc_offset
p189
I-420
sVuser_ratings_total
p190
I710
sVphotos
p191
(lp192
(dp193
Vphoto_reference
p194
VCmRdAAAA0Kd17onmwg2pVUPUudW6Ge4jf_Iej4oHUT9JiOMX86IvDKm3R2ODoGJXLEJgwLn8jkm5kYNeOpSSFvwAb0oRQXOxl3os83VtmUtuaE5g-6BAN_985PYbnQhFrJruvpq0EhBdWvvKI1D-5XcGvYx2cOZOGhSb0Y1Pv6WuwBhBO0S89VXKwY-feA
p195
sVwidth
p196
I993
sVhtml_attributions
p197
(lp198
V<a href="https://maps.google.com/maps/contrib/102585765171916749442/photos">The Slanted Door</a>
p199
asVheight
p200
I993
sa(dp201
Vphoto_reference
p202
VCmRdAAAABGlXfn0IxO7lW5Skria7plKZOBXKvggZW2huRQuzWjb9l9aMGNopkBPJD9hv1lOrxFu8xZB_9C1Zhpeh637akzngkEvb5Uqjfc57JCQ2bIq9uHCBU7Y1bH7pTzvvX4S2EhBXZi0_xzIhBlhtQvXm0P8lGhTpo7GxpSTUEwXL7v6qRsID8hc8mA
p203
sVwidth
p204
I3264
sVhtml_attributions
p205
(lp206
V<a href="https://maps.google.com/maps/contrib/114887126257621927833/photos">Angela Wen</a>
p207
asVheight
p208
I2448
sa(dp209
Vphoto_reference
p210
VCmRdAAAA6CdTgKTMP7X-EFjNWEo9poPzKOTnhSxQAcxwzMkM7-wSmIz0qs1hGwxwbVNs8Kf0MF5whohI1qZeUoQXBwJnfiL3Y15a1aE4Muz-ztS8PY4PSBZiiF5lmV_xFMReh69QEhBB7nkqhXT93momePuPIq-sGhRK5kVptCyeSoEqAzK_KPmsgoBKSw
p211
sVwidth
p212
I5616
sVhtml_attributions
p213
(lp214
V<a href="https://maps.google.com/maps/contrib/102585765171916749442/photos">The Slanted Door</a>
p215
asVheight
p216
I3744
sa(dp217
Vphoto_reference
p218
VCmRdAAAAd0A2BD-i3BV9Mp-2t2XbGn6HQ2b0x8WDto8CSr7PibJS1eP-gLD9or9yIwSIeKBK9TTQlZ0hSqo5a7fN1kFHPVs5AU8SsviFUDRR3xG2zrj1JtUWUqKs65Phie3atP9fEhAxKP2VTBW0arDZ0aKXVPY5GhS5Z6xsKWma4ne_qAYQRzeqrSJAaQ
p219
sVwidth
p220
I3264
sVhtml_attributions
p221
(lp222
V<a href="https://maps.google.com/maps/contrib/111947322634317589870/photos">Kay Ann Schlinkert</a>
p223
asVheight
p224
I1836
sa(dp225
Vphoto_reference
p226
VCoQBcwAAAB48H8Y-Pg58DWVeMyLe4XAh-t5oyXlnyNl0lXgLRXs5s5U9PdGyYRB71natojNNMhWwSuSeI1KERU7mpAwbdS6l0vJ8BjkgY8vA2RWKxk_B61CfyLdhcLkTYshJyL2tXBkuAIJALRALTgCq9jQDOV6qf7nthIMNYRjkXIWI6Y-SEhB0jp-egXnUnUnvX8f-mnDVGhRxaw40VYV6t2IjjWkaTqU1HsDQAw
p227
sVwidth
p228
I5312
sVhtml_attributions
p229
(lp230
V<a href="https://maps.google.com/maps/contrib/114316233534687951489/photos">Lucy Giglio</a>
p231
asVheight
p232
I2988
sa(dp233
Vphoto_reference
p234
VCmRdAAAAExlG8Q802TWwrnE8X2QLiQm7810Wtve7vo-pSlY1cfyQKYyg4tPt4jfwChRo4eV4vOpJescei1RbvSU_UTNJYGzNp4PnKoEUKiw4saj9DD-W6CtG0EA1HzPVd2te22GFEhCwP0VOeCJzeg1kAdkEpxjgGhTzx3UZtsExT9s77RZHWRaE7IkW2Q
p235
sVwidth
p236
I4990
sVhtml_attributions
p237
(lp238
V<a href="https://maps.google.com/maps/contrib/102585765171916749442/photos">The Slanted Door</a>
p239
asVheight
p240
I3331
sa(dp241
Vphoto_reference
p242
VCmRdAAAAOgkZIxb71EQq7q9LsJO8zczR34JLc46WkwfJk4jdw8pIh_kX1b0OlnR_Z0k5C79hRdkKGWBraly-aK9cOBnpiX3UVWXNnipPon6RequEt893dfB0NNIj5sm-49hOEgUUEhAQ2cN7e5VvxnJtIkAqaiPiGhQzRBldR8c3XwQAyvH6yGmCFiv5QQ
p243
sVwidth
p244
I1536
sVhtml_attributions
p245
(lp246
V<a href="https://maps.google.com/maps/contrib/109205144679654268249/photos">Amy Higgins</a>
p247
asVheight
p248
I2048
sa(dp249
Vphoto_reference
p250
VCmRdAAAA0WQ6xzCd0TC6ylvWva2N7WRgyGl7NGnZWTV7G3GhjR6MYJ3F00MxCggfDyabI-bXV1R8cVh03_diLWHAhWraHGeVb6sdGmqjNK0Ht5A7KdRkIEHfuGkiIpVS-XGuN0kNEhC-BfLBCC88_t7NIBjthUVJGhQVcSSMdQkYkseg4LhhU0wSADb9dA
p251
sVwidth
p252
I4032
sVhtml_attributions
p253
(lp254
V<a href="https://maps.google.com/maps/contrib/114528394281521125074/photos">Gurmukh Panesar</a>
p255
asVheight
p256
I3024
sa(dp257
Vphoto_reference
p258
VCoQBcwAAAGbKlT2N-sSQAnVNzJfKd2nEjg42MYb2m1m36PoERRLIl4g8qB7INY7q1CKf2ngJ7XinC7a9IqnuPCkvE2kxIU-zSPiPhxb2PryJM0s0ZV2OCLnk8lS24gDKySPtuk2BJfgYpHFOe7iW9T2zpfd3b82rPVm5YBFmlmDN-7zO_RECEhAkk90HTPat-OgSf2uXkXO9GhT-12R28jlDsVXr0djbRb5YP8AtSA
p259
sVwidth
p260
I5312
sVhtml_attributions
p261
(lp262
V<a href="https://maps.google.com/maps/contrib/114316233534687951489/photos">Lucy Giglio</a>
p263
asVheight
p264
I2988
sa(dp265
Vphoto_reference
p266
VCmRdAAAAwKqiOuEFgiPmUCgJbnWilU8fo6Y3no8nT8F8xa1d5zW6e5WmXWhnEoGo5nkhKmdev_48JsuHl5bpKIx0io3pqZaDcheU0Nz3zwtOVMYPcimQC8gphsnTZbdwPxuERvBaEhANFzFAfmI9sqnyeFIBzBEIGhR63ILFW4nnl-LWsTRfJ46t9dat-g
p267
sVwidth
p268
I1500
sVhtml_attributions
p269
(lp270
V<a href="https://maps.google.com/maps/contrib/102585765171916749442/photos">The Slanted Door</a>
p271
asVheight
p272
I699
sasVtypes
p273
(lp274
Vbar
p275
aVrestaurant
p276
aVfood
p277
aVpoint_of_interest
p278
aVestablishment
p279
asVicon
p280
Vhttps://maps.gstatic.com/mapfiles/place_api/icons/restaurant-71.png
p281
sVname
p282
VThe Slanted Door
p283
sVgeometry
p284
(dp285
Vaccess_points
p286
(lp287
(dp288
Vtravel_modes
p289
(lp290
VDRIVING
p291
aVTRANSIT
p292
asVlocation
p293
(dp294
Vlat
p295
g3
(S'37.7959544'
tRp296
sVlng
p297
g3
(S'-122.394516'
tRp298
ssa(dp299
Vtravel_modes
p300
(lp301
VBICYCLING
p302
aVWALKING
p303
aVTRANSIT
p304
asVlocation
p305
(dp306
Vlat
p307
g3
(S'37.7964252'
tRp308
sVlng
p309
g3
(S'-122.3939639'
tRp310
ssasVlocation
p311
(dp312
Vlat
p313
g3
(S'37.7961888'
tRp314
sVlng
p315
g3
(S'-122.394041'
tRp316
sssVadr_address
p317
V<span class="street-address">1 Vallejo - San Francisco Ferry Building #3</span>, <span class="locality">San Francisco</span>, <span class="region">CA</span> <span class="postal-code">94111</span>, <span class="country-name">United States</span>
p318
sVinternational_phone_number
p319
V+1 415-861-8032
p320
sVreviews
p321
(lp322
(dp323
Vrating
p324
I5
sVaspects
p325
(lp326
(dp327
Vrating
p328
I3
sVtype
p329
Voverall
p330
sasVprofile_photo_url
p331
V//lh4.googleusercontent.com/-1xbhGXISGaI/AAAAAAAAAAI/AAAAAAAAKrY/PtsIIhW0YC8/photo.jpg
p332
sVlanguage
p333
Ven
p334
sVtext
p335
VWe were there Saturday night. It was obviously busy so planning ahead and making reservation is probably a better way to go. But we had a smaller party (of two) so we got seated at the bar without too much of a wait. The service was great. Food was delicious! 
p336
sVauthor_name
p337
VLina Dong
p338
sVauthor_url
p339
Vhttps://plus.google.com/107746549601842881865
p340
sVtime
p341
I1459660062
sa(dp342
Vrating
p343
I5
sVaspects
p344
(lp345
(dp346
Vrating
p347
I3
sVtype
p348
Voverall
p349
sasVprofile_photo_url
p350
V//lh3.googleusercontent.com/-mGcvcZ_S7Rs/AAAAAAAAAAI/AAAAAAABDO0/Rc1E8DuMZjw/photo.jpg
p351
sVlanguage
p352
Ven
p353
sVtext
p354
VA fantastic experience that you must try. Flavors dance in your mouth with the family style plating where everyone can enjoy the variety of flavors offered. Be prepared for a hefty bill, but it is worth every penny.
p355
sVauthor_name
p356
VJonathan Brier
p357
sVauthor_url
p358
Vhttps://plus.google.com/101291101232846883299
p359
sVtime
p360
I1456740416
sa(dp361
Vrating
p362
I5
sVaspects
p363
(lp364
(dp365
Vrating
p366
I3
sVtype
p367
Voverall
p368
sasVprofile_photo_url
p369
V//lh4.googleusercontent.com/-SNEIaJV5y48/AAAAAAAAAAI/AAAAAAAAAMQ/VHAXC3IB9q4/photo.jpg
p370
sVlanguage
p371
Ven
p372
sVtext
p373
VWow. The food here is great. They do family style meals if you have a big party with you. Be prepared for the check though. Very pricey
p374
sVauthor_name
p375
VJohn Dao
p376
sVauthor_url
p377
Vhttps://plus.google.com/112148172468895516493
p378
sVtime
p379
I1460589583
sa(dp380
Vrating
p381
I3
sVaspects
p382
(lp383
(dp384
Vrating
p385
I1
sVtype
p386
Voverall
p387
sasVprofile_photo_url
p388
V//lh6.googleusercontent.com/-TRSXCYObIRo/AAAAAAAAAAI/AAAAAAAAuFU/43D9zwdV1qQ/photo.jpg
p389
sVlanguage
p390
Ven
p391
sVtext
p392
VI was excited to go here again, but it was a let down this time. I have been there a few times in the past and the food was great. This time the service was mediocre, the food was ok, and it was a so-so experience. I told people I was going and they were excited too because it has such a great reputation. The location is fun still. Maybe it was just an off day there.
p393
sVauthor_name
p394
VMarni Sweetland
p395
sVauthor_url
p396
Vhttps://plus.google.com/114042649902259452735
p397
sVtime
p398
I1457052993
sa(dp399
Vrating
p400
I5
sVaspects
p401
(lp402
(dp403
Vrating
p404
I3
sVtype
p405
Voverall
p406
sasVprofile_photo_url
p407
V//lh3.googleusercontent.com/-0GQCgZtek1k/AAAAAAAAAAI/AAAAAAAAAwc/S2_zv_AU6mY/photo.jpg
p408
sVlanguage
p409
Ven
p410
sVtext
p411
VExcellent Dungeness crab with noodles and the Carmelized shrimp was AMAZING. Good service as well and a nice view of the bay. Highly recommend this place and it's worth the price :)
p412
sVauthor_name
p413
VMohammad Zia
p414
sVauthor_url
p415
Vhttps://plus.google.com/105755414351036598599
p416
sVtime
p417
I1459735745
sasVformatted_phone_number
p418
V(415) 861-8032
p419
sVaddress_components
p420
(lp421
(dp422
Vlong_name
p423
V3
sVtypes
p424
(lp425
Vsubpremise
p426
asVshort_name
p427
V3
sa(dp428
Vlong_name
p429
V1
sVtypes
p430
(lp431
Vstreet_number
p432
asVshort_name
p433
V1
sa(dp434
Vlong_name
p435
VVallejo - San Francisco Ferry Building
p436
sVtypes
p437
(lp438
Vroute
p439
asVshort_name
p440
VVallejo - San Francisco Ferry Building
p441
sa(dp442
Vlong_name
p443
VSan Francisco
p444
sVtypes
p445
(lp446
Vlocality
p447
aVpolitical
p448
asVshort_name
p449
VSF
p450
sa(dp451
Vlong_name
p452
VCalifornia
p453
sVtypes
p454
(lp455
Vadministrative_area_level_1
p456
aVpolitical
p457
asVshort_name
p458
VCA
p459
sa(dp460
Vlong_name
p461
VUnited States
p462
sVtypes
p463
(lp464
Vcountry
p465
aVpolitical
p466
asVshort_name
p467
VUS
p468
sa(dp469
Vlong_name
p470
V94111
p471
sVtypes
p472
(lp473
Vpostal_code
p474
asVshort_name
p475
V94111
p476
sas.