(dp1
Vrating
p2
cdecimal
Decimal
p3
(S'4.3'
tRp4
sVreference
p5
VCnRiAAAAN7_e8-YJbQ9ZMcfCyO1E3ksi-1RMvOUg7Kg5gaoack7rPrWUcvGfZ-IbQDGWOrjVxEemSUsbyUQen1NnJUT0JS5DFFiRm0sjtTZ3g-SH-oc86QgVVkBqHm23cJQTJFz68M3QktkxngDsj01XDoBW4BIQrAoSLYjUWMeayNgeI5KmhhoUQQ8SsCABKWxdng7rnPG1JQnpOOA
p6
sVprice_level
p7
I1
sVplace_id
p8
VChIJH-SUHkaHhYARMNAz4L9wCks
p9
sVurl
p10
Vhttps://maps.google.com/?cid=5407258272014258224
p11
sVformatted_address
p12
V798 Arguello Blvd, San Francisco, CA 94118, United States
p13
sVid
p14
V56bb4f35ec67b8891e46702b37ddfd044232cfba
p15
sVopening_hours
p16
(dp17
Vweekday_text
p18
(lp19
VMonday: 6:30 AM \u2013 5:00 PM
p20
aVTuesday: 6:30 AM \u2013 5:00 PM
p21
aVWednesday: 6:30 AM \u2013 10:00 PM
p22
aVThursday: 6:30 AM \u2013 10:00 PM
p23
aVFriday: 6:30 AM \u2013 10:00 PM
p24
aVSaturday: 8:00 AM \u2013 5:00 PM
p25
aVSunday: 8:00 AM \u2013 5:00 PM
p26
asVopen_now
p27
I01
sVperiods
p28
(lp29
(dp30
Vclose
p31
(dp32
Vday
p33
I0
sVtime
p34
V1700
p35
ssVopen
p36
(dp37
Vday
p38
I0
sVtime
p39
V0800
p40
ssa(dp41
Vclose
p42
(dp43
Vday
p44
I1
sVtime
p45
V1700
p46
ssVopen
p47
(dp48
Vday
p49
I1
sVtime
p50
V0630
p51
ssa(dp52
Vclose
p53
(dp54
Vday
p55
I2
sVtime
p56
V1700
p57
ssVopen
p58
(dp59
Vday
p60
I2
sVtime
p61
V0630
p62
ssa(dp63
Vclose
p64
(dp65
Vday
p66
I3
sVtime
p67
V2200
p68
ssVopen
p69
(dp70
Vday
p71
I3
sVtime
p72
V0630
p73
ssa(dp74
Vclose
p75
(dp76
Vday
p77
I4
sVtime
p78
V2200
p79
ssVopen
p80
(dp81
Vday
p82
I4
sVtime
p83
V0630
p84
ssa(dp85
Vclose
p86
(dp87
Vday
p88
I5
sVtime
p89
V2200
p90
ssVopen
p91
(dp92
Vday
p93
I5
sVtime
p94
V0630
p95
ssa(dp96
Vclose
p97
(dp98
Vday
p99
I6
sVtime
p100
V1700
p101
ssVopen
p102
(dp103
Vday
p104
I6
sVtime
p105
V0800
p106
ssassVvicinity
p107
V798 Arguello Boulevard, San Francisco
p108
sVscope
p109
VGOOGLE
p110
sVwebsite
p111
Vhttp://www.velorougecafe.com/
p112
sVutc_offset
p113
I-420
sVuser_ratings_total
p114
I93
sVphotos
p115
(lp116
(dp117
Vphoto_reference
p118
VCmRdAAAAp7gAk6_4PfmfM6xgZEIIjST-1Nm6UUxHRlMvSq76XDBz6oszu7VAaBfFCB2KKch-AUMk1JHkL790YUny5vz3kUIwodFidVWPNO-ySsm8GQWNM1DfZot7n1wI7u1x8US0EhCEZdjlCSvW4SuUrS8DtsYtGhSw8R58GrYbHL2XF34yEefD5_Rgww
p119
sVwidth
p120
I3264
sVhtml_attributions
p121
(lp122
V<a href="https://maps.google.com/maps/contrib/101958846647396068447/photos">Leon M</a>
p123
asVheight
p124
I2448
sa(dp125
Vphoto_reference
p126
VCmRdAAAAy44uyyLnHhiNu_hyJp180SdsuYbElP_B1yqpi7bpl617FQaN40gScedntNRS7vKDCIz9pcTfxxuHmdsB10LCFvKhUg6_XgIzqxG60d-VbFgipvM2xk8t-60cEM6bHxIzEhDK1w2ppUWMZ7pL5woGglddGhQYsBj6fGj8LzGTK7S9tEalJWFVuw
p127
sVwidth
p128
I1296
sVhtml_attributions
p129
(lp130
V<a href="https://maps.google.com/maps/contrib/104463207987301192302/photos">Kenny Kaiser</a>
p131
asVheight
p132
I972
sa(dp133
Vphoto_reference
p134
VCmRdAAAAe-qd4joE0t7iv7TR1vXlMdDnD_4z7SdAh7siMAEVTzmYPdhjpHZe3AlQuYuIKVqUC6_jc7R-w9eEcF2Qu7DFuYLNsl4-AqHIEPYwActBu_xkHBliU8vidaX0mHMjq8U6EhAWdk0PJvWmS9tyrvL7eP2IGhToToG_NPGljLCgdLJy2i32D_grOQ
p135
sVwidth
p136
I2448
sVhtml_attributions
p137
(lp138
V<a href="https://maps.google.com/maps/contrib/101958846647396068447/photos">Leon M</a>
p139
asVheight
p140
I3264
sasVtypes
p141
(lp142
Vcafe
p143
aVrestaurant
p144
aVfood
p145
aVstore
p146
aVpoint_of_interest
p147
aVestablishment
p148
asVicon
p149
Vhttps://maps.gstatic.com/mapfiles/place_api/icons/cafe-71.png
p150
sVname
p151
VVelo Rouge Cafe
p152
sVgeometry
p153
(dp154
Vaccess_points
p155
(lp156
(dp157
Vtravel_modes
p158
(lp159
VDRIVING
p160
aVBICYCLING
p161
aVWALKING
p162
aVTRANSIT
p163
asVlocation
p164
(dp165
Vlat
p166
g3
(S'37.7753841'
tRp167
sVlng
p168
g3
(S'-122.4584397'
tRp169
ssasVlocation
p170
(dp171
Vlat
p172
g3
(S'37.7753982'
tRp173
sVlng
p174
g3
(S'-122.4581756'
tRp175
sssVadr_address
p176
V<span class="street-address">798 Arguello Blvd</span>, <span class="locality">San Francisco</span>, <span class="region">CA</span> <span class="postal-code">94118-4066</span>, <span class="country-name">United States</span>
p177
sVinternational_phone_number
p178
V+1 415-752-7799
p179
sVreviews
p180
(lp181
(dp182
Vrating
p183
I5
sVaspects
p184
(lp185
(dp186
Vrating
p187
I3
sVtype
p188
Voverall
p189
sasVprofile_photo_url
p190
V//lh5.googleusercontent.com/-Zrlm_9ts07Y/AAAAAAAAAAI/AAAAAAAAHp4/dq5qvi7MrD4/photo.jpg
p191
sVlanguage
p192
Ven
p193
sVtext
p194
VI've always loved this place, wood floors, cool bicycle art on the walls, good strong coffee (quality too!), and amazing food. I'm a huge fan of the breakfast burrito fort lunch: the salsa is lime-y and refreshing, chips taste homemade and healthy, and the burrito is super filling- makes two meals generally.
p195
sVauthor_name
p196
VFiamma Giger
p197
sVauthor_url
p198
Vhttps://plus.google.com/102446310617257339873
p199
sVtime
p200
I1459188982
sa(dp201
Vrating
p202
I5
sVaspects
p203
(lp204
(dp205
Vrating
p206
I3
sVtype
p207
Voverall
p208
sasVprofile_photo_url
p209
V//lh6.googleusercontent.com/-oF-Je5wx4Yc/AAAAAAAAAAI/AAAAAAAADMs/BgjRCoL9-xM/photo.jpg
p210
sVlanguage
p211
Ven
p212
sVtext
p213
VDelicious food and excellent customer service! Nice environment. It's very unique and interesting. Highly recommended.
p214
sVauthor_name
p215
VLeon M
p216
sVauthor_url
p217
Vhttps://plus.google.com/101958846647396068447
p218
sVtime
p219
I1436120700
sa(dp220
Vrating
p221
I3
sVaspects
p222
(lp223
(dp224
Vrating
p225
I1
sVtype
p226
Voverall
p227
sasVprofile_photo_url
p228
V//lh3.googleusercontent.com/-NBlrhlR8DvE/AAAAAAAAAAI/AAAAAAAAWlc/7nY5_9EdDko/photo.jpg
p229
sVlanguage
p230
Ven
p231
sVtext
p232
VFood took a long time to prepare and it was underwhelming. Great atmosphere though.
p233
sVauthor_name
p234
VJohn Paez
p235
sVauthor_url
p236
Vhttps://plus.google.com/118360713338805901505
p237
sVtime
p238
I1452295955
sa(dp239
Vrating
p240
I4
sVaspects
p241
(lp242
(dp243
Vrating
p244
I2
sVtype
p245
Voverall
p246
sasVprofile_photo_url
p247
V//lh3.googleusercontent.com/-Bgy0aBKYJHs/AAAAAAAAAAI/AAAAAAAAJ-M/eu9sbyaIgn0/photo.jpg
p248
sVlanguage
p249
Ven
p250
sVtext
p251
VSolid breakfast sandwiches and great coffee. I usually grab coffee and breakfast to-go, but it's a very pleasant spot to hang out for an hour and there's plenty of bike parking. 
p252
sVauthor_name
p253
VJohn Gelb
p254
sVauthor_url
p255
Vhttps://plus.google.com/111717262311636103965
p256
sVtime
p257
I1448951973
sa(dp258
Vrating
p259
I2
sVaspects
p260
(lp261
(dp262
Vrating
p263
I0
sVtype
p264
Voverall
p265
sasVprofile_photo_url
p266
V//lh3.googleusercontent.com/-X3F3sFQLyuQ/AAAAAAAAAAI/AAAAAAAADDQ/GOxAz__f688/photo.jpg
p267
sVlanguage
p268
Ven
p269
sVtext
p270
VI had the arguillo breakfast, the eggs were bland as where the potatoes. They turned off the free wifi because it was busy and they didn't want people to stay longer than needed, but free wifi was one of the reason I chose this place. All in all, I wouldn't come back here,  as I had to force myself to finudh this plate.
p271
sVauthor_name
p272
VNatascha Wierenga
p273
sVauthor_url
p274
Vhttps://plus.google.com/106838973481355849540
p275
sVtime
p276
I1432414705
sasVformatted_phone_number
p277
V(415) 752-7799
p278
sVaddress_components
p279
(lp280
(dp281
Vlong_name
p282
V798
p283
sVtypes
p284
(lp285
Vstreet_number
p286
asVshort_name
p287
V798
p288
sa(dp289
Vlong_name
p290
VArguello Boulevard
p291
sVtypes
p292
(lp293
Vroute
p294
asVshort_name
p295
VArguello Blvd
p296
sa(dp297
Vlong_name
p298
VSan Francisco
p299
sVtypes
p300
(lp301
Vlocality
p302
aVpolitical
p303
asVshort_name
p304
VSF
p305
sa(dp306
Vlong_name
p307
VCalifornia
p308
sVtypes
p309
(lp310
Vadministrative_area_level_1
p311
aVpolitical
p312
asVshort_name
p313
VCA
p314
sa(dp315
Vlong_name
p316
VUnited States
p317
sVtypes
p318
(lp319
Vcountry
p320
aVpolitical
p321
asVshort_name
p322
VUS
p323
sa(dp324
Vlong_name
p325
V94118
p326
sVtypes
p327
(lp328
Vpostal_code
p329
asVshort_name
p330
V94118
p331
sa(dp332
Vlong_name
p333
V4066
p334
sVtypes
p335
(lp336
Vpostal_code_suffix
p337
asVshort_name
p338
V4066
p339
sas.