(dp1
Vwebsite
p2
Vhttp://sfrecpark.org/about/contact-us/
p3
sVrating
p4
I4
sVutc_offset
p5
I-420
sVuser_ratings_total
p6
I10
sVname
p7
VVictoria Manalo Draves Park
p8
sVreference
p9
VCnRvAAAAOz6IHdGo8cuGPpLRWywXf5TOcdUdlgLdqHIR11r1Z1pmZxRa2H_6z63FEpFkhGcYuAMVh8bSOuCqVGusodPKytSgTzHL3u56qKuf8T_a0wUrpa_sZ1vWq_Eg6UDQWGyLE6beD3ZnqRCg-8BfYkoRCBIQ3G8eszso6TZiS7NBSoBA5BoUa-ARs4l3MR2BpArsKPy5MA21KNw
p10
sVphotos
p11
(lp12
(dp13
Vphoto_reference
p14
VCmRdAAAAWfHJH2BaVQPmHDGY1jV-7LOAN2aOFuR3_I6XBjTTOmNo_F9exvtsaVqxadepsFEnSgz2_V8CWHDX7z2DlSq9QTx2nw1oqFVjBzce5IOnWNgIoF3UlNVzVlrgWZC_1WPuEhBKF5roLgut8qmrHA2Qc1sPGhRDljThanRbBjIQOc_aVfI_AdeIrQ
p15
sVwidth
p16
I1080
sVhtml_attributions
p17
(lp18
V<a href="https://maps.google.com/maps/contrib/110248945028299343605/photos">eran peleg</a>
p19
asVheight
p20
I608
sa(dp21
Vphoto_reference
p22
VCmRdAAAAAEaBnBcF4JfUh_oRrV8_GBag6gnPiOeqsdZMkU5zLEK63Rm4pAKE7KkprdvoWWmO8Fzejn6nAmo9X_usGe9HUttT1E89cg1ETk-GE9O1ZTRMrVQkxpQe5fhtLK1Dnb31EhCC6mmM2H-vqo11P-nkMJovGhRMHOFxZ6qUqhnp387xqndz0Hn37Q
p23
sVwidth
p24
I949
sVhtml_attributions
p25
(lp26
V<a href="https://maps.google.com/maps/contrib/115497536118846992807/photos">Daniel Pepper</a>
p27
asVheight
p28
I1265
sa(dp29
Vphoto_reference
p30
VCmRdAAAA4RuDDEZPAm_paQeVj_eHUP3lazvpN1hM9b14mD9ajRQ0NUB9Dwm1kHIP78TSHIDJ3gkgaafn3LRmzMw80SJIFTIrC-8X2-rHp7d---KImNNKt04E11bsujEsM8jHNE0aEhDOHZ6zmGP5PpcV0W4djvOyGhTtIi070huW4ziOjxh61bnGa7SCbw
p31
sVwidth
p32
I816
sVhtml_attributions
p33
(lp34
V<a href="https://maps.google.com/maps/contrib/106601346197031742318/photos">Heather Westcott</a>
p35
asVheight
p36
I460
sa(dp37
Vphoto_reference
p38
VCoQBcwAAAHinAEM5oNm_Z_3IK4OyAUNorIgWboOLGylKNMcdATW5LhNu3XhXjaz5LBZjMuY8S2ftvbfeJ_mtM4x5lGXfg5QoTqWJcw5BuFfd1pX-Ty42SGxDvoesnRUNxnYsK0Owus-HUgqQGlG6voAozxOHpeVDgdkWUjIz3_W5JQ1hLiuHEhBG5_kuILPr3-q03y0XgHdZGhRgfYeKDeq76aCY0_z4tFsnW74h2A
p39
sVwidth
p40
I2048
sVhtml_attributions
p41
(lp42
V<a href="https://maps.google.com/maps/contrib/111882125145738420546/photos">rick orta</a>
p43
asVheight
p44
I1350
sa(dp45
Vphoto_reference
p46
VCmRdAAAAoc8za9PeNeF0aBioehfXArra2F-x2DLxuz4faf6Sg0Oaa7Y4DAexGr0KyR4aXpJUFtdlyOAODWw3qKZOrc2VQnv5q4yZGhkHIHDu5RNmFEXS6du7BJ9LXWcUVGpjTkFtEhD9MAfQqxZ9Gt0AGE4YYhhQGhTPi4halWliJYAzPPQVUo08IK1L2g
p47
sVwidth
p48
I1285
sVhtml_attributions
p49
(lp50
V<a href="https://maps.google.com/maps/contrib/106601346197031742318/photos">Heather Westcott</a>
p51
asVheight
p52
I872
sasVgeometry
p53
(dp54
Vaccess_points
p55
(lp56
(dp57
Vtravel_modes
p58
(lp59
VDRIVING
p60
aVBICYCLING
p61
aVWALKING
p62
aVTRANSIT
p63
asVlocation
p64
(dp65
Vlat
p66
cdecimal
Decimal
p67
(S'37.7768246'
tRp68
sVlng
p69
g67
(S'-122.4062964'
tRp70
ssasVlocation
p71
(dp72
Vlat
p73
g67
(S'37.7770652'
tRp74
sVlng
p75
g67
(S'-122.4059946'
tRp76
sssVadr_address
p77
V<span class="street-address">Sherman St</span>, <span class="locality">San Francisco</span>, <span class="region">CA</span> <span class="postal-code">94103</span>, <span class="country-name">United States</span>
p78
sVplace_id
p79
VChIJMb8k6YGAhYARcSOLWWOsvoI
p80
sVinternational_phone_number
p81
V+1 415-831-6330
p82
sVvicinity
p83
VSherman Street, San Francisco
p84
sVreviews
p85
(lp86
(dp87
Vrating
p88
I3
sVaspects
p89
(lp90
(dp91
Vrating
p92
I1
sVtype
p93
Voverall
p94
sasVprofile_photo_url
p95
V//lh5.googleusercontent.com/-djK1FScISlA/AAAAAAAAAAI/AAAAAAABIkQ/TJRfvQ_o_6U/photo.jpg
p96
sVlanguage
p97
Ven
p98
sVtext
p99
VDecent refuge in the middle of the ghetto. Took my 3 year-old grandson and felt safe despite crackheads yelling outside the fenced park. But hey, welcome to San Francisco. Dogs are also allowed. But DO NOT go to the bathrooms. The cleaning lady was cussing louder than the crackheads.
p100
sVauthor_name
p101
VHeather Westcott
p102
sVauthor_url
p103
Vhttps://plus.google.com/106601346197031742318
p104
sVtime
p105
I1388796974
sa(dp106
Vrating
p107
I5
sVaspects
p108
(lp109
(dp110
Vrating
p111
I3
sVtype
p112
Voverall
p113
sasVprofile_photo_url
p114
V//lh3.googleusercontent.com/-8cNGb7S4ihg/AAAAAAAAAAI/AAAAAAAAAAA/B-cu9epNt_M/photo.jpg
p115
sVlanguage
p116
Ven
p117
sVtext
p118
VMy son likes it 
p119
sVauthor_name
p120
Vrick orta
p121
sVauthor_url
p122
Vhttps://plus.google.com/111882125145738420546
p123
sVtime
p124
I1458839981
sa(dp125
Vrating
p126
I4
sVaspects
p127
(lp128
(dp129
Vrating
p130
I2
sVtype
p131
Voverall
p132
sasVprofile_photo_url
p133
V//lh5.googleusercontent.com/-DAlGFcahvpg/AAAAAAAAAAI/AAAAAAAAGQw/xu-oL14vm_8/photo.jpg
p134
sVlanguage
p135
Ven
p136
sVtext
p137
VOK the park is fine but this review is really about New Nothing Cinema at 16 Sherman right next to the park, bring your own refreshments. You go to other web sites to find out what they are screening, for example ciis, sfmoma or shaping san francisco. I would love to review shaping san francisco at eric quezada center but it too is hard to place into 'my places' (sigh)
p138
sVauthor_name
p139
VStephen Schur
p140
sVauthor_url
p141
Vhttps://plus.google.com/107179610182173634872
p142
sVtime
p143
I1377816422
sa(dp144
Vrating
p145
I1
sVaspects
p146
(lp147
(dp148
Vrating
p149
I0
sVtype
p150
Voverall
p151
sasVprofile_photo_url
p152
V//lh4.googleusercontent.com/-4edPXbVKRgc/AAAAAAAAAAI/AAAAAAAAAU0/1Ka0CXieNk0/photo.jpg
p153
sVlanguage
p154
Ven
p155
sVtext
p156
VHomeless black people sleeping in the grass all over.
p157
sVauthor_name
p158
VDwayne Hunter
p159
sVauthor_url
p160
Vhttps://plus.google.com/109364849127940412020
p161
sVtime
p162
I1435958685
sa(dp163
Vrating
p164
I4
sVaspects
p165
(lp166
(dp167
Vrating
p168
I2
sVtype
p169
Voverall
p170
sasVprofile_photo_url
p171
V//lh4.googleusercontent.com/-bJP-DEpPaLU/AAAAAAAAAAI/AAAAAAAAAHw/wTdoMD1SCIA/photo.jpg
p172
sVlanguage
p173
Ven
p174
sVtext
p175
VThanks primarily to the efforts of  the SFPD and non profits supportive of students at Bessie Carmichael Elementary / Filipino Education Center, the park is now safe to use by children, youths and their families residing in San Francisco.
p176
sVauthor_name
p177
VRudy Asercion
p178
sVauthor_url
p179
Vhttps://plus.google.com/112209764705219668350
p180
sVtime
p181
I1377370846
sasVformatted_phone_number
p182
V(415) 831-6330
p183
sVurl
p184
Vhttps://maps.google.com/?cid=9421157013209686897
p185
sVscope
p186
VGOOGLE
p187
sVaddress_components
p188
(lp189
(dp190
Vlong_name
p191
VSherman Street
p192
sVtypes
p193
(lp194
Vroute
p195
asVshort_name
p196
VSherman St
p197
sa(dp198
Vlong_name
p199
VSan Francisco
p200
sVtypes
p201
(lp202
Vlocality
p203
aVpolitical
p204
asVshort_name
p205
VSF
p206
sa(dp207
Vlong_name
p208
VCalifornia
p209
sVtypes
p210
(lp211
Vadministrative_area_level_1
p212
aVpolitical
p213
asVshort_name
p214
VCA
p215
sa(dp216
Vlong_name
p217
VUnited States
p218
sVtypes
p219
(lp220
Vcountry
p221
aVpolitical
p222
asVshort_name
p223
VUS
p224
sa(dp225
Vlong_name
p226
V94103
p227
sVtypes
p228
(lp229
Vpostal_code
p230
asVshort_name
p231
V94103
p232
sasVformatted_address
p233
VSherman St, San Francisco, CA 94103, United States
p234
sVid
p235
Vcc011abdedb166371d99cf77e46d4faf221d4995
p236
sVtypes
p237
(lp238
Vpark
p239
aVpoint_of_interest
p240
aVestablishment
p241
asVicon
p242
Vhttps://maps.gstatic.com/mapfiles/place_api/icons/generic_recreational-71.png
p243
s.