(dp1
Vrating
p2
cdecimal
Decimal
p3
(S'4.3'
tRp4
sVreference
p5
VCmRZAAAAtZtBfLiYum5yeB2dO0bDZiis7XNyhgtSSxX1_3xnUxdU7ga6c1RpVrbQllqxKMCJQc6-TMR2szwpF6Ljl27tgswu361KacQTfoSjNwhmurul1e04_bvAf8sRvUEId1FxEhAbuVZf9-UA2NGnoHfq6Dg3GhRvemZRxm4QwsVJGsCZceSI7nCnhw
p6
sVprice_level
p7
I2
sVplace_id
p8
VChIJDw0djbl_j4ARF-oLuBpaXtk
p9
sVurl
p10
Vhttps://maps.google.com/?cid=15663055624844601879
p11
sVformatted_address
p12
V2490 3rd St, San Francisco, CA 94107, United States
p13
sVid
p14
Ve72cba171d9dafbbc598a0d2ccff4c3248a61ec4
p15
sVopening_hours
p16
(dp17
Vweekday_text
p18
(lp19
VMonday: 3:00 \u2013 11:00 PM
p20
aVTuesday: 3:00 \u2013 11:00 PM
p21
aVWednesday: 3:00 \u2013 11:00 PM
p22
aVThursday: 3:00 \u2013 11:00 PM
p23
aVFriday: 3:00 \u2013 11:00 PM
p24
aVSaturday: 3:00 \u2013 11:00 PM
p25
aVSunday: Closed
p26
asVopen_now
p27
I00
sVperiods
p28
(lp29
(dp30
Vclose
p31
(dp32
Vday
p33
I1
sVtime
p34
V2300
p35
ssVopen
p36
(dp37
Vday
p38
I1
sVtime
p39
V1500
p40
ssa(dp41
Vclose
p42
(dp43
Vday
p44
I2
sVtime
p45
V2300
p46
ssVopen
p47
(dp48
Vday
p49
I2
sVtime
p50
V1500
p51
ssa(dp52
Vclose
p53
(dp54
Vday
p55
I3
sVtime
p56
V2300
p57
ssVopen
p58
(dp59
Vday
p60
I3
sVtime
p61
V1500
p62
ssa(dp63
Vclose
p64
(dp65
Vday
p66
I4
sVtime
p67
V2300
p68
ssVopen
p69
(dp70
Vday
p71
I4
sVtime
p72
V1500
p73
ssa(dp74
Vclose
p75
(dp76
Vday
p77
I5
sVtime
p78
V2300
p79
ssVopen
p80
(dp81
Vday
p82
I5
sVtime
p83
V1500
p84
ssa(dp85
Vclose
p86
(dp87
Vday
p88
I6
sVtime
p89
V2300
p90
ssVopen
p91
(dp92
Vday
p93
I6
sVtime
p94
V1500
p95
ssassVvicinity
p96
V2490 3rd Street, San Francisco
p97
sVscope
p98
VGOOGLE
p99
sVwebsite
p100
Vhttp://www.yieldandpause.com/
p101
sVutc_offset
p102
I-420
sVuser_ratings_total
p103
I45
sVphotos
p104
(lp105
(dp106
Vphoto_reference
p107
VCmRdAAAAUcIDLa18dYqnbc9rbNRu1Pz79G4zbzhNFhuRWIEPiSTipKPAquKzj0juB17C4U9Ta2rmwOuOauHvixEVtks99feNPHBivN8qqR0bvVWtABPgMFDgIdhAYH2tE1_NRAl4EhDWZSi5841Z8FDFc27bhBl4GhTXYPftSqPqPHOQDRn1iTm0lR4msA
p108
sVwidth
p109
I1000
sVhtml_attributions
p110
(lp111
V<a href="https://maps.google.com/maps/contrib/112013237651778978627/photos">Yield</a>
p112
asVheight
p113
I722
sa(dp114
Vphoto_reference
p115
VCmRdAAAAe3VpbQfnHwKCas4Juz6mC-JkkLtz2vvioU0hUSNpltRHeUkHPUTx-2hC_ziAsBmw0RAy7GBMj_kmtDOUccPu8DGIjRY4p2DjNoCB09SnM5gIhaTsB43AhMsG-_eNODwbEhDm1VFA-HTT_yE9K_ccB4kzGhQQsCkloFVK1NPEVQ46C1y0Y2S0wA
p116
sVwidth
p117
I1224
sVhtml_attributions
p118
(lp119
V<a href="https://maps.google.com/maps/contrib/102538905206519918173/photos">Andy Bohm</a>
p120
asVheight
p121
I1632
sa(dp122
Vphoto_reference
p123
VCmRdAAAAgvancbO1vA02cZTx3nRuuUVns8JA5N1SqKWiLCC4d6haGfzhnYslf-kwDEVmAEzqXrEQxRhK1OfUBn2aOk2GSqnHQZSgtoBnVlNIdo3xsIrUbfjTc00jMXoHQGEipMEfEhDsVTczKf4foIfNeeUxCLwnGhS-5y5V5pmDLjyKqt-1igYF4RjuLg
p124
sVwidth
p125
I542
sVhtml_attributions
p126
(lp127
V<a href="https://maps.google.com/maps/contrib/106917048087575222520/photos">Francesca Harris</a>
p128
asVheight
p129
I720
sa(dp130
Vphoto_reference
p131
VCmRdAAAA47zydijM97cA_0OByoLQiCb7wusLFTBoqX-8xXNtcJhBx5_v5CgziQ1xaj7pXyIcZxwLuqLoryNuLh_kDO9fDa7A8s7ZC3CuiO0QMFH3BkLUk2vdAfQpjBDqC-iCfH2hEhCIcZcXztH8ot8Kv1_mnYRDGhSfTjX7Bc0rIcwJ4i0TK1xBh8lSPg
p132
sVwidth
p133
I1000
sVhtml_attributions
p134
(lp135
V<a href="https://maps.google.com/maps/contrib/112013237651778978627/photos">Yield</a>
p136
asVheight
p137
I666
sa(dp138
Vphoto_reference
p139
VCmRdAAAA4hMKmtZ9k9twN2qiyRts1d44Sr_2__lycNArVpNnlOy1jh9xvKdyB1fwLRPnOgL50WqHMhQ6Jmc7EZa0UginEJ0VMs_CKEDK0ZBi54Sk5xpYeZmOgTTMCqpdBmooDosaEhBZ4298CZpBgWg--zAZccTRGhQ-byBbZzdTQ7Msdk0hUKbGISMy9Q
p140
sVwidth
p141
I960
sVhtml_attributions
p142
(lp143
V<a href="https://maps.google.com/maps/contrib/106917048087575222520/photos">Francesca Harris</a>
p144
asVheight
p145
I960
sa(dp146
Vphoto_reference
p147
VCmRdAAAA7aOVaVsm8Tlk0iEQZMgBmthJ3zVJO4wtlgETxMcyNNN8FuuyuS3CiYZVuVEtHSfeTDQzsvKfkormdMQto-JQkZ7JZIQMPs683TJTRhe-iD6jMH4hNTwJv4m2BkkyBGXPEhAvhsk92KznycofPRfoeDn3GhTevm1CCWNBO-M90ZP2P0-sekIBhQ
p148
sVwidth
p149
I720
sVhtml_attributions
p150
(lp151
V<a href="https://maps.google.com/maps/contrib/106917048087575222520/photos">Francesca Harris</a>
p152
asVheight
p153
I452
sa(dp154
Vphoto_reference
p155
VCmRdAAAAFfpjAWGcpQo_1Mo9T3onYn6eHVRAiShOBWtjxxeW77UqyjJyATMUilef6P1ERb8JDy0ehCCAImnqgep9sqs1DqY3UkV3esocLnDCMXMN6lcy88JRi90ttRGlRcfH8-SFEhCE3inkmPZ11Zk8H7JeTAAQGhS3Lv33WE6qxnaBPeVMtikZqlh1lw
p156
sVwidth
p157
I960
sVhtml_attributions
p158
(lp159
V<a href="https://maps.google.com/maps/contrib/106917048087575222520/photos">Francesca Harris</a>
p160
asVheight
p161
I960
sa(dp162
Vphoto_reference
p163
VCmRdAAAANdblx2mYye2DoqqZD6NNPrvu-pTFC3rSKYN_sNcztTVPbzMdxijIuz37HLPTcbBj5_h5jdDl_hMtIdgYLFsJiyZDBCXm_tSxFIwUFuybvSPOOXBcHKnEhDhI0dMa_H_lEhDm8v98UpGdaI-F-v7Jkv6bGhQuIQyJqzvU6JV_OGXaZc_zwEWzrg
p164
sVwidth
p165
I1073
sVhtml_attributions
p166
(lp167
V<a href="https://maps.google.com/maps/contrib/112013237651778978627/photos">Yield</a>
p168
asVheight
p169
I803
sa(dp170
Vphoto_reference
p171
VCmRdAAAAAJRdyKWtbPiBmVk4SYGUkmvMeiRUVzuAJmSNuWljPyVi0QqOZ1DtxmWdlTJpXNd1-0q_wmSCnSpZZnfMyNeuJPJKo1UKN48tzhE2RfDaqXXc0yDuFZ3wsbqJ0GZ4TVhzEhDGDM33MG1Jn-pGvLPQii86GhSIGzAmD-kwLINtq14_K612LdfJHw
p172
sVwidth
p173
I1296
sVhtml_attributions
p174
(lp175
V<a href="https://maps.google.com/maps/contrib/100942336003500220760/photos">Anas Qtiesh</a>
p176
asVheight
p177
I972
sa(dp178
Vphoto_reference
p179
VCmRdAAAAGss06rvNPlJ6O8BptERPkou1O0wJoVT56o0SE_d8xa1Y7zBvvs4ju2hof-13o6QeB9FyBYEq-qvDhv-6A_ivqfTRdvu8YEeTgEPG-lH8XC8H3xnOB2A4d5TYNQ7J1APPEhDi7BkUbKGx7Yls4X9MwJpJGhTlxlVoohsochx-oO-IpjpnnpwIeQ
p180
sVwidth
p181
I1000
sVhtml_attributions
p182
(lp183
V<a href="https://maps.google.com/maps/contrib/112013237651778978627/photos">Yield</a>
p184
asVheight
p185
I722
sasVtypes
p186
(lp187
Vbar
p188
aVfood
p189
aVpoint_of_interest
p190
aVestablishment
p191
asVicon
p192
Vhttps://maps.gstatic.com/mapfiles/place_api/icons/bar-71.png
p193
sVname
p194
VYield
p195
sVgeometry
p196
(dp197
Vaccess_points
p198
(lp199
(dp200
Vtravel_modes
p201
(lp202
VDRIVING
p203
aVBICYCLING
p204
aVWALKING
p205
aVTRANSIT
p206
asVlocation
p207
(dp208
Vlat
p209
g3
(S'37.7580969'
tRp210
sVlng
p211
g3
(S'-122.3884206'
tRp212
ssasVlocation
p213
(dp214
Vlat
p215
g3
(S'37.75822429999999'
tRp216
sVlng
p217
g3
(S'-122.3886407'
tRp218
sssVadr_address
p219
V<span class="street-address">2490 3rd St</span>, <span class="locality">San Francisco</span>, <span class="region">CA</span> <span class="postal-code">94107-3111</span>, <span class="country-name">United States</span>
p220
sVinternational_phone_number
p221
V+1 415-401-8984
p222
sVreviews
p223
(lp224
(dp225
Vrating
p226
I4
sVaspects
p227
(lp228
(dp229
Vrating
p230
I2
sVtype
p231
Voverall
p232
sasVprofile_photo_url
p233
V//lh5.googleusercontent.com/-gIVufFYgVTQ/AAAAAAAAAAI/AAAAAAAAARA/aGmUcxkHIaI/photo.jpg
p234
sVlanguage
p235
Ven
p236
sVtext
p237
VGreat place in DogPatch! Good happy hour specials on half carafes and $1 off apps. We loved the warm artichoke dip and bathed in the smell of garlic flatbread the entire time. A definite stop!
p238
sVauthor_name
p239
VAustin Leonard
p240
sVauthor_url
p241
Vhttps://plus.google.com/109175703244011133051
p242
sVtime
p243
I1457748872
sa(dp244
Vrating
p245
I4
sVaspects
p246
(lp247
(dp248
Vrating
p249
I2
sVtype
p250
Voverall
p251
sasVprofile_photo_url
p252
V//lh4.googleusercontent.com/-c_zq3oC-IdI/AAAAAAAAAAI/AAAAAAAAABo/bHJz17YQclU/photo.jpg
p253
sVlanguage
p254
Ven
p255
sVtext
p256
VLove this place! Whenever I come to San Francisco is a must do. The wine selection is very bast and very good taste. I love the sampler but specially the frog leap. Sandwiches are good too I had the pork belly with peanut butter it was really good though I don't like fat in my food this sandwich is good. This place is worth to visit.
p257
sVauthor_name
p258
VJesse Gray
p259
sVauthor_url
p260
Vhttps://plus.google.com/114371905766658317489
p261
sVtime
p262
I1451366491
sa(dp263
Vrating
p264
I2
sVaspects
p265
(lp266
(dp267
Vrating
p268
I0
sVtype
p269
Voverall
p270
sasVprofile_photo_url
p271
V//lh5.googleusercontent.com/-5q_u4II9oyo/AAAAAAAAAAI/AAAAAAAABw0/OQpB4rsAvlg/photo.jpg
p272
sVlanguage
p273
Ven
p274
sVtext
p275
VWine was fine but waited over 40 minutes for a simple cheese plate. Only 1 person working on a Saturday night, why? Finally told him forget the cheese, we'll go somewhere else. Won't be back.
p276
sVauthor_name
p277
VKayla Michael
p278
sVauthor_url
p279
Vhttps://plus.google.com/110064258269397167857
p280
sVtime
p281
I1429412479
sa(dp282
Vrating
p283
I5
sVaspects
p284
(lp285
(dp286
Vrating
p287
I3
sVtype
p288
Voverall
p289
sasVprofile_photo_url
p290
V//lh5.googleusercontent.com/-LrQpx-4GPcg/AAAAAAAAAAI/AAAAAAAEK8s/SLwxviL3hLI/photo.jpg
p291
sVlanguage
p292
Ven
p293
sVtext
p294
VIt's going into a wine bar and feeling comfortable. This isn't a place that's going to make you feel bad for asking about wines either. They know it's a casual joint with some great wine and that's exactly what makes it so attractive. A good place to come after a day at work to chill.
p295
sVauthor_name
p296
VCarter Gibson
p297
sVauthor_url
p298
Vhttps://plus.google.com/115121555137256496805
p299
sVtime
p300
I1359678066
sa(dp301
Vrating
p302
I5
sVaspects
p303
(lp304
(dp305
Vrating
p306
I3
sVtype
p307
Voverall
p308
sasVprofile_photo_url
p309
V//lh3.googleusercontent.com/-K9pi74XySdY/AAAAAAAAAAI/AAAAAAAACwU/cQH6iAcjDSY/photo.jpg
p310
sVlanguage
p311
Ven
p312
sVtext
p313
VGreat wine bar if you're in the area
p314
sVauthor_name
p315
Vrene van Erk
p316
sVauthor_url
p317
Vhttps://plus.google.com/104390562267798148202
p318
sVtime
p319
I1449440377
sasVformatted_phone_number
p320
V(415) 401-8984
p321
sVaddress_components
p322
(lp323
(dp324
Vlong_name
p325
V2490
p326
sVtypes
p327
(lp328
Vstreet_number
p329
asVshort_name
p330
V2490
p331
sa(dp332
Vlong_name
p333
V3rd Street
p334
sVtypes
p335
(lp336
Vroute
p337
asVshort_name
p338
V3rd St
p339
sa(dp340
Vlong_name
p341
VSan Francisco
p342
sVtypes
p343
(lp344
Vlocality
p345
aVpolitical
p346
asVshort_name
p347
VSF
p348
sa(dp349
Vlong_name
p350
VCalifornia
p351
sVtypes
p352
(lp353
Vadministrative_area_level_1
p354
aVpolitical
p355
asVshort_name
p356
VCA
p357
sa(dp358
Vlong_name
p359
VUnited States
p360
sVtypes
p361
(lp362
Vcountry
p363
aVpolitical
p364
asVshort_name
p365
VUS
p366
sa(dp367
Vlong_name
p368
V94107
p369
sVtypes
p370
(lp371
Vpostal_code
p372
asVshort_name
p373
V94107
p374
sa(dp375
Vlong_name
p376
V3111
p377
sVtypes
p378
(lp379
Vpostal_code_suffix
p380
asVshort_name
p381
V3111
p382
sas.