(dp1
Vrating
p2
cdecimal
Decimal
p3
(S'4.4'
tRp4
sVreference
p5
VCmRbAAAA6-Buho3kz2G78nCdOWKiFJrFyLek3FZW0Bk8LCbIj6ZWGZwm7Q6ef7S5oegmkFtayCewMEIS58boQ58PJEso4yUZOqtvlMtcCqvgrbSEuACXg-_MWdqcx2DNHg38OUKJEhAzHpCjGOQFgEY2E6LAyOIlGhSV_EPjMGSMadfotqPRTEqSv9dN8Q
p6
sVprice_level
p7
I1
sVplace_id
p8
VChIJZZ4z1uiAhYARd8dViRfgjH8
p9
sVurl
p10
Vhttps://maps.google.com/?cid=9190967331249309559
p11
sVformatted_address
p12
V1919 Hyde St, San Francisco, CA 94109, United States
p13
sVid
p14
V61d5586a6d4c8338ecbe0be17b48697cfd5a75d7
p15
sVopening_hours
p16
(dp17
Vweekday_text
p18
(lp19
VMonday: 12:00 \u2013 10:00 PM
p20
aVTuesday: 12:00 \u2013 10:00 PM
p21
aVWednesday: 12:00 \u2013 10:00 PM
p22
aVThursday: 12:00 \u2013 11:00 PM
p23
aVFriday: 12:00 \u2013 11:00 PM
p24
aVSaturday: 12:00 \u2013 11:00 PM
p25
aVSunday: 12:00 \u2013 10:00 PM
p26
asVopen_now
p27
I01
sVperiods
p28
(lp29
(dp30
Vclose
p31
(dp32
Vday
p33
I0
sVtime
p34
V2200
p35
ssVopen
p36
(dp37
Vday
p38
I0
sVtime
p39
V1200
p40
ssa(dp41
Vclose
p42
(dp43
Vday
p44
I1
sVtime
p45
V2200
p46
ssVopen
p47
(dp48
Vday
p49
I1
sVtime
p50
V1200
p51
ssa(dp52
Vclose
p53
(dp54
Vday
p55
I2
sVtime
p56
V2200
p57
ssVopen
p58
(dp59
Vday
p60
I2
sVtime
p61
V1200
p62
ssa(dp63
Vclose
p64
(dp65
Vday
p66
I3
sVtime
p67
V2200
p68
ssVopen
p69
(dp70
Vday
p71
I3
sVtime
p72
V1200
p73
ssa(dp74
Vclose
p75
(dp76
Vday
p77
I4
sVtime
p78
V2300
p79
ssVopen
p80
(dp81
Vday
p82
I4
sVtime
p83
V1200
p84
ssa(dp85
Vclose
p86
(dp87
Vday
p88
I5
sVtime
p89
V2300
p90
ssVopen
p91
(dp92
Vday
p93
I5
sVtime
p94
V1200
p95
ssa(dp96
Vclose
p97
(dp98
Vday
p99
I6
sVtime
p100
V2300
p101
ssVopen
p102
(dp103
Vday
p104
I6
sVtime
p105
V1200
p106
ssassVvicinity
p107
V1919 Hyde Street, San Francisco
p108
sVscope
p109
VGOOGLE
p110
sVwebsite
p111
Vhttp://zapizzasf.com/
p112
sVutc_offset
p113
I-420
sVuser_ratings_total
p114
I123
sVphotos
p115
(lp116
(dp117
Vphoto_reference
p118
VCmRdAAAAsSGml2-0osJ9_7jQcxviOX4sS2_ijRU0MpQOExdbSxwcxXJzwq3KUZLtkBhDuDErcW5mqL-tPKtmaUwVT3lnn_xu2X0a_Asif5tVdTlG4bQDL2PMQImdxhA6qrl6lyrEEhAl6qzyL9nH1NzJ1qBf8rOaGhSk2KXp2VK8qqF6HpHGI-rENb20ng
p119
sVwidth
p120
I1779
sVhtml_attributions
p121
(lp122
V<a href="https://maps.google.com/maps/contrib/113256681836649808083/photos">Keira Chu</a>
p123
asVheight
p124
I3023
sa(dp125
Vphoto_reference
p126
VCmRdAAAAcv_7Ik4h2oZCcIhfvitYp80Cd11T3cuSSf5U98MsxGd_p4bCRD_gK8zxPzw3DyZ53ZEXCc39FyTPg0KZLTLYLU1PFV7ptV--M6wyLsDGB_3gHd4MgdP6CNUuy43uM4dyEhA9ymP6of8pAR8SkMnt9Fk6GhQIPiKRIw1GjQ9ESy3IqEXyezOn1g
p127
sVwidth
p128
I2448
sVhtml_attributions
p129
(lp130
V<a href="https://maps.google.com/maps/contrib/117435530388223357664/photos">Julia Zasyatkina</a>
p131
asVheight
p132
I3264
sa(dp133
Vphoto_reference
p134
VCmRdAAAA35fgPSLIZUrHdC7Oo1O-9AaYUt1GkP5Z39OtVu-j_EGgDedNiswfm94qWsxGBY_ldi_Rd4zCI_jWV1NELSH8sWOfY1q5bTW0_2eOGMX9bOba23cbnW0jX7u8vV6C3qEqEhA5bKpurHAykbTIb9-JymVuGhRv5yZ1Mqvcb-z85n8Dqab4a3Tp3A
p135
sVwidth
p136
I1000
sVhtml_attributions
p137
(lp138
V<a href="https://maps.google.com/maps/contrib/118090958098579951709/photos">Za Pizza</a>
p139
asVheight
p140
I1400
sasVtypes
p141
(lp142
Vrestaurant
p143
aVfood
p144
aVpoint_of_interest
p145
aVestablishment
p146
asVicon
p147
Vhttps://maps.gstatic.com/mapfiles/place_api/icons/restaurant-71.png
p148
sVname
p149
VZa Pizza
p150
sVgeometry
p151
(dp152
Vaccess_points
p153
(lp154
(dp155
Vtravel_modes
p156
(lp157
VDRIVING
p158
aVBICYCLING
p159
aVWALKING
p160
aVTRANSIT
p161
asVlocation
p162
(dp163
Vlat
p164
g3
(S'37.7985677'
tRp165
sVlng
p166
g3
(S'-122.4189766'
tRp167
ssasVlocation
p168
(dp169
Vlat
p170
g3
(S'37.7985452'
tRp171
sVlng
p172
g3
(S'-122.4191528'
tRp173
sssVadr_address
p174
V<span class="street-address">1919 Hyde St</span>, <span class="locality">San Francisco</span>, <span class="region">CA</span> <span class="postal-code">94109</span>, <span class="country-name">United States</span>
p175
sVinternational_phone_number
p176
V+1 415-771-3100
p177
sVreviews
p178
(lp179
(dp180
Vrating
p181
I5
sVaspects
p182
(lp183
(dp184
Vrating
p185
I3
sVtype
p186
Voverall
p187
sasVprofile_photo_url
p188
V//lh5.googleusercontent.com/-k11NHL4--vM/AAAAAAAAAAI/AAAAAAAABls/tW8wVFzxECE/photo.jpg
p189
sVlanguage
p190
Ven
p191
sVtext
p192
V4 peeps - the wife and I and the two girls, 5 and 9 years old. Damn big pizza, got the large, 1/2 pepperoni and 1/2 specialty (some goat cheese,\u000aDried tomatoes or whatever) - $24. Super filling - took 1/2 back to the hotel! If you're a cool parent, walk one block up to Swensens Ice Cream Parlor and buy them whatever they want::/totally recommend the waffle sundae for $6!
p193
sVauthor_name
p194
VMike Bowers
p195
sVauthor_url
p196
Vhttps://plus.google.com/117249796240030723313
p197
sVtime
p198
I1458878514
sa(dp199
Vrating
p200
I5
sVaspects
p201
(lp202
(dp203
Vrating
p204
I3
sVtype
p205
Voverall
p206
sasVprofile_photo_url
p207
V//lh5.googleusercontent.com/-bwhIn_ka59c/AAAAAAAAAAI/AAAAAAAAAI4/KPVWCLj4-bY/photo.jpg
p208
sVlanguage
p209
Ven
p210
sVtext
p211
V5 stars (absolute best!!) for \u000a- the pizza (delicious unique combinations such as potato+gourmet cheese+garlic!!)\u000a- the service (kudos to Brook and his team!)\u000a- the lovely homey atmosphere\u000a\u000a25 years in the neighborhood - thank you.
p212
sVauthor_name
p213
VKeira Chu
p214
sVauthor_url
p215
Vhttps://plus.google.com/113256681836649808083
p216
sVtime
p217
I1456104584
sa(dp218
Vrating
p219
I1
sVaspects
p220
(lp221
(dp222
Vrating
p223
I0
sVtype
p224
Voverall
p225
sasVlanguage
p226
Ven
p227
sVtext
p228
VWhy have a delivery option if none of the employees want to deliver? Their pizza is good, but their service is just horrible. I was placed on hold twice, for over 7 minutes, when trying to place an order for delivery. When I called an employee answered the phone asking me to please hold. After a few minutes the employee picks up the phone and asks how they can help. I then requested to place an order for delivery and the employee proceeded to place me on hold again. After waiting a few minutes on hold, again, I just decided to hang up.
p229
sVauthor_name
p230
VAkil Johnson
p231
sVauthor_url
p232
Vhttps://plus.google.com/100174016895545738551
p233
sVtime
p234
I1458179025
sa(dp235
Vrating
p236
I5
sVaspects
p237
(lp238
(dp239
Vrating
p240
I3
sVtype
p241
Voverall
p242
sasVprofile_photo_url
p243
V//lh4.googleusercontent.com/-IoJHP-E71Zg/AAAAAAAAAAI/AAAAAAAAUTo/XENtXo4-eAU/photo.jpg
p244
sVlanguage
p245
Ven
p246
sVtext
p247
VStopped here to have a drink while we waited for a table at another restaurant. James was awesome to say the least. His kind and happy demeanor was genuine and made this short stop pleasant. We also tried the pizza and it was delicious! 
p248
sVauthor_name
p249
VOmar Cosio
p250
sVauthor_url
p251
Vhttps://plus.google.com/113955335596449417376
p252
sVtime
p253
I1447474034
sa(dp254
Vrating
p255
I5
sVaspects
p256
(lp257
(dp258
Vrating
p259
I3
sVtype
p260
Voverall
p261
sasVlanguage
p262
Ven
p263
sVtext
p264
VHad an awesome time. Great ambience and awesome service and pizza!  Super friendly workers.  Will be back! 
p265
sVauthor_name
p266
VScott Immel
p267
sVauthor_url
p268
Vhttps://plus.google.com/109410418458271277210
p269
sVtime
p270
I1455420163
sasVformatted_phone_number
p271
V(415) 771-3100
p272
sVaddress_components
p273
(lp274
(dp275
Vlong_name
p276
V1919
p277
sVtypes
p278
(lp279
Vstreet_number
p280
asVshort_name
p281
V1919
p282
sa(dp283
Vlong_name
p284
VHyde Street
p285
sVtypes
p286
(lp287
Vroute
p288
asVshort_name
p289
VHyde St
p290
sa(dp291
Vlong_name
p292
VSan Francisco
p293
sVtypes
p294
(lp295
Vlocality
p296
aVpolitical
p297
asVshort_name
p298
VSF
p299
sa(dp300
Vlong_name
p301
VCalifornia
p302
sVtypes
p303
(lp304
Vadministrative_area_level_1
p305
aVpolitical
p306
asVshort_name
p307
VCA
p308
sa(dp309
Vlong_name
p310
VUnited States
p311
sVtypes
p312
(lp313
Vcountry
p314
aVpolitical
p315
asVshort_name
p316
VUS
p317
sa(dp318
Vlong_name
p319
V94109
p320
sVtypes
p321
(lp322
Vpostal_code
p323
asVshort_name
p324
V94109
p325
sas.