(dp1
Vrating
p2
cdecimal
Decimal
p3
(S'4.3'
tRp4
sVreference
p5
VCmRdAAAAb15EKXgKQxL0Cs_QWBeFmGu03JtWeL9tCzEzuVgzhcGZ64PyEO8lXXGIxwLvkg26K1_fZ9hYwL9IG2hV4WdX8hfEnccUm_KEER6jH4bgsR6LXTcMtZDUwDBAH5NHTb4gEhCMd7rHFaOQsSUoDEYwa74cGhSyflSfOSGy_DClDxS9QjSBwbHCHw
p6
sVplace_id
p7
VChIJ-VtspYCAhYAR1NlEgy5ye6o
p8
sVurl
p9
Vhttps://maps.google.com/?cid=12284537952679549396
p10
sVformatted_address
p11
V826 Folsom St, San Francisco, CA 94107, United States
p12
sVid
p13
Vc3a4e204f9e28725fbbac90b6a0ffa67ba4bfe22
p14
sVopening_hours
p15
(dp16
Vweekday_text
p17
(lp18
VMonday: 11:30 AM \u2013 10:00 PM
p19
aVTuesday: 11:30 AM \u2013 10:00 PM
p20
aVWednesday: 11:30 AM \u2013 10:00 PM
p21
aVThursday: 11:30 AM \u2013 10:00 PM
p22
aVFriday: 11:30 AM \u2013 11:00 PM
p23
aVSaturday: 11:30 AM \u2013 11:00 PM
p24
aVSunday: 11:30 AM \u2013 10:00 PM
p25
asVopen_now
p26
I01
sVperiods
p27
(lp28
(dp29
Vclose
p30
(dp31
Vday
p32
I0
sVtime
p33
V2200
p34
ssVopen
p35
(dp36
Vday
p37
I0
sVtime
p38
V1130
p39
ssa(dp40
Vclose
p41
(dp42
Vday
p43
I1
sVtime
p44
V2200
p45
ssVopen
p46
(dp47
Vday
p48
I1
sVtime
p49
V1130
p50
ssa(dp51
Vclose
p52
(dp53
Vday
p54
I2
sVtime
p55
V2200
p56
ssVopen
p57
(dp58
Vday
p59
I2
sVtime
p60
V1130
p61
ssa(dp62
Vclose
p63
(dp64
Vday
p65
I3
sVtime
p66
V2200
p67
ssVopen
p68
(dp69
Vday
p70
I3
sVtime
p71
V1130
p72
ssa(dp73
Vclose
p74
(dp75
Vday
p76
I4
sVtime
p77
V2200
p78
ssVopen
p79
(dp80
Vday
p81
I4
sVtime
p82
V1130
p83
ssa(dp84
Vclose
p85
(dp86
Vday
p87
I5
sVtime
p88
V2300
p89
ssVopen
p90
(dp91
Vday
p92
I5
sVtime
p93
V1130
p94
ssa(dp95
Vclose
p96
(dp97
Vday
p98
I6
sVtime
p99
V2300
p100
ssVopen
p101
(dp102
Vday
p103
I6
sVtime
p104
V1130
p105
ssassVvicinity
p106
V826 Folsom Street, San Francisco
p107
sVscope
p108
VGOOGLE
p109
sVwebsite
p110
Vhttp://www.zerozerosf.com/
p111
sVutc_offset
p112
I-420
sVuser_ratings_total
p113
I296
sVphotos
p114
(lp115
(dp116
Vphoto_reference
p117
VCmRdAAAAyMwwmcsohb5CinkFUTbZ4xFeXvSYsaXC5WMPoQZXR-9ifkCuaGNZ3lpxTpnIPzN8k-cg3GO20rbm_ymP40YrEtiL91308E7P2AzKOwS4n5JPFd5wepEnPEVIqxMSh1YdEhD_Tc1iINs3NOV8uvorHUYNGhSk7DTwtEYqChgRgdUvTXipQAm0pg
p118
sVwidth
p119
I4608
sVhtml_attributions
p120
(lp121
V<a href="https://maps.google.com/maps/contrib/108320224573839197933/photos">Randy F.</a>
p122
asVheight
p123
I3456
sa(dp124
Vphoto_reference
p125
VCmRdAAAAqsN6piAHYat-_RZ0qgbVfE3yKej_xG1o53lppvqMMdnr_EbH7QZPmI3IygCZmSA3oA9Clgy02UuL3TAgKCZ2Bq5o99wAlZtkhWqYkXR8yMPedB6qChbCN58Q0v_2KoyCEhB93MYJ9VOTq0h7TCapbQZvGhRdRYwF3ysMtFF-PdfK_IQEW2jyNw
p126
sVwidth
p127
I4608
sVhtml_attributions
p128
(lp129
V<a href="https://maps.google.com/maps/contrib/108320224573839197933/photos">Randy F.</a>
p130
asVheight
p131
I3456
sa(dp132
Vphoto_reference
p133
VCoQBcwAAAJEAKIzJfflhNBjMvXoFl2McE7WOQJs8IEP_Ljra5A9HfwYwv1Y4ARM6EIxzlu4xQOmbdjiYBhH9wpw8rTImhNceNIPWLU9SSqq9V-F22bE-YJ_JuibA-HS7onSn52TqssXO4hXrk1693lg9XzGvDEJJijkGsD8ShXGdllFWyYUTEhDivxL8UT5qo4WywU805clxGhR6VFUgN9OJorEdPSkkcS_D3INOzg
p134
sVwidth
p135
I5312
sVhtml_attributions
p136
(lp137
V<a href="https://maps.google.com/maps/contrib/108529657785061100655/photos">Irene Yang</a>
p138
asVheight
p139
I2988
sa(dp140
Vphoto_reference
p141
VCmRdAAAA6L70kkMVkKRk0lSxwjQKWxDdvLiRBK2TQKlf12qdWCFz7ljCRHeIOo1Hgkh4bLZ5MZzXZpjdKDxsXKDlBLc1Uv9N2Y8jqkimjooudK5qVaa9hh8R093SGteA_nTsVi-oEhD1J-S0XEZYQGv-Liq1T9CiGhQUHKf2HTeLZnbJsezN_On8MFedCg
p142
sVwidth
p143
I1536
sVhtml_attributions
p144
(lp145
V<a href="https://maps.google.com/maps/contrib/106170335079428053302/photos">Corrie Davidson</a>
p146
asVheight
p147
I2048
sa(dp148
Vphoto_reference
p149
VCoQBdwAAAHfSBa_xMpXrkqPh8F72es9qXIfrBDrgywziFSbtN27ZTfLOaJ2Pa0zZOwwcZtLJ4KNRqQ95DvDXSw7hBZBQFp7DZZQUlGIgcube6qSQ8N9jcw_qpiZX0P5ILIHYiqSDBKnq1dnmn6CRPvHOtmDS_SuX97rc1nfXPynig7JKY7CPEhAs7HsA5VJP8LR0Hy_alGObGhRi9wVVI76GHDRSTbBI7UaEzSIu2w
p150
sVwidth
p151
I4032
sVhtml_attributions
p152
(lp153
V<a href="https://maps.google.com/maps/contrib/108347904384031658715/photos">Ivan Yudhi</a>
p154
asVheight
p155
I3024
sa(dp156
Vphoto_reference
p157
VCmRdAAAAJstP3255UmP4UZYFD39FfGlifC24NmY_FBRII0lJDrthbQzZv-1LjwCY3Nbcdk9aEjbHW3rPajjwQL_ItSFl_xNIwJ9G9abnC2gsk6POG1138WaaRf3ozLblKwnYTfO0EhADHeQWXPuMeUlZ-vWxxdOlGhRoJKi5FT5v4OqrusN5QBiokAl-Tg
p158
sVwidth
p159
I4608
sVhtml_attributions
p160
(lp161
V<a href="https://maps.google.com/maps/contrib/108320224573839197933/photos">Randy F.</a>
p162
asVheight
p163
I3456
sa(dp164
Vphoto_reference
p165
VCoQBcwAAANL5_ZB2Zd-e2Rloom4i6c5bvsKfvmn3DCvkxsWI1SykqvId9UJvuxi2bNPqVcvy0M438-3BR4s8lW9VeJsJ11-wl0uBqJnKRQjlqc89b0tl3ljRY0Rj3-0KpJRRQL_CRNPRKkp51jyTz9n_zYfW7M-tB4ymyXne6EuS_MNdKMqyEhBrl-YZF-2R1l4WYXYuuXmXGhQxolFREPJdKS2Ia6i6LA09AfBqQQ
p166
sVwidth
p167
I5312
sVhtml_attributions
p168
(lp169
V<a href="https://maps.google.com/maps/contrib/112557743998517100647/photos">Steven Hunter</a>
p170
asVheight
p171
I2988
sa(dp172
Vphoto_reference
p173
VCoQBdwAAAAAb1Fi0Opq3nkO8ST6BSU96guDEidi-vgmKPIzBQCCe430KCXpFPigOes0Isojq9ADU8CQu3RtuSCKXsSmIjObLJBbKrO0RepoBc13Zm4MX3IE_wGM7P1oUGDex1oa9g1ierfK0tFmPctSRAjHgJh1DoG4APjghftFEoo5bvl_qEhAEYOm6F3yDNKhut2iEWVdfGhS_Lv7hUW6-o2G3Bn8AuZz1EtUCIA
p174
sVwidth
p175
I4032
sVhtml_attributions
p176
(lp177
V<a href="https://maps.google.com/maps/contrib/110111626473316068226/photos">Jeremy Shieh</a>
p178
asVheight
p179
I2268
sa(dp180
Vphoto_reference
p181
VCmRdAAAAwnPVBiPv1QyuMglrUf98xsbCN-X8C2yFsjFuKwVl6_ahyjZuItMVF6gSnRxR_i6zyHDUXyb7W4XSqu0bzNd3BNPkAzAyK-1c9qC-rYXCGRVvfGpbEUvNcA1bhOZbDSIDEhCTwSNLgRM4SN-qGm6ILpOcGhTM6aEIKXgZR5JpGGTkxjZ1TaAAzg
p182
sVwidth
p183
I960
sVhtml_attributions
p184
(lp185
V<a href="https://maps.google.com/maps/contrib/110458385176028395729/photos">Andrew Oplinger</a>
p186
asVheight
p187
I1280
sa(dp188
Vphoto_reference
p189
VCmRdAAAAsf4dYGqpnQn9FPmPWoO7HZQGQeLS_yvEveZ0qdGpaUE3vwsw7RilTnqPlGZQNm5xUc_8r7tJi_uxheWKMsbfyPLyHh8ROjGlzYCynt8jpL9gHikrspRlCDZkm3IMRmgBEhC1FL20Ig01YvMlfkJdZvu5GhQJYiXuPidzfJ4hH1MuyZY1YJcCNg
p190
sVwidth
p191
I1265
sVhtml_attributions
p192
(lp193
V<a href="https://maps.google.com/maps/contrib/101684759371052236980/photos">Don V</a>
p194
asVheight
p195
I949
sasVtypes
p196
(lp197
Vnight_club
p198
aVbar
p199
aVrestaurant
p200
aVfood
p201
aVpoint_of_interest
p202
aVestablishment
p203
asVicon
p204
Vhttps://maps.gstatic.com/mapfiles/place_api/icons/restaurant-71.png
p205
sVname
p206
VZero Zero
p207
sVgeometry
p208
(dp209
Vaccess_points
p210
(lp211
(dp212
Vtravel_modes
p213
(lp214
VDRIVING
p215
aVBICYCLING
p216
aVWALKING
p217
aVTRANSIT
p218
asVlocation
p219
(dp220
Vlat
p221
g3
(S'37.7815129'
tRp222
sVlng
p223
g3
(S'-122.4018597'
tRp224
ssasVlocation
p225
(dp226
Vlat
p227
g3
(S'37.7816139'
tRp228
sVlng
p229
g3
(S'-122.4019456'
tRp230
sssVadr_address
p231
V<span class="street-address">826 Folsom St</span>, <span class="locality">San Francisco</span>, <span class="region">CA</span> <span class="postal-code">94107</span>, <span class="country-name">United States</span>
p232
sVinternational_phone_number
p233
V+1 415-348-8800
p234
sVreviews
p235
(lp236
(dp237
Vrating
p238
I5
sVaspects
p239
(lp240
(dp241
Vrating
p242
I3
sVtype
p243
Voverall
p244
sasVprofile_photo_url
p245
V//lh6.googleusercontent.com/-O-PpvBRMGzs/AAAAAAAAAAI/AAAAAAAAGJ8/fjAC8uBOqb0/photo.jpg
p246
sVlanguage
p247
Ven
p248
sVtext
p249
VNice restaurant for pizza lover. Columbus and Castro were both great. And the staff was very friendly. Would definitely go there again.
p250
sVauthor_name
p251
VSarvar Tillabaev
p252
sVauthor_url
p253
Vhttps://plus.google.com/116840110168857443929
p254
sVtime
p255
I1461100744
sa(dp256
Vrating
p257
I4
sVaspects
p258
(lp259
(dp260
Vrating
p261
I2
sVtype
p262
Voverall
p263
sasVprofile_photo_url
p264
V//lh5.googleusercontent.com/-NkQuqkClw0A/AAAAAAAAAAI/AAAAAAAAFEM/EnOHgKVWnAw/photo.jpg
p265
sVlanguage
p266
Ven
p267
sVtext
p268
VOn the pricier side but the food is awesome. I went for brunch on a Saturday, wasn't hard to get a reservation. For drinks I got a peach soda and it was super refreshing. I've seen many other yelp reviewers of this place recommend it and they were definitely right about it. \u000a\u000aAs for appetizer, we got the hamachi tartare. Highly recommend it. It was nicely seasoned/dressed and really opens up your appetite. Next we got the trout salad and asked for a poached egg to put on top. the poached egg isn't on the menu but the waitress recommended it. She was right - the egg tied the whole dish together and allowed the salad dressing to cling onto the veges even better. Lastly, getting a pizza was a must. We got the pizza with prosciutto and mushrooms. I'd come back again soon to try some of the other dishes!
p269
sVauthor_name
p270
VRohenne Lee
p271
sVauthor_url
p272
Vhttps://plus.google.com/105603284385958429156
p273
sVtime
p274
I1461532924
sa(dp275
Vrating
p276
I5
sVaspects
p277
(lp278
(dp279
Vrating
p280
I3
sVtype
p281
Voverall
p282
sasVprofile_photo_url
p283
V//lh5.googleusercontent.com/-6FEGQr5YNh0/AAAAAAAAAAI/AAAAAAAAIYw/rOm6PyV4SDE/photo.jpg
p284
sVlanguage
p285
Ven
p286
sVtext
p287
VGreat pizza and tapas selection! If you are in SOMA this is a neat spot for dinner. Nice spot to go with a small group of friends or casual/relaxed date.
p288
sVauthor_name
p289
VAdriana Olmos
p290
sVauthor_url
p291
Vhttps://plus.google.com/117757482227220001220
p292
sVtime
p293
I1461369477
sa(dp294
Vrating
p295
I4
sVaspects
p296
(lp297
(dp298
Vrating
p299
I2
sVtype
p300
Voverall
p301
sasVlanguage
p302
Ven
p303
sVtext
p304
VHad the spaghetti amatriciana to go. Was good, liked the done-ness of the noodles, and the pancetta went well with the sauce. Tasted fresh but didn't ask if they make their own noodles/sauce. Price was reasonable, portions were alright. Waiting to go back again before deciding if it's a 5 star. 
p305
sVauthor_name
p306
VLeon Lin
p307
sVauthor_url
p308
Vhttps://plus.google.com/103299504307574664914
p309
sVtime
p310
I1457937989
sa(dp311
Vrating
p312
I5
sVaspects
p313
(lp314
(dp315
Vrating
p316
I3
sVtype
p317
Voverall
p318
sasVprofile_photo_url
p319
V//lh3.googleusercontent.com/-NNMRcLoLhvM/AAAAAAAAAAI/AAAAAAAAEdI/z0eQot_e2tI/photo.jpg
p320
sVlanguage
p321
Ven
p322
sVtext
p323
VPerfect dining experience. Delicious food and friendly staff. You should try the Margherit di Bufala(!!)
p324
sVauthor_name
p325
VChris Prestel
p326
sVauthor_url
p327
Vhttps://plus.google.com/116534086504865764750
p328
sVtime
p329
I1456204842
sasVformatted_phone_number
p330
V(415) 348-8800
p331
sVaddress_components
p332
(lp333
(dp334
Vlong_name
p335
V826
p336
sVtypes
p337
(lp338
Vstreet_number
p339
asVshort_name
p340
V826
p341
sa(dp342
Vlong_name
p343
VFolsom Street
p344
sVtypes
p345
(lp346
Vroute
p347
asVshort_name
p348
VFolsom St
p349
sa(dp350
Vlong_name
p351
VSan Francisco
p352
sVtypes
p353
(lp354
Vlocality
p355
aVpolitical
p356
asVshort_name
p357
VSF
p358
sa(dp359
Vlong_name
p360
VCalifornia
p361
sVtypes
p362
(lp363
Vadministrative_area_level_1
p364
aVpolitical
p365
asVshort_name
p366
VCA
p367
sa(dp368
Vlong_name
p369
VUnited States
p370
sVtypes
p371
(lp372
Vcountry
p373
aVpolitical
p374
asVshort_name
p375
VUS
p376
sa(dp377
Vlong_name
p378
V94107
p379
sVtypes
p380
(lp381
Vpostal_code
p382
asVshort_name
p383
V94107
p384
sas.